ARM GAS  /tmp/cctMlxuH.s 			page 1


   1              		.syntax unified
   2              		.cpu cortex-m3
   3              		.fpu softvfp
   4              		.eabi_attribute 20, 1
   5              		.eabi_attribute 21, 1
   6              		.eabi_attribute 23, 3
   7              		.eabi_attribute 24, 1
   8              		.eabi_attribute 25, 1
   9              		.eabi_attribute 26, 1
  10              		.eabi_attribute 30, 2
  11              		.eabi_attribute 34, 1
  12              		.eabi_attribute 18, 4
  13              		.thumb
  14              		.file	"atmel_twid.c"
  15              		.text
  16              	.Ltext0:
  17              		.cfi_sections	.debug_frame
  18              		.section	.text.TWID_Initialize,"ax",%progbits
  19              		.align	2
  20              		.p2align 4,,15
  21              		.global	TWID_Initialize
  22              		.thumb
  23              		.thumb_func
  24              		.type	TWID_Initialize, %function
  25              	TWID_Initialize:
  26              	.LFB0:
  27              		.file 1 "../third_party/ChibiOS/os/hal/platforms/AT91SAM3S/atmel_twid.c"
  28              		.loc 1 78 0
  29              		.cfi_startproc
  30              		@ args = 0, pretend = 0, frame = 0
  31              		@ frame_needed = 0, uses_anonymous_args = 0
  32              		@ link register save eliminated.
  33              	.LVL0:
  34              		.loc 1 83 0
  35 0000 0023     		movs	r3, #0
  36 0002 80E80A00 		stmia	r0, {r1, r3}
  37 0006 7047     		bx	lr
  38              		.cfi_endproc
  39              	.LFE0:
  40              		.size	TWID_Initialize, .-TWID_Initialize
  41 0008 AFF30080 		.section	.text.TWID_Handler,"ax",%progbits
  41      AFF30080 
  42              		.align	2
  43              		.p2align 4,,15
  44              		.global	TWID_Handler
  45              		.thumb
  46              		.thumb_func
  47              		.type	TWID_Handler, %function
  48              	TWID_Handler:
  49              	.LFB1:
  50              		.loc 1 94 0
  51              		.cfi_startproc
  52              		@ args = 0, pretend = 0, frame = 0
  53              		@ frame_needed = 0, uses_anonymous_args = 0
  54              	.LVL1:
  55 0000 F8B5     		push	{r3, r4, r5, r6, r7, lr}
  56              		.cfi_def_cfa_offset 24
ARM GAS  /tmp/cctMlxuH.s 			page 2


  57              		.cfi_offset 3, -24
  58              		.cfi_offset 4, -20
  59              		.cfi_offset 5, -16
  60              		.cfi_offset 6, -12
  61              		.cfi_offset 7, -8
  62              		.cfi_offset 14, -4
  63              		.loc 1 100 0
  64 0002 0668     		ldr	r6, [r0]
  65              		.loc 1 99 0
  66 0004 4468     		ldr	r4, [r0, #4]
  67              	.LVL2:
  68              		.loc 1 94 0
  69 0006 0546     		mov	r5, r0
  70              		.loc 1 104 0
  71 0008 3046     		mov	r0, r6
  72              	.LVL3:
  73 000a FFF7FEFF 		bl	TWI_GetMaskedStatus
  74              	.LVL4:
  75              		.loc 1 107 0
  76 000e 8207     		lsls	r2, r0, #30
  77 0010 12D4     		bmi	.L18
  78              		.loc 1 125 0
  79 0012 10F00407 		ands	r7, r0, #4
  80 0016 0CD0     		beq	.L7
  81              		.loc 1 128 0
  82 0018 2369     		ldr	r3, [r4, #16]
  83 001a E268     		ldr	r2, [r4, #12]
  84 001c 9342     		cmp	r3, r2
  85 001e 2BD0     		beq	.L19
  86              		.loc 1 137 0
  87 0020 A268     		ldr	r2, [r4, #8]
  88 0022 3046     		mov	r0, r6
  89              	.LVL5:
  90 0024 D15C     		ldrb	r1, [r2, r3]	@ zero_extendqisi2
  91 0026 FFF7FEFF 		bl	TWI_WriteByte
  92              	.LVL6:
  93              		.loc 1 138 0
  94 002a 2369     		ldr	r3, [r4, #16]
  95 002c 0133     		adds	r3, r3, #1
  96 002e 2361     		str	r3, [r4, #16]
  97 0030 F8BD     		pop	{r3, r4, r5, r6, r7, pc}
  98              	.LVL7:
  99              	.L7:
 100              		.loc 1 142 0
 101 0032 C307     		lsls	r3, r0, #31
 102 0034 14D4     		bmi	.L20
 103              	.LVL8:
 104              	.L2:
 105 0036 F8BD     		pop	{r3, r4, r5, r6, r7, pc}
 106              	.LVL9:
 107              	.L18:
 108              		.loc 1 109 0
 109 0038 3046     		mov	r0, r6
 110              	.LVL10:
 111 003a A768     		ldr	r7, [r4, #8]
 112 003c 2569     		ldr	r5, [r4, #16]
 113              	.LVL11:
ARM GAS  /tmp/cctMlxuH.s 			page 3


 114 003e FFF7FEFF 		bl	TWI_ReadByte
 115              	.LVL12:
 116 0042 7855     		strb	r0, [r7, r5]
 117              		.loc 1 110 0
 118 0044 2369     		ldr	r3, [r4, #16]
 119              		.loc 1 113 0
 120 0046 E268     		ldr	r2, [r4, #12]
 121              		.loc 1 110 0
 122 0048 0133     		adds	r3, r3, #1
 123              		.loc 1 113 0
 124 004a 9342     		cmp	r3, r2
 125              		.loc 1 110 0
 126 004c 2361     		str	r3, [r4, #16]
 127              		.loc 1 113 0
 128 004e 20D0     		beq	.L21
 129              		.loc 1 119 0
 130 0050 013A     		subs	r2, r2, #1
 131 0052 9342     		cmp	r3, r2
 132 0054 EFD1     		bne	.L2
 133              		.loc 1 121 0
 134 0056 3046     		mov	r0, r6
 135              		.loc 1 152 0
 136 0058 BDE8F840 		pop	{r3, r4, r5, r6, r7, lr}
 137              	.LVL13:
 138              		.loc 1 121 0
 139 005c FFF7FEBF 		b	TWI_Stop
 140              	.LVL14:
 141              	.L20:
 142              		.loc 1 144 0
 143 0060 3046     		mov	r0, r6
 144              	.LVL15:
 145 0062 0121     		movs	r1, #1
 146 0064 FFF7FEFF 		bl	TWI_DisableIt
 147              	.LVL16:
 148              		.loc 1 146 0
 149 0068 6368     		ldr	r3, [r4, #4]
 150              		.loc 1 145 0
 151 006a 2770     		strb	r7, [r4]
 152              		.loc 1 146 0
 153 006c 0BB1     		cbz	r3, .L10
 154              		.loc 1 148 0
 155 006e 2046     		mov	r0, r4
 156 0070 9847     		blx	r3
 157              	.LVL17:
 158              	.L10:
 159              		.loc 1 150 0
 160 0072 0023     		movs	r3, #0
 161 0074 6B60     		str	r3, [r5, #4]
 162 0076 F8BD     		pop	{r3, r4, r5, r6, r7, pc}
 163              	.LVL18:
 164              	.L19:
 165              		.loc 1 130 0
 166 0078 3046     		mov	r0, r6
 167              	.LVL19:
 168 007a 0421     		movs	r1, #4
 169 007c FFF7FEFF 		bl	TWI_DisableIt
 170              	.LVL20:
ARM GAS  /tmp/cctMlxuH.s 			page 4


 171              		.loc 1 131 0
 172 0080 3046     		mov	r0, r6
 173 0082 0121     		movs	r1, #1
 174 0084 FFF7FEFF 		bl	TWI_EnableIt
 175              	.LVL21:
 176              		.loc 1 132 0
 177 0088 3046     		mov	r0, r6
 178              		.loc 1 152 0
 179 008a BDE8F840 		pop	{r3, r4, r5, r6, r7, lr}
 180              	.LVL22:
 181              		.loc 1 132 0
 182 008e FFF7FEBF 		b	TWI_SendSTOPCondition
 183              	.LVL23:
 184              	.L21:
 185              		.loc 1 115 0
 186 0092 3046     		mov	r0, r6
 187 0094 0221     		movs	r1, #2
 188 0096 FFF7FEFF 		bl	TWI_DisableIt
 189              	.LVL24:
 190              		.loc 1 116 0
 191 009a 3046     		mov	r0, r6
 192 009c 0121     		movs	r1, #1
 193              		.loc 1 152 0
 194 009e BDE8F840 		pop	{r3, r4, r5, r6, r7, lr}
 195              	.LVL25:
 196              		.loc 1 116 0
 197 00a2 FFF7FEBF 		b	TWI_EnableIt
 198              	.LVL26:
 199              		.cfi_endproc
 200              	.LFE1:
 201              		.size	TWID_Handler, .-TWID_Handler
 202 00a6 00BFAFF3 		.section	.text.TWID_Read,"ax",%progbits
 202      0080AFF3 
 202      0080
 203              		.align	2
 204              		.p2align 4,,15
 205              		.global	TWID_Read
 206              		.thumb
 207              		.thumb_func
 208              		.type	TWID_Read, %function
 209              	TWID_Read:
 210              	.LFB2:
 211              		.loc 1 174 0
 212              		.cfi_startproc
 213              		@ args = 12, pretend = 0, frame = 8
 214              		@ frame_needed = 0, uses_anonymous_args = 0
 215              	.LVL27:
 216 0000 2DE9F047 		push	{r4, r5, r6, r7, r8, r9, r10, lr}
 217              		.cfi_def_cfa_offset 32
 218              		.cfi_offset 4, -32
 219              		.cfi_offset 5, -28
 220              		.cfi_offset 6, -24
 221              		.cfi_offset 7, -20
 222              		.cfi_offset 8, -16
 223              		.cfi_offset 9, -12
 224              		.cfi_offset 10, -8
 225              		.cfi_offset 14, -4
ARM GAS  /tmp/cctMlxuH.s 			page 5


 226 0004 8946     		mov	r9, r1
 227 0006 82B0     		sub	sp, sp, #8
 228              		.cfi_def_cfa_offset 40
 229              		.loc 1 182 0
 230 0008 19F0800F 		tst	r9, #128
 231              		.loc 1 174 0
 232 000c 8046     		mov	r8, r0
 233              		.loc 1 179 0
 234 000e 0568     		ldr	r5, [r0]
 235              	.LVL28:
 236              		.loc 1 180 0
 237 0010 4168     		ldr	r1, [r0, #4]
 238              	.LVL29:
 239              		.loc 1 174 0
 240 0012 0A9F     		ldr	r7, [sp, #40]
 241 0014 0B9E     		ldr	r6, [sp, #44]
 242 0016 0C9C     		ldr	r4, [sp, #48]
 243              		.loc 1 182 0
 244 0018 78D1     		bne	.L45
 245              		.loc 1 183 0
 246 001a 12F07F4F 		tst	r2, #-16777216
 247 001e 66D1     		bne	.L46
 248              		.loc 1 184 0
 249 0020 032B     		cmp	r3, #3
 250 0022 51D8     		bhi	.L47
 251              		.loc 1 188 0
 252 0024 0120     		movs	r0, #1
 253              	.LVL30:
 254              		.loc 1 187 0
 255 0026 11B1     		cbz	r1, .L48
 256              	.LVL31:
 257              	.L26:
 258              		.loc 1 240 0
 259 0028 02B0     		add	sp, sp, #8
 260              		@ sp needed
 261 002a BDE8F087 		pop	{r4, r5, r6, r7, r8, r9, r10, pc}
 262              	.LVL32:
 263              	.L48:
 264              		.loc 1 192 0
 265 002e 012E     		cmp	r6, #1
 266 0030 3ED0     		beq	.L49
 267              		.loc 1 198 0
 268 0032 CCB1     		cbz	r4, .L28
 269              	.LVL33:
 270              	.L54:
 271              		.loc 1 206 0
 272 0034 4FF0000A 		mov	r10, #0
 273              		.loc 1 203 0
 274 0038 FF21     		movs	r1, #255
 275              		.loc 1 201 0
 276 003a C8F80440 		str	r4, [r8, #4]
 277              	.LVL34:
 278              		.loc 1 209 0
 279 003e 2846     		mov	r0, r5
 280              		.loc 1 203 0
 281 0040 2170     		strb	r1, [r4]
 282              	.LVL35:
ARM GAS  /tmp/cctMlxuH.s 			page 6


 283              		.loc 1 204 0
 284 0042 A760     		str	r7, [r4, #8]
 285              		.loc 1 205 0
 286 0044 E660     		str	r6, [r4, #12]
 287              		.loc 1 206 0
 288 0046 C4F810A0 		str	r10, [r4, #16]
 289              		.loc 1 209 0
 290 004a 0221     		movs	r1, #2
 291 004c 0192     		str	r2, [sp, #4]
 292 004e 0093     		str	r3, [sp]
 293 0050 FFF7FEFF 		bl	TWI_EnableIt
 294              	.LVL36:
 295              		.loc 1 210 0
 296 0054 2846     		mov	r0, r5
 297 0056 4946     		mov	r1, r9
 298 0058 019A     		ldr	r2, [sp, #4]
 299 005a 009B     		ldr	r3, [sp]
 300 005c FFF7FEFF 		bl	TWI_StartRead
 301              	.LVL37:
 302              		.loc 1 239 0
 303 0060 5046     		mov	r0, r10
 304              		.loc 1 240 0
 305 0062 02B0     		add	sp, sp, #8
 306              		@ sp needed
 307 0064 BDE8F087 		pop	{r4, r5, r6, r7, r8, r9, r10, pc}
 308              	.LVL38:
 309              	.L28:
 310              		.loc 1 216 0
 311 0068 4946     		mov	r1, r9
 312 006a 2846     		mov	r0, r5
 313 006c FFF7FEFF 		bl	TWI_StartRead
 314              	.LVL39:
 315              		.loc 1 219 0
 316 0070 96B1     		cbz	r6, .L34
 317              	.L35:
 318              		.loc 1 222 0
 319 0072 012E     		cmp	r6, #1
 320 0074 37D0     		beq	.L50
 321              	.L31:
 322              		.loc 1 174 0 discriminator 1
 323 0076 4CF25034 		movw	r4, #50000
 324 007a 01E0     		b	.L33
 325              	.LVL40:
 326              	.L51:
 327              		.loc 1 229 0 discriminator 2
 328 007c 013C     		subs	r4, r4, #1
 329              	.LVL41:
 330 007e 04D0     		beq	.L32
 331              	.LVL42:
 332              	.L33:
 333              		.loc 1 229 0 is_stmt 0 discriminator 1
 334 0080 2846     		mov	r0, r5
 335 0082 FFF7FEFF 		bl	TWI_ByteReceived
 336              	.LVL43:
 337 0086 0028     		cmp	r0, #0
 338 0088 F8D0     		beq	.L51
 339              	.LVL44:
ARM GAS  /tmp/cctMlxuH.s 			page 7


 340              	.L32:
 341              		.loc 1 230 0 is_stmt 1
 342 008a 2846     		mov	r0, r5
 343 008c FFF7FEFF 		bl	TWI_ReadByte
 344              	.LVL45:
 345              		.loc 1 219 0
 346 0090 013E     		subs	r6, r6, #1
 347              	.LVL46:
 348              		.loc 1 230 0
 349 0092 07F8010B 		strb	r0, [r7], #1
 350              	.LVL47:
 351              		.loc 1 219 0
 352 0096 ECD1     		bne	.L35
 353              	.L34:
 354              		.loc 1 174 0
 355 0098 4CF25034 		movw	r4, #50000
 356 009c 01E0     		b	.L30
 357              	.LVL48:
 358              	.L53:
 359              		.loc 1 236 0 discriminator 2
 360 009e 013C     		subs	r4, r4, #1
 361              	.LVL49:
 362 00a0 10D0     		beq	.L52
 363              	.LVL50:
 364              	.L30:
 365              		.loc 1 236 0 is_stmt 0 discriminator 1
 366 00a2 2846     		mov	r0, r5
 367 00a4 FFF7FEFF 		bl	TWI_TransferComplete
 368              	.LVL51:
 369 00a8 0028     		cmp	r0, #0
 370 00aa F8D0     		beq	.L53
 371              		.loc 1 239 0 is_stmt 1
 372 00ac 0020     		movs	r0, #0
 373 00ae BBE7     		b	.L26
 374              	.LVL52:
 375              	.L49:
 376              		.loc 1 194 0
 377 00b0 2846     		mov	r0, r5
 378 00b2 0192     		str	r2, [sp, #4]
 379 00b4 0093     		str	r3, [sp]
 380 00b6 FFF7FEFF 		bl	TWI_Stop
 381              	.LVL53:
 382 00ba 009B     		ldr	r3, [sp]
 383 00bc 019A     		ldr	r2, [sp, #4]
 384              		.loc 1 198 0
 385 00be 002C     		cmp	r4, #0
 386 00c0 B8D1     		bne	.L54
 387 00c2 D1E7     		b	.L28
 388              	.LVL54:
 389              	.L52:
 390              		.loc 1 239 0
 391 00c4 2046     		mov	r0, r4
 392 00c6 AFE7     		b	.L26
 393              	.LVL55:
 394              	.L47:
 395              		.loc 1 184 0 discriminator 1
 396 00c8 40F20000 		movw	r0, #:lower16:.LC0
ARM GAS  /tmp/cctMlxuH.s 			page 8


 397              	.LVL56:
 398 00cc 40F20002 		movw	r2, #:lower16:.LANCHOR0
 399              	.LVL57:
 400 00d0 40F20003 		movw	r3, #:lower16:.LC3
 401              	.LVL58:
 402 00d4 C0F20000 		movt	r0, #:upper16:.LC0
 403 00d8 C0F20002 		movt	r2, #:upper16:.LANCHOR0
 404 00dc C0F20003 		movt	r3, #:upper16:.LC3
 405 00e0 B821     		movs	r1, #184
 406              	.LVL59:
 407 00e2 FFF7FEFF 		bl	__assert_func
 408              	.LVL60:
 409              	.L50:
 410              		.loc 1 224 0
 411 00e6 2846     		mov	r0, r5
 412 00e8 FFF7FEFF 		bl	TWI_Stop
 413              	.LVL61:
 414 00ec C3E7     		b	.L31
 415              	.LVL62:
 416              	.L46:
 417              		.loc 1 183 0 discriminator 1
 418 00ee 40F20000 		movw	r0, #:lower16:.LC0
 419              	.LVL63:
 420 00f2 40F20002 		movw	r2, #:lower16:.LANCHOR0
 421              	.LVL64:
 422 00f6 40F20003 		movw	r3, #:lower16:.LC2
 423              	.LVL65:
 424 00fa C0F20000 		movt	r0, #:upper16:.LC0
 425 00fe C0F20002 		movt	r2, #:upper16:.LANCHOR0
 426 0102 C0F20003 		movt	r3, #:upper16:.LC2
 427 0106 B721     		movs	r1, #183
 428              	.LVL66:
 429 0108 FFF7FEFF 		bl	__assert_func
 430              	.LVL67:
 431              	.L45:
 432              		.loc 1 182 0 discriminator 1
 433 010c 40F20000 		movw	r0, #:lower16:.LC0
 434              	.LVL68:
 435 0110 40F20002 		movw	r2, #:lower16:.LANCHOR0
 436              	.LVL69:
 437 0114 40F20003 		movw	r3, #:lower16:.LC1
 438              	.LVL70:
 439 0118 C0F20000 		movt	r0, #:upper16:.LC0
 440 011c C0F20002 		movt	r2, #:upper16:.LANCHOR0
 441 0120 C0F20003 		movt	r3, #:upper16:.LC1
 442 0124 B621     		movs	r1, #182
 443              	.LVL71:
 444 0126 FFF7FEFF 		bl	__assert_func
 445              	.LVL72:
 446              		.cfi_endproc
 447              	.LFE2:
 448              		.size	TWID_Read, .-TWID_Read
 449              		.section	.text.TWID_Write,"ax",%progbits
 450              		.align	2
 451              		.p2align 4,,15
 452              		.global	TWID_Write
 453              		.thumb
ARM GAS  /tmp/cctMlxuH.s 			page 9


 454              		.thumb_func
 455              		.type	TWID_Write, %function
 456              	TWID_Write:
 457              	.LFB3:
 458              		.loc 1 262 0
 459              		.cfi_startproc
 460              		@ args = 12, pretend = 0, frame = 0
 461              		@ frame_needed = 0, uses_anonymous_args = 0
 462              	.LVL73:
 463 0000 F0B5     		push	{r4, r5, r6, r7, lr}
 464              		.cfi_def_cfa_offset 20
 465              		.cfi_offset 4, -20
 466              		.cfi_offset 5, -16
 467              		.cfi_offset 6, -12
 468              		.cfi_offset 7, -8
 469              		.cfi_offset 14, -4
 470              		.loc 1 267 0
 471 0002 11F0800F 		tst	r1, #128
 472              		.loc 1 262 0
 473 0006 83B0     		sub	sp, sp, #12
 474              		.cfi_def_cfa_offset 32
 475              		.loc 1 263 0
 476 0008 0568     		ldr	r5, [r0]
 477              	.LVL74:
 478              		.loc 1 264 0
 479 000a 4468     		ldr	r4, [r0, #4]
 480              	.LVL75:
 481              		.loc 1 262 0
 482 000c 1F46     		mov	r7, r3
 483 000e 0A9E     		ldr	r6, [sp, #40]
 484              		.loc 1 267 0
 485 0010 5ED1     		bne	.L76
 486              		.loc 1 268 0
 487 0012 12F07F4F 		tst	r2, #-16777216
 488 0016 4BD1     		bne	.L77
 489              		.loc 1 269 0
 490 0018 032B     		cmp	r3, #3
 491 001a 69D8     		bhi	.L78
 492              		.loc 1 272 0
 493 001c 14B1     		cbz	r4, .L79
 494              		.loc 1 274 0
 495 001e 0120     		movs	r0, #1
 496              	.LVL76:
 497              	.L59:
 498              		.loc 1 323 0
 499 0020 03B0     		add	sp, sp, #12
 500              		@ sp needed
 501 0022 F0BD     		pop	{r4, r5, r6, r7, pc}
 502              	.LVL77:
 503              	.L79:
 504              		.loc 1 278 0
 505 0024 BEB1     		cbz	r6, .L60
 506              		.loc 1 281 0
 507 0026 4660     		str	r6, [r0, #4]
 508              	.LVL78:
 509              		.loc 1 284 0
 510 0028 0898     		ldr	r0, [sp, #32]
ARM GAS  /tmp/cctMlxuH.s 			page 10


 511              	.LVL79:
 512              		.loc 1 283 0
 513 002a 4FF0FF0E 		mov	lr, #255
 514              		.loc 1 284 0
 515 002e B060     		str	r0, [r6, #8]
 516              		.loc 1 285 0
 517 0030 0998     		ldr	r0, [sp, #36]
 518              		.loc 1 286 0
 519 0032 0127     		movs	r7, #1
 520              		.loc 1 285 0
 521 0034 F060     		str	r0, [r6, #12]
 522              		.loc 1 289 0
 523 0036 0898     		ldr	r0, [sp, #32]
 524              		.loc 1 283 0
 525 0038 86F800E0 		strb	lr, [r6]
 526              		.loc 1 286 0
 527 003c 3761     		str	r7, [r6, #16]
 528              		.loc 1 289 0
 529 003e 0678     		ldrb	r6, [r0]	@ zero_extendqisi2
 530              	.LVL80:
 531 0040 2846     		mov	r0, r5
 532 0042 0096     		str	r6, [sp]
 533 0044 FFF7FEFF 		bl	TWI_StartWrite
 534              	.LVL81:
 535              		.loc 1 290 0
 536 0048 2846     		mov	r0, r5
 537 004a 0421     		movs	r1, #4
 538 004c FFF7FEFF 		bl	TWI_EnableIt
 539              	.LVL82:
 540              		.loc 1 322 0
 541 0050 2046     		mov	r0, r4
 542              		.loc 1 323 0
 543 0052 03B0     		add	sp, sp, #12
 544              		@ sp needed
 545 0054 F0BD     		pop	{r4, r5, r6, r7, pc}
 546              	.LVL83:
 547              	.L60:
 548              		.loc 1 296 0
 549 0056 0898     		ldr	r0, [sp, #32]
 550              	.LVL84:
 551 0058 0478     		ldrb	r4, [r0]	@ zero_extendqisi2
 552              	.LVL85:
 553 005a 2846     		mov	r0, r5
 554 005c 0094     		str	r4, [sp]
 555              	.LVL86:
 556 005e FFF7FEFF 		bl	TWI_StartWrite
 557              	.LVL87:
 558              		.loc 1 300 0
 559 0062 099B     		ldr	r3, [sp, #36]
 560 0064 5E1E     		subs	r6, r3, #1
 561              	.LVL88:
 562 0066 18BF     		it	ne
 563 0068 089F     		ldrne	r7, [sp, #32]
 564 006a 10D0     		beq	.L65
 565              	.LVL89:
 566              	.L66:
 567              		.loc 1 262 0 discriminator 1
ARM GAS  /tmp/cctMlxuH.s 			page 11


 568 006c 4CF25034 		movw	r4, #50000
 569 0070 01E0     		b	.L64
 570              	.LVL90:
 571              	.L80:
 572              		.loc 1 304 0 discriminator 2
 573 0072 013C     		subs	r4, r4, #1
 574              	.LVL91:
 575 0074 04D0     		beq	.L63
 576              	.LVL92:
 577              	.L64:
 578              		.loc 1 304 0 is_stmt 0 discriminator 1
 579 0076 2846     		mov	r0, r5
 580 0078 FFF7FEFF 		bl	TWI_ByteSent
 581              	.LVL93:
 582 007c 0028     		cmp	r0, #0
 583 007e F8D0     		beq	.L80
 584              	.LVL94:
 585              	.L63:
 586              		.loc 1 307 0 is_stmt 1
 587 0080 2846     		mov	r0, r5
 588 0082 17F8011F 		ldrb	r1, [r7, #1]!	@ zero_extendqisi2
 589              	.LVL95:
 590 0086 FFF7FEFF 		bl	TWI_WriteByte
 591              	.LVL96:
 592              		.loc 1 300 0
 593 008a 013E     		subs	r6, r6, #1
 594              	.LVL97:
 595 008c EED1     		bne	.L66
 596              	.LVL98:
 597              	.L65:
 598              		.loc 1 315 0
 599 008e 2846     		mov	r0, r5
 600 0090 FFF7FEFF 		bl	TWI_SendSTOPCondition
 601              	.LVL99:
 602              		.loc 1 317 0
 603 0094 4CF25034 		movw	r4, #50000
 604 0098 01E0     		b	.L62
 605              	.LVL100:
 606              	.L82:
 607              		.loc 1 317 0 is_stmt 0 discriminator 2
 608 009a 013C     		subs	r4, r4, #1
 609              	.LVL101:
 610 009c 06D0     		beq	.L81
 611              	.LVL102:
 612              	.L62:
 613              		.loc 1 317 0 discriminator 1
 614 009e 2846     		mov	r0, r5
 615 00a0 FFF7FEFF 		bl	TWI_TransferComplete
 616              	.LVL103:
 617 00a4 0028     		cmp	r0, #0
 618 00a6 F8D0     		beq	.L82
 619              		.loc 1 322 0 is_stmt 1
 620 00a8 0020     		movs	r0, #0
 621 00aa B9E7     		b	.L59
 622              	.L81:
 623 00ac 2046     		mov	r0, r4
 624 00ae B7E7     		b	.L59
ARM GAS  /tmp/cctMlxuH.s 			page 12


 625              	.LVL104:
 626              	.L77:
 627              		.loc 1 268 0 discriminator 1
 628 00b0 40F20000 		movw	r0, #:lower16:.LC0
 629              	.LVL105:
 630 00b4 40F20002 		movw	r2, #:lower16:.LANCHOR1
 631              	.LVL106:
 632 00b8 40F20003 		movw	r3, #:lower16:.LC2
 633              	.LVL107:
 634 00bc C0F20000 		movt	r0, #:upper16:.LC0
 635 00c0 C0F20002 		movt	r2, #:upper16:.LANCHOR1
 636 00c4 C0F20003 		movt	r3, #:upper16:.LC2
 637 00c8 4FF48671 		mov	r1, #268
 638              	.LVL108:
 639 00cc FFF7FEFF 		bl	__assert_func
 640              	.LVL109:
 641              	.L76:
 642              		.loc 1 267 0 discriminator 1
 643 00d0 40F20000 		movw	r0, #:lower16:.LC0
 644              	.LVL110:
 645 00d4 40F20002 		movw	r2, #:lower16:.LANCHOR1
 646              	.LVL111:
 647 00d8 40F20003 		movw	r3, #:lower16:.LC1
 648              	.LVL112:
 649 00dc C0F20000 		movt	r0, #:upper16:.LC0
 650 00e0 C0F20002 		movt	r2, #:upper16:.LANCHOR1
 651 00e4 C0F20003 		movt	r3, #:upper16:.LC1
 652 00e8 40F20B11 		movw	r1, #267
 653              	.LVL113:
 654 00ec FFF7FEFF 		bl	__assert_func
 655              	.LVL114:
 656              	.L78:
 657              		.loc 1 269 0 discriminator 1
 658 00f0 40F20000 		movw	r0, #:lower16:.LC0
 659              	.LVL115:
 660 00f4 40F20002 		movw	r2, #:lower16:.LANCHOR1
 661              	.LVL116:
 662 00f8 40F20003 		movw	r3, #:lower16:.LC3
 663              	.LVL117:
 664 00fc C0F20000 		movt	r0, #:upper16:.LC0
 665 0100 C0F20002 		movt	r2, #:upper16:.LANCHOR1
 666 0104 C0F20003 		movt	r3, #:upper16:.LC3
 667 0108 40F20D11 		movw	r1, #269
 668              	.LVL118:
 669 010c FFF7FEFF 		bl	__assert_func
 670              	.LVL119:
 671              		.cfi_endproc
 672              	.LFE3:
 673              		.size	TWID_Write, .-TWID_Write
 674              		.section	.rodata.__func__.4879,"a",%progbits
 675              		.align	2
 676              		.set	.LANCHOR1,. + 0
 677              		.type	__func__.4879, %object
 678              		.size	__func__.4879, 11
 679              	__func__.4879:
 680 0000 54574944 		.ascii	"TWID_Write\000"
 680      5F577269 
ARM GAS  /tmp/cctMlxuH.s 			page 13


 680      746500
 681 000b 00       		.section	.rodata.str1.4,"aMS",%progbits,1
 682              		.align	2
 683              	.LC0:
 684 0000 2E2E2F74 		.ascii	"../third_party/ChibiOS/os/hal/platforms/AT91SAM3S/a"
 684      68697264 
 684      5F706172 
 684      74792F43 
 684      68696269 
 685 0033 746D656C 		.ascii	"tmel_twid.c\000"
 685      5F747769 
 685      642E6300 
 686 003f 00       		.space	1
 687              	.LC1:
 688 0040 28616464 		.ascii	"(address & 0x80) == 0\000"
 688      72657373 
 688      20262030 
 688      78383029 
 688      203D3D20 
 689 0056 0000     		.space	2
 690              	.LC2:
 691 0058 28696164 		.ascii	"(iaddress & 0xFF000000) == 0\000"
 691      64726573 
 691      73202620 
 691      30784646 
 691      30303030 
 692 0075 000000   		.space	3
 693              	.LC3:
 694 0078 6973697A 		.ascii	"isize < 4\000"
 694      65203C20 
 694      3400
 695 0082 0000     		.section	.rodata.__func__.4857,"a",%progbits
 696              		.align	2
 697              		.set	.LANCHOR0,. + 0
 698              		.type	__func__.4857, %object
 699              		.size	__func__.4857, 10
 700              	__func__.4857:
 701 0000 54574944 		.ascii	"TWID_Read\000"
 701      5F526561 
 701      6400
 702 000a 0000     		.text
 703              	.Letext0:
 704              		.file 2 "/home/santi/arm-2013.11/arm-none-eabi/include/stdint.h"
 705              		.file 3 "../third_party/ChibiOS/os/hal/platforms/AT91SAM3S/SAM3S.h"
 706              		.file 4 "../third_party/ChibiOS/os/hal/platforms/AT91SAM3S/async.h"
 707              		.file 5 "../third_party/ChibiOS/os/hal/platforms/AT91SAM3S/atmel_twid.h"
 708              		.file 6 "../third_party/ChibiOS/os/hal/platforms/AT91SAM3S/atmel_twi.h"
 709              		.file 7 "/home/santi/arm-2013.11/arm-none-eabi/include/assert.h"