ARM GAS  /tmp/ccNQmvjm.s 			page 1


   1              		.syntax unified
   2              		.cpu cortex-m3
   3              		.fpu softvfp
   4              		.eabi_attribute 20, 1
   5              		.eabi_attribute 21, 1
   6              		.eabi_attribute 23, 3
   7              		.eabi_attribute 24, 1
   8              		.eabi_attribute 25, 1
   9              		.eabi_attribute 26, 1
  10              		.eabi_attribute 30, 2
  11              		.eabi_attribute 34, 1
  12              		.eabi_attribute 18, 4
  13              		.thumb
  14              		.file	"atmel_adc.c"
  15              		.text
  16              	.Ltext0:
  17              		.cfi_sections	.debug_frame
  18              		.section	.text.calcul_startup,"ax",%progbits
  19              		.align	2
  20              		.p2align 4,,15
  21              		.thumb
  22              		.thumb_func
  23              		.type	calcul_startup, %function
  24              	calcul_startup:
  25              	.LFB43:
  26              		.file 1 "../third_party/ChibiOS/os/hal/platforms/AT91SAM3S/atmel_adc.c"
  27              		.loc 1 133 0
  28              		.cfi_startproc
  29              		@ args = 0, pretend = 0, frame = 0
  30              		@ frame_needed = 0, uses_anonymous_args = 0
  31              		@ link register save eliminated.
  32              	.LVL0:
  33              		.loc 1 136 0
  34 0000 18B3     		cbz	r0, .L2
  35              		.loc 1 138 0
  36 0002 0128     		cmp	r0, #1
  37 0004 22D0     		beq	.L5
  38              		.loc 1 140 0
  39 0006 0228     		cmp	r0, #2
  40 0008 22D0     		beq	.L6
  41              		.loc 1 142 0
  42 000a 0328     		cmp	r0, #3
  43 000c 22D0     		beq	.L7
  44              		.loc 1 144 0
  45 000e 0428     		cmp	r0, #4
  46 0010 24D0     		beq	.L8
  47              		.loc 1 146 0
  48 0012 0528     		cmp	r0, #5
  49 0014 20D0     		beq	.L9
  50              		.loc 1 148 0
  51 0016 0628     		cmp	r0, #6
  52 0018 22D0     		beq	.L10
  53              		.loc 1 150 0
  54 001a 0728     		cmp	r0, #7
  55 001c 22D0     		beq	.L11
  56              		.loc 1 152 0
  57 001e 0828     		cmp	r0, #8
ARM GAS  /tmp/ccNQmvjm.s 			page 2


  58 0020 22D0     		beq	.L12
  59              		.loc 1 154 0
  60 0022 0928     		cmp	r0, #9
  61 0024 23D0     		beq	.L13
  62              		.loc 1 156 0
  63 0026 0A28     		cmp	r0, #10
  64 0028 24D0     		beq	.L14
  65              		.loc 1 158 0
  66 002a 0B28     		cmp	r0, #11
  67 002c 25D0     		beq	.L15
  68              		.loc 1 160 0
  69 002e 0C28     		cmp	r0, #12
  70 0030 26D0     		beq	.L16
  71              		.loc 1 162 0
  72 0032 0D28     		cmp	r0, #13
  73 0034 07D0     		beq	.L17
  74              	.LVL1:
  75              	.LBB4:
  76              	.LBB5:
  77              		.loc 1 164 0
  78 0036 0E28     		cmp	r0, #14
  79 0038 25D0     		beq	.L18
  80              		.loc 1 134 0
  81 003a 0F28     		cmp	r0, #15
  82 003c 0CBF     		ite	eq
  83 003e 4FF47070 		moveq	r0, #960
  84 0042 0020     		movne	r0, #0
  85              	.LVL2:
  86 0044 7047     		bx	lr
  87              	.LVL3:
  88              	.L17:
  89              	.LBE5:
  90              	.LBE4:
  91              		.loc 1 163 0
  92 0046 4FF45070 		mov	r0, #832
  93              	.LVL4:
  94              	.L2:
  95              		.loc 1 170 0
  96 004a 7047     		bx	lr
  97              	.LVL5:
  98              	.L5:
  99              		.loc 1 139 0
 100 004c 0820     		movs	r0, #8
 101              	.LVL6:
 102 004e 7047     		bx	lr
 103              	.LVL7:
 104              	.L6:
 105              		.loc 1 141 0
 106 0050 1020     		movs	r0, #16
 107              	.LVL8:
 108 0052 7047     		bx	lr
 109              	.LVL9:
 110              	.L7:
 111              		.loc 1 143 0
 112 0054 1820     		movs	r0, #24
 113              	.LVL10:
 114 0056 7047     		bx	lr
ARM GAS  /tmp/ccNQmvjm.s 			page 3


 115              	.LVL11:
 116              	.L9:
 117              		.loc 1 147 0
 118 0058 5020     		movs	r0, #80
 119              	.LVL12:
 120 005a 7047     		bx	lr
 121              	.LVL13:
 122              	.L8:
 123              		.loc 1 145 0
 124 005c 4020     		movs	r0, #64
 125              	.LVL14:
 126 005e 7047     		bx	lr
 127              	.LVL15:
 128              	.L10:
 129              		.loc 1 149 0
 130 0060 6020     		movs	r0, #96
 131              	.LVL16:
 132 0062 7047     		bx	lr
 133              	.LVL17:
 134              	.L11:
 135              		.loc 1 151 0
 136 0064 7020     		movs	r0, #112
 137              	.LVL18:
 138 0066 7047     		bx	lr
 139              	.LVL19:
 140              	.L12:
 141              		.loc 1 153 0
 142 0068 4FF40070 		mov	r0, #512
 143              	.LVL20:
 144 006c 7047     		bx	lr
 145              	.LVL21:
 146              	.L13:
 147              		.loc 1 155 0
 148 006e 4FF41070 		mov	r0, #576
 149              	.LVL22:
 150 0072 7047     		bx	lr
 151              	.LVL23:
 152              	.L14:
 153              		.loc 1 157 0
 154 0074 4FF42070 		mov	r0, #640
 155              	.LVL24:
 156 0078 7047     		bx	lr
 157              	.LVL25:
 158              	.L15:
 159              		.loc 1 159 0
 160 007a 4FF43070 		mov	r0, #704
 161              	.LVL26:
 162 007e 7047     		bx	lr
 163              	.LVL27:
 164              	.L16:
 165              		.loc 1 161 0
 166 0080 4FF44070 		mov	r0, #768
 167              	.LVL28:
 168 0084 7047     		bx	lr
 169              	.LVL29:
 170              	.L18:
 171              	.LBB7:
ARM GAS  /tmp/ccNQmvjm.s 			page 4


 172              	.LBB6:
 173              		.loc 1 165 0
 174 0086 4FF46070 		mov	r0, #896
 175              	.LVL30:
 176 008a 7047     		bx	lr
 177              	.LBE6:
 178              	.LBE7:
 179              		.cfi_endproc
 180              	.LFE43:
 181              		.size	calcul_startup, .-calcul_startup
 182 008c AFF30080 		.section	.text.ADC_Initialize,"ax",%progbits
 183              		.align	2
 184              		.p2align 4,,15
 185              		.global	ADC_Initialize
 186              		.thumb
 187              		.thumb_func
 188              		.type	ADC_Initialize, %function
 189              	ADC_Initialize:
 190              	.LFB36:
 191              		.loc 1 62 0
 192              		.cfi_startproc
 193              		@ args = 0, pretend = 0, frame = 0
 194              		@ frame_needed = 0, uses_anonymous_args = 0
 195              		@ link register save eliminated.
 196              	.LVL31:
 197 0000 70B4     		push	{r4, r5, r6}
 198              		.cfi_def_cfa_offset 12
 199              		.cfi_offset 4, -12
 200              		.cfi_offset 5, -8
 201              		.cfi_offset 6, -4
 202              		.loc 1 64 0
 203 0002 4FF48063 		mov	r3, #1024
 204 0006 4FF48641 		mov	r1, #17152
 205              		.loc 1 66 0
 206 000a 44F20132 		movw	r2, #17153
 207              		.loc 1 64 0
 208 000e C4F20E03 		movt	r3, 16398
 209              		.loc 1 65 0
 210 0012 4FF00056 		mov	r6, #536870912
 211              		.loc 1 69 0
 212 0016 0125     		movs	r5, #1
 213              		.loc 1 73 0
 214 0018 0024     		movs	r4, #0
 215              		.loc 1 64 0
 216 001a C5F24D01 		movt	r1, 20557
 217              		.loc 1 66 0
 218 001e C5F24D02 		movt	r2, 20557
 219              		.loc 1 64 0
 220 0022 C3F8E410 		str	r1, [r3, #228]
 221              		.loc 1 65 0
 222 0026 1E61     		str	r6, [r3, #16]
 223              		.loc 1 66 0
 224 0028 C3F8E420 		str	r2, [r3, #228]
 225              		.loc 1 69 0
 226 002c 0560     		str	r5, [r0]
 227              		.loc 1 73 0
 228 002e 4460     		str	r4, [r0, #4]
ARM GAS  /tmp/ccNQmvjm.s 			page 5


 229              		.loc 1 74 0
 230 0030 70BC     		pop	{r4, r5, r6}
 231 0032 7047     		bx	lr
 232              		.cfi_endproc
 233              	.LFE36:
 234              		.size	ADC_Initialize, .-ADC_Initialize
 235 0034 AFF30080 		.section	.text.ADC_CfgTiming,"ax",%progbits
 235      AFF30080 
 235      AFF30080 
 236              		.align	2
 237              		.p2align 4,,15
 238              		.global	ADC_CfgTiming
 239              		.thumb
 240              		.thumb_func
 241              		.type	ADC_CfgTiming, %function
 242              	ADC_CfgTiming:
 243              	.LFB37:
 244              		.loc 1 80 0
 245              		.cfi_startproc
 246              		@ args = 0, pretend = 0, frame = 0
 247              		@ frame_needed = 0, uses_anonymous_args = 0
 248              		@ link register save eliminated.
 249              	.LVL32:
 250              		.loc 1 81 0
 251 0000 0906     		lsls	r1, r1, #24
 252              	.LVL33:
 253 0002 01F07061 		and	r1, r1, #251658240
 254 0006 4160     		str	r1, [r0, #4]
 255 0008 7047     		bx	lr
 256              		.cfi_endproc
 257              	.LFE37:
 258              		.size	ADC_CfgTiming, .-ADC_CfgTiming
 259 000a 00BFAFF3 		.section	.text.ADC_cfgFrequency,"ax",%progbits
 259      0080
 260              		.align	2
 261              		.p2align 4,,15
 262              		.global	ADC_cfgFrequency
 263              		.thumb
 264              		.thumb_func
 265              		.type	ADC_cfgFrequency, %function
 266              	ADC_cfgFrequency:
 267              	.LFB38:
 268              		.loc 1 88 0
 269              		.cfi_startproc
 270              		@ args = 0, pretend = 0, frame = 0
 271              		@ frame_needed = 0, uses_anonymous_args = 0
 272              		@ link register save eliminated.
 273              	.LVL34:
 274              		.loc 1 89 0
 275 0000 4368     		ldr	r3, [r0, #4]
 276              		.loc 1 90 0
 277 0002 0904     		lsls	r1, r1, #16
 278              	.LVL35:
 279 0004 01F47021 		and	r1, r1, #983040
 280              		.loc 1 89 0
 281 0008 1202     		lsls	r2, r2, #8
 282              	.LVL36:
ARM GAS  /tmp/ccNQmvjm.s 			page 6


 283 000a 92B2     		uxth	r2, r2
 284              		.loc 1 90 0
 285 000c 0B43     		orrs	r3, r3, r1
 286              		.loc 1 89 0
 287 000e 1343     		orrs	r3, r3, r2
 288 0010 4360     		str	r3, [r0, #4]
 289 0012 7047     		bx	lr
 290              		.cfi_endproc
 291              	.LFE38:
 292              		.size	ADC_cfgFrequency, .-ADC_cfgFrequency
 293 0014 AFF30080 		.section	.text.ADC_CfgTrigering,"ax",%progbits
 293      AFF30080 
 293      AFF30080 
 294              		.align	2
 295              		.p2align 4,,15
 296              		.global	ADC_CfgTrigering
 297              		.thumb
 298              		.thumb_func
 299              		.type	ADC_CfgTrigering, %function
 300              	ADC_CfgTrigering:
 301              	.LFB39:
 302              		.loc 1 97 0
 303              		.cfi_startproc
 304              		@ args = 0, pretend = 0, frame = 0
 305              		@ frame_needed = 0, uses_anonymous_args = 0
 306              		@ link register save eliminated.
 307              	.LVL37:
 308 0000 10B4     		push	{r4}
 309              		.cfi_def_cfa_offset 4
 310              		.cfi_offset 4, -4
 311              		.loc 1 100 0
 312 0002 DB01     		lsls	r3, r3, #7
 313              	.LVL38:
 314              		.loc 1 98 0
 315 0004 4468     		ldr	r4, [r0, #4]
 316              		.loc 1 100 0
 317 0006 DBB2     		uxtb	r3, r3
 318              		.loc 1 99 0
 319 0008 1C43     		orrs	r4, r4, r3
 320              		.loc 1 98 0
 321 000a 01F00101 		and	r1, r1, #1
 322              	.LVL39:
 323              		.loc 1 99 0
 324 000e 5200     		lsls	r2, r2, #1
 325              	.LVL40:
 326              		.loc 1 100 0
 327 0010 2143     		orrs	r1, r1, r4
 328              		.loc 1 99 0
 329 0012 02F00E02 		and	r2, r2, #14
 330              		.loc 1 98 0
 331 0016 1143     		orrs	r1, r1, r2
 332 0018 4160     		str	r1, [r0, #4]
 333              		.loc 1 101 0
 334 001a 5DF8044B 		ldr	r4, [sp], #4
 335 001e 7047     		bx	lr
 336              		.cfi_endproc
 337              	.LFE39:
ARM GAS  /tmp/ccNQmvjm.s 			page 7


 338              		.size	ADC_CfgTrigering, .-ADC_CfgTrigering
 339              		.section	.text.ADC_CfgLowRes,"ax",%progbits
 340              		.align	2
 341              		.p2align 4,,15
 342              		.global	ADC_CfgLowRes
 343              		.thumb
 344              		.thumb_func
 345              		.type	ADC_CfgLowRes, %function
 346              	ADC_CfgLowRes:
 347              	.LFB40:
 348              		.loc 1 107 0
 349              		.cfi_startproc
 350              		@ args = 0, pretend = 0, frame = 0
 351              		@ frame_needed = 0, uses_anonymous_args = 0
 352              		@ link register save eliminated.
 353              	.LVL41:
 354              		.loc 1 108 0
 355 0000 4268     		ldr	r2, [r0, #4]
 356 0002 0901     		lsls	r1, r1, #4
 357              	.LVL42:
 358 0004 01F01003 		and	r3, r1, #16
 359 0008 1343     		orrs	r3, r3, r2
 360 000a 4360     		str	r3, [r0, #4]
 361 000c 7047     		bx	lr
 362              		.cfi_endproc
 363              	.LFE40:
 364              		.size	ADC_CfgLowRes, .-ADC_CfgLowRes
 365 000e 00BF     		.section	.text.ADC_CfgPowerSave,"ax",%progbits
 366              		.align	2
 367              		.p2align 4,,15
 368              		.global	ADC_CfgPowerSave
 369              		.thumb
 370              		.thumb_func
 371              		.type	ADC_CfgPowerSave, %function
 372              	ADC_CfgPowerSave:
 373              	.LFB41:
 374              		.loc 1 115 0
 375              		.cfi_startproc
 376              		@ args = 0, pretend = 0, frame = 0
 377              		@ frame_needed = 0, uses_anonymous_args = 0
 378              		@ link register save eliminated.
 379              	.LVL43:
 380              		.loc 1 116 0
 381 0000 4368     		ldr	r3, [r0, #4]
 382              		.loc 1 117 0
 383 0002 9201     		lsls	r2, r2, #6
 384              	.LVL44:
 385 0004 02F04002 		and	r2, r2, #64
 386              		.loc 1 116 0
 387 0008 4901     		lsls	r1, r1, #5
 388              	.LVL45:
 389 000a 01F02001 		and	r1, r1, #32
 390              		.loc 1 117 0
 391 000e 1343     		orrs	r3, r3, r2
 392              		.loc 1 116 0
 393 0010 0B43     		orrs	r3, r3, r1
 394 0012 4360     		str	r3, [r0, #4]
ARM GAS  /tmp/ccNQmvjm.s 			page 8


 395 0014 7047     		bx	lr
 396              		.cfi_endproc
 397              	.LFE41:
 398              		.size	ADC_CfgPowerSave, .-ADC_CfgPowerSave
 399 0016 00BFAFF3 		.section	.text.ADC_CfgChannelMode,"ax",%progbits
 399      0080AFF3 
 399      0080
 400              		.align	2
 401              		.p2align 4,,15
 402              		.global	ADC_CfgChannelMode
 403              		.thumb
 404              		.thumb_func
 405              		.type	ADC_CfgChannelMode, %function
 406              	ADC_CfgChannelMode:
 407              	.LFB42:
 408              		.loc 1 124 0
 409              		.cfi_startproc
 410              		@ args = 0, pretend = 0, frame = 0
 411              		@ frame_needed = 0, uses_anonymous_args = 0
 412              		@ link register save eliminated.
 413              	.LVL46:
 414              		.loc 1 125 0
 415 0000 4368     		ldr	r3, [r0, #4]
 416 0002 43EAC171 		orr	r1, r3, r1, lsl #31
 417              	.LVL47:
 418 0006 4160     		str	r1, [r0, #4]
 419 0008 7047     		bx	lr
 420              		.cfi_endproc
 421              	.LFE42:
 422              		.size	ADC_CfgChannelMode, .-ADC_CfgChannelMode
 423              		.section	.text.ADC_check,"ax",%progbits
 424              		.align	2
 425              		.p2align 4,,15
 426              		.global	ADC_check
 427              		.thumb
 428              		.thumb_func
 429              		.type	ADC_check, %function
 430              	ADC_check:
 431              	.LFB44:
 432              		.loc 1 176 0
 433              		.cfi_startproc
 434              		@ args = 0, pretend = 0, frame = 8
 435              		@ frame_needed = 0, uses_anonymous_args = 0
 436              	.LVL48:
 437 0000 70B5     		push	{r4, r5, r6, lr}
 438              		.cfi_def_cfa_offset 16
 439              		.cfi_offset 4, -16
 440              		.cfi_offset 5, -12
 441              		.cfi_offset 6, -8
 442              		.cfi_offset 14, -4
 443              		.loc 1 182 0
 444 0002 4468     		ldr	r4, [r0, #4]
 445              	.LVL49:
 446              		.loc 1 176 0
 447 0004 0546     		mov	r5, r0
 448              		.loc 1 182 0
 449 0006 C4F30724 		ubfx	r4, r4, #8, #8
ARM GAS  /tmp/ccNQmvjm.s 			page 9


 450              	.LVL50:
 451              		.loc 1 183 0
 452 000a 0134     		adds	r4, r4, #1
 453 000c 6400     		lsls	r4, r4, #1
 454 000e B1FBF4F4 		udiv	r4, r1, r4
 455              	.LVL51:
 456              		.loc 1 184 0
 457 0012 40F20000 		movw	r0, #:lower16:SD2
 458              	.LVL52:
 459 0016 40F20001 		movw	r1, #:lower16:.LC0
 460              	.LVL53:
 461              		.loc 1 176 0
 462 001a 82B0     		sub	sp, sp, #8
 463              		.cfi_def_cfa_offset 24
 464              		.loc 1 184 0
 465 001c 2246     		mov	r2, r4
 466 001e C0F20000 		movt	r0, #:upper16:SD2
 467 0022 C0F20001 		movt	r1, #:upper16:.LC0
 468 0026 FFF7FEFF 		bl	chprintf
 469              	.LVL54:
 470              		.loc 1 186 0
 471 002a 002C     		cmp	r4, #0
 472 002c 63D0     		beq	.L47
 473              		.loc 1 190 0
 474 002e 4FF49052 		mov	r2, #4608
 475 0032 C0F27A02 		movt	r2, 122
 476 0036 9442     		cmp	r4, r2
 477 0038 2CD8     		bhi	.L48
 478              	.L30:
 479              		.loc 1 195 0
 480 003a 6868     		ldr	r0, [r5, #4]
 481              		.loc 1 196 0
 482 003c 6B68     		ldr	r3, [r5, #4]
 483              		.loc 1 195 0
 484 003e C0F30346 		ubfx	r6, r0, #16, #4
 485              	.LVL55:
 486              		.loc 1 196 0
 487 0042 9806     		lsls	r0, r3, #26
 488 0044 16D4     		bmi	.L31
 489              		.loc 1 199 0
 490 0046 04EB8404 		add	r4, r4, r4, lsl #2
 491              	.LVL56:
 492 004a 4DF68363 		movw	r3, #56963
 493 004e E400     		lsls	r4, r4, #3
 494 0050 C4F21B33 		movt	r3, 17179
 495 0054 A3FB0403 		umull	r0, r3, r3, r4
 496              	.L46:
 497              		.loc 1 213 0
 498 0058 3046     		mov	r0, r6
 499 005a 9A0C     		lsrs	r2, r3, #18
 500 005c FFF7FEFF 		bl	calcul_startup
 501              	.LVL57:
 502 0060 8242     		cmp	r2, r0
 503 0062 0346     		mov	r3, r0
 504              		.loc 1 215 0
 505 0064 84BF     		itt	hi
 506 0066 40F20001 		movwhi	r1, #:lower16:.LC3
ARM GAS  /tmp/ccNQmvjm.s 			page 10


 507 006a 40F20000 		movwhi	r0, #:lower16:SD2
 508              		.loc 1 213 0
 509 006e 39D8     		bhi	.L43
 510              	.L28:
 511              		.loc 1 234 0
 512 0070 02B0     		add	sp, sp, #8
 513              		@ sp needed
 514 0072 70BD     		pop	{r4, r5, r6, pc}
 515              	.LVL58:
 516              	.L31:
 517              		.loc 1 206 0
 518 0074 6B68     		ldr	r3, [r5, #4]
 519 0076 1906     		lsls	r1, r3, #24
 520 0078 49D4     		bmi	.L49
 521              		.loc 1 210 0
 522 007a 6B68     		ldr	r3, [r5, #4]
 523 007c 5A06     		lsls	r2, r3, #25
 524 007e 14D4     		bmi	.L35
 525              	.L50:
 526              		.loc 1 213 0
 527 0080 04EB8404 		add	r4, r4, r4, lsl #2
 528              	.LVL59:
 529 0084 4DF68363 		movw	r3, #56963
 530 0088 E400     		lsls	r4, r4, #3
 531 008a C4F21B33 		movt	r3, 17179
 532 008e A3FB0413 		umull	r1, r3, r3, r4
 533 0092 E1E7     		b	.L46
 534              	.LVL60:
 535              	.L48:
 536              		.loc 1 192 0
 537 0094 40F20000 		movw	r0, #:lower16:SD2
 538 0098 40F20001 		movw	r1, #:lower16:.LC2
 539 009c C0F20000 		movt	r0, #:upper16:SD2
 540 00a0 C0F20001 		movt	r1, #:upper16:.LC2
 541 00a4 FFF7FEFF 		bl	chprintf
 542              	.LVL61:
 543 00a8 C7E7     		b	.L30
 544              	.LVL62:
 545              	.L35:
 546              		.loc 1 220 0
 547 00aa 6B68     		ldr	r3, [r5, #4]
 548 00ac 5B06     		lsls	r3, r3, #25
 549 00ae DFD5     		bpl	.L28
 550              		.loc 1 223 0
 551 00b0 3046     		mov	r0, r6
 552 00b2 FFF7FEFF 		bl	calcul_startup
 553              	.LVL63:
 554 00b6 04EB4401 		add	r1, r4, r4, lsl #1
 555 00ba 4DF68362 		movw	r2, #56963
 556 00be 8900     		lsls	r1, r1, #2
 557 00c0 C4F21B32 		movt	r2, 17179
 558 00c4 0346     		mov	r3, r0
 559 00c6 A2FB0101 		umull	r0, r1, r2, r1
 560 00ca B3EB914F 		cmp	r3, r1, lsr #18
 561 00ce CFD2     		bcs	.L28
 562              		.loc 1 225 0
 563 00d0 04EB8404 		add	r4, r4, r4, lsl #2
ARM GAS  /tmp/ccNQmvjm.s 			page 11


 564              	.LVL64:
 565 00d4 E400     		lsls	r4, r4, #3
 566 00d6 A2FB0412 		umull	r1, r2, r2, r4
 567 00da 40F20000 		movw	r0, #:lower16:SD2
 568 00de 40F20001 		movw	r1, #:lower16:.LC3
 569 00e2 920C     		lsrs	r2, r2, #18
 570              	.L43:
 571 00e4 C0F20000 		movt	r0, #:upper16:SD2
 572 00e8 C0F20001 		movt	r1, #:upper16:.LC3
 573              		.loc 1 234 0
 574 00ec 02B0     		add	sp, sp, #8
 575              		@ sp needed
 576 00ee BDE87040 		pop	{r4, r5, r6, lr}
 577              	.LVL65:
 578              		.loc 1 225 0
 579 00f2 FFF7FEBF 		b	chprintf
 580              	.LVL66:
 581              	.L47:
 582              		.loc 1 188 0
 583 00f6 40F20000 		movw	r0, #:lower16:SD2
 584 00fa 40F20001 		movw	r1, #:lower16:.LC1
 585 00fe C0F20000 		movt	r0, #:upper16:SD2
 586 0102 C0F20001 		movt	r1, #:upper16:.LC1
 587 0106 0122     		movs	r2, #1
 588 0108 FFF7FEFF 		bl	chprintf
 589              	.LVL67:
 590 010c 95E7     		b	.L30
 591              	.LVL68:
 592              	.L49:
 593              		.loc 1 208 0
 594 010e 40F20000 		movw	r0, #:lower16:SD2
 595 0112 40F20001 		movw	r1, #:lower16:.LC4
 596 0116 C0F20000 		movt	r0, #:upper16:SD2
 597 011a C0F20001 		movt	r1, #:upper16:.LC4
 598 011e FFF7FEFF 		bl	chprintf
 599              	.LVL69:
 600              		.loc 1 210 0
 601 0122 6B68     		ldr	r3, [r5, #4]
 602 0124 5A06     		lsls	r2, r3, #25
 603 0126 C0D4     		bmi	.L35
 604 0128 AAE7     		b	.L50
 605              		.cfi_endproc
 606              	.LFE44:
 607              		.size	ADC_check, .-ADC_check
 608 012a 00BFAFF3 		.section	.text.ADC_GetConvertedData,"ax",%progbits
 608      0080
 609              		.align	2
 610              		.p2align 4,,15
 611              		.global	ADC_GetConvertedData
 612              		.thumb
 613              		.thumb_func
 614              		.type	ADC_GetConvertedData, %function
 615              	ADC_GetConvertedData:
 616              	.LFB45:
 617              		.loc 1 245 0
 618              		.cfi_startproc
 619              		@ args = 0, pretend = 0, frame = 0
ARM GAS  /tmp/ccNQmvjm.s 			page 12


 620              		@ frame_needed = 0, uses_anonymous_args = 0
 621              		@ link register save eliminated.
 622              	.LVL70:
 623              		.loc 1 249 0
 624 0000 0F29     		cmp	r1, #15
 625              		.loc 1 251 0
 626 0002 9ABF     		itte	ls
 627 0004 1431     		addls	r1, r1, #20
 628              	.LVL71:
 629 0006 50F82100 		ldrls	r0, [r0, r1, lsl #2]
 630              	.LVL72:
 631              		.loc 1 246 0
 632 000a 0020     		movhi	r0, #0
 633              	.LVL73:
 634              		.loc 1 255 0
 635 000c 7047     		bx	lr
 636              		.cfi_endproc
 637              	.LFE45:
 638              		.size	ADC_GetConvertedData, .-ADC_GetConvertedData
 639 000e 00BF     		.section	.text.ADC_SetCompareChannel,"ax",%progbits
 640              		.align	2
 641              		.p2align 4,,15
 642              		.global	ADC_SetCompareChannel
 643              		.thumb
 644              		.thumb_func
 645              		.type	ADC_SetCompareChannel, %function
 646              	ADC_SetCompareChannel:
 647              	.LFB46:
 648              		.loc 1 263 0
 649              		.cfi_startproc
 650              		@ args = 0, pretend = 0, frame = 0
 651              		@ frame_needed = 0, uses_anonymous_args = 0
 652              	.LVL74:
 653              		.loc 1 264 0
 654 0000 1029     		cmp	r1, #16
 655              		.loc 1 263 0
 656 0002 08B5     		push	{r3, lr}
 657              		.cfi_def_cfa_offset 8
 658              		.cfi_offset 3, -8
 659              		.cfi_offset 14, -4
 660              		.loc 1 264 0
 661 0004 12D8     		bhi	.L58
 662              		.loc 1 268 0
 663 0006 036C     		ldr	r3, [r0, #64]
 664 0008 1DBF     		ittte	ne
 665 000a 23F40073 		bicne	r3, r3, #512
 666 000e 0364     		strne	r3, [r0, #64]
 667              		.loc 1 269 0
 668 0010 036C     		ldrne	r3, [r0, #64]
 669              		.loc 1 274 0
 670 0012 43F40073 		orreq	r3, r3, #512
 671              		.loc 1 269 0
 672 0016 1DBF     		ittte	ne
 673 0018 23F0F003 		bicne	r3, r3, #240
 674 001c 0364     		strne	r3, [r0, #64]
 675              		.loc 1 270 0
 676 001e 036C     		ldrne	r3, [r0, #64]
ARM GAS  /tmp/ccNQmvjm.s 			page 13


 677              		.loc 1 274 0
 678 0020 0364     		streq	r3, [r0, #64]
 679              		.loc 1 270 0
 680 0022 1CBF     		itt	ne
 681 0024 43EA0111 		orrne	r1, r3, r1, lsl #4
 682              	.LVL75:
 683 0028 0164     		strne	r1, [r0, #64]
 684 002a 08BD     		pop	{r3, pc}
 685              	.LVL76:
 686              	.L58:
 687              		.loc 1 264 0 discriminator 1
 688 002c 40F20000 		movw	r0, #:lower16:.LC5
 689              	.LVL77:
 690 0030 40F20002 		movw	r2, #:lower16:.LANCHOR0
 691 0034 40F20003 		movw	r3, #:lower16:.LC6
 692 0038 C0F20000 		movt	r0, #:upper16:.LC5
 693 003c C0F20002 		movt	r2, #:upper16:.LANCHOR0
 694 0040 C0F20003 		movt	r3, #:upper16:.LC6
 695 0044 4FF48471 		mov	r1, #264
 696              	.LVL78:
 697 0048 FFF7FEFF 		bl	__assert_func
 698              	.LVL79:
 699              		.cfi_endproc
 700              	.LFE46:
 701              		.size	ADC_SetCompareChannel, .-ADC_SetCompareChannel
 702 004c AFF30080 		.section	.text.ADC_SetCompareMode,"ax",%progbits
 703              		.align	2
 704              		.p2align 4,,15
 705              		.global	ADC_SetCompareMode
 706              		.thumb
 707              		.thumb_func
 708              		.type	ADC_SetCompareMode, %function
 709              	ADC_SetCompareMode:
 710              	.LFB47:
 711              		.loc 1 284 0
 712              		.cfi_startproc
 713              		@ args = 0, pretend = 0, frame = 0
 714              		@ frame_needed = 0, uses_anonymous_args = 0
 715              		@ link register save eliminated.
 716              	.LVL80:
 717              		.loc 1 285 0
 718 0000 036C     		ldr	r3, [r0, #64]
 719              		.loc 1 286 0
 720 0002 01F00301 		and	r1, r1, #3
 721              	.LVL81:
 722              		.loc 1 285 0
 723 0006 23F00303 		bic	r3, r3, #3
 724 000a 0364     		str	r3, [r0, #64]
 725              		.loc 1 286 0
 726 000c 036C     		ldr	r3, [r0, #64]
 727 000e 1943     		orrs	r1, r1, r3
 728 0010 0164     		str	r1, [r0, #64]
 729 0012 7047     		bx	lr
 730              		.cfi_endproc
 731              	.LFE47:
 732              		.size	ADC_SetCompareMode, .-ADC_SetCompareMode
 733 0014 AFF30080 		.section	.text.ADC_SetComparisonWindow,"ax",%progbits
ARM GAS  /tmp/ccNQmvjm.s 			page 14


 733      AFF30080 
 733      AFF30080 
 734              		.align	2
 735              		.p2align 4,,15
 736              		.global	ADC_SetComparisonWindow
 737              		.thumb
 738              		.thumb_func
 739              		.type	ADC_SetComparisonWindow, %function
 740              	ADC_SetComparisonWindow:
 741              	.LFB48:
 742              		.loc 1 295 0
 743              		.cfi_startproc
 744              		@ args = 0, pretend = 0, frame = 0
 745              		@ frame_needed = 0, uses_anonymous_args = 0
 746              		@ link register save eliminated.
 747              	.LVL82:
 748              		.loc 1 296 0
 749 0000 4164     		str	r1, [r0, #68]
 750 0002 7047     		bx	lr
 751              		.cfi_endproc
 752              	.LFE48:
 753              		.size	ADC_SetComparisonWindow, .-ADC_SetComparisonWindow
 754 0004 AFF30080 		.section	.text.ADC_IsInterruptMasked,"ax",%progbits
 754      AFF30080 
 754      AFF30080 
 755              		.align	2
 756              		.p2align 4,,15
 757              		.global	ADC_IsInterruptMasked
 758              		.thumb
 759              		.thumb_func
 760              		.type	ADC_IsInterruptMasked, %function
 761              	ADC_IsInterruptMasked:
 762              	.LFB49:
 763              		.loc 1 308 0
 764              		.cfi_startproc
 765              		@ args = 0, pretend = 0, frame = 0
 766              		@ frame_needed = 0, uses_anonymous_args = 0
 767              		@ link register save eliminated.
 768              	.LVL83:
 769              		.loc 1 309 0
 770 0000 C06A     		ldr	r0, [r0, #44]
 771              	.LVL84:
 772              		.loc 1 310 0
 773 0002 0840     		ands	r0, r0, r1
 774 0004 7047     		bx	lr
 775              		.cfi_endproc
 776              	.LFE49:
 777              		.size	ADC_IsInterruptMasked, .-ADC_IsInterruptMasked
 778 0006 00BFAFF3 		.section	.text.ADC_IsStatusSet,"ax",%progbits
 778      0080AFF3 
 778      0080
 779              		.align	2
 780              		.p2align 4,,15
 781              		.global	ADC_IsStatusSet
 782              		.thumb
 783              		.thumb_func
 784              		.type	ADC_IsStatusSet, %function
ARM GAS  /tmp/ccNQmvjm.s 			page 15


 785              	ADC_IsStatusSet:
 786              	.LFB50:
 787              		.loc 1 321 0
 788              		.cfi_startproc
 789              		@ args = 0, pretend = 0, frame = 0
 790              		@ frame_needed = 0, uses_anonymous_args = 0
 791              		@ link register save eliminated.
 792              	.LVL85:
 793              		.loc 1 322 0
 794 0000 006B     		ldr	r0, [r0, #48]
 795              	.LVL86:
 796              		.loc 1 323 0
 797 0002 0840     		ands	r0, r0, r1
 798 0004 7047     		bx	lr
 799              		.cfi_endproc
 800              	.LFE50:
 801              		.size	ADC_IsStatusSet, .-ADC_IsStatusSet
 802 0006 00BFAFF3 		.section	.text.ADC_IsChannelInterruptStatusSet,"ax",%progbits
 802      0080AFF3 
 802      0080
 803              		.align	2
 804              		.p2align 4,,15
 805              		.global	ADC_IsChannelInterruptStatusSet
 806              		.thumb
 807              		.thumb_func
 808              		.type	ADC_IsChannelInterruptStatusSet, %function
 809              	ADC_IsChannelInterruptStatusSet:
 810              	.LFB51:
 811              		.loc 1 334 0
 812              		.cfi_startproc
 813              		@ args = 0, pretend = 0, frame = 0
 814              		@ frame_needed = 0, uses_anonymous_args = 0
 815              		@ link register save eliminated.
 816              	.LVL87:
 817              		.loc 1 337 0
 818 0000 0123     		movs	r3, #1
 819 0002 03FA01F1 		lsl	r1, r3, r1
 820              	.LVL88:
 821 0006 0840     		ands	r0, r0, r1
 822              	.LVL89:
 823              		.loc 1 347 0
 824 0008 B1EB000C 		subs	ip, r1, r0
 825 000c DCF10000 		rsbs	r0, ip, #0
 826 0010 50EB0C00 		adcs	r0, r0, ip
 827 0014 7047     		bx	lr
 828              		.cfi_endproc
 829              	.LFE51:
 830              		.size	ADC_IsChannelInterruptStatusSet, .-ADC_IsChannelInterruptStatusSet
 831 0016 00BFAFF3 		.section	.text.ADC_ReadBuffer,"ax",%progbits
 831      0080AFF3 
 831      0080
 832              		.align	2
 833              		.p2align 4,,15
 834              		.global	ADC_ReadBuffer
 835              		.thumb
 836              		.thumb_func
 837              		.type	ADC_ReadBuffer, %function
ARM GAS  /tmp/ccNQmvjm.s 			page 16


 838              	ADC_ReadBuffer:
 839              	.LFB52:
 840              		.loc 1 357 0
 841              		.cfi_startproc
 842              		@ args = 0, pretend = 0, frame = 0
 843              		@ frame_needed = 0, uses_anonymous_args = 0
 844              		@ link register save eliminated.
 845              	.LVL90:
 846 0000 0346     		mov	r3, r0
 847              		.loc 1 359 0
 848 0002 D0F80401 		ldr	r0, [r0, #260]
 849              	.LVL91:
 850              		.loc 1 357 0
 851 0006 10B4     		push	{r4}
 852              		.cfi_def_cfa_offset 4
 853              		.cfi_offset 4, -4
 854              		.loc 1 359 0
 855 0008 10B9     		cbnz	r0, .L65
 856              		.loc 1 359 0 is_stmt 0 discriminator 1
 857 000a D3F81401 		ldr	r0, [r3, #276]
 858 000e 70B1     		cbz	r0, .L68
 859              	.L65:
 860              		.loc 1 370 0 is_stmt 1
 861 0010 D3F81401 		ldr	r0, [r3, #276]
 862 0014 38B9     		cbnz	r0, .L67
 863              		.loc 1 372 0
 864 0016 C3F81011 		str	r1, [r3, #272]
 865              		.loc 1 375 0
 866 001a 0120     		movs	r0, #1
 867              		.loc 1 373 0
 868 001c C3F81421 		str	r2, [r3, #276]
 869              		.loc 1 382 0
 870 0020 5DF8044B 		ldr	r4, [sp], #4
 871 0024 7047     		bx	lr
 872              	.L67:
 873              		.loc 1 379 0
 874 0026 0020     		movs	r0, #0
 875              		.loc 1 382 0
 876 0028 5DF8044B 		ldr	r4, [sp], #4
 877 002c 7047     		bx	lr
 878              	.L68:
 879              		.loc 1 363 0
 880 002e 0124     		movs	r4, #1
 881              		.loc 1 361 0
 882 0030 C3F80011 		str	r1, [r3, #256]
 883              		.loc 1 365 0
 884 0034 2046     		mov	r0, r4
 885              		.loc 1 362 0
 886 0036 C3F80421 		str	r2, [r3, #260]
 887              		.loc 1 363 0
 888 003a C3F82041 		str	r4, [r3, #288]
 889              		.loc 1 382 0
 890 003e 5DF8044B 		ldr	r4, [sp], #4
 891 0042 7047     		bx	lr
 892              		.cfi_endproc
 893              	.LFE52:
 894              		.size	ADC_ReadBuffer, .-ADC_ReadBuffer
ARM GAS  /tmp/ccNQmvjm.s 			page 17


 895 0044 AFF30080 		.section	.rodata.__func__.5994,"a",%progbits
 895      AFF30080 
 895      AFF30080 
 896              		.align	2
 897              		.set	.LANCHOR0,. + 0
 898              		.type	__func__.5994, %object
 899              		.size	__func__.5994, 22
 900              	__func__.5994:
 901 0000 4144435F 		.ascii	"ADC_SetCompareChannel\000"
 901      53657443 
 901      6F6D7061 
 901      72654368 
 901      616E6E65 
 902 0016 0000     		.section	.rodata.str1.4,"aMS",%progbits,1
 903              		.align	2
 904              	.LC0:
 905 0000 41444320 		.ascii	"ADC clock frequency =  %d Hz\015\012\000"
 905      636C6F63 
 905      6B206672 
 905      65717565 
 905      6E637920 
 906 001f 00       		.space	1
 907              	.LC1:
 908 0020 61646320 		.ascii	"adc frequency too low (out of specification: %d Hz)"
 908      66726571 
 908      75656E63 
 908      7920746F 
 908      6F206C6F 
 909 0053 0D0A00   		.ascii	"\015\012\000"
 910 0056 0000     		.space	2
 911              	.LC2:
 912 0058 61646320 		.ascii	"adc frequency too high (out of specification: %d Hz"
 912      66726571 
 912      75656E63 
 912      7920746F 
 912      6F206869 
 913 008b 290D0A00 		.ascii	")\015\012\000"
 914 008f 00       		.space	1
 915              	.LC3:
 916 0090 53746172 		.ascii	"Startup time too small: %d, programmed: %d\015\012\000"
 916      74757020 
 916      74696D65 
 916      20746F6F 
 916      20736D61 
 917 00bd 000000   		.space	3
 918              	.LC4:
 919 00c0 46726565 		.ascii	"FreeRun forbidden in sleep mode\012\015\000"
 919      52756E20 
 919      666F7262 
 919      69646465 
 919      6E20696E 
 920 00e2 0000     		.space	2
 921              	.LC5:
 922 00e4 2E2E2F74 		.ascii	"../third_party/ChibiOS/os/hal/platforms/AT91SAM3S/a"
 922      68697264 
 922      5F706172 
 922      74792F43 
ARM GAS  /tmp/ccNQmvjm.s 			page 18


 922      68696269 
 923 0117 746D656C 		.ascii	"tmel_adc.c\000"
 923      5F616463 
 923      2E6300
 924 0122 0000     		.space	2
 925              	.LC6:
 926 0124 64774368 		.ascii	"dwChannel <= 16\000"
 926      616E6E65 
 926      6C203C3D 
 926      20313600 
 927              		.text
 928              	.Letext0:
 929              		.file 2 "/home/santi/arm-2013.11/lib/gcc/arm-none-eabi/4.8.1/include/stddef.h"
 930              		.file 3 "/home/santi/arm-2013.11/arm-none-eabi/include/stdint.h"
 931              		.file 4 "../third_party/ChibiOS/os/ports/GCC/ARMCMx/chtypes.h"
 932              		.file 5 "../third_party/ChibiOS/os/kernel/include/chlists.h"
 933              		.file 6 "../third_party/ChibiOS/os/kernel/include/chthreads.h"
 934              		.file 7 "../third_party/ChibiOS/os/ports/GCC/ARMCMx/chcore_v7m.h"
 935              		.file 8 "../third_party/ChibiOS/os/kernel/include/chmtx.h"
 936              		.file 9 "../third_party/ChibiOS/os/kernel/include/chevents.h"
 937              		.file 10 "../third_party/ChibiOS/os/kernel/include/chqueues.h"
 938              		.file 11 "../third_party/ChibiOS/os/kernel/include/chioch.h"
 939              		.file 12 "../third_party/ChibiOS/os/hal/platforms/AT91SAM3S/at91lib/SAM3S.h"
 940              		.file 13 "../third_party/ChibiOS/os/hal/include/serial.h"
 941              		.file 14 "../third_party/ChibiOS/os/hal/platforms/AT91SAM3S/core_cm3.h"
 942              		.file 15 "../third_party/ChibiOS/os/hal/platforms/AT91SAM3S/serial_lld.h"
 943              		.file 16 "../third_party/ChibiOS/os/various/chprintf.h"
 944              		.file 17 "/home/santi/arm-2013.11/arm-none-eabi/include/assert.h"
 945              		.section	.debug_info,"",%progbits
 946              	.Ldebug_info0:
 947 0000 D9120000 		.4byte	0x12d9
 948 0004 0400     		.2byte	0x4
 949 0006 00000000 		.4byte	.Ldebug_abbrev0
 950 000a 04       		.byte	0x4
 951 000b 01       		.uleb128 0x1
 952 000c 55000000 		.4byte	.LASF226
 953 0010 01       		.byte	0x1
 954 0011 06010000 		.4byte	.LASF227
 955 0015 62050000 		.4byte	.LASF228
 956 0019 18000000 		.4byte	.Ldebug_ranges0+0x18
 957 001d 00000000 		.4byte	0
 958 0021 00000000 		.4byte	.Ldebug_line0
 959 0025 02       		.uleb128 0x2
 960 0026 04       		.byte	0x4
 961 0027 05       		.byte	0x5
 962 0028 696E7400 		.ascii	"int\000"
 963 002c 03       		.uleb128 0x3
 964 002d 10000000 		.4byte	.LASF2
 965 0031 02       		.byte	0x2
 966 0032 D4       		.byte	0xd4
 967 0033 37000000 		.4byte	0x37
 968 0037 04       		.uleb128 0x4
 969 0038 04       		.byte	0x4
 970 0039 07       		.byte	0x7
 971 003a 5D030000 		.4byte	.LASF0
 972 003e 04       		.uleb128 0x4
 973 003f 01       		.byte	0x1
ARM GAS  /tmp/ccNQmvjm.s 			page 19


 974 0040 06       		.byte	0x6
 975 0041 AE010000 		.4byte	.LASF1
 976 0045 03       		.uleb128 0x3
 977 0046 D5080000 		.4byte	.LASF3
 978 004a 03       		.byte	0x3
 979 004b 2A       		.byte	0x2a
 980 004c 50000000 		.4byte	0x50
 981 0050 04       		.uleb128 0x4
 982 0051 01       		.byte	0x1
 983 0052 08       		.byte	0x8
 984 0053 74060000 		.4byte	.LASF4
 985 0057 03       		.uleb128 0x3
 986 0058 86090000 		.4byte	.LASF5
 987 005c 03       		.byte	0x3
 988 005d 35       		.byte	0x35
 989 005e 62000000 		.4byte	0x62
 990 0062 04       		.uleb128 0x4
 991 0063 02       		.byte	0x2
 992 0064 05       		.byte	0x5
 993 0065 B4060000 		.4byte	.LASF6
 994 0069 04       		.uleb128 0x4
 995 006a 02       		.byte	0x2
 996 006b 07       		.byte	0x7
 997 006c EB030000 		.4byte	.LASF7
 998 0070 03       		.uleb128 0x3
 999 0071 6C060000 		.4byte	.LASF8
 1000 0075 03       		.byte	0x3
 1001 0076 4F       		.byte	0x4f
 1002 0077 7B000000 		.4byte	0x7b
 1003 007b 04       		.uleb128 0x4
 1004 007c 04       		.byte	0x4
 1005 007d 05       		.byte	0x5
 1006 007e 5A020000 		.4byte	.LASF9
 1007 0082 03       		.uleb128 0x3
 1008 0083 93080000 		.4byte	.LASF10
 1009 0087 03       		.byte	0x3
 1010 0088 50       		.byte	0x50
 1011 0089 8D000000 		.4byte	0x8d
 1012 008d 04       		.uleb128 0x4
 1013 008e 04       		.byte	0x4
 1014 008f 07       		.byte	0x7
 1015 0090 A4070000 		.4byte	.LASF11
 1016 0094 04       		.uleb128 0x4
 1017 0095 08       		.byte	0x8
 1018 0096 05       		.byte	0x5
 1019 0097 A0010000 		.4byte	.LASF12
 1020 009b 04       		.uleb128 0x4
 1021 009c 08       		.byte	0x8
 1022 009d 07       		.byte	0x7
 1023 009e 44010000 		.4byte	.LASF13
 1024 00a2 03       		.uleb128 0x3
 1025 00a3 FC050000 		.4byte	.LASF14
 1026 00a7 03       		.byte	0x3
 1027 00a8 A6       		.byte	0xa6
 1028 00a9 37000000 		.4byte	0x37
 1029 00ad 03       		.uleb128 0x3
 1030 00ae E4010000 		.4byte	.LASF15
ARM GAS  /tmp/ccNQmvjm.s 			page 20


 1031 00b2 04       		.byte	0x4
 1032 00b3 2E       		.byte	0x2e
 1033 00b4 70000000 		.4byte	0x70
 1034 00b8 03       		.uleb128 0x3
 1035 00b9 EA060000 		.4byte	.LASF16
 1036 00bd 04       		.byte	0x4
 1037 00be 2F       		.byte	0x2f
 1038 00bf 45000000 		.4byte	0x45
 1039 00c3 03       		.uleb128 0x3
 1040 00c4 74020000 		.4byte	.LASF17
 1041 00c8 04       		.byte	0x4
 1042 00c9 30       		.byte	0x30
 1043 00ca 45000000 		.4byte	0x45
 1044 00ce 03       		.uleb128 0x3
 1045 00cf F4050000 		.4byte	.LASF18
 1046 00d3 04       		.byte	0x4
 1047 00d4 31       		.byte	0x31
 1048 00d5 45000000 		.4byte	0x45
 1049 00d9 03       		.uleb128 0x3
 1050 00da 22060000 		.4byte	.LASF19
 1051 00de 04       		.byte	0x4
 1052 00df 32       		.byte	0x32
 1053 00e0 82000000 		.4byte	0x82
 1054 00e4 03       		.uleb128 0x3
 1055 00e5 2A040000 		.4byte	.LASF20
 1056 00e9 04       		.byte	0x4
 1057 00ea 33       		.byte	0x33
 1058 00eb 70000000 		.4byte	0x70
 1059 00ef 03       		.uleb128 0x3
 1060 00f0 71040000 		.4byte	.LASF21
 1061 00f4 04       		.byte	0x4
 1062 00f5 35       		.byte	0x35
 1063 00f6 82000000 		.4byte	0x82
 1064 00fa 03       		.uleb128 0x3
 1065 00fb F8070000 		.4byte	.LASF22
 1066 00ff 04       		.byte	0x4
 1067 0100 36       		.byte	0x36
 1068 0101 82000000 		.4byte	0x82
 1069 0105 03       		.uleb128 0x3
 1070 0106 25030000 		.4byte	.LASF23
 1071 010a 05       		.byte	0x5
 1072 010b 2A       		.byte	0x2a
 1073 010c 10010000 		.4byte	0x110
 1074 0110 05       		.uleb128 0x5
 1075 0111 25030000 		.4byte	.LASF23
 1076 0115 48       		.byte	0x48
 1077 0116 06       		.byte	0x6
 1078 0117 5E       		.byte	0x5e
 1079 0118 01020000 		.4byte	0x201
 1080 011c 06       		.uleb128 0x6
 1081 011d E3060000 		.4byte	.LASF24
 1082 0121 06       		.byte	0x6
 1083 0122 5F       		.byte	0x5f
 1084 0123 22020000 		.4byte	0x222
 1085 0127 00       		.byte	0
 1086 0128 06       		.uleb128 0x6
 1087 0129 DF040000 		.4byte	.LASF25
ARM GAS  /tmp/ccNQmvjm.s 			page 21


 1088 012d 06       		.byte	0x6
 1089 012e 61       		.byte	0x61
 1090 012f 22020000 		.4byte	0x222
 1091 0133 04       		.byte	0x4
 1092 0134 06       		.uleb128 0x6
 1093 0135 80010000 		.4byte	.LASF26
 1094 0139 06       		.byte	0x6
 1095 013a 63       		.byte	0x63
 1096 013b D9000000 		.4byte	0xd9
 1097 013f 08       		.byte	0x8
 1098 0140 06       		.uleb128 0x6
 1099 0141 9E090000 		.4byte	.LASF27
 1100 0145 06       		.byte	0x6
 1101 0146 64       		.byte	0x64
 1102 0147 DB020000 		.4byte	0x2db
 1103 014b 0C       		.byte	0xc
 1104 014c 06       		.uleb128 0x6
 1105 014d C8020000 		.4byte	.LASF28
 1106 0151 06       		.byte	0x6
 1107 0152 66       		.byte	0x66
 1108 0153 22020000 		.4byte	0x222
 1109 0157 10       		.byte	0x10
 1110 0158 06       		.uleb128 0x6
 1111 0159 D4060000 		.4byte	.LASF29
 1112 015d 06       		.byte	0x6
 1113 015e 67       		.byte	0x67
 1114 015f 22020000 		.4byte	0x222
 1115 0163 14       		.byte	0x14
 1116 0164 06       		.uleb128 0x6
 1117 0165 3E080000 		.4byte	.LASF30
 1118 0169 06       		.byte	0x6
 1119 016a 6E       		.byte	0x6e
 1120 016b EA030000 		.4byte	0x3ea
 1121 016f 18       		.byte	0x18
 1122 0170 06       		.uleb128 0x6
 1123 0171 BE060000 		.4byte	.LASF31
 1124 0175 06       		.byte	0x6
 1125 0176 79       		.byte	0x79
 1126 0177 C3000000 		.4byte	0xc3
 1127 017b 1C       		.byte	0x1c
 1128 017c 06       		.uleb128 0x6
 1129 017d FC060000 		.4byte	.LASF32
 1130 0181 06       		.byte	0x6
 1131 0182 7D       		.byte	0x7d
 1132 0183 B8000000 		.4byte	0xb8
 1133 0187 1D       		.byte	0x1d
 1134 0188 06       		.uleb128 0x6
 1135 0189 ED050000 		.4byte	.LASF33
 1136 018d 06       		.byte	0x6
 1137 018e 82       		.byte	0x82
 1138 018f CE000000 		.4byte	0xce
 1139 0193 1E       		.byte	0x1e
 1140 0194 06       		.uleb128 0x6
 1141 0195 B8020000 		.4byte	.LASF34
 1142 0199 06       		.byte	0x6
 1143 019a 89       		.byte	0x89
 1144 019b 08030000 		.4byte	0x308
ARM GAS  /tmp/ccNQmvjm.s 			page 22


 1145 019f 20       		.byte	0x20
 1146 01a0 07       		.uleb128 0x7
 1147 01a1 705F7500 		.ascii	"p_u\000"
 1148 01a5 06       		.byte	0x6
 1149 01a6 AE       		.byte	0xae
 1150 01a7 B5030000 		.4byte	0x3b5
 1151 01ab 24       		.byte	0x24
 1152 01ac 06       		.uleb128 0x6
 1153 01ad D5040000 		.4byte	.LASF35
 1154 01b1 06       		.byte	0x6
 1155 01b2 B3       		.byte	0xb3
 1156 01b3 48020000 		.4byte	0x248
 1157 01b7 28       		.byte	0x28
 1158 01b8 06       		.uleb128 0x6
 1159 01b9 90030000 		.4byte	.LASF36
 1160 01bd 06       		.byte	0x6
 1161 01be B9       		.byte	0xb9
 1162 01bf 28020000 		.4byte	0x228
 1163 01c3 2C       		.byte	0x2c
 1164 01c4 06       		.uleb128 0x6
 1165 01c5 CF080000 		.4byte	.LASF37
 1166 01c9 06       		.byte	0x6
 1167 01ca BD       		.byte	0xbd
 1168 01cb E4000000 		.4byte	0xe4
 1169 01cf 34       		.byte	0x34
 1170 01d0 06       		.uleb128 0x6
 1171 01d1 52070000 		.4byte	.LASF38
 1172 01d5 06       		.byte	0x6
 1173 01d6 C3       		.byte	0xc3
 1174 01d7 EF000000 		.4byte	0xef
 1175 01db 38       		.byte	0x38
 1176 01dc 06       		.uleb128 0x6
 1177 01dd AA060000 		.4byte	.LASF39
 1178 01e1 06       		.byte	0x6
 1179 01e2 CA       		.byte	0xca
 1180 01e3 FC030000 		.4byte	0x3fc
 1181 01e7 3C       		.byte	0x3c
 1182 01e8 06       		.uleb128 0x6
 1183 01e9 02080000 		.4byte	.LASF40
 1184 01ed 06       		.byte	0x6
 1185 01ee CE       		.byte	0xce
 1186 01ef D9000000 		.4byte	0xd9
 1187 01f3 40       		.byte	0x40
 1188 01f4 06       		.uleb128 0x6
 1189 01f5 DC010000 		.4byte	.LASF41
 1190 01f9 06       		.byte	0x6
 1191 01fa D4       		.byte	0xd4
 1192 01fb 5E020000 		.4byte	0x25e
 1193 01ff 44       		.byte	0x44
 1194 0200 00       		.byte	0
 1195 0201 08       		.uleb128 0x8
 1196 0202 08       		.byte	0x8
 1197 0203 05       		.byte	0x5
 1198 0204 61       		.byte	0x61
 1199 0205 22020000 		.4byte	0x222
 1200 0209 06       		.uleb128 0x6
 1201 020a E3060000 		.4byte	.LASF24
ARM GAS  /tmp/ccNQmvjm.s 			page 23


 1202 020e 05       		.byte	0x5
 1203 020f 62       		.byte	0x62
 1204 0210 22020000 		.4byte	0x222
 1205 0214 00       		.byte	0
 1206 0215 06       		.uleb128 0x6
 1207 0216 DF040000 		.4byte	.LASF25
 1208 021a 05       		.byte	0x5
 1209 021b 64       		.byte	0x64
 1210 021c 22020000 		.4byte	0x222
 1211 0220 04       		.byte	0x4
 1212 0221 00       		.byte	0
 1213 0222 09       		.uleb128 0x9
 1214 0223 04       		.byte	0x4
 1215 0224 05010000 		.4byte	0x105
 1216 0228 03       		.uleb128 0x3
 1217 0229 B2040000 		.4byte	.LASF42
 1218 022d 05       		.byte	0x5
 1219 022e 66       		.byte	0x66
 1220 022f 01020000 		.4byte	0x201
 1221 0233 08       		.uleb128 0x8
 1222 0234 04       		.byte	0x4
 1223 0235 05       		.byte	0x5
 1224 0236 6B       		.byte	0x6b
 1225 0237 48020000 		.4byte	0x248
 1226 023b 06       		.uleb128 0x6
 1227 023c E3060000 		.4byte	.LASF24
 1228 0240 05       		.byte	0x5
 1229 0241 6D       		.byte	0x6d
 1230 0242 22020000 		.4byte	0x222
 1231 0246 00       		.byte	0
 1232 0247 00       		.byte	0
 1233 0248 03       		.uleb128 0x3
 1234 0249 65040000 		.4byte	.LASF43
 1235 024d 05       		.byte	0x5
 1236 024e 70       		.byte	0x70
 1237 024f 33020000 		.4byte	0x233
 1238 0253 03       		.uleb128 0x3
 1239 0254 0B030000 		.4byte	.LASF44
 1240 0258 07       		.byte	0x7
 1241 0259 D7       		.byte	0xd7
 1242 025a 5E020000 		.4byte	0x25e
 1243 025e 0A       		.uleb128 0xa
 1244 025f 04       		.byte	0x4
 1245 0260 05       		.uleb128 0x5
 1246 0261 7A080000 		.4byte	.LASF45
 1247 0265 24       		.byte	0x24
 1248 0266 07       		.byte	0x7
 1249 0267 FE       		.byte	0xfe
 1250 0268 DB020000 		.4byte	0x2db
 1251 026c 0B       		.uleb128 0xb
 1252 026d 723400   		.ascii	"r4\000"
 1253 0270 07       		.byte	0x7
 1254 0271 1101     		.2byte	0x111
 1255 0273 53020000 		.4byte	0x253
 1256 0277 00       		.byte	0
 1257 0278 0B       		.uleb128 0xb
 1258 0279 723500   		.ascii	"r5\000"
ARM GAS  /tmp/ccNQmvjm.s 			page 24


 1259 027c 07       		.byte	0x7
 1260 027d 1201     		.2byte	0x112
 1261 027f 53020000 		.4byte	0x253
 1262 0283 04       		.byte	0x4
 1263 0284 0B       		.uleb128 0xb
 1264 0285 723600   		.ascii	"r6\000"
 1265 0288 07       		.byte	0x7
 1266 0289 1301     		.2byte	0x113
 1267 028b 53020000 		.4byte	0x253
 1268 028f 08       		.byte	0x8
 1269 0290 0B       		.uleb128 0xb
 1270 0291 723700   		.ascii	"r7\000"
 1271 0294 07       		.byte	0x7
 1272 0295 1401     		.2byte	0x114
 1273 0297 53020000 		.4byte	0x253
 1274 029b 0C       		.byte	0xc
 1275 029c 0B       		.uleb128 0xb
 1276 029d 723800   		.ascii	"r8\000"
 1277 02a0 07       		.byte	0x7
 1278 02a1 1501     		.2byte	0x115
 1279 02a3 53020000 		.4byte	0x253
 1280 02a7 10       		.byte	0x10
 1281 02a8 0B       		.uleb128 0xb
 1282 02a9 723900   		.ascii	"r9\000"
 1283 02ac 07       		.byte	0x7
 1284 02ad 1601     		.2byte	0x116
 1285 02af 53020000 		.4byte	0x253
 1286 02b3 14       		.byte	0x14
 1287 02b4 0B       		.uleb128 0xb
 1288 02b5 72313000 		.ascii	"r10\000"
 1289 02b9 07       		.byte	0x7
 1290 02ba 1701     		.2byte	0x117
 1291 02bc 53020000 		.4byte	0x253
 1292 02c0 18       		.byte	0x18
 1293 02c1 0B       		.uleb128 0xb
 1294 02c2 72313100 		.ascii	"r11\000"
 1295 02c6 07       		.byte	0x7
 1296 02c7 1801     		.2byte	0x118
 1297 02c9 53020000 		.4byte	0x253
 1298 02cd 1C       		.byte	0x1c
 1299 02ce 0B       		.uleb128 0xb
 1300 02cf 6C7200   		.ascii	"lr\000"
 1301 02d2 07       		.byte	0x7
 1302 02d3 1901     		.2byte	0x119
 1303 02d5 53020000 		.4byte	0x253
 1304 02d9 20       		.byte	0x20
 1305 02da 00       		.byte	0
 1306 02db 0C       		.uleb128 0xc
 1307 02dc 61080000 		.4byte	.LASF46
 1308 02e0 04       		.byte	0x4
 1309 02e1 07       		.byte	0x7
 1310 02e2 2301     		.2byte	0x123
 1311 02e4 F6020000 		.4byte	0x2f6
 1312 02e8 0B       		.uleb128 0xb
 1313 02e9 72313300 		.ascii	"r13\000"
 1314 02ed 07       		.byte	0x7
 1315 02ee 2401     		.2byte	0x124
ARM GAS  /tmp/ccNQmvjm.s 			page 25


 1316 02f0 F6020000 		.4byte	0x2f6
 1317 02f4 00       		.byte	0
 1318 02f5 00       		.byte	0
 1319 02f6 09       		.uleb128 0x9
 1320 02f7 04       		.byte	0x4
 1321 02f8 60020000 		.4byte	0x260
 1322 02fc 0D       		.uleb128 0xd
 1323 02fd 82000000 		.4byte	0x82
 1324 0301 04       		.uleb128 0x4
 1325 0302 04       		.byte	0x4
 1326 0303 07       		.byte	0x7
 1327 0304 E6040000 		.4byte	.LASF47
 1328 0308 0D       		.uleb128 0xd
 1329 0309 FA000000 		.4byte	0xfa
 1330 030d 05       		.uleb128 0x5
 1331 030e 02050000 		.4byte	.LASF48
 1332 0312 10       		.byte	0x10
 1333 0313 08       		.byte	0x8
 1334 0314 2C       		.byte	0x2c
 1335 0315 3E030000 		.4byte	0x33e
 1336 0319 06       		.uleb128 0x6
 1337 031a EB010000 		.4byte	.LASF49
 1338 031e 08       		.byte	0x8
 1339 031f 2D       		.byte	0x2d
 1340 0320 28020000 		.4byte	0x228
 1341 0324 00       		.byte	0
 1342 0325 06       		.uleb128 0x6
 1343 0326 8E090000 		.4byte	.LASF50
 1344 032a 08       		.byte	0x8
 1345 032b 2F       		.byte	0x2f
 1346 032c 22020000 		.4byte	0x222
 1347 0330 08       		.byte	0x8
 1348 0331 06       		.uleb128 0x6
 1349 0332 97050000 		.4byte	.LASF51
 1350 0336 08       		.byte	0x8
 1351 0337 31       		.byte	0x31
 1352 0338 3E030000 		.4byte	0x33e
 1353 033c 0C       		.byte	0xc
 1354 033d 00       		.byte	0
 1355 033e 09       		.uleb128 0x9
 1356 033f 04       		.byte	0x4
 1357 0340 0D030000 		.4byte	0x30d
 1358 0344 03       		.uleb128 0x3
 1359 0345 02050000 		.4byte	.LASF48
 1360 0349 08       		.byte	0x8
 1361 034a 33       		.byte	0x33
 1362 034b 0D030000 		.4byte	0x30d
 1363 034f 03       		.uleb128 0x3
 1364 0350 24090000 		.4byte	.LASF52
 1365 0354 09       		.byte	0x9
 1366 0355 29       		.byte	0x29
 1367 0356 5A030000 		.4byte	0x35a
 1368 035a 05       		.uleb128 0x5
 1369 035b 24090000 		.4byte	.LASF52
 1370 035f 0C       		.byte	0xc
 1371 0360 09       		.byte	0x9
 1372 0361 2E       		.byte	0x2e
ARM GAS  /tmp/ccNQmvjm.s 			page 26


 1373 0362 8B030000 		.4byte	0x38b
 1374 0366 06       		.uleb128 0x6
 1375 0367 41040000 		.4byte	.LASF53
 1376 036b 09       		.byte	0x9
 1377 036c 2F       		.byte	0x2f
 1378 036d 8B030000 		.4byte	0x38b
 1379 0371 00       		.byte	0
 1380 0372 06       		.uleb128 0x6
 1381 0373 94060000 		.4byte	.LASF54
 1382 0377 09       		.byte	0x9
 1383 0378 32       		.byte	0x32
 1384 0379 22020000 		.4byte	0x222
 1385 037d 04       		.byte	0x4
 1386 037e 06       		.uleb128 0x6
 1387 037f A7050000 		.4byte	.LASF55
 1388 0383 09       		.byte	0x9
 1389 0384 34       		.byte	0x34
 1390 0385 EF000000 		.4byte	0xef
 1391 0389 08       		.byte	0x8
 1392 038a 00       		.byte	0
 1393 038b 09       		.uleb128 0x9
 1394 038c 04       		.byte	0x4
 1395 038d 4F030000 		.4byte	0x34f
 1396 0391 05       		.uleb128 0x5
 1397 0392 2C030000 		.4byte	.LASF56
 1398 0396 04       		.byte	0x4
 1399 0397 09       		.byte	0x9
 1400 0398 3C       		.byte	0x3c
 1401 0399 AA030000 		.4byte	0x3aa
 1402 039d 06       		.uleb128 0x6
 1403 039e AF080000 		.4byte	.LASF57
 1404 03a2 09       		.byte	0x9
 1405 03a3 3D       		.byte	0x3d
 1406 03a4 8B030000 		.4byte	0x38b
 1407 03a8 00       		.byte	0
 1408 03a9 00       		.byte	0
 1409 03aa 03       		.uleb128 0x3
 1410 03ab 2C030000 		.4byte	.LASF56
 1411 03af 09       		.byte	0x9
 1412 03b0 40       		.byte	0x40
 1413 03b1 91030000 		.4byte	0x391
 1414 03b5 0E       		.uleb128 0xe
 1415 03b6 04       		.byte	0x4
 1416 03b7 06       		.byte	0x6
 1417 03b8 90       		.byte	0x90
 1418 03b9 EA030000 		.4byte	0x3ea
 1419 03bd 0F       		.uleb128 0xf
 1420 03be A8080000 		.4byte	.LASF58
 1421 03c2 06       		.byte	0x6
 1422 03c3 97       		.byte	0x97
 1423 03c4 E4000000 		.4byte	0xe4
 1424 03c8 0F       		.uleb128 0xf
 1425 03c9 6A010000 		.4byte	.LASF59
 1426 03cd 06       		.byte	0x6
 1427 03ce 9E       		.byte	0x9e
 1428 03cf E4000000 		.4byte	0xe4
 1429 03d3 0F       		.uleb128 0xf
ARM GAS  /tmp/ccNQmvjm.s 			page 27


 1430 03d4 50040000 		.4byte	.LASF60
 1431 03d8 06       		.byte	0x6
 1432 03d9 A5       		.byte	0xa5
 1433 03da 5E020000 		.4byte	0x25e
 1434 03de 0F       		.uleb128 0xf
 1435 03df DC060000 		.4byte	.LASF61
 1436 03e3 06       		.byte	0x6
 1437 03e4 AC       		.byte	0xac
 1438 03e5 EF000000 		.4byte	0xef
 1439 03e9 00       		.byte	0
 1440 03ea 09       		.uleb128 0x9
 1441 03eb 04       		.byte	0x4
 1442 03ec F0030000 		.4byte	0x3f0
 1443 03f0 10       		.uleb128 0x10
 1444 03f1 F5030000 		.4byte	0x3f5
 1445 03f5 04       		.uleb128 0x4
 1446 03f6 01       		.byte	0x1
 1447 03f7 08       		.byte	0x8
 1448 03f8 C3070000 		.4byte	.LASF62
 1449 03fc 09       		.uleb128 0x9
 1450 03fd 04       		.byte	0x4
 1451 03fe 44030000 		.4byte	0x344
 1452 0402 03       		.uleb128 0x3
 1453 0403 90040000 		.4byte	.LASF63
 1454 0407 0A       		.byte	0xa
 1455 0408 37       		.byte	0x37
 1456 0409 0D040000 		.4byte	0x40d
 1457 040d 05       		.uleb128 0x5
 1458 040e 90040000 		.4byte	.LASF63
 1459 0412 20       		.byte	0x20
 1460 0413 0A       		.byte	0xa
 1461 0414 45       		.byte	0x45
 1462 0415 6E040000 		.4byte	0x46e
 1463 0419 06       		.uleb128 0x6
 1464 041a 96010000 		.4byte	.LASF64
 1465 041e 0A       		.byte	0xa
 1466 041f 46       		.byte	0x46
 1467 0420 28020000 		.4byte	0x228
 1468 0424 00       		.byte	0
 1469 0425 06       		.uleb128 0x6
 1470 0426 67070000 		.4byte	.LASF65
 1471 042a 0A       		.byte	0xa
 1472 042b 47       		.byte	0x47
 1473 042c 2C000000 		.4byte	0x2c
 1474 0430 08       		.byte	0x8
 1475 0431 06       		.uleb128 0x6
 1476 0432 A7020000 		.4byte	.LASF66
 1477 0436 0A       		.byte	0xa
 1478 0437 48       		.byte	0x48
 1479 0438 90040000 		.4byte	0x490
 1480 043c 0C       		.byte	0xc
 1481 043d 06       		.uleb128 0x6
 1482 043e A2080000 		.4byte	.LASF67
 1483 0442 0A       		.byte	0xa
 1484 0443 49       		.byte	0x49
 1485 0444 90040000 		.4byte	0x490
 1486 0448 10       		.byte	0x10
ARM GAS  /tmp/ccNQmvjm.s 			page 28


 1487 0449 06       		.uleb128 0x6
 1488 044a B0020000 		.4byte	.LASF68
 1489 044e 0A       		.byte	0xa
 1490 044f 4B       		.byte	0x4b
 1491 0450 90040000 		.4byte	0x490
 1492 0454 14       		.byte	0x14
 1493 0455 06       		.uleb128 0x6
 1494 0456 2A060000 		.4byte	.LASF69
 1495 045a 0A       		.byte	0xa
 1496 045b 4C       		.byte	0x4c
 1497 045c 90040000 		.4byte	0x490
 1498 0460 18       		.byte	0x18
 1499 0461 06       		.uleb128 0x6
 1500 0462 C6080000 		.4byte	.LASF70
 1501 0466 0A       		.byte	0xa
 1502 0467 4D       		.byte	0x4d
 1503 0468 6E040000 		.4byte	0x46e
 1504 046c 1C       		.byte	0x1c
 1505 046d 00       		.byte	0
 1506 046e 03       		.uleb128 0x3
 1507 046f 86040000 		.4byte	.LASF71
 1508 0473 0A       		.byte	0xa
 1509 0474 3A       		.byte	0x3a
 1510 0475 79040000 		.4byte	0x479
 1511 0479 09       		.uleb128 0x9
 1512 047a 04       		.byte	0x4
 1513 047b 7F040000 		.4byte	0x47f
 1514 047f 11       		.uleb128 0x11
 1515 0480 8A040000 		.4byte	0x48a
 1516 0484 12       		.uleb128 0x12
 1517 0485 8A040000 		.4byte	0x48a
 1518 0489 00       		.byte	0
 1519 048a 09       		.uleb128 0x9
 1520 048b 04       		.byte	0x4
 1521 048c 02040000 		.4byte	0x402
 1522 0490 09       		.uleb128 0x9
 1523 0491 04       		.byte	0x4
 1524 0492 45000000 		.4byte	0x45
 1525 0496 03       		.uleb128 0x3
 1526 0497 E7080000 		.4byte	.LASF72
 1527 049b 0A       		.byte	0xa
 1528 049c 76       		.byte	0x76
 1529 049d 02040000 		.4byte	0x402
 1530 04a1 03       		.uleb128 0x3
 1531 04a2 29000000 		.4byte	.LASF73
 1532 04a6 0A       		.byte	0xa
 1533 04a7 E6       		.byte	0xe6
 1534 04a8 02040000 		.4byte	0x402
 1535 04ac 13       		.uleb128 0x13
 1536 04ad 2C000000 		.4byte	0x2c
 1537 04b1 C5040000 		.4byte	0x4c5
 1538 04b5 12       		.uleb128 0x12
 1539 04b6 5E020000 		.4byte	0x25e
 1540 04ba 12       		.uleb128 0x12
 1541 04bb C5040000 		.4byte	0x4c5
 1542 04bf 12       		.uleb128 0x12
 1543 04c0 2C000000 		.4byte	0x2c
ARM GAS  /tmp/ccNQmvjm.s 			page 29


 1544 04c4 00       		.byte	0
 1545 04c5 09       		.uleb128 0x9
 1546 04c6 04       		.byte	0x4
 1547 04c7 CB040000 		.4byte	0x4cb
 1548 04cb 10       		.uleb128 0x10
 1549 04cc 45000000 		.4byte	0x45
 1550 04d0 09       		.uleb128 0x9
 1551 04d1 04       		.byte	0x4
 1552 04d2 AC040000 		.4byte	0x4ac
 1553 04d6 13       		.uleb128 0x13
 1554 04d7 2C000000 		.4byte	0x2c
 1555 04db EF040000 		.4byte	0x4ef
 1556 04df 12       		.uleb128 0x12
 1557 04e0 5E020000 		.4byte	0x25e
 1558 04e4 12       		.uleb128 0x12
 1559 04e5 90040000 		.4byte	0x490
 1560 04e9 12       		.uleb128 0x12
 1561 04ea 2C000000 		.4byte	0x2c
 1562 04ee 00       		.byte	0
 1563 04ef 09       		.uleb128 0x9
 1564 04f0 04       		.byte	0x4
 1565 04f1 D6040000 		.4byte	0x4d6
 1566 04f5 05       		.uleb128 0x5
 1567 04f6 5B010000 		.4byte	.LASF74
 1568 04fa 20       		.byte	0x20
 1569 04fb 0B       		.byte	0xb
 1570 04fc 51       		.byte	0x51
 1571 04fd 62050000 		.4byte	0x562
 1572 0501 06       		.uleb128 0x6
 1573 0502 BF040000 		.4byte	.LASF75
 1574 0506 0B       		.byte	0xb
 1575 0507 52       		.byte	0x52
 1576 0508 D0040000 		.4byte	0x4d0
 1577 050c 00       		.byte	0
 1578 050d 06       		.uleb128 0x6
 1579 050e BE070000 		.4byte	.LASF76
 1580 0512 0B       		.byte	0xb
 1581 0513 52       		.byte	0x52
 1582 0514 EF040000 		.4byte	0x4ef
 1583 0518 04       		.byte	0x4
 1584 0519 06       		.uleb128 0x6
 1585 051a D0020000 		.4byte	.LASF77
 1586 051e 0B       		.byte	0xb
 1587 051f 52       		.byte	0x52
 1588 0520 71050000 		.4byte	0x571
 1589 0524 08       		.byte	0x8
 1590 0525 06       		.uleb128 0x6
 1591 0526 67090000 		.4byte	.LASF78
 1592 052a 0B       		.byte	0xb
 1593 052b 52       		.byte	0x52
 1594 052c 71050000 		.4byte	0x571
 1595 0530 0C       		.byte	0xc
 1596 0531 07       		.uleb128 0x7
 1597 0532 70757400 		.ascii	"put\000"
 1598 0536 0B       		.byte	0xb
 1599 0537 52       		.byte	0x52
 1600 0538 90050000 		.4byte	0x590
ARM GAS  /tmp/ccNQmvjm.s 			page 30


 1601 053c 10       		.byte	0x10
 1602 053d 07       		.uleb128 0x7
 1603 053e 67657400 		.ascii	"get\000"
 1604 0542 0B       		.byte	0xb
 1605 0543 52       		.byte	0x52
 1606 0544 AA050000 		.4byte	0x5aa
 1607 0548 14       		.byte	0x14
 1608 0549 06       		.uleb128 0x6
 1609 054a 49040000 		.4byte	.LASF79
 1610 054e 0B       		.byte	0xb
 1611 054f 52       		.byte	0x52
 1612 0550 CE050000 		.4byte	0x5ce
 1613 0554 18       		.byte	0x18
 1614 0555 06       		.uleb128 0x6
 1615 0556 90010000 		.4byte	.LASF80
 1616 055a 0B       		.byte	0xb
 1617 055b 52       		.byte	0x52
 1618 055c F2050000 		.4byte	0x5f2
 1619 0560 1C       		.byte	0x1c
 1620 0561 00       		.byte	0
 1621 0562 13       		.uleb128 0x13
 1622 0563 AD000000 		.4byte	0xad
 1623 0567 71050000 		.4byte	0x571
 1624 056b 12       		.uleb128 0x12
 1625 056c 5E020000 		.4byte	0x25e
 1626 0570 00       		.byte	0
 1627 0571 09       		.uleb128 0x9
 1628 0572 04       		.byte	0x4
 1629 0573 62050000 		.4byte	0x562
 1630 0577 13       		.uleb128 0x13
 1631 0578 E4000000 		.4byte	0xe4
 1632 057c 90050000 		.4byte	0x590
 1633 0580 12       		.uleb128 0x12
 1634 0581 5E020000 		.4byte	0x25e
 1635 0585 12       		.uleb128 0x12
 1636 0586 45000000 		.4byte	0x45
 1637 058a 12       		.uleb128 0x12
 1638 058b FA000000 		.4byte	0xfa
 1639 058f 00       		.byte	0
 1640 0590 09       		.uleb128 0x9
 1641 0591 04       		.byte	0x4
 1642 0592 77050000 		.4byte	0x577
 1643 0596 13       		.uleb128 0x13
 1644 0597 E4000000 		.4byte	0xe4
 1645 059b AA050000 		.4byte	0x5aa
 1646 059f 12       		.uleb128 0x12
 1647 05a0 5E020000 		.4byte	0x25e
 1648 05a4 12       		.uleb128 0x12
 1649 05a5 FA000000 		.4byte	0xfa
 1650 05a9 00       		.byte	0
 1651 05aa 09       		.uleb128 0x9
 1652 05ab 04       		.byte	0x4
 1653 05ac 96050000 		.4byte	0x596
 1654 05b0 13       		.uleb128 0x13
 1655 05b1 2C000000 		.4byte	0x2c
 1656 05b5 CE050000 		.4byte	0x5ce
 1657 05b9 12       		.uleb128 0x12
ARM GAS  /tmp/ccNQmvjm.s 			page 31


 1658 05ba 5E020000 		.4byte	0x25e
 1659 05be 12       		.uleb128 0x12
 1660 05bf C5040000 		.4byte	0x4c5
 1661 05c3 12       		.uleb128 0x12
 1662 05c4 2C000000 		.4byte	0x2c
 1663 05c8 12       		.uleb128 0x12
 1664 05c9 FA000000 		.4byte	0xfa
 1665 05cd 00       		.byte	0
 1666 05ce 09       		.uleb128 0x9
 1667 05cf 04       		.byte	0x4
 1668 05d0 B0050000 		.4byte	0x5b0
 1669 05d4 13       		.uleb128 0x13
 1670 05d5 2C000000 		.4byte	0x2c
 1671 05d9 F2050000 		.4byte	0x5f2
 1672 05dd 12       		.uleb128 0x12
 1673 05de 5E020000 		.4byte	0x25e
 1674 05e2 12       		.uleb128 0x12
 1675 05e3 90040000 		.4byte	0x490
 1676 05e7 12       		.uleb128 0x12
 1677 05e8 2C000000 		.4byte	0x2c
 1678 05ec 12       		.uleb128 0x12
 1679 05ed FA000000 		.4byte	0xfa
 1680 05f1 00       		.byte	0
 1681 05f2 09       		.uleb128 0x9
 1682 05f3 04       		.byte	0x4
 1683 05f4 D4050000 		.4byte	0x5d4
 1684 05f8 08       		.uleb128 0x8
 1685 05f9 04       		.byte	0x4
 1686 05fa 0B       		.byte	0xb
 1687 05fb 5C       		.byte	0x5c
 1688 05fc 0D060000 		.4byte	0x60d
 1689 0600 07       		.uleb128 0x7
 1690 0601 766D7400 		.ascii	"vmt\000"
 1691 0605 0B       		.byte	0xb
 1692 0606 5E       		.byte	0x5e
 1693 0607 0D060000 		.4byte	0x60d
 1694 060b 00       		.byte	0
 1695 060c 00       		.byte	0
 1696 060d 09       		.uleb128 0x9
 1697 060e 04       		.byte	0x4
 1698 060f 13060000 		.4byte	0x613
 1699 0613 10       		.uleb128 0x10
 1700 0614 F5040000 		.4byte	0x4f5
 1701 0618 03       		.uleb128 0x3
 1702 0619 F2080000 		.4byte	.LASF81
 1703 061d 0B       		.byte	0xb
 1704 061e 60       		.byte	0x60
 1705 061f F8050000 		.4byte	0x5f8
 1706 0623 14       		.uleb128 0x14
 1707 0624 58050000 		.4byte	.LASF82
 1708 0628 0B       		.byte	0xb
 1709 0629 0B01     		.2byte	0x10b
 1710 062b A2000000 		.4byte	0xa2
 1711 062f 13       		.uleb128 0x13
 1712 0630 23060000 		.4byte	0x623
 1713 0634 3E060000 		.4byte	0x63e
 1714 0638 12       		.uleb128 0x12
ARM GAS  /tmp/ccNQmvjm.s 			page 32


 1715 0639 5E020000 		.4byte	0x25e
 1716 063d 00       		.byte	0
 1717 063e 09       		.uleb128 0x9
 1718 063f 04       		.byte	0x4
 1719 0640 2F060000 		.4byte	0x62f
 1720 0644 03       		.uleb128 0x3
 1721 0645 57040000 		.4byte	.LASF83
 1722 0649 0C       		.byte	0xc
 1723 064a 35       		.byte	0x35
 1724 064b 4F060000 		.4byte	0x64f
 1725 064f 10       		.uleb128 0x10
 1726 0650 FC020000 		.4byte	0x2fc
 1727 0654 03       		.uleb128 0x3
 1728 0655 AF050000 		.4byte	.LASF84
 1729 0659 0C       		.byte	0xc
 1730 065a 39       		.byte	0x39
 1731 065b FC020000 		.4byte	0x2fc
 1732 065f 03       		.uleb128 0x3
 1733 0660 9C080000 		.4byte	.LASF85
 1734 0664 0C       		.byte	0xc
 1735 0665 3A       		.byte	0x3a
 1736 0666 FC020000 		.4byte	0x2fc
 1737 066a 15       		.uleb128 0x15
 1738 066b 5F060000 		.4byte	0x65f
 1739 066f 7A060000 		.4byte	0x67a
 1740 0673 16       		.uleb128 0x16
 1741 0674 01030000 		.4byte	0x301
 1742 0678 12       		.byte	0x12
 1743 0679 00       		.byte	0
 1744 067a 17       		.uleb128 0x17
 1745 067b 2801     		.2byte	0x128
 1746 067d 0C       		.byte	0xc
 1747 067e E9       		.byte	0xe9
 1748 067f 4C080000 		.4byte	0x84c
 1749 0683 06       		.uleb128 0x6
 1750 0684 DD050000 		.4byte	.LASF86
 1751 0688 0C       		.byte	0xc
 1752 0689 EA       		.byte	0xea
 1753 068a 54060000 		.4byte	0x654
 1754 068e 00       		.byte	0
 1755 068f 06       		.uleb128 0x6
 1756 0690 2C050000 		.4byte	.LASF87
 1757 0694 0C       		.byte	0xc
 1758 0695 EB       		.byte	0xeb
 1759 0696 5F060000 		.4byte	0x65f
 1760 069a 04       		.byte	0x4
 1761 069b 06       		.uleb128 0x6
 1762 069c 37040000 		.4byte	.LASF88
 1763 06a0 0C       		.byte	0xc
 1764 06a1 EC       		.byte	0xec
 1765 06a2 5F060000 		.4byte	0x65f
 1766 06a6 08       		.byte	0x8
 1767 06a7 06       		.uleb128 0x6
 1768 06a8 DD080000 		.4byte	.LASF89
 1769 06ac 0C       		.byte	0xc
 1770 06ad ED       		.byte	0xed
 1771 06ae 5F060000 		.4byte	0x65f
ARM GAS  /tmp/ccNQmvjm.s 			page 33


 1772 06b2 0C       		.byte	0xc
 1773 06b3 06       		.uleb128 0x6
 1774 06b4 0D080000 		.4byte	.LASF90
 1775 06b8 0C       		.byte	0xc
 1776 06b9 EE       		.byte	0xee
 1777 06ba 54060000 		.4byte	0x654
 1778 06be 10       		.byte	0x10
 1779 06bf 06       		.uleb128 0x6
 1780 06c0 E4070000 		.4byte	.LASF91
 1781 06c4 0C       		.byte	0xc
 1782 06c5 EF       		.byte	0xef
 1783 06c6 54060000 		.4byte	0x654
 1784 06ca 14       		.byte	0x14
 1785 06cb 06       		.uleb128 0x6
 1786 06cc 63060000 		.4byte	.LASF92
 1787 06d0 0C       		.byte	0xc
 1788 06d1 F0       		.byte	0xf0
 1789 06d2 44060000 		.4byte	0x644
 1790 06d6 18       		.byte	0x18
 1791 06d7 06       		.uleb128 0x6
 1792 06d8 D1070000 		.4byte	.LASF93
 1793 06dc 0C       		.byte	0xc
 1794 06dd F1       		.byte	0xf1
 1795 06de 5C080000 		.4byte	0x85c
 1796 06e2 1C       		.byte	0x1c
 1797 06e3 06       		.uleb128 0x6
 1798 06e4 DE020000 		.4byte	.LASF94
 1799 06e8 0C       		.byte	0xc
 1800 06e9 F2       		.byte	0xf2
 1801 06ea 44060000 		.4byte	0x644
 1802 06ee 20       		.byte	0x20
 1803 06ef 06       		.uleb128 0x6
 1804 06f0 1F080000 		.4byte	.LASF95
 1805 06f4 0C       		.byte	0xc
 1806 06f5 F3       		.byte	0xf3
 1807 06f6 54060000 		.4byte	0x654
 1808 06fa 24       		.byte	0x24
 1809 06fb 06       		.uleb128 0x6
 1810 06fc E3030000 		.4byte	.LASF96
 1811 0700 0C       		.byte	0xc
 1812 0701 F4       		.byte	0xf4
 1813 0702 54060000 		.4byte	0x654
 1814 0706 28       		.byte	0x28
 1815 0707 06       		.uleb128 0x6
 1816 0708 8B080000 		.4byte	.LASF97
 1817 070c 0C       		.byte	0xc
 1818 070d F5       		.byte	0xf5
 1819 070e 44060000 		.4byte	0x644
 1820 0712 2C       		.byte	0x2c
 1821 0713 06       		.uleb128 0x6
 1822 0714 82060000 		.4byte	.LASF98
 1823 0718 0C       		.byte	0xc
 1824 0719 F6       		.byte	0xf6
 1825 071a 44060000 		.4byte	0x644
 1826 071e 30       		.byte	0x30
 1827 071f 06       		.uleb128 0x6
 1828 0720 F3010000 		.4byte	.LASF99
ARM GAS  /tmp/ccNQmvjm.s 			page 34


 1829 0724 0C       		.byte	0xc
 1830 0725 F7       		.byte	0xf7
 1831 0726 71080000 		.4byte	0x871
 1832 072a 34       		.byte	0x34
 1833 072b 06       		.uleb128 0x6
 1834 072c 27080000 		.4byte	.LASF100
 1835 0730 0C       		.byte	0xc
 1836 0731 F8       		.byte	0xf8
 1837 0732 44060000 		.4byte	0x644
 1838 0736 3C       		.byte	0x3c
 1839 0737 06       		.uleb128 0x6
 1840 0738 BF050000 		.4byte	.LASF101
 1841 073c 0C       		.byte	0xc
 1842 073d F9       		.byte	0xf9
 1843 073e 5F060000 		.4byte	0x65f
 1844 0742 40       		.byte	0x40
 1845 0743 06       		.uleb128 0x6
 1846 0744 9D040000 		.4byte	.LASF102
 1847 0748 0C       		.byte	0xc
 1848 0749 FA       		.byte	0xfa
 1849 074a 5F060000 		.4byte	0x65f
 1850 074e 44       		.byte	0x44
 1851 074f 06       		.uleb128 0x6
 1852 0750 C4010000 		.4byte	.LASF103
 1853 0754 0C       		.byte	0xc
 1854 0755 FB       		.byte	0xfb
 1855 0756 5F060000 		.4byte	0x65f
 1856 075a 48       		.byte	0x48
 1857 075b 06       		.uleb128 0x6
 1858 075c 6C020000 		.4byte	.LASF104
 1859 0760 0C       		.byte	0xc
 1860 0761 FC       		.byte	0xfc
 1861 0762 5F060000 		.4byte	0x65f
 1862 0766 4C       		.byte	0x4c
 1863 0767 06       		.uleb128 0x6
 1864 0768 B6070000 		.4byte	.LASF105
 1865 076c 0C       		.byte	0xc
 1866 076d FD       		.byte	0xfd
 1867 076e 86080000 		.4byte	0x886
 1868 0772 50       		.byte	0x50
 1869 0773 06       		.uleb128 0x6
 1870 0774 FD010000 		.4byte	.LASF106
 1871 0778 0C       		.byte	0xc
 1872 0779 FE       		.byte	0xfe
 1873 077a 90080000 		.4byte	0x890
 1874 077e 90       		.byte	0x90
 1875 077f 06       		.uleb128 0x6
 1876 0780 96090000 		.4byte	.LASF107
 1877 0784 0C       		.byte	0xc
 1878 0785 FF       		.byte	0xff
 1879 0786 5F060000 		.4byte	0x65f
 1880 078a 94       		.byte	0x94
 1881 078b 18       		.uleb128 0x18
 1882 078c 07020000 		.4byte	.LASF108
 1883 0790 0C       		.byte	0xc
 1884 0791 0001     		.2byte	0x100
 1885 0793 95080000 		.4byte	0x895
ARM GAS  /tmp/ccNQmvjm.s 			page 35


 1886 0797 98       		.byte	0x98
 1887 0798 18       		.uleb128 0x18
 1888 0799 C8070000 		.4byte	.LASF109
 1889 079d 0C       		.byte	0xc
 1890 079e 0101     		.2byte	0x101
 1891 07a0 5F060000 		.4byte	0x65f
 1892 07a4 E4       		.byte	0xe4
 1893 07a5 18       		.uleb128 0x18
 1894 07a6 AB090000 		.4byte	.LASF110
 1895 07aa 0C       		.byte	0xc
 1896 07ab 0201     		.2byte	0x102
 1897 07ad 44060000 		.4byte	0x644
 1898 07b1 E8       		.byte	0xe8
 1899 07b2 18       		.uleb128 0x18
 1900 07b3 11020000 		.4byte	.LASF111
 1901 07b7 0C       		.byte	0xc
 1902 07b8 0301     		.2byte	0x103
 1903 07ba AA080000 		.4byte	0x8aa
 1904 07be EC       		.byte	0xec
 1905 07bf 19       		.uleb128 0x19
 1906 07c0 1A060000 		.4byte	.LASF112
 1907 07c4 0C       		.byte	0xc
 1908 07c5 0401     		.2byte	0x104
 1909 07c7 5F060000 		.4byte	0x65f
 1910 07cb 0001     		.2byte	0x100
 1911 07cd 19       		.uleb128 0x19
 1912 07ce 04090000 		.4byte	.LASF113
 1913 07d2 0C       		.byte	0xc
 1914 07d3 0501     		.2byte	0x105
 1915 07d5 5F060000 		.4byte	0x65f
 1916 07d9 0401     		.2byte	0x104
 1917 07db 19       		.uleb128 0x19
 1918 07dc 75090000 		.4byte	.LASF114
 1919 07e0 0C       		.byte	0xc
 1920 07e1 0601     		.2byte	0x106
 1921 07e3 5F060000 		.4byte	0x65f
 1922 07e7 0801     		.2byte	0x108
 1923 07e9 19       		.uleb128 0x19
 1924 07ea C5040000 		.4byte	.LASF115
 1925 07ee 0C       		.byte	0xc
 1926 07ef 0701     		.2byte	0x107
 1927 07f1 5F060000 		.4byte	0x65f
 1928 07f5 0C01     		.2byte	0x10c
 1929 07f7 19       		.uleb128 0x19
 1930 07f8 F9040000 		.4byte	.LASF116
 1931 07fc 0C       		.byte	0xc
 1932 07fd 0801     		.2byte	0x108
 1933 07ff 5F060000 		.4byte	0x65f
 1934 0803 1001     		.2byte	0x110
 1935 0805 19       		.uleb128 0x19
 1936 0806 16080000 		.4byte	.LASF117
 1937 080a 0C       		.byte	0xc
 1938 080b 0901     		.2byte	0x109
 1939 080d 5F060000 		.4byte	0x65f
 1940 0811 1401     		.2byte	0x114
 1941 0813 19       		.uleb128 0x19
 1942 0814 1C030000 		.4byte	.LASF118
ARM GAS  /tmp/ccNQmvjm.s 			page 36


 1943 0818 0C       		.byte	0xc
 1944 0819 0A01     		.2byte	0x10a
 1945 081b 5F060000 		.4byte	0x65f
 1946 081f 1801     		.2byte	0x118
 1947 0821 19       		.uleb128 0x19
 1948 0822 7D040000 		.4byte	.LASF119
 1949 0826 0C       		.byte	0xc
 1950 0827 0B01     		.2byte	0x10b
 1951 0829 5F060000 		.4byte	0x65f
 1952 082d 1C01     		.2byte	0x11c
 1953 082f 19       		.uleb128 0x19
 1954 0830 42090000 		.4byte	.LASF120
 1955 0834 0C       		.byte	0xc
 1956 0835 0C01     		.2byte	0x10c
 1957 0837 54060000 		.4byte	0x654
 1958 083b 2001     		.2byte	0x120
 1959 083d 19       		.uleb128 0x19
 1960 083e 02030000 		.4byte	.LASF121
 1961 0842 0C       		.byte	0xc
 1962 0843 0D01     		.2byte	0x10d
 1963 0845 44060000 		.4byte	0x644
 1964 0849 2401     		.2byte	0x124
 1965 084b 00       		.byte	0
 1966 084c 15       		.uleb128 0x15
 1967 084d 5F060000 		.4byte	0x65f
 1968 0851 5C080000 		.4byte	0x85c
 1969 0855 16       		.uleb128 0x16
 1970 0856 01030000 		.4byte	0x301
 1971 085a 00       		.byte	0
 1972 085b 00       		.byte	0
 1973 085c 0D       		.uleb128 0xd
 1974 085d 4C080000 		.4byte	0x84c
 1975 0861 15       		.uleb128 0x15
 1976 0862 5F060000 		.4byte	0x65f
 1977 0866 71080000 		.4byte	0x871
 1978 086a 16       		.uleb128 0x16
 1979 086b 01030000 		.4byte	0x301
 1980 086f 01       		.byte	0x1
 1981 0870 00       		.byte	0
 1982 0871 0D       		.uleb128 0xd
 1983 0872 61080000 		.4byte	0x861
 1984 0876 15       		.uleb128 0x15
 1985 0877 44060000 		.4byte	0x644
 1986 087b 86080000 		.4byte	0x886
 1987 087f 16       		.uleb128 0x16
 1988 0880 01030000 		.4byte	0x301
 1989 0884 0F       		.byte	0xf
 1990 0885 00       		.byte	0
 1991 0886 10       		.uleb128 0x10
 1992 0887 8B080000 		.4byte	0x88b
 1993 088b 0D       		.uleb128 0xd
 1994 088c 76080000 		.4byte	0x876
 1995 0890 0D       		.uleb128 0xd
 1996 0891 4C080000 		.4byte	0x84c
 1997 0895 0D       		.uleb128 0xd
 1998 0896 6A060000 		.4byte	0x66a
 1999 089a 15       		.uleb128 0x15
ARM GAS  /tmp/ccNQmvjm.s 			page 37


 2000 089b 5F060000 		.4byte	0x65f
 2001 089f AA080000 		.4byte	0x8aa
 2002 08a3 16       		.uleb128 0x16
 2003 08a4 01030000 		.4byte	0x301
 2004 08a8 04       		.byte	0x4
 2005 08a9 00       		.byte	0
 2006 08aa 0D       		.uleb128 0xd
 2007 08ab 9A080000 		.4byte	0x89a
 2008 08af 1A       		.uleb128 0x1a
 2009 08b0 41646300 		.ascii	"Adc\000"
 2010 08b4 0C       		.byte	0xc
 2011 08b5 0E01     		.2byte	0x10e
 2012 08b7 7A060000 		.4byte	0x67a
 2013 08bb 1B       		.uleb128 0x1b
 2014 08bc 1401     		.2byte	0x114
 2015 08be 0C       		.byte	0xc
 2016 08bf 3F0D     		.2byte	0xd3f
 2017 08c1 850A0000 		.4byte	0xa85
 2018 08c5 18       		.uleb128 0x18
 2019 08c6 59090000 		.4byte	.LASF122
 2020 08ca 0C       		.byte	0xc
 2021 08cb 400D     		.2byte	0xd40
 2022 08cd 54060000 		.4byte	0x654
 2023 08d1 00       		.byte	0
 2024 08d2 18       		.uleb128 0x18
 2025 08d3 35080000 		.4byte	.LASF123
 2026 08d7 0C       		.byte	0xc
 2027 08d8 410D     		.2byte	0xd41
 2028 08da 54060000 		.4byte	0x654
 2029 08de 04       		.byte	0x4
 2030 08df 18       		.uleb128 0x18
 2031 08e0 DB070000 		.4byte	.LASF124
 2032 08e4 0C       		.byte	0xc
 2033 08e5 420D     		.2byte	0xd42
 2034 08e7 44060000 		.4byte	0x644
 2035 08eb 08       		.byte	0x8
 2036 08ec 18       		.uleb128 0x18
 2037 08ed D1070000 		.4byte	.LASF93
 2038 08f1 0C       		.byte	0xc
 2039 08f2 430D     		.2byte	0xd43
 2040 08f4 850A0000 		.4byte	0xa85
 2041 08f8 0C       		.byte	0xc
 2042 08f9 18       		.uleb128 0x18
 2043 08fa 93020000 		.4byte	.LASF125
 2044 08fe 0C       		.byte	0xc
 2045 08ff 440D     		.2byte	0xd44
 2046 0901 54060000 		.4byte	0x654
 2047 0905 10       		.byte	0x10
 2048 0906 18       		.uleb128 0x18
 2049 0907 16040000 		.4byte	.LASF126
 2050 090b 0C       		.byte	0xc
 2051 090c 450D     		.2byte	0xd45
 2052 090e 54060000 		.4byte	0x654
 2053 0912 14       		.byte	0x14
 2054 0913 18       		.uleb128 0x18
 2055 0914 F2060000 		.4byte	.LASF127
 2056 0918 0C       		.byte	0xc
ARM GAS  /tmp/ccNQmvjm.s 			page 38


 2057 0919 460D     		.2byte	0xd46
 2058 091b 44060000 		.4byte	0x644
 2059 091f 18       		.byte	0x18
 2060 0920 18       		.uleb128 0x18
 2061 0921 F3010000 		.4byte	.LASF99
 2062 0925 0C       		.byte	0xc
 2063 0926 470D     		.2byte	0xd47
 2064 0928 8A0A0000 		.4byte	0xa8a
 2065 092c 1C       		.byte	0x1c
 2066 092d 18       		.uleb128 0x18
 2067 092e 20000000 		.4byte	.LASF128
 2068 0932 0C       		.byte	0xc
 2069 0933 480D     		.2byte	0xd48
 2070 0935 5F060000 		.4byte	0x65f
 2071 0939 20       		.byte	0x20
 2072 093a 18       		.uleb128 0x18
 2073 093b 6A030000 		.4byte	.LASF129
 2074 093f 0C       		.byte	0xc
 2075 0940 490D     		.2byte	0xd49
 2076 0942 44060000 		.4byte	0x644
 2077 0946 24       		.byte	0x24
 2078 0947 18       		.uleb128 0x18
 2079 0948 0A060000 		.4byte	.LASF130
 2080 094c 0C       		.byte	0xc
 2081 094d 4A0D     		.2byte	0xd4a
 2082 094f 5F060000 		.4byte	0x65f
 2083 0953 28       		.byte	0x28
 2084 0954 18       		.uleb128 0x18
 2085 0955 84070000 		.4byte	.LASF131
 2086 0959 0C       		.byte	0xc
 2087 095a 4B0D     		.2byte	0xd4b
 2088 095c 5F060000 		.4byte	0x65f
 2089 0960 2C       		.byte	0x2c
 2090 0961 18       		.uleb128 0x18
 2091 0962 FE030000 		.4byte	.LASF132
 2092 0966 0C       		.byte	0xc
 2093 0967 4C0D     		.2byte	0xd4c
 2094 0969 5F060000 		.4byte	0x65f
 2095 096d 30       		.byte	0x30
 2096 096e 18       		.uleb128 0x18
 2097 096f FD010000 		.4byte	.LASF106
 2098 0973 0C       		.byte	0xc
 2099 0974 4D0D     		.2byte	0xd4d
 2100 0976 8F0A0000 		.4byte	0xa8f
 2101 097a 34       		.byte	0x34
 2102 097b 18       		.uleb128 0x18
 2103 097c AA040000 		.4byte	.LASF133
 2104 0980 0C       		.byte	0xc
 2105 0981 4E0D     		.2byte	0xd4e
 2106 0983 5F060000 		.4byte	0x65f
 2107 0987 38       		.byte	0x38
 2108 0988 18       		.uleb128 0x18
 2109 0989 07020000 		.4byte	.LASF108
 2110 098d 0C       		.byte	0xc
 2111 098e 4F0D     		.2byte	0xd4f
 2112 0990 940A0000 		.4byte	0xa94
 2113 0994 3C       		.byte	0x3c
ARM GAS  /tmp/ccNQmvjm.s 			page 39


 2114 0995 18       		.uleb128 0x18
 2115 0996 14030000 		.4byte	.LASF134
 2116 099a 0C       		.byte	0xc
 2117 099b 500D     		.2byte	0xd50
 2118 099d A90A0000 		.4byte	0xaa9
 2119 09a1 40       		.byte	0x40
 2120 09a2 18       		.uleb128 0x18
 2121 09a3 11020000 		.4byte	.LASF111
 2122 09a7 0C       		.byte	0xc
 2123 09a8 510D     		.2byte	0xd51
 2124 09aa AE0A0000 		.4byte	0xaae
 2125 09ae 4C       		.byte	0x4c
 2126 09af 18       		.uleb128 0x18
 2127 09b0 69080000 		.4byte	.LASF135
 2128 09b4 0C       		.byte	0xc
 2129 09b5 520D     		.2byte	0xd52
 2130 09b7 54060000 		.4byte	0x654
 2131 09bb 60       		.byte	0x60
 2132 09bc 18       		.uleb128 0x18
 2133 09bd 0D070000 		.4byte	.LASF136
 2134 09c1 0C       		.byte	0xc
 2135 09c2 530D     		.2byte	0xd53
 2136 09c4 54060000 		.4byte	0x654
 2137 09c8 64       		.byte	0x64
 2138 09c9 18       		.uleb128 0x18
 2139 09ca 09000000 		.4byte	.LASF137
 2140 09ce 0C       		.byte	0xc
 2141 09cf 540D     		.2byte	0xd54
 2142 09d1 44060000 		.4byte	0x644
 2143 09d5 68       		.byte	0x68
 2144 09d6 18       		.uleb128 0x18
 2145 09d7 BE080000 		.4byte	.LASF138
 2146 09db 0C       		.byte	0xc
 2147 09dc 550D     		.2byte	0xd55
 2148 09de 44060000 		.4byte	0x644
 2149 09e2 6C       		.byte	0x6c
 2150 09e3 18       		.uleb128 0x18
 2151 09e4 23050000 		.4byte	.LASF139
 2152 09e8 0C       		.byte	0xc
 2153 09e9 560D     		.2byte	0xd56
 2154 09eb 5F060000 		.4byte	0x65f
 2155 09ef 70       		.byte	0x70
 2156 09f0 18       		.uleb128 0x18
 2157 09f1 39090000 		.4byte	.LASF140
 2158 09f5 0C       		.byte	0xc
 2159 09f6 570D     		.2byte	0xd57
 2160 09f8 5F060000 		.4byte	0x65f
 2161 09fc 74       		.byte	0x74
 2162 09fd 18       		.uleb128 0x18
 2163 09fe 10050000 		.4byte	.LASF141
 2164 0a02 0C       		.byte	0xc
 2165 0a03 580D     		.2byte	0xd58
 2166 0a05 54060000 		.4byte	0x654
 2167 0a09 78       		.byte	0x78
 2168 0a0a 18       		.uleb128 0x18
 2169 0a0b 1B020000 		.4byte	.LASF142
 2170 0a0f 0C       		.byte	0xc
ARM GAS  /tmp/ccNQmvjm.s 			page 40


 2171 0a10 590D     		.2byte	0xd59
 2172 0a12 C30A0000 		.4byte	0xac3
 2173 0a16 7C       		.byte	0x7c
 2174 0a17 18       		.uleb128 0x18
 2175 0a18 BF020000 		.4byte	.LASF143
 2176 0a1c 0C       		.byte	0xc
 2177 0a1d 5A0D     		.2byte	0xd5a
 2178 0a1f 5F060000 		.4byte	0x65f
 2179 0a23 E4       		.byte	0xe4
 2180 0a24 18       		.uleb128 0x18
 2181 0a25 B4090000 		.4byte	.LASF144
 2182 0a29 0C       		.byte	0xc
 2183 0a2a 5B0D     		.2byte	0xd5b
 2184 0a2c 44060000 		.4byte	0x644
 2185 0a30 E8       		.byte	0xe8
 2186 0a31 18       		.uleb128 0x18
 2187 0a32 25020000 		.4byte	.LASF145
 2188 0a36 0C       		.byte	0xc
 2189 0a37 5C0D     		.2byte	0xd5c
 2190 0a39 C80A0000 		.4byte	0xac8
 2191 0a3d EC       		.byte	0xec
 2192 0a3e 19       		.uleb128 0x19
 2193 0a3f 9D020000 		.4byte	.LASF146
 2194 0a43 0C       		.byte	0xc
 2195 0a44 5D0D     		.2byte	0xd5d
 2196 0a46 54060000 		.4byte	0x654
 2197 0a4a 0001     		.2byte	0x100
 2198 0a4c 19       		.uleb128 0x19
 2199 0a4d 20040000 		.4byte	.LASF147
 2200 0a51 0C       		.byte	0xc
 2201 0a52 5E0D     		.2byte	0xd5e
 2202 0a54 54060000 		.4byte	0x654
 2203 0a58 0401     		.2byte	0x104
 2204 0a5a 19       		.uleb128 0x19
 2205 0a5b A0060000 		.4byte	.LASF148
 2206 0a5f 0C       		.byte	0xc
 2207 0a60 5F0D     		.2byte	0xd5f
 2208 0a62 44060000 		.4byte	0x644
 2209 0a66 0801     		.2byte	0x108
 2210 0a68 19       		.uleb128 0x19
 2211 0a69 2F020000 		.4byte	.LASF149
 2212 0a6d 0C       		.byte	0xc
 2213 0a6e 600D     		.2byte	0xd60
 2214 0a70 CD0A0000 		.4byte	0xacd
 2215 0a74 0C01     		.2byte	0x10c
 2216 0a76 19       		.uleb128 0x19
 2217 0a77 CD040000 		.4byte	.LASF150
 2218 0a7b 0C       		.byte	0xc
 2219 0a7c 610D     		.2byte	0xd61
 2220 0a7e 5F060000 		.4byte	0x65f
 2221 0a82 1001     		.2byte	0x110
 2222 0a84 00       		.byte	0
 2223 0a85 0D       		.uleb128 0xd
 2224 0a86 4C080000 		.4byte	0x84c
 2225 0a8a 0D       		.uleb128 0xd
 2226 0a8b 4C080000 		.4byte	0x84c
 2227 0a8f 0D       		.uleb128 0xd
ARM GAS  /tmp/ccNQmvjm.s 			page 41


 2228 0a90 4C080000 		.4byte	0x84c
 2229 0a94 0D       		.uleb128 0xd
 2230 0a95 4C080000 		.4byte	0x84c
 2231 0a99 15       		.uleb128 0x15
 2232 0a9a 5F060000 		.4byte	0x65f
 2233 0a9e A90A0000 		.4byte	0xaa9
 2234 0aa2 16       		.uleb128 0x16
 2235 0aa3 01030000 		.4byte	0x301
 2236 0aa7 02       		.byte	0x2
 2237 0aa8 00       		.byte	0
 2238 0aa9 0D       		.uleb128 0xd
 2239 0aaa 990A0000 		.4byte	0xa99
 2240 0aae 0D       		.uleb128 0xd
 2241 0aaf 9A080000 		.4byte	0x89a
 2242 0ab3 15       		.uleb128 0x15
 2243 0ab4 5F060000 		.4byte	0x65f
 2244 0ab8 C30A0000 		.4byte	0xac3
 2245 0abc 16       		.uleb128 0x16
 2246 0abd 01030000 		.4byte	0x301
 2247 0ac1 19       		.byte	0x19
 2248 0ac2 00       		.byte	0
 2249 0ac3 0D       		.uleb128 0xd
 2250 0ac4 B30A0000 		.4byte	0xab3
 2251 0ac8 0D       		.uleb128 0xd
 2252 0ac9 9A080000 		.4byte	0x89a
 2253 0acd 0D       		.uleb128 0xd
 2254 0ace 4C080000 		.4byte	0x84c
 2255 0ad2 1A       		.uleb128 0x1a
 2256 0ad3 506D6300 		.ascii	"Pmc\000"
 2257 0ad7 0C       		.byte	0xc
 2258 0ad8 620D     		.2byte	0xd62
 2259 0ada BB080000 		.4byte	0x8bb
 2260 0ade 1B       		.uleb128 0x1b
 2261 0adf 2801     		.2byte	0x128
 2262 0ae1 0C       		.byte	0xc
 2263 0ae2 0817     		.2byte	0x1708
 2264 0ae4 F70B0000 		.4byte	0xbf7
 2265 0ae8 18       		.uleb128 0x18
 2266 0ae9 5D040000 		.4byte	.LASF151
 2267 0aed 0C       		.byte	0xc
 2268 0aee 0917     		.2byte	0x1709
 2269 0af0 54060000 		.4byte	0x654
 2270 0af4 00       		.byte	0
 2271 0af5 18       		.uleb128 0x18
 2272 0af6 9C070000 		.4byte	.LASF152
 2273 0afa 0C       		.byte	0xc
 2274 0afb 0A17     		.2byte	0x170a
 2275 0afd 5F060000 		.4byte	0x65f
 2276 0b01 04       		.byte	0x4
 2277 0b02 18       		.uleb128 0x18
 2278 0b03 7D090000 		.4byte	.LASF153
 2279 0b07 0C       		.byte	0xc
 2280 0b08 0B17     		.2byte	0x170b
 2281 0b0a 54060000 		.4byte	0x654
 2282 0b0e 08       		.byte	0x8
 2283 0b0f 18       		.uleb128 0x18
 2284 0b10 71080000 		.4byte	.LASF154
ARM GAS  /tmp/ccNQmvjm.s 			page 42


 2285 0b14 0C       		.byte	0xc
 2286 0b15 0C17     		.2byte	0x170c
 2287 0b17 54060000 		.4byte	0x654
 2288 0b1b 0C       		.byte	0xc
 2289 0b1c 18       		.uleb128 0x18
 2290 0b1d 00000000 		.4byte	.LASF155
 2291 0b21 0C       		.byte	0xc
 2292 0b22 0D17     		.2byte	0x170d
 2293 0b24 44060000 		.4byte	0x644
 2294 0b28 10       		.byte	0x10
 2295 0b29 18       		.uleb128 0x18
 2296 0b2a 41050000 		.4byte	.LASF156
 2297 0b2e 0C       		.byte	0xc
 2298 0b2f 0E17     		.2byte	0x170e
 2299 0b31 44060000 		.4byte	0x644
 2300 0b35 14       		.byte	0x14
 2301 0b36 18       		.uleb128 0x18
 2302 0b37 71070000 		.4byte	.LASF157
 2303 0b3b 0C       		.byte	0xc
 2304 0b3c 0F17     		.2byte	0x170f
 2305 0b3e 44060000 		.4byte	0x644
 2306 0b42 18       		.byte	0x18
 2307 0b43 18       		.uleb128 0x18
 2308 0b44 C3030000 		.4byte	.LASF158
 2309 0b48 0C       		.byte	0xc
 2310 0b49 1017     		.2byte	0x1710
 2311 0b4b 54060000 		.4byte	0x654
 2312 0b4f 1C       		.byte	0x1c
 2313 0b50 18       		.uleb128 0x18
 2314 0b51 B5050000 		.4byte	.LASF159
 2315 0b55 0C       		.byte	0xc
 2316 0b56 1117     		.2byte	0x1711
 2317 0b58 5F060000 		.4byte	0x65f
 2318 0b5c 20       		.byte	0x20
 2319 0b5d 18       		.uleb128 0x18
 2320 0b5e D1070000 		.4byte	.LASF93
 2321 0b62 0C       		.byte	0xc
 2322 0b63 1217     		.2byte	0x1712
 2323 0b65 070C0000 		.4byte	0xc07
 2324 0b69 24       		.byte	0x24
 2325 0b6a 19       		.uleb128 0x19
 2326 0b6b 9E050000 		.4byte	.LASF160
 2327 0b6f 0C       		.byte	0xc
 2328 0b70 1317     		.2byte	0x1713
 2329 0b72 5F060000 		.4byte	0x65f
 2330 0b76 0001     		.2byte	0x100
 2331 0b78 19       		.uleb128 0x19
 2332 0b79 FD000000 		.4byte	.LASF161
 2333 0b7d 0C       		.byte	0xc
 2334 0b7e 1417     		.2byte	0x1714
 2335 0b80 5F060000 		.4byte	0x65f
 2336 0b84 0401     		.2byte	0x104
 2337 0b86 19       		.uleb128 0x19
 2338 0b87 0D040000 		.4byte	.LASF162
 2339 0b8b 0C       		.byte	0xc
 2340 0b8c 1517     		.2byte	0x1715
 2341 0b8e 5F060000 		.4byte	0x65f
ARM GAS  /tmp/ccNQmvjm.s 			page 43


 2342 0b92 0801     		.2byte	0x108
 2343 0b94 19       		.uleb128 0x19
 2344 0b95 49070000 		.4byte	.LASF163
 2345 0b99 0C       		.byte	0xc
 2346 0b9a 1617     		.2byte	0x1716
 2347 0b9c 5F060000 		.4byte	0x65f
 2348 0ba0 0C01     		.2byte	0x10c
 2349 0ba2 19       		.uleb128 0x19
 2350 0ba3 8A060000 		.4byte	.LASF164
 2351 0ba7 0C       		.byte	0xc
 2352 0ba8 1717     		.2byte	0x1717
 2353 0baa 5F060000 		.4byte	0x65f
 2354 0bae 1001     		.2byte	0x110
 2355 0bb0 19       		.uleb128 0x19
 2356 0bb1 19050000 		.4byte	.LASF165
 2357 0bb5 0C       		.byte	0xc
 2358 0bb6 1817     		.2byte	0x1718
 2359 0bb8 5F060000 		.4byte	0x65f
 2360 0bbc 1401     		.2byte	0x114
 2361 0bbe 19       		.uleb128 0x19
 2362 0bbf EF040000 		.4byte	.LASF166
 2363 0bc3 0C       		.byte	0xc
 2364 0bc4 1917     		.2byte	0x1719
 2365 0bc6 5F060000 		.4byte	0x65f
 2366 0bca 1801     		.2byte	0x118
 2367 0bcc 19       		.uleb128 0x19
 2368 0bcd 50020000 		.4byte	.LASF167
 2369 0bd1 0C       		.byte	0xc
 2370 0bd2 1A17     		.2byte	0x171a
 2371 0bd4 5F060000 		.4byte	0x65f
 2372 0bd8 1C01     		.2byte	0x11c
 2373 0bda 19       		.uleb128 0x19
 2374 0bdb BA010000 		.4byte	.LASF168
 2375 0bdf 0C       		.byte	0xc
 2376 0be0 1B17     		.2byte	0x171b
 2377 0be2 54060000 		.4byte	0x654
 2378 0be6 2001     		.2byte	0x120
 2379 0be8 19       		.uleb128 0x19
 2380 0be9 E7020000 		.4byte	.LASF169
 2381 0bed 0C       		.byte	0xc
 2382 0bee 1C17     		.2byte	0x171c
 2383 0bf0 44060000 		.4byte	0x644
 2384 0bf4 2401     		.2byte	0x124
 2385 0bf6 00       		.byte	0
 2386 0bf7 15       		.uleb128 0x15
 2387 0bf8 5F060000 		.4byte	0x65f
 2388 0bfc 070C0000 		.4byte	0xc07
 2389 0c00 16       		.uleb128 0x16
 2390 0c01 01030000 		.4byte	0x301
 2391 0c05 36       		.byte	0x36
 2392 0c06 00       		.byte	0
 2393 0c07 0D       		.uleb128 0xd
 2394 0c08 F70B0000 		.4byte	0xbf7
 2395 0c0c 14       		.uleb128 0x14
 2396 0c0d 30080000 		.4byte	.LASF170
 2397 0c11 0C       		.byte	0xc
 2398 0c12 1D17     		.2byte	0x171d
ARM GAS  /tmp/ccNQmvjm.s 			page 44


 2399 0c14 DE0A0000 		.4byte	0xade
 2400 0c18 1C       		.uleb128 0x1c
 2401 0c19 01       		.byte	0x1
 2402 0c1a 0D       		.byte	0xd
 2403 0c1b 64       		.byte	0x64
 2404 0c1c 330C0000 		.4byte	0xc33
 2405 0c20 1D       		.uleb128 0x1d
 2406 0c21 5D070000 		.4byte	.LASF171
 2407 0c25 00       		.sleb128 0
 2408 0c26 1D       		.uleb128 0x1d
 2409 0c27 15070000 		.4byte	.LASF172
 2410 0c2b 01       		.sleb128 1
 2411 0c2c 1D       		.uleb128 0x1d
 2412 0c2d E4050000 		.4byte	.LASF173
 2413 0c31 02       		.sleb128 2
 2414 0c32 00       		.byte	0
 2415 0c33 03       		.uleb128 0x3
 2416 0c34 7A070000 		.4byte	.LASF174
 2417 0c38 0D       		.byte	0xd
 2418 0c39 68       		.byte	0x68
 2419 0c3a 180C0000 		.4byte	0xc18
 2420 0c3e 03       		.uleb128 0x3
 2421 0c3f 8F070000 		.4byte	.LASF175
 2422 0c43 0D       		.byte	0xd
 2423 0c44 6D       		.byte	0x6d
 2424 0c45 490C0000 		.4byte	0xc49
 2425 0c49 05       		.uleb128 0x5
 2426 0c4a 8F070000 		.4byte	.LASF175
 2427 0c4e 74       		.byte	0x74
 2428 0c4f 0D       		.byte	0xd
 2429 0c50 87       		.byte	0x87
 2430 0c51 C00C0000 		.4byte	0xcc0
 2431 0c55 07       		.uleb128 0x7
 2432 0c56 766D7400 		.ascii	"vmt\000"
 2433 0c5a 0D       		.byte	0xd
 2434 0c5b 89       		.byte	0x89
 2435 0c5c 390D0000 		.4byte	0xd39
 2436 0c60 00       		.byte	0
 2437 0c61 06       		.uleb128 0x6
 2438 0c62 DD030000 		.4byte	.LASF176
 2439 0c66 0D       		.byte	0xd
 2440 0c67 8A       		.byte	0x8a
 2441 0c68 AA030000 		.4byte	0x3aa
 2442 0c6c 04       		.byte	0x4
 2443 0c6d 06       		.uleb128 0x6
 2444 0c6e FE080000 		.4byte	.LASF177
 2445 0c72 0D       		.byte	0xd
 2446 0c73 8A       		.byte	0x8a
 2447 0c74 23060000 		.4byte	0x623
 2448 0c78 08       		.byte	0x8
 2449 0c79 06       		.uleb128 0x6
 2450 0c7a 4A020000 		.4byte	.LASF178
 2451 0c7e 0D       		.byte	0xd
 2452 0c7f 8A       		.byte	0x8a
 2453 0c80 330C0000 		.4byte	0xc33
 2454 0c84 0C       		.byte	0xc
 2455 0c85 06       		.uleb128 0x6
ARM GAS  /tmp/ccNQmvjm.s 			page 45


 2456 0c86 89030000 		.4byte	.LASF179
 2457 0c8a 0D       		.byte	0xd
 2458 0c8b 8A       		.byte	0x8a
 2459 0c8c 96040000 		.4byte	0x496
 2460 0c90 10       		.byte	0x10
 2461 0c91 06       		.uleb128 0x6
 2462 0c92 30040000 		.4byte	.LASF180
 2463 0c96 0D       		.byte	0xd
 2464 0c97 8A       		.byte	0x8a
 2465 0c98 A1040000 		.4byte	0x4a1
 2466 0c9c 30       		.byte	0x30
 2467 0c9d 07       		.uleb128 0x7
 2468 0c9e 696200   		.ascii	"ib\000"
 2469 0ca1 0D       		.byte	0xd
 2470 0ca2 8A       		.byte	0x8a
 2471 0ca3 440D0000 		.4byte	0xd44
 2472 0ca7 50       		.byte	0x50
 2473 0ca8 07       		.uleb128 0x7
 2474 0ca9 6F6200   		.ascii	"ob\000"
 2475 0cac 0D       		.byte	0xd
 2476 0cad 8A       		.byte	0x8a
 2477 0cae 440D0000 		.4byte	0xd44
 2478 0cb2 60       		.byte	0x60
 2479 0cb3 06       		.uleb128 0x6
 2480 0cb4 62090000 		.4byte	.LASF181
 2481 0cb8 0D       		.byte	0xd
 2482 0cb9 8A       		.byte	0x8a
 2483 0cba 540D0000 		.4byte	0xd54
 2484 0cbe 70       		.byte	0x70
 2485 0cbf 00       		.byte	0
 2486 0cc0 05       		.uleb128 0x5
 2487 0cc1 74030000 		.4byte	.LASF182
 2488 0cc5 24       		.byte	0x24
 2489 0cc6 0D       		.byte	0xd
 2490 0cc7 7C       		.byte	0x7c
 2491 0cc8 390D0000 		.4byte	0xd39
 2492 0ccc 06       		.uleb128 0x6
 2493 0ccd BF040000 		.4byte	.LASF75
 2494 0cd1 0D       		.byte	0xd
 2495 0cd2 7D       		.byte	0x7d
 2496 0cd3 D0040000 		.4byte	0x4d0
 2497 0cd7 00       		.byte	0
 2498 0cd8 06       		.uleb128 0x6
 2499 0cd9 BE070000 		.4byte	.LASF76
 2500 0cdd 0D       		.byte	0xd
 2501 0cde 7D       		.byte	0x7d
 2502 0cdf EF040000 		.4byte	0x4ef
 2503 0ce3 04       		.byte	0x4
 2504 0ce4 06       		.uleb128 0x6
 2505 0ce5 D0020000 		.4byte	.LASF77
 2506 0ce9 0D       		.byte	0xd
 2507 0cea 7D       		.byte	0x7d
 2508 0ceb 71050000 		.4byte	0x571
 2509 0cef 08       		.byte	0x8
 2510 0cf0 06       		.uleb128 0x6
 2511 0cf1 67090000 		.4byte	.LASF78
 2512 0cf5 0D       		.byte	0xd
ARM GAS  /tmp/ccNQmvjm.s 			page 46


 2513 0cf6 7D       		.byte	0x7d
 2514 0cf7 71050000 		.4byte	0x571
 2515 0cfb 0C       		.byte	0xc
 2516 0cfc 07       		.uleb128 0x7
 2517 0cfd 70757400 		.ascii	"put\000"
 2518 0d01 0D       		.byte	0xd
 2519 0d02 7D       		.byte	0x7d
 2520 0d03 90050000 		.4byte	0x590
 2521 0d07 10       		.byte	0x10
 2522 0d08 07       		.uleb128 0x7
 2523 0d09 67657400 		.ascii	"get\000"
 2524 0d0d 0D       		.byte	0xd
 2525 0d0e 7D       		.byte	0x7d
 2526 0d0f AA050000 		.4byte	0x5aa
 2527 0d13 14       		.byte	0x14
 2528 0d14 06       		.uleb128 0x6
 2529 0d15 49040000 		.4byte	.LASF79
 2530 0d19 0D       		.byte	0xd
 2531 0d1a 7D       		.byte	0x7d
 2532 0d1b CE050000 		.4byte	0x5ce
 2533 0d1f 18       		.byte	0x18
 2534 0d20 06       		.uleb128 0x6
 2535 0d21 90010000 		.4byte	.LASF80
 2536 0d25 0D       		.byte	0xd
 2537 0d26 7D       		.byte	0x7d
 2538 0d27 F2050000 		.4byte	0x5f2
 2539 0d2b 1C       		.byte	0x1c
 2540 0d2c 06       		.uleb128 0x6
 2541 0d2d 58080000 		.4byte	.LASF183
 2542 0d31 0D       		.byte	0xd
 2543 0d32 7D       		.byte	0x7d
 2544 0d33 3E060000 		.4byte	0x63e
 2545 0d37 20       		.byte	0x20
 2546 0d38 00       		.byte	0
 2547 0d39 09       		.uleb128 0x9
 2548 0d3a 04       		.byte	0x4
 2549 0d3b 3F0D0000 		.4byte	0xd3f
 2550 0d3f 10       		.uleb128 0x10
 2551 0d40 C00C0000 		.4byte	0xcc0
 2552 0d44 15       		.uleb128 0x15
 2553 0d45 45000000 		.4byte	0x45
 2554 0d49 540D0000 		.4byte	0xd54
 2555 0d4d 16       		.uleb128 0x16
 2556 0d4e 01030000 		.4byte	0x301
 2557 0d52 0F       		.byte	0xf
 2558 0d53 00       		.byte	0
 2559 0d54 09       		.uleb128 0x9
 2560 0d55 04       		.byte	0x4
 2561 0d56 0C0C0000 		.4byte	0xc0c
 2562 0d5a 1E       		.uleb128 0x1e
 2563 0d5b CE050000 		.4byte	.LASF229
 2564 0d5f 01       		.byte	0x1
 2565 0d60 84       		.byte	0x84
 2566 0d61 82000000 		.4byte	0x82
 2567 0d65 01       		.byte	0x1
 2568 0d66 810D0000 		.4byte	0xd81
 2569 0d6a 1F       		.uleb128 0x1f
ARM GAS  /tmp/ccNQmvjm.s 			page 47


 2570 0d6b 7D020000 		.4byte	.LASF189
 2571 0d6f 01       		.byte	0x1
 2572 0d70 84       		.byte	0x84
 2573 0d71 82000000 		.4byte	0x82
 2574 0d75 20       		.uleb128 0x20
 2575 0d76 4B090000 		.4byte	.LASF208
 2576 0d7a 01       		.byte	0x1
 2577 0d7b 86       		.byte	0x86
 2578 0d7c 82000000 		.4byte	0x82
 2579 0d80 00       		.byte	0
 2580 0d81 21       		.uleb128 0x21
 2581 0d82 5A0D0000 		.4byte	0xd5a
 2582 0d86 00000000 		.4byte	.LFB43
 2583 0d8a 8C000000 		.4byte	.LFE43-.LFB43
 2584 0d8e 01       		.uleb128 0x1
 2585 0d8f 9C       		.byte	0x9c
 2586 0d90 C10D0000 		.4byte	0xdc1
 2587 0d94 22       		.uleb128 0x22
 2588 0d95 6A0D0000 		.4byte	0xd6a
 2589 0d99 00000000 		.4byte	.LLST0
 2590 0d9d 23       		.uleb128 0x23
 2591 0d9e 750D0000 		.4byte	0xd75
 2592 0da2 7F010000 		.4byte	.LLST1
 2593 0da6 24       		.uleb128 0x24
 2594 0da7 00000000 		.4byte	.Ldebug_ranges0+0
 2595 0dab 22       		.uleb128 0x22
 2596 0dac 6A0D0000 		.4byte	0xd6a
 2597 0db0 AA010000 		.4byte	.LLST2
 2598 0db4 24       		.uleb128 0x24
 2599 0db5 00000000 		.4byte	.Ldebug_ranges0+0
 2600 0db9 25       		.uleb128 0x25
 2601 0dba 750D0000 		.4byte	0xd75
 2602 0dbe 00       		.byte	0
 2603 0dbf 00       		.byte	0
 2604 0dc0 00       		.byte	0
 2605 0dc1 26       		.uleb128 0x26
 2606 0dc2 15090000 		.4byte	.LASF184
 2607 0dc6 01       		.byte	0x1
 2608 0dc7 3D       		.byte	0x3d
 2609 0dc8 00000000 		.4byte	.LFB36
 2610 0dcc 34000000 		.4byte	.LFE36-.LFB36
 2611 0dd0 01       		.uleb128 0x1
 2612 0dd1 9C       		.byte	0x9c
 2613 0dd2 E40D0000 		.4byte	0xde4
 2614 0dd6 27       		.uleb128 0x27
 2615 0dd7 C6060000 		.4byte	.LASF186
 2616 0ddb 01       		.byte	0x1
 2617 0ddc 3D       		.byte	0x3d
 2618 0ddd E40D0000 		.4byte	0xde4
 2619 0de1 01       		.uleb128 0x1
 2620 0de2 50       		.byte	0x50
 2621 0de3 00       		.byte	0
 2622 0de4 09       		.uleb128 0x9
 2623 0de5 04       		.byte	0x4
 2624 0de6 AF080000 		.4byte	0x8af
 2625 0dea 26       		.uleb128 0x26
 2626 0deb 33050000 		.4byte	.LASF185
ARM GAS  /tmp/ccNQmvjm.s 			page 48


 2627 0def 01       		.byte	0x1
 2628 0df0 4F       		.byte	0x4f
 2629 0df1 00000000 		.4byte	.LFB37
 2630 0df5 0A000000 		.4byte	.LFE37-.LFB37
 2631 0df9 01       		.uleb128 0x1
 2632 0dfa 9C       		.byte	0x9c
 2633 0dfb 1C0E0000 		.4byte	0xe1c
 2634 0dff 27       		.uleb128 0x27
 2635 0e00 C6060000 		.4byte	.LASF186
 2636 0e04 01       		.byte	0x1
 2637 0e05 4F       		.byte	0x4f
 2638 0e06 E40D0000 		.4byte	0xde4
 2639 0e0a 01       		.uleb128 0x1
 2640 0e0b 50       		.byte	0x50
 2641 0e0c 28       		.uleb128 0x28
 2642 0e0d 17000000 		.4byte	.LASF187
 2643 0e11 01       		.byte	0x1
 2644 0e12 4F       		.byte	0x4f
 2645 0e13 82000000 		.4byte	0x82
 2646 0e17 E4010000 		.4byte	.LLST3
 2647 0e1b 00       		.byte	0
 2648 0e1c 26       		.uleb128 0x26
 2649 0e1d CC030000 		.4byte	.LASF188
 2650 0e21 01       		.byte	0x1
 2651 0e22 57       		.byte	0x57
 2652 0e23 00000000 		.4byte	.LFB38
 2653 0e27 14000000 		.4byte	.LFE38-.LFB38
 2654 0e2b 01       		.uleb128 0x1
 2655 0e2c 9C       		.byte	0x9c
 2656 0e2d 5D0E0000 		.4byte	0xe5d
 2657 0e31 27       		.uleb128 0x27
 2658 0e32 C6060000 		.4byte	.LASF186
 2659 0e36 01       		.byte	0x1
 2660 0e37 57       		.byte	0x57
 2661 0e38 E40D0000 		.4byte	0xde4
 2662 0e3c 01       		.uleb128 0x1
 2663 0e3d 50       		.byte	0x50
 2664 0e3e 28       		.uleb128 0x28
 2665 0e3f 7D020000 		.4byte	.LASF189
 2666 0e43 01       		.byte	0x1
 2667 0e44 57       		.byte	0x57
 2668 0e45 82000000 		.4byte	0x82
 2669 0e49 05020000 		.4byte	.LLST4
 2670 0e4d 28       		.uleb128 0x28
 2671 0e4e F1020000 		.4byte	.LASF190
 2672 0e52 01       		.byte	0x1
 2673 0e53 57       		.byte	0x57
 2674 0e54 82000000 		.4byte	0x82
 2675 0e58 26020000 		.4byte	.LLST5
 2676 0e5c 00       		.byte	0
 2677 0e5d 26       		.uleb128 0x26
 2678 0e5e 32060000 		.4byte	.LASF191
 2679 0e62 01       		.byte	0x1
 2680 0e63 60       		.byte	0x60
 2681 0e64 00000000 		.4byte	.LFB39
 2682 0e68 20000000 		.4byte	.LFE39-.LFB39
 2683 0e6c 01       		.uleb128 0x1
ARM GAS  /tmp/ccNQmvjm.s 			page 49


 2684 0e6d 9C       		.byte	0x9c
 2685 0e6e AD0E0000 		.4byte	0xead
 2686 0e72 27       		.uleb128 0x27
 2687 0e73 C6060000 		.4byte	.LASF186
 2688 0e77 01       		.byte	0x1
 2689 0e78 60       		.byte	0x60
 2690 0e79 E40D0000 		.4byte	0xde4
 2691 0e7d 01       		.uleb128 0x1
 2692 0e7e 50       		.byte	0x50
 2693 0e7f 28       		.uleb128 0x28
 2694 0e80 38030000 		.4byte	.LASF192
 2695 0e84 01       		.byte	0x1
 2696 0e85 60       		.byte	0x60
 2697 0e86 82000000 		.4byte	0x82
 2698 0e8a 47020000 		.4byte	.LLST6
 2699 0e8e 28       		.uleb128 0x28
 2700 0e8f 32090000 		.4byte	.LASF193
 2701 0e93 01       		.byte	0x1
 2702 0e94 60       		.byte	0x60
 2703 0e95 82000000 		.4byte	0x82
 2704 0e99 68020000 		.4byte	.LLST7
 2705 0e9d 28       		.uleb128 0x28
 2706 0e9e 4D000000 		.4byte	.LASF194
 2707 0ea2 01       		.byte	0x1
 2708 0ea3 60       		.byte	0x60
 2709 0ea4 82000000 		.4byte	0x82
 2710 0ea8 89020000 		.4byte	.LLST8
 2711 0eac 00       		.byte	0
 2712 0ead 26       		.uleb128 0x26
 2713 0eae 4F030000 		.4byte	.LASF195
 2714 0eb2 01       		.byte	0x1
 2715 0eb3 6A       		.byte	0x6a
 2716 0eb4 00000000 		.4byte	.LFB40
 2717 0eb8 0E000000 		.4byte	.LFE40-.LFB40
 2718 0ebc 01       		.uleb128 0x1
 2719 0ebd 9C       		.byte	0x9c
 2720 0ebe DF0E0000 		.4byte	0xedf
 2721 0ec2 27       		.uleb128 0x27
 2722 0ec3 C6060000 		.4byte	.LASF186
 2723 0ec7 01       		.byte	0x1
 2724 0ec8 6A       		.byte	0x6a
 2725 0ec9 E40D0000 		.4byte	0xde4
 2726 0ecd 01       		.uleb128 0x1
 2727 0ece 50       		.byte	0x50
 2728 0ecf 28       		.uleb128 0x28
 2729 0ed0 ED070000 		.4byte	.LASF196
 2730 0ed4 01       		.byte	0x1
 2731 0ed5 6A       		.byte	0x6a
 2732 0ed6 82000000 		.4byte	0x82
 2733 0eda AA020000 		.4byte	.LLST9
 2734 0ede 00       		.byte	0
 2735 0edf 26       		.uleb128 0x26
 2736 0ee0 3E030000 		.4byte	.LASF197
 2737 0ee4 01       		.byte	0x1
 2738 0ee5 72       		.byte	0x72
 2739 0ee6 00000000 		.4byte	.LFB41
 2740 0eea 16000000 		.4byte	.LFE41-.LFB41
ARM GAS  /tmp/ccNQmvjm.s 			page 50


 2741 0eee 01       		.uleb128 0x1
 2742 0eef 9C       		.byte	0x9c
 2743 0ef0 200F0000 		.4byte	0xf20
 2744 0ef4 27       		.uleb128 0x27
 2745 0ef5 C6060000 		.4byte	.LASF186
 2746 0ef9 01       		.byte	0x1
 2747 0efa 72       		.byte	0x72
 2748 0efb E40D0000 		.4byte	0xde4
 2749 0eff 01       		.uleb128 0x1
 2750 0f00 50       		.byte	0x50
 2751 0f01 28       		.uleb128 0x28
 2752 0f02 07040000 		.4byte	.LASF198
 2753 0f06 01       		.byte	0x1
 2754 0f07 72       		.byte	0x72
 2755 0f08 82000000 		.4byte	0x82
 2756 0f0c CB020000 		.4byte	.LLST10
 2757 0f10 28       		.uleb128 0x28
 2758 0f11 84030000 		.4byte	.LASF199
 2759 0f15 01       		.byte	0x1
 2760 0f16 72       		.byte	0x72
 2761 0f17 82000000 		.4byte	0x82
 2762 0f1b EC020000 		.4byte	.LLST11
 2763 0f1f 00       		.byte	0
 2764 0f20 26       		.uleb128 0x26
 2765 0f21 45080000 		.4byte	.LASF200
 2766 0f25 01       		.byte	0x1
 2767 0f26 7B       		.byte	0x7b
 2768 0f27 00000000 		.4byte	.LFB42
 2769 0f2b 0A000000 		.4byte	.LFE42-.LFB42
 2770 0f2f 01       		.uleb128 0x1
 2771 0f30 9C       		.byte	0x9c
 2772 0f31 520F0000 		.4byte	0xf52
 2773 0f35 27       		.uleb128 0x27
 2774 0f36 C6060000 		.4byte	.LASF186
 2775 0f3a 01       		.byte	0x1
 2776 0f3b 7B       		.byte	0x7b
 2777 0f3c E40D0000 		.4byte	0xde4
 2778 0f40 01       		.uleb128 0x1
 2779 0f41 50       		.byte	0x50
 2780 0f42 28       		.uleb128 0x28
 2781 0f43 15060000 		.4byte	.LASF201
 2782 0f47 01       		.byte	0x1
 2783 0f48 7B       		.byte	0x7b
 2784 0f49 82000000 		.4byte	0x82
 2785 0f4d 0D030000 		.4byte	.LLST12
 2786 0f51 00       		.byte	0
 2787 0f52 26       		.uleb128 0x26
 2788 0f53 81080000 		.4byte	.LASF202
 2789 0f57 01       		.byte	0x1
 2790 0f58 AF       		.byte	0xaf
 2791 0f59 00000000 		.4byte	.LFB44
 2792 0f5d 2A010000 		.4byte	.LFE44-.LFB44
 2793 0f61 01       		.uleb128 0x1
 2794 0f62 9C       		.byte	0x9c
 2795 0f63 47100000 		.4byte	0x1047
 2796 0f67 28       		.uleb128 0x28
 2797 0f68 C6060000 		.4byte	.LASF186
ARM GAS  /tmp/ccNQmvjm.s 			page 51


 2798 0f6c 01       		.byte	0x1
 2799 0f6d AF       		.byte	0xaf
 2800 0f6e E40D0000 		.4byte	0xde4
 2801 0f72 2E030000 		.4byte	.LLST13
 2802 0f76 28       		.uleb128 0x28
 2803 0f77 63020000 		.4byte	.LASF203
 2804 0f7b 01       		.byte	0x1
 2805 0f7c AF       		.byte	0xaf
 2806 0f7d 82000000 		.4byte	0x82
 2807 0f81 65030000 		.4byte	.LLST14
 2808 0f85 29       		.uleb128 0x29
 2809 0f86 87010000 		.4byte	.LASF204
 2810 0f8a 01       		.byte	0x1
 2811 0f8b B1       		.byte	0xb1
 2812 0f8c 82000000 		.4byte	0x82
 2813 0f90 86030000 		.4byte	.LLST15
 2814 0f94 29       		.uleb128 0x29
 2815 0f95 F1020000 		.4byte	.LASF190
 2816 0f99 01       		.byte	0x1
 2817 0f9a B2       		.byte	0xb2
 2818 0f9b 82000000 		.4byte	0x82
 2819 0f9f BA030000 		.4byte	.LLST16
 2820 0fa3 29       		.uleb128 0x29
 2821 0fa4 7D020000 		.4byte	.LASF189
 2822 0fa8 01       		.byte	0x1
 2823 0fa9 B3       		.byte	0xb3
 2824 0faa 82000000 		.4byte	0x82
 2825 0fae D5030000 		.4byte	.LLST17
 2826 0fb2 2A       		.uleb128 0x2a
 2827 0fb3 2A000000 		.4byte	.LVL54
 2828 0fb7 A3120000 		.4byte	0x12a3
 2829 0fbb CF0F0000 		.4byte	0xfcf
 2830 0fbf 2B       		.uleb128 0x2b
 2831 0fc0 01       		.uleb128 0x1
 2832 0fc1 52       		.byte	0x52
 2833 0fc2 02       		.uleb128 0x2
 2834 0fc3 74       		.byte	0x74
 2835 0fc4 00       		.sleb128 0
 2836 0fc5 2B       		.uleb128 0x2b
 2837 0fc6 01       		.uleb128 0x1
 2838 0fc7 51       		.byte	0x51
 2839 0fc8 05       		.uleb128 0x5
 2840 0fc9 03       		.byte	0x3
 2841 0fca 00000000 		.4byte	.LC0
 2842 0fce 00       		.byte	0
 2843 0fcf 2A       		.uleb128 0x2a
 2844 0fd0 60000000 		.4byte	.LVL57
 2845 0fd4 5A0D0000 		.4byte	0xd5a
 2846 0fd8 E30F0000 		.4byte	0xfe3
 2847 0fdc 2B       		.uleb128 0x2b
 2848 0fdd 01       		.uleb128 0x1
 2849 0fde 50       		.byte	0x50
 2850 0fdf 02       		.uleb128 0x2
 2851 0fe0 76       		.byte	0x76
 2852 0fe1 00       		.sleb128 0
 2853 0fe2 00       		.byte	0
 2854 0fe3 2A       		.uleb128 0x2a
ARM GAS  /tmp/ccNQmvjm.s 			page 52


 2855 0fe4 A8000000 		.4byte	.LVL61
 2856 0fe8 A3120000 		.4byte	0x12a3
 2857 0fec FA0F0000 		.4byte	0xffa
 2858 0ff0 2B       		.uleb128 0x2b
 2859 0ff1 01       		.uleb128 0x1
 2860 0ff2 51       		.byte	0x51
 2861 0ff3 05       		.uleb128 0x5
 2862 0ff4 03       		.byte	0x3
 2863 0ff5 58000000 		.4byte	.LC2
 2864 0ff9 00       		.byte	0
 2865 0ffa 2A       		.uleb128 0x2a
 2866 0ffb B6000000 		.4byte	.LVL63
 2867 0fff 5A0D0000 		.4byte	0xd5a
 2868 1003 0E100000 		.4byte	0x100e
 2869 1007 2B       		.uleb128 0x2b
 2870 1008 01       		.uleb128 0x1
 2871 1009 50       		.byte	0x50
 2872 100a 02       		.uleb128 0x2
 2873 100b 76       		.byte	0x76
 2874 100c 00       		.sleb128 0
 2875 100d 00       		.byte	0
 2876 100e 2C       		.uleb128 0x2c
 2877 100f F6000000 		.4byte	.LVL66
 2878 1013 A3120000 		.4byte	0x12a3
 2879 1017 2A       		.uleb128 0x2a
 2880 1018 0C010000 		.4byte	.LVL67
 2881 101c A3120000 		.4byte	0x12a3
 2882 1020 33100000 		.4byte	0x1033
 2883 1024 2B       		.uleb128 0x2b
 2884 1025 01       		.uleb128 0x1
 2885 1026 52       		.byte	0x52
 2886 1027 01       		.uleb128 0x1
 2887 1028 31       		.byte	0x31
 2888 1029 2B       		.uleb128 0x2b
 2889 102a 01       		.uleb128 0x1
 2890 102b 51       		.byte	0x51
 2891 102c 05       		.uleb128 0x5
 2892 102d 03       		.byte	0x3
 2893 102e 20000000 		.4byte	.LC1
 2894 1032 00       		.byte	0
 2895 1033 2D       		.uleb128 0x2d
 2896 1034 22010000 		.4byte	.LVL69
 2897 1038 A3120000 		.4byte	0x12a3
 2898 103c 2B       		.uleb128 0x2b
 2899 103d 01       		.uleb128 0x1
 2900 103e 51       		.byte	0x51
 2901 103f 05       		.uleb128 0x5
 2902 1040 03       		.byte	0x3
 2903 1041 C0000000 		.4byte	.LC4
 2904 1045 00       		.byte	0
 2905 1046 00       		.byte	0
 2906 1047 2E       		.uleb128 0x2e
 2907 1048 9B030000 		.4byte	.LASF214
 2908 104c 01       		.byte	0x1
 2909 104d F4       		.byte	0xf4
 2910 104e 82000000 		.4byte	0x82
 2911 1052 00000000 		.4byte	.LFB45
ARM GAS  /tmp/ccNQmvjm.s 			page 53


 2912 1056 0E000000 		.4byte	.LFE45-.LFB45
 2913 105a 01       		.uleb128 0x1
 2914 105b 9C       		.byte	0x9c
 2915 105c 8E100000 		.4byte	0x108e
 2916 1060 28       		.uleb128 0x28
 2917 1061 C6060000 		.4byte	.LASF186
 2918 1065 01       		.byte	0x1
 2919 1066 F4       		.byte	0xf4
 2920 1067 E40D0000 		.4byte	0xde4
 2921 106b FE030000 		.4byte	.LLST18
 2922 106f 28       		.uleb128 0x28
 2923 1070 39020000 		.4byte	.LASF205
 2924 1074 01       		.byte	0x1
 2925 1075 F4       		.byte	0xf4
 2926 1076 82000000 		.4byte	0x82
 2927 107a 1F040000 		.4byte	.LLST19
 2928 107e 29       		.uleb128 0x29
 2929 107f B7080000 		.4byte	.LASF206
 2930 1083 01       		.byte	0x1
 2931 1084 F6       		.byte	0xf6
 2932 1085 82000000 		.4byte	0x82
 2933 1089 40040000 		.4byte	.LLST20
 2934 108d 00       		.byte	0
 2935 108e 2F       		.uleb128 0x2f
 2936 108f 1D070000 		.4byte	.LASF207
 2937 1093 01       		.byte	0x1
 2938 1094 0601     		.2byte	0x106
 2939 1096 00000000 		.4byte	.LFB46
 2940 109a 4C000000 		.4byte	.LFE46-.LFB46
 2941 109e 01       		.uleb128 0x1
 2942 109f 9C       		.byte	0x9c
 2943 10a0 00110000 		.4byte	0x1100
 2944 10a4 30       		.uleb128 0x30
 2945 10a5 C6060000 		.4byte	.LASF186
 2946 10a9 01       		.byte	0x1
 2947 10aa 0601     		.2byte	0x106
 2948 10ac E40D0000 		.4byte	0xde4
 2949 10b0 5F040000 		.4byte	.LLST21
 2950 10b4 30       		.uleb128 0x30
 2951 10b5 39020000 		.4byte	.LASF205
 2952 10b9 01       		.byte	0x1
 2953 10ba 0601     		.2byte	0x106
 2954 10bc 82000000 		.4byte	0x82
 2955 10c0 80040000 		.4byte	.LLST22
 2956 10c4 31       		.uleb128 0x31
 2957 10c5 04070000 		.4byte	.LASF209
 2958 10c9 10110000 		.4byte	0x1110
 2959 10cd 05       		.uleb128 0x5
 2960 10ce 03       		.byte	0x3
 2961 10cf 00000000 		.4byte	__func__.5994
 2962 10d3 2D       		.uleb128 0x2d
 2963 10d4 4C000000 		.4byte	.LVL79
 2964 10d8 C0120000 		.4byte	0x12c0
 2965 10dc 2B       		.uleb128 0x2b
 2966 10dd 01       		.uleb128 0x1
 2967 10de 53       		.byte	0x53
 2968 10df 05       		.uleb128 0x5
ARM GAS  /tmp/ccNQmvjm.s 			page 54


 2969 10e0 03       		.byte	0x3
 2970 10e1 24010000 		.4byte	.LC6
 2971 10e5 2B       		.uleb128 0x2b
 2972 10e6 01       		.uleb128 0x1
 2973 10e7 52       		.byte	0x52
 2974 10e8 05       		.uleb128 0x5
 2975 10e9 03       		.byte	0x3
 2976 10ea 00000000 		.4byte	.LANCHOR0
 2977 10ee 2B       		.uleb128 0x2b
 2978 10ef 01       		.uleb128 0x1
 2979 10f0 51       		.byte	0x51
 2980 10f1 03       		.uleb128 0x3
 2981 10f2 0A       		.byte	0xa
 2982 10f3 0801     		.2byte	0x108
 2983 10f5 2B       		.uleb128 0x2b
 2984 10f6 01       		.uleb128 0x1
 2985 10f7 50       		.byte	0x50
 2986 10f8 05       		.uleb128 0x5
 2987 10f9 03       		.byte	0x3
 2988 10fa E4000000 		.4byte	.LC5
 2989 10fe 00       		.byte	0
 2990 10ff 00       		.byte	0
 2991 1100 15       		.uleb128 0x15
 2992 1101 F5030000 		.4byte	0x3f5
 2993 1105 10110000 		.4byte	0x1110
 2994 1109 16       		.uleb128 0x16
 2995 110a 01030000 		.4byte	0x301
 2996 110e 15       		.byte	0x15
 2997 110f 00       		.byte	0
 2998 1110 10       		.uleb128 0x10
 2999 1111 00110000 		.4byte	0x1100
 3000 1115 2F       		.uleb128 0x2f
 3001 1116 B0030000 		.4byte	.LASF210
 3002 111a 01       		.byte	0x1
 3003 111b 1B01     		.2byte	0x11b
 3004 111d 00000000 		.4byte	.LFB47
 3005 1121 14000000 		.4byte	.LFE47-.LFB47
 3006 1125 01       		.uleb128 0x1
 3007 1126 9C       		.byte	0x9c
 3008 1127 4A110000 		.4byte	0x114a
 3009 112b 32       		.uleb128 0x32
 3010 112c C6060000 		.4byte	.LASF186
 3011 1130 01       		.byte	0x1
 3012 1131 1B01     		.2byte	0x11b
 3013 1133 E40D0000 		.4byte	0xde4
 3014 1137 01       		.uleb128 0x1
 3015 1138 50       		.byte	0x50
 3016 1139 30       		.uleb128 0x30
 3017 113a A4090000 		.4byte	.LASF211
 3018 113e 01       		.byte	0x1
 3019 113f 1B01     		.2byte	0x11b
 3020 1141 82000000 		.4byte	0x82
 3021 1145 BA040000 		.4byte	.LLST23
 3022 1149 00       		.byte	0
 3023 114a 2F       		.uleb128 0x2f
 3024 114b 35000000 		.4byte	.LASF212
 3025 114f 01       		.byte	0x1
ARM GAS  /tmp/ccNQmvjm.s 			page 55


 3026 1150 2601     		.2byte	0x126
 3027 1152 00000000 		.4byte	.LFB48
 3028 1156 04000000 		.4byte	.LFE48-.LFB48
 3029 115a 01       		.uleb128 0x1
 3030 115b 9C       		.byte	0x9c
 3031 115c 7D110000 		.4byte	0x117d
 3032 1160 32       		.uleb128 0x32
 3033 1161 C6060000 		.4byte	.LASF186
 3034 1165 01       		.byte	0x1
 3035 1166 2601     		.2byte	0x126
 3036 1168 E40D0000 		.4byte	0xde4
 3037 116c 01       		.uleb128 0x1
 3038 116d 50       		.byte	0x50
 3039 116e 32       		.uleb128 0x32
 3040 116f 08050000 		.4byte	.LASF213
 3041 1173 01       		.byte	0x1
 3042 1174 2601     		.2byte	0x126
 3043 1176 82000000 		.4byte	0x82
 3044 117a 01       		.uleb128 0x1
 3045 117b 51       		.byte	0x51
 3046 117c 00       		.byte	0
 3047 117d 33       		.uleb128 0x33
 3048 117e 33070000 		.4byte	.LASF215
 3049 1182 01       		.byte	0x1
 3050 1183 3301     		.2byte	0x133
 3051 1185 82000000 		.4byte	0x82
 3052 1189 00000000 		.4byte	.LFB49
 3053 118d 06000000 		.4byte	.LFE49-.LFB49
 3054 1191 01       		.uleb128 0x1
 3055 1192 9C       		.byte	0x9c
 3056 1193 B6110000 		.4byte	0x11b6
 3057 1197 30       		.uleb128 0x30
 3058 1198 C6060000 		.4byte	.LASF186
 3059 119c 01       		.byte	0x1
 3060 119d 3301     		.2byte	0x133
 3061 119f E40D0000 		.4byte	0xde4
 3062 11a3 DB040000 		.4byte	.LLST24
 3063 11a7 32       		.uleb128 0x32
 3064 11a8 43020000 		.4byte	.LASF216
 3065 11ac 01       		.byte	0x1
 3066 11ad 3301     		.2byte	0x133
 3067 11af 82000000 		.4byte	0x82
 3068 11b3 01       		.uleb128 0x1
 3069 11b4 51       		.byte	0x51
 3070 11b5 00       		.byte	0
 3071 11b6 33       		.uleb128 0x33
 3072 11b7 CC010000 		.4byte	.LASF217
 3073 11bb 01       		.byte	0x1
 3074 11bc 4001     		.2byte	0x140
 3075 11be 82000000 		.4byte	0x82
 3076 11c2 00000000 		.4byte	.LFB50
 3077 11c6 06000000 		.4byte	.LFE50-.LFB50
 3078 11ca 01       		.uleb128 0x1
 3079 11cb 9C       		.byte	0x9c
 3080 11cc EF110000 		.4byte	0x11ef
 3081 11d0 30       		.uleb128 0x30
 3082 11d1 C6060000 		.4byte	.LASF186
ARM GAS  /tmp/ccNQmvjm.s 			page 56


 3083 11d5 01       		.byte	0x1
 3084 11d6 4001     		.2byte	0x140
 3085 11d8 E40D0000 		.4byte	0xde4
 3086 11dc FC040000 		.4byte	.LLST25
 3087 11e0 32       		.uleb128 0x32
 3088 11e1 43020000 		.4byte	.LASF216
 3089 11e5 01       		.byte	0x1
 3090 11e6 4001     		.2byte	0x140
 3091 11e8 82000000 		.4byte	0x82
 3092 11ec 01       		.uleb128 0x1
 3093 11ed 51       		.byte	0x51
 3094 11ee 00       		.byte	0
 3095 11ef 33       		.uleb128 0x33
 3096 11f0 43060000 		.4byte	.LASF218
 3097 11f4 01       		.byte	0x1
 3098 11f5 4D01     		.2byte	0x14d
 3099 11f7 82000000 		.4byte	0x82
 3100 11fb 00000000 		.4byte	.LFB51
 3101 11ff 16000000 		.4byte	.LFE51-.LFB51
 3102 1203 01       		.uleb128 0x1
 3103 1204 9C       		.byte	0x9c
 3104 1205 3A120000 		.4byte	0x123a
 3105 1209 30       		.uleb128 0x30
 3106 120a 0C090000 		.4byte	.LASF219
 3107 120e 01       		.byte	0x1
 3108 120f 4D01     		.2byte	0x14d
 3109 1211 82000000 		.4byte	0x82
 3110 1215 1D050000 		.4byte	.LLST26
 3111 1219 30       		.uleb128 0x30
 3112 121a 39020000 		.4byte	.LASF205
 3113 121e 01       		.byte	0x1
 3114 121f 4D01     		.2byte	0x14d
 3115 1221 82000000 		.4byte	0x82
 3116 1225 3E050000 		.4byte	.LLST27
 3117 1229 34       		.uleb128 0x34
 3118 122a CB060000 		.4byte	.LASF220
 3119 122e 01       		.byte	0x1
 3120 122f 4F01     		.2byte	0x14f
 3121 1231 82000000 		.4byte	0x82
 3122 1235 5F050000 		.4byte	.LLST28
 3123 1239 00       		.byte	0
 3124 123a 33       		.uleb128 0x33
 3125 123b 49050000 		.4byte	.LASF221
 3126 123f 01       		.byte	0x1
 3127 1240 6401     		.2byte	0x164
 3128 1242 82000000 		.4byte	0x82
 3129 1246 00000000 		.4byte	.LFB52
 3130 124a 44000000 		.4byte	.LFE52-.LFB52
 3131 124e 01       		.uleb128 0x1
 3132 124f 9C       		.byte	0x9c
 3133 1250 81120000 		.4byte	0x1281
 3134 1254 30       		.uleb128 0x30
 3135 1255 A5040000 		.4byte	.LASF222
 3136 1259 01       		.byte	0x1
 3137 125a 6401     		.2byte	0x164
 3138 125c E40D0000 		.4byte	0xde4
 3139 1260 94050000 		.4byte	.LLST29
ARM GAS  /tmp/ccNQmvjm.s 			page 57


 3140 1264 32       		.uleb128 0x32
 3141 1265 F9020000 		.4byte	.LASF223
 3142 1269 01       		.byte	0x1
 3143 126a 6401     		.2byte	0x164
 3144 126c 81120000 		.4byte	0x1281
 3145 1270 01       		.uleb128 0x1
 3146 1271 51       		.byte	0x51
 3147 1272 32       		.uleb128 0x32
 3148 1273 C7050000 		.4byte	.LASF224
 3149 1277 01       		.byte	0x1
 3150 1278 6401     		.2byte	0x164
 3151 127a 82000000 		.4byte	0x82
 3152 127e 01       		.uleb128 0x1
 3153 127f 52       		.byte	0x52
 3154 1280 00       		.byte	0
 3155 1281 09       		.uleb128 0x9
 3156 1282 04       		.byte	0x4
 3157 1283 57000000 		.4byte	0x57
 3158 1287 35       		.uleb128 0x35
 3159 1288 73010000 		.4byte	.LASF225
 3160 128c 0E       		.byte	0xe
 3161 128d CE06     		.2byte	0x6ce
 3162 128f 93120000 		.4byte	0x1293
 3163 1293 0D       		.uleb128 0xd
 3164 1294 25000000 		.4byte	0x25
 3165 1298 36       		.uleb128 0x36
 3166 1299 53443200 		.ascii	"SD2\000"
 3167 129d 0F       		.byte	0xf
 3168 129e 85       		.byte	0x85
 3169 129f 3E0C0000 		.4byte	0xc3e
 3170 12a3 37       		.uleb128 0x37
 3171 12a4 BD090000 		.4byte	.LASF230
 3172 12a8 10       		.byte	0x10
 3173 12a9 2A       		.byte	0x2a
 3174 12aa BA120000 		.4byte	0x12ba
 3175 12ae 12       		.uleb128 0x12
 3176 12af BA120000 		.4byte	0x12ba
 3177 12b3 12       		.uleb128 0x12
 3178 12b4 EA030000 		.4byte	0x3ea
 3179 12b8 38       		.uleb128 0x38
 3180 12b9 00       		.byte	0
 3181 12ba 09       		.uleb128 0x9
 3182 12bb 04       		.byte	0x4
 3183 12bc 18060000 		.4byte	0x618
 3184 12c0 39       		.uleb128 0x39
 3185 12c1 85020000 		.4byte	.LASF231
 3186 12c5 11       		.byte	0x11
 3187 12c6 33       		.byte	0x33
 3188 12c7 12       		.uleb128 0x12
 3189 12c8 EA030000 		.4byte	0x3ea
 3190 12cc 12       		.uleb128 0x12
 3191 12cd 25000000 		.4byte	0x25
 3192 12d1 12       		.uleb128 0x12
 3193 12d2 EA030000 		.4byte	0x3ea
 3194 12d6 12       		.uleb128 0x12
 3195 12d7 EA030000 		.4byte	0x3ea
 3196 12db 00       		.byte	0
ARM GAS  /tmp/ccNQmvjm.s 			page 58


 3197 12dc 00       		.byte	0
 3198              		.section	.debug_abbrev,"",%progbits
 3199              	.Ldebug_abbrev0:
 3200 0000 01       		.uleb128 0x1
 3201 0001 11       		.uleb128 0x11
 3202 0002 01       		.byte	0x1
 3203 0003 25       		.uleb128 0x25
 3204 0004 0E       		.uleb128 0xe
 3205 0005 13       		.uleb128 0x13
 3206 0006 0B       		.uleb128 0xb
 3207 0007 03       		.uleb128 0x3
 3208 0008 0E       		.uleb128 0xe
 3209 0009 1B       		.uleb128 0x1b
 3210 000a 0E       		.uleb128 0xe
 3211 000b 55       		.uleb128 0x55
 3212 000c 17       		.uleb128 0x17
 3213 000d 11       		.uleb128 0x11
 3214 000e 01       		.uleb128 0x1
 3215 000f 10       		.uleb128 0x10
 3216 0010 17       		.uleb128 0x17
 3217 0011 00       		.byte	0
 3218 0012 00       		.byte	0
 3219 0013 02       		.uleb128 0x2
 3220 0014 24       		.uleb128 0x24
 3221 0015 00       		.byte	0
 3222 0016 0B       		.uleb128 0xb
 3223 0017 0B       		.uleb128 0xb
 3224 0018 3E       		.uleb128 0x3e
 3225 0019 0B       		.uleb128 0xb
 3226 001a 03       		.uleb128 0x3
 3227 001b 08       		.uleb128 0x8
 3228 001c 00       		.byte	0
 3229 001d 00       		.byte	0
 3230 001e 03       		.uleb128 0x3
 3231 001f 16       		.uleb128 0x16
 3232 0020 00       		.byte	0
 3233 0021 03       		.uleb128 0x3
 3234 0022 0E       		.uleb128 0xe
 3235 0023 3A       		.uleb128 0x3a
 3236 0024 0B       		.uleb128 0xb
 3237 0025 3B       		.uleb128 0x3b
 3238 0026 0B       		.uleb128 0xb
 3239 0027 49       		.uleb128 0x49
 3240 0028 13       		.uleb128 0x13
 3241 0029 00       		.byte	0
 3242 002a 00       		.byte	0
 3243 002b 04       		.uleb128 0x4
 3244 002c 24       		.uleb128 0x24
 3245 002d 00       		.byte	0
 3246 002e 0B       		.uleb128 0xb
 3247 002f 0B       		.uleb128 0xb
 3248 0030 3E       		.uleb128 0x3e
 3249 0031 0B       		.uleb128 0xb
 3250 0032 03       		.uleb128 0x3
 3251 0033 0E       		.uleb128 0xe
 3252 0034 00       		.byte	0
 3253 0035 00       		.byte	0
ARM GAS  /tmp/ccNQmvjm.s 			page 59


 3254 0036 05       		.uleb128 0x5
 3255 0037 13       		.uleb128 0x13
 3256 0038 01       		.byte	0x1
 3257 0039 03       		.uleb128 0x3
 3258 003a 0E       		.uleb128 0xe
 3259 003b 0B       		.uleb128 0xb
 3260 003c 0B       		.uleb128 0xb
 3261 003d 3A       		.uleb128 0x3a
 3262 003e 0B       		.uleb128 0xb
 3263 003f 3B       		.uleb128 0x3b
 3264 0040 0B       		.uleb128 0xb
 3265 0041 01       		.uleb128 0x1
 3266 0042 13       		.uleb128 0x13
 3267 0043 00       		.byte	0
 3268 0044 00       		.byte	0
 3269 0045 06       		.uleb128 0x6
 3270 0046 0D       		.uleb128 0xd
 3271 0047 00       		.byte	0
 3272 0048 03       		.uleb128 0x3
 3273 0049 0E       		.uleb128 0xe
 3274 004a 3A       		.uleb128 0x3a
 3275 004b 0B       		.uleb128 0xb
 3276 004c 3B       		.uleb128 0x3b
 3277 004d 0B       		.uleb128 0xb
 3278 004e 49       		.uleb128 0x49
 3279 004f 13       		.uleb128 0x13
 3280 0050 38       		.uleb128 0x38
 3281 0051 0B       		.uleb128 0xb
 3282 0052 00       		.byte	0
 3283 0053 00       		.byte	0
 3284 0054 07       		.uleb128 0x7
 3285 0055 0D       		.uleb128 0xd
 3286 0056 00       		.byte	0
 3287 0057 03       		.uleb128 0x3
 3288 0058 08       		.uleb128 0x8
 3289 0059 3A       		.uleb128 0x3a
 3290 005a 0B       		.uleb128 0xb
 3291 005b 3B       		.uleb128 0x3b
 3292 005c 0B       		.uleb128 0xb
 3293 005d 49       		.uleb128 0x49
 3294 005e 13       		.uleb128 0x13
 3295 005f 38       		.uleb128 0x38
 3296 0060 0B       		.uleb128 0xb
 3297 0061 00       		.byte	0
 3298 0062 00       		.byte	0
 3299 0063 08       		.uleb128 0x8
 3300 0064 13       		.uleb128 0x13
 3301 0065 01       		.byte	0x1
 3302 0066 0B       		.uleb128 0xb
 3303 0067 0B       		.uleb128 0xb
 3304 0068 3A       		.uleb128 0x3a
 3305 0069 0B       		.uleb128 0xb
 3306 006a 3B       		.uleb128 0x3b
 3307 006b 0B       		.uleb128 0xb
 3308 006c 01       		.uleb128 0x1
 3309 006d 13       		.uleb128 0x13
 3310 006e 00       		.byte	0
ARM GAS  /tmp/ccNQmvjm.s 			page 60


 3311 006f 00       		.byte	0
 3312 0070 09       		.uleb128 0x9
 3313 0071 0F       		.uleb128 0xf
 3314 0072 00       		.byte	0
 3315 0073 0B       		.uleb128 0xb
 3316 0074 0B       		.uleb128 0xb
 3317 0075 49       		.uleb128 0x49
 3318 0076 13       		.uleb128 0x13
 3319 0077 00       		.byte	0
 3320 0078 00       		.byte	0
 3321 0079 0A       		.uleb128 0xa
 3322 007a 0F       		.uleb128 0xf
 3323 007b 00       		.byte	0
 3324 007c 0B       		.uleb128 0xb
 3325 007d 0B       		.uleb128 0xb
 3326 007e 00       		.byte	0
 3327 007f 00       		.byte	0
 3328 0080 0B       		.uleb128 0xb
 3329 0081 0D       		.uleb128 0xd
 3330 0082 00       		.byte	0
 3331 0083 03       		.uleb128 0x3
 3332 0084 08       		.uleb128 0x8
 3333 0085 3A       		.uleb128 0x3a
 3334 0086 0B       		.uleb128 0xb
 3335 0087 3B       		.uleb128 0x3b
 3336 0088 05       		.uleb128 0x5
 3337 0089 49       		.uleb128 0x49
 3338 008a 13       		.uleb128 0x13
 3339 008b 38       		.uleb128 0x38
 3340 008c 0B       		.uleb128 0xb
 3341 008d 00       		.byte	0
 3342 008e 00       		.byte	0
 3343 008f 0C       		.uleb128 0xc
 3344 0090 13       		.uleb128 0x13
 3345 0091 01       		.byte	0x1
 3346 0092 03       		.uleb128 0x3
 3347 0093 0E       		.uleb128 0xe
 3348 0094 0B       		.uleb128 0xb
 3349 0095 0B       		.uleb128 0xb
 3350 0096 3A       		.uleb128 0x3a
 3351 0097 0B       		.uleb128 0xb
 3352 0098 3B       		.uleb128 0x3b
 3353 0099 05       		.uleb128 0x5
 3354 009a 01       		.uleb128 0x1
 3355 009b 13       		.uleb128 0x13
 3356 009c 00       		.byte	0
 3357 009d 00       		.byte	0
 3358 009e 0D       		.uleb128 0xd
 3359 009f 35       		.uleb128 0x35
 3360 00a0 00       		.byte	0
 3361 00a1 49       		.uleb128 0x49
 3362 00a2 13       		.uleb128 0x13
 3363 00a3 00       		.byte	0
 3364 00a4 00       		.byte	0
 3365 00a5 0E       		.uleb128 0xe
 3366 00a6 17       		.uleb128 0x17
 3367 00a7 01       		.byte	0x1
ARM GAS  /tmp/ccNQmvjm.s 			page 61


 3368 00a8 0B       		.uleb128 0xb
 3369 00a9 0B       		.uleb128 0xb
 3370 00aa 3A       		.uleb128 0x3a
 3371 00ab 0B       		.uleb128 0xb
 3372 00ac 3B       		.uleb128 0x3b
 3373 00ad 0B       		.uleb128 0xb
 3374 00ae 01       		.uleb128 0x1
 3375 00af 13       		.uleb128 0x13
 3376 00b0 00       		.byte	0
 3377 00b1 00       		.byte	0
 3378 00b2 0F       		.uleb128 0xf
 3379 00b3 0D       		.uleb128 0xd
 3380 00b4 00       		.byte	0
 3381 00b5 03       		.uleb128 0x3
 3382 00b6 0E       		.uleb128 0xe
 3383 00b7 3A       		.uleb128 0x3a
 3384 00b8 0B       		.uleb128 0xb
 3385 00b9 3B       		.uleb128 0x3b
 3386 00ba 0B       		.uleb128 0xb
 3387 00bb 49       		.uleb128 0x49
 3388 00bc 13       		.uleb128 0x13
 3389 00bd 00       		.byte	0
 3390 00be 00       		.byte	0
 3391 00bf 10       		.uleb128 0x10
 3392 00c0 26       		.uleb128 0x26
 3393 00c1 00       		.byte	0
 3394 00c2 49       		.uleb128 0x49
 3395 00c3 13       		.uleb128 0x13
 3396 00c4 00       		.byte	0
 3397 00c5 00       		.byte	0
 3398 00c6 11       		.uleb128 0x11
 3399 00c7 15       		.uleb128 0x15
 3400 00c8 01       		.byte	0x1
 3401 00c9 27       		.uleb128 0x27
 3402 00ca 19       		.uleb128 0x19
 3403 00cb 01       		.uleb128 0x1
 3404 00cc 13       		.uleb128 0x13
 3405 00cd 00       		.byte	0
 3406 00ce 00       		.byte	0
 3407 00cf 12       		.uleb128 0x12
 3408 00d0 05       		.uleb128 0x5
 3409 00d1 00       		.byte	0
 3410 00d2 49       		.uleb128 0x49
 3411 00d3 13       		.uleb128 0x13
 3412 00d4 00       		.byte	0
 3413 00d5 00       		.byte	0
 3414 00d6 13       		.uleb128 0x13
 3415 00d7 15       		.uleb128 0x15
 3416 00d8 01       		.byte	0x1
 3417 00d9 27       		.uleb128 0x27
 3418 00da 19       		.uleb128 0x19
 3419 00db 49       		.uleb128 0x49
 3420 00dc 13       		.uleb128 0x13
 3421 00dd 01       		.uleb128 0x1
 3422 00de 13       		.uleb128 0x13
 3423 00df 00       		.byte	0
 3424 00e0 00       		.byte	0
ARM GAS  /tmp/ccNQmvjm.s 			page 62


 3425 00e1 14       		.uleb128 0x14
 3426 00e2 16       		.uleb128 0x16
 3427 00e3 00       		.byte	0
 3428 00e4 03       		.uleb128 0x3
 3429 00e5 0E       		.uleb128 0xe
 3430 00e6 3A       		.uleb128 0x3a
 3431 00e7 0B       		.uleb128 0xb
 3432 00e8 3B       		.uleb128 0x3b
 3433 00e9 05       		.uleb128 0x5
 3434 00ea 49       		.uleb128 0x49
 3435 00eb 13       		.uleb128 0x13
 3436 00ec 00       		.byte	0
 3437 00ed 00       		.byte	0
 3438 00ee 15       		.uleb128 0x15
 3439 00ef 01       		.uleb128 0x1
 3440 00f0 01       		.byte	0x1
 3441 00f1 49       		.uleb128 0x49
 3442 00f2 13       		.uleb128 0x13
 3443 00f3 01       		.uleb128 0x1
 3444 00f4 13       		.uleb128 0x13
 3445 00f5 00       		.byte	0
 3446 00f6 00       		.byte	0
 3447 00f7 16       		.uleb128 0x16
 3448 00f8 21       		.uleb128 0x21
 3449 00f9 00       		.byte	0
 3450 00fa 49       		.uleb128 0x49
 3451 00fb 13       		.uleb128 0x13
 3452 00fc 2F       		.uleb128 0x2f
 3453 00fd 0B       		.uleb128 0xb
 3454 00fe 00       		.byte	0
 3455 00ff 00       		.byte	0
 3456 0100 17       		.uleb128 0x17
 3457 0101 13       		.uleb128 0x13
 3458 0102 01       		.byte	0x1
 3459 0103 0B       		.uleb128 0xb
 3460 0104 05       		.uleb128 0x5
 3461 0105 3A       		.uleb128 0x3a
 3462 0106 0B       		.uleb128 0xb
 3463 0107 3B       		.uleb128 0x3b
 3464 0108 0B       		.uleb128 0xb
 3465 0109 01       		.uleb128 0x1
 3466 010a 13       		.uleb128 0x13
 3467 010b 00       		.byte	0
 3468 010c 00       		.byte	0
 3469 010d 18       		.uleb128 0x18
 3470 010e 0D       		.uleb128 0xd
 3471 010f 00       		.byte	0
 3472 0110 03       		.uleb128 0x3
 3473 0111 0E       		.uleb128 0xe
 3474 0112 3A       		.uleb128 0x3a
 3475 0113 0B       		.uleb128 0xb
 3476 0114 3B       		.uleb128 0x3b
 3477 0115 05       		.uleb128 0x5
 3478 0116 49       		.uleb128 0x49
 3479 0117 13       		.uleb128 0x13
 3480 0118 38       		.uleb128 0x38
 3481 0119 0B       		.uleb128 0xb
ARM GAS  /tmp/ccNQmvjm.s 			page 63


 3482 011a 00       		.byte	0
 3483 011b 00       		.byte	0
 3484 011c 19       		.uleb128 0x19
 3485 011d 0D       		.uleb128 0xd
 3486 011e 00       		.byte	0
 3487 011f 03       		.uleb128 0x3
 3488 0120 0E       		.uleb128 0xe
 3489 0121 3A       		.uleb128 0x3a
 3490 0122 0B       		.uleb128 0xb
 3491 0123 3B       		.uleb128 0x3b
 3492 0124 05       		.uleb128 0x5
 3493 0125 49       		.uleb128 0x49
 3494 0126 13       		.uleb128 0x13
 3495 0127 38       		.uleb128 0x38
 3496 0128 05       		.uleb128 0x5
 3497 0129 00       		.byte	0
 3498 012a 00       		.byte	0
 3499 012b 1A       		.uleb128 0x1a
 3500 012c 16       		.uleb128 0x16
 3501 012d 00       		.byte	0
 3502 012e 03       		.uleb128 0x3
 3503 012f 08       		.uleb128 0x8
 3504 0130 3A       		.uleb128 0x3a
 3505 0131 0B       		.uleb128 0xb
 3506 0132 3B       		.uleb128 0x3b
 3507 0133 05       		.uleb128 0x5
 3508 0134 49       		.uleb128 0x49
 3509 0135 13       		.uleb128 0x13
 3510 0136 00       		.byte	0
 3511 0137 00       		.byte	0
 3512 0138 1B       		.uleb128 0x1b
 3513 0139 13       		.uleb128 0x13
 3514 013a 01       		.byte	0x1
 3515 013b 0B       		.uleb128 0xb
 3516 013c 05       		.uleb128 0x5
 3517 013d 3A       		.uleb128 0x3a
 3518 013e 0B       		.uleb128 0xb
 3519 013f 3B       		.uleb128 0x3b
 3520 0140 05       		.uleb128 0x5
 3521 0141 01       		.uleb128 0x1
 3522 0142 13       		.uleb128 0x13
 3523 0143 00       		.byte	0
 3524 0144 00       		.byte	0
 3525 0145 1C       		.uleb128 0x1c
 3526 0146 04       		.uleb128 0x4
 3527 0147 01       		.byte	0x1
 3528 0148 0B       		.uleb128 0xb
 3529 0149 0B       		.uleb128 0xb
 3530 014a 3A       		.uleb128 0x3a
 3531 014b 0B       		.uleb128 0xb
 3532 014c 3B       		.uleb128 0x3b
 3533 014d 0B       		.uleb128 0xb
 3534 014e 01       		.uleb128 0x1
 3535 014f 13       		.uleb128 0x13
 3536 0150 00       		.byte	0
 3537 0151 00       		.byte	0
 3538 0152 1D       		.uleb128 0x1d
ARM GAS  /tmp/ccNQmvjm.s 			page 64


 3539 0153 28       		.uleb128 0x28
 3540 0154 00       		.byte	0
 3541 0155 03       		.uleb128 0x3
 3542 0156 0E       		.uleb128 0xe
 3543 0157 1C       		.uleb128 0x1c
 3544 0158 0D       		.uleb128 0xd
 3545 0159 00       		.byte	0
 3546 015a 00       		.byte	0
 3547 015b 1E       		.uleb128 0x1e
 3548 015c 2E       		.uleb128 0x2e
 3549 015d 01       		.byte	0x1
 3550 015e 03       		.uleb128 0x3
 3551 015f 0E       		.uleb128 0xe
 3552 0160 3A       		.uleb128 0x3a
 3553 0161 0B       		.uleb128 0xb
 3554 0162 3B       		.uleb128 0x3b
 3555 0163 0B       		.uleb128 0xb
 3556 0164 27       		.uleb128 0x27
 3557 0165 19       		.uleb128 0x19
 3558 0166 49       		.uleb128 0x49
 3559 0167 13       		.uleb128 0x13
 3560 0168 20       		.uleb128 0x20
 3561 0169 0B       		.uleb128 0xb
 3562 016a 01       		.uleb128 0x1
 3563 016b 13       		.uleb128 0x13
 3564 016c 00       		.byte	0
 3565 016d 00       		.byte	0
 3566 016e 1F       		.uleb128 0x1f
 3567 016f 05       		.uleb128 0x5
 3568 0170 00       		.byte	0
 3569 0171 03       		.uleb128 0x3
 3570 0172 0E       		.uleb128 0xe
 3571 0173 3A       		.uleb128 0x3a
 3572 0174 0B       		.uleb128 0xb
 3573 0175 3B       		.uleb128 0x3b
 3574 0176 0B       		.uleb128 0xb
 3575 0177 49       		.uleb128 0x49
 3576 0178 13       		.uleb128 0x13
 3577 0179 00       		.byte	0
 3578 017a 00       		.byte	0
 3579 017b 20       		.uleb128 0x20
 3580 017c 34       		.uleb128 0x34
 3581 017d 00       		.byte	0
 3582 017e 03       		.uleb128 0x3
 3583 017f 0E       		.uleb128 0xe
 3584 0180 3A       		.uleb128 0x3a
 3585 0181 0B       		.uleb128 0xb
 3586 0182 3B       		.uleb128 0x3b
 3587 0183 0B       		.uleb128 0xb
 3588 0184 49       		.uleb128 0x49
 3589 0185 13       		.uleb128 0x13
 3590 0186 00       		.byte	0
 3591 0187 00       		.byte	0
 3592 0188 21       		.uleb128 0x21
 3593 0189 2E       		.uleb128 0x2e
 3594 018a 01       		.byte	0x1
 3595 018b 31       		.uleb128 0x31
ARM GAS  /tmp/ccNQmvjm.s 			page 65


 3596 018c 13       		.uleb128 0x13
 3597 018d 11       		.uleb128 0x11
 3598 018e 01       		.uleb128 0x1
 3599 018f 12       		.uleb128 0x12
 3600 0190 06       		.uleb128 0x6
 3601 0191 40       		.uleb128 0x40
 3602 0192 18       		.uleb128 0x18
 3603 0193 9742     		.uleb128 0x2117
 3604 0195 19       		.uleb128 0x19
 3605 0196 01       		.uleb128 0x1
 3606 0197 13       		.uleb128 0x13
 3607 0198 00       		.byte	0
 3608 0199 00       		.byte	0
 3609 019a 22       		.uleb128 0x22
 3610 019b 05       		.uleb128 0x5
 3611 019c 00       		.byte	0
 3612 019d 31       		.uleb128 0x31
 3613 019e 13       		.uleb128 0x13
 3614 019f 02       		.uleb128 0x2
 3615 01a0 17       		.uleb128 0x17
 3616 01a1 00       		.byte	0
 3617 01a2 00       		.byte	0
 3618 01a3 23       		.uleb128 0x23
 3619 01a4 34       		.uleb128 0x34
 3620 01a5 00       		.byte	0
 3621 01a6 31       		.uleb128 0x31
 3622 01a7 13       		.uleb128 0x13
 3623 01a8 02       		.uleb128 0x2
 3624 01a9 17       		.uleb128 0x17
 3625 01aa 00       		.byte	0
 3626 01ab 00       		.byte	0
 3627 01ac 24       		.uleb128 0x24
 3628 01ad 0B       		.uleb128 0xb
 3629 01ae 01       		.byte	0x1
 3630 01af 55       		.uleb128 0x55
 3631 01b0 17       		.uleb128 0x17
 3632 01b1 00       		.byte	0
 3633 01b2 00       		.byte	0
 3634 01b3 25       		.uleb128 0x25
 3635 01b4 34       		.uleb128 0x34
 3636 01b5 00       		.byte	0
 3637 01b6 31       		.uleb128 0x31
 3638 01b7 13       		.uleb128 0x13
 3639 01b8 00       		.byte	0
 3640 01b9 00       		.byte	0
 3641 01ba 26       		.uleb128 0x26
 3642 01bb 2E       		.uleb128 0x2e
 3643 01bc 01       		.byte	0x1
 3644 01bd 3F       		.uleb128 0x3f
 3645 01be 19       		.uleb128 0x19
 3646 01bf 03       		.uleb128 0x3
 3647 01c0 0E       		.uleb128 0xe
 3648 01c1 3A       		.uleb128 0x3a
 3649 01c2 0B       		.uleb128 0xb
 3650 01c3 3B       		.uleb128 0x3b
 3651 01c4 0B       		.uleb128 0xb
 3652 01c5 27       		.uleb128 0x27
ARM GAS  /tmp/ccNQmvjm.s 			page 66


 3653 01c6 19       		.uleb128 0x19
 3654 01c7 11       		.uleb128 0x11
 3655 01c8 01       		.uleb128 0x1
 3656 01c9 12       		.uleb128 0x12
 3657 01ca 06       		.uleb128 0x6
 3658 01cb 40       		.uleb128 0x40
 3659 01cc 18       		.uleb128 0x18
 3660 01cd 9742     		.uleb128 0x2117
 3661 01cf 19       		.uleb128 0x19
 3662 01d0 01       		.uleb128 0x1
 3663 01d1 13       		.uleb128 0x13
 3664 01d2 00       		.byte	0
 3665 01d3 00       		.byte	0
 3666 01d4 27       		.uleb128 0x27
 3667 01d5 05       		.uleb128 0x5
 3668 01d6 00       		.byte	0
 3669 01d7 03       		.uleb128 0x3
 3670 01d8 0E       		.uleb128 0xe
 3671 01d9 3A       		.uleb128 0x3a
 3672 01da 0B       		.uleb128 0xb
 3673 01db 3B       		.uleb128 0x3b
 3674 01dc 0B       		.uleb128 0xb
 3675 01dd 49       		.uleb128 0x49
 3676 01de 13       		.uleb128 0x13
 3677 01df 02       		.uleb128 0x2
 3678 01e0 18       		.uleb128 0x18
 3679 01e1 00       		.byte	0
 3680 01e2 00       		.byte	0
 3681 01e3 28       		.uleb128 0x28
 3682 01e4 05       		.uleb128 0x5
 3683 01e5 00       		.byte	0
 3684 01e6 03       		.uleb128 0x3
 3685 01e7 0E       		.uleb128 0xe
 3686 01e8 3A       		.uleb128 0x3a
 3687 01e9 0B       		.uleb128 0xb
 3688 01ea 3B       		.uleb128 0x3b
 3689 01eb 0B       		.uleb128 0xb
 3690 01ec 49       		.uleb128 0x49
 3691 01ed 13       		.uleb128 0x13
 3692 01ee 02       		.uleb128 0x2
 3693 01ef 17       		.uleb128 0x17
 3694 01f0 00       		.byte	0
 3695 01f1 00       		.byte	0
 3696 01f2 29       		.uleb128 0x29
 3697 01f3 34       		.uleb128 0x34
 3698 01f4 00       		.byte	0
 3699 01f5 03       		.uleb128 0x3
 3700 01f6 0E       		.uleb128 0xe
 3701 01f7 3A       		.uleb128 0x3a
 3702 01f8 0B       		.uleb128 0xb
 3703 01f9 3B       		.uleb128 0x3b
 3704 01fa 0B       		.uleb128 0xb
 3705 01fb 49       		.uleb128 0x49
 3706 01fc 13       		.uleb128 0x13
 3707 01fd 02       		.uleb128 0x2
 3708 01fe 17       		.uleb128 0x17
 3709 01ff 00       		.byte	0
ARM GAS  /tmp/ccNQmvjm.s 			page 67


 3710 0200 00       		.byte	0
 3711 0201 2A       		.uleb128 0x2a
 3712 0202 898201   		.uleb128 0x4109
 3713 0205 01       		.byte	0x1
 3714 0206 11       		.uleb128 0x11
 3715 0207 01       		.uleb128 0x1
 3716 0208 31       		.uleb128 0x31
 3717 0209 13       		.uleb128 0x13
 3718 020a 01       		.uleb128 0x1
 3719 020b 13       		.uleb128 0x13
 3720 020c 00       		.byte	0
 3721 020d 00       		.byte	0
 3722 020e 2B       		.uleb128 0x2b
 3723 020f 8A8201   		.uleb128 0x410a
 3724 0212 00       		.byte	0
 3725 0213 02       		.uleb128 0x2
 3726 0214 18       		.uleb128 0x18
 3727 0215 9142     		.uleb128 0x2111
 3728 0217 18       		.uleb128 0x18
 3729 0218 00       		.byte	0
 3730 0219 00       		.byte	0
 3731 021a 2C       		.uleb128 0x2c
 3732 021b 898201   		.uleb128 0x4109
 3733 021e 00       		.byte	0
 3734 021f 11       		.uleb128 0x11
 3735 0220 01       		.uleb128 0x1
 3736 0221 9542     		.uleb128 0x2115
 3737 0223 19       		.uleb128 0x19
 3738 0224 31       		.uleb128 0x31
 3739 0225 13       		.uleb128 0x13
 3740 0226 00       		.byte	0
 3741 0227 00       		.byte	0
 3742 0228 2D       		.uleb128 0x2d
 3743 0229 898201   		.uleb128 0x4109
 3744 022c 01       		.byte	0x1
 3745 022d 11       		.uleb128 0x11
 3746 022e 01       		.uleb128 0x1
 3747 022f 31       		.uleb128 0x31
 3748 0230 13       		.uleb128 0x13
 3749 0231 00       		.byte	0
 3750 0232 00       		.byte	0
 3751 0233 2E       		.uleb128 0x2e
 3752 0234 2E       		.uleb128 0x2e
 3753 0235 01       		.byte	0x1
 3754 0236 3F       		.uleb128 0x3f
 3755 0237 19       		.uleb128 0x19
 3756 0238 03       		.uleb128 0x3
 3757 0239 0E       		.uleb128 0xe
 3758 023a 3A       		.uleb128 0x3a
 3759 023b 0B       		.uleb128 0xb
 3760 023c 3B       		.uleb128 0x3b
 3761 023d 0B       		.uleb128 0xb
 3762 023e 27       		.uleb128 0x27
 3763 023f 19       		.uleb128 0x19
 3764 0240 49       		.uleb128 0x49
 3765 0241 13       		.uleb128 0x13
 3766 0242 11       		.uleb128 0x11
ARM GAS  /tmp/ccNQmvjm.s 			page 68


 3767 0243 01       		.uleb128 0x1
 3768 0244 12       		.uleb128 0x12
 3769 0245 06       		.uleb128 0x6
 3770 0246 40       		.uleb128 0x40
 3771 0247 18       		.uleb128 0x18
 3772 0248 9742     		.uleb128 0x2117
 3773 024a 19       		.uleb128 0x19
 3774 024b 01       		.uleb128 0x1
 3775 024c 13       		.uleb128 0x13
 3776 024d 00       		.byte	0
 3777 024e 00       		.byte	0
 3778 024f 2F       		.uleb128 0x2f
 3779 0250 2E       		.uleb128 0x2e
 3780 0251 01       		.byte	0x1
 3781 0252 3F       		.uleb128 0x3f
 3782 0253 19       		.uleb128 0x19
 3783 0254 03       		.uleb128 0x3
 3784 0255 0E       		.uleb128 0xe
 3785 0256 3A       		.uleb128 0x3a
 3786 0257 0B       		.uleb128 0xb
 3787 0258 3B       		.uleb128 0x3b
 3788 0259 05       		.uleb128 0x5
 3789 025a 27       		.uleb128 0x27
 3790 025b 19       		.uleb128 0x19
 3791 025c 11       		.uleb128 0x11
 3792 025d 01       		.uleb128 0x1
 3793 025e 12       		.uleb128 0x12
 3794 025f 06       		.uleb128 0x6
 3795 0260 40       		.uleb128 0x40
 3796 0261 18       		.uleb128 0x18
 3797 0262 9742     		.uleb128 0x2117
 3798 0264 19       		.uleb128 0x19
 3799 0265 01       		.uleb128 0x1
 3800 0266 13       		.uleb128 0x13
 3801 0267 00       		.byte	0
 3802 0268 00       		.byte	0
 3803 0269 30       		.uleb128 0x30
 3804 026a 05       		.uleb128 0x5
 3805 026b 00       		.byte	0
 3806 026c 03       		.uleb128 0x3
 3807 026d 0E       		.uleb128 0xe
 3808 026e 3A       		.uleb128 0x3a
 3809 026f 0B       		.uleb128 0xb
 3810 0270 3B       		.uleb128 0x3b
 3811 0271 05       		.uleb128 0x5
 3812 0272 49       		.uleb128 0x49
 3813 0273 13       		.uleb128 0x13
 3814 0274 02       		.uleb128 0x2
 3815 0275 17       		.uleb128 0x17
 3816 0276 00       		.byte	0
 3817 0277 00       		.byte	0
 3818 0278 31       		.uleb128 0x31
 3819 0279 34       		.uleb128 0x34
 3820 027a 00       		.byte	0
 3821 027b 03       		.uleb128 0x3
 3822 027c 0E       		.uleb128 0xe
 3823 027d 49       		.uleb128 0x49
ARM GAS  /tmp/ccNQmvjm.s 			page 69


 3824 027e 13       		.uleb128 0x13
 3825 027f 34       		.uleb128 0x34
 3826 0280 19       		.uleb128 0x19
 3827 0281 02       		.uleb128 0x2
 3828 0282 18       		.uleb128 0x18
 3829 0283 00       		.byte	0
 3830 0284 00       		.byte	0
 3831 0285 32       		.uleb128 0x32
 3832 0286 05       		.uleb128 0x5
 3833 0287 00       		.byte	0
 3834 0288 03       		.uleb128 0x3
 3835 0289 0E       		.uleb128 0xe
 3836 028a 3A       		.uleb128 0x3a
 3837 028b 0B       		.uleb128 0xb
 3838 028c 3B       		.uleb128 0x3b
 3839 028d 05       		.uleb128 0x5
 3840 028e 49       		.uleb128 0x49
 3841 028f 13       		.uleb128 0x13
 3842 0290 02       		.uleb128 0x2
 3843 0291 18       		.uleb128 0x18
 3844 0292 00       		.byte	0
 3845 0293 00       		.byte	0
 3846 0294 33       		.uleb128 0x33
 3847 0295 2E       		.uleb128 0x2e
 3848 0296 01       		.byte	0x1
 3849 0297 3F       		.uleb128 0x3f
 3850 0298 19       		.uleb128 0x19
 3851 0299 03       		.uleb128 0x3
 3852 029a 0E       		.uleb128 0xe
 3853 029b 3A       		.uleb128 0x3a
 3854 029c 0B       		.uleb128 0xb
 3855 029d 3B       		.uleb128 0x3b
 3856 029e 05       		.uleb128 0x5
 3857 029f 27       		.uleb128 0x27
 3858 02a0 19       		.uleb128 0x19
 3859 02a1 49       		.uleb128 0x49
 3860 02a2 13       		.uleb128 0x13
 3861 02a3 11       		.uleb128 0x11
 3862 02a4 01       		.uleb128 0x1
 3863 02a5 12       		.uleb128 0x12
 3864 02a6 06       		.uleb128 0x6
 3865 02a7 40       		.uleb128 0x40
 3866 02a8 18       		.uleb128 0x18
 3867 02a9 9742     		.uleb128 0x2117
 3868 02ab 19       		.uleb128 0x19
 3869 02ac 01       		.uleb128 0x1
 3870 02ad 13       		.uleb128 0x13
 3871 02ae 00       		.byte	0
 3872 02af 00       		.byte	0
 3873 02b0 34       		.uleb128 0x34
 3874 02b1 34       		.uleb128 0x34
 3875 02b2 00       		.byte	0
 3876 02b3 03       		.uleb128 0x3
 3877 02b4 0E       		.uleb128 0xe
 3878 02b5 3A       		.uleb128 0x3a
 3879 02b6 0B       		.uleb128 0xb
 3880 02b7 3B       		.uleb128 0x3b
ARM GAS  /tmp/ccNQmvjm.s 			page 70


 3881 02b8 05       		.uleb128 0x5
 3882 02b9 49       		.uleb128 0x49
 3883 02ba 13       		.uleb128 0x13
 3884 02bb 02       		.uleb128 0x2
 3885 02bc 17       		.uleb128 0x17
 3886 02bd 00       		.byte	0
 3887 02be 00       		.byte	0
 3888 02bf 35       		.uleb128 0x35
 3889 02c0 34       		.uleb128 0x34
 3890 02c1 00       		.byte	0
 3891 02c2 03       		.uleb128 0x3
 3892 02c3 0E       		.uleb128 0xe
 3893 02c4 3A       		.uleb128 0x3a
 3894 02c5 0B       		.uleb128 0xb
 3895 02c6 3B       		.uleb128 0x3b
 3896 02c7 05       		.uleb128 0x5
 3897 02c8 49       		.uleb128 0x49
 3898 02c9 13       		.uleb128 0x13
 3899 02ca 3F       		.uleb128 0x3f
 3900 02cb 19       		.uleb128 0x19
 3901 02cc 3C       		.uleb128 0x3c
 3902 02cd 19       		.uleb128 0x19
 3903 02ce 00       		.byte	0
 3904 02cf 00       		.byte	0
 3905 02d0 36       		.uleb128 0x36
 3906 02d1 34       		.uleb128 0x34
 3907 02d2 00       		.byte	0
 3908 02d3 03       		.uleb128 0x3
 3909 02d4 08       		.uleb128 0x8
 3910 02d5 3A       		.uleb128 0x3a
 3911 02d6 0B       		.uleb128 0xb
 3912 02d7 3B       		.uleb128 0x3b
 3913 02d8 0B       		.uleb128 0xb
 3914 02d9 49       		.uleb128 0x49
 3915 02da 13       		.uleb128 0x13
 3916 02db 3F       		.uleb128 0x3f
 3917 02dc 19       		.uleb128 0x19
 3918 02dd 3C       		.uleb128 0x3c
 3919 02de 19       		.uleb128 0x19
 3920 02df 00       		.byte	0
 3921 02e0 00       		.byte	0
 3922 02e1 37       		.uleb128 0x37
 3923 02e2 2E       		.uleb128 0x2e
 3924 02e3 01       		.byte	0x1
 3925 02e4 3F       		.uleb128 0x3f
 3926 02e5 19       		.uleb128 0x19
 3927 02e6 03       		.uleb128 0x3
 3928 02e7 0E       		.uleb128 0xe
 3929 02e8 3A       		.uleb128 0x3a
 3930 02e9 0B       		.uleb128 0xb
 3931 02ea 3B       		.uleb128 0x3b
 3932 02eb 0B       		.uleb128 0xb
 3933 02ec 27       		.uleb128 0x27
 3934 02ed 19       		.uleb128 0x19
 3935 02ee 3C       		.uleb128 0x3c
 3936 02ef 19       		.uleb128 0x19
 3937 02f0 01       		.uleb128 0x1
ARM GAS  /tmp/ccNQmvjm.s 			page 71


 3938 02f1 13       		.uleb128 0x13
 3939 02f2 00       		.byte	0
 3940 02f3 00       		.byte	0
 3941 02f4 38       		.uleb128 0x38
 3942 02f5 18       		.uleb128 0x18
 3943 02f6 00       		.byte	0
 3944 02f7 00       		.byte	0
 3945 02f8 00       		.byte	0
 3946 02f9 39       		.uleb128 0x39
 3947 02fa 2E       		.uleb128 0x2e
 3948 02fb 01       		.byte	0x1
 3949 02fc 3F       		.uleb128 0x3f
 3950 02fd 19       		.uleb128 0x19
 3951 02fe 03       		.uleb128 0x3
 3952 02ff 0E       		.uleb128 0xe
 3953 0300 3A       		.uleb128 0x3a
 3954 0301 0B       		.uleb128 0xb
 3955 0302 3B       		.uleb128 0x3b
 3956 0303 0B       		.uleb128 0xb
 3957 0304 27       		.uleb128 0x27
 3958 0305 19       		.uleb128 0x19
 3959 0306 3C       		.uleb128 0x3c
 3960 0307 19       		.uleb128 0x19
 3961 0308 00       		.byte	0
 3962 0309 00       		.byte	0
 3963 030a 00       		.byte	0
 3964              		.section	.debug_loc,"",%progbits
 3965              	.Ldebug_loc0:
 3966              	.LLST0:
 3967 0000 00000000 		.4byte	.LVL0
 3968 0004 44000000 		.4byte	.LVL2
 3969 0008 0100     		.2byte	0x1
 3970 000a 50       		.byte	0x50
 3971 000b 44000000 		.4byte	.LVL2
 3972 000f 46000000 		.4byte	.LVL3
 3973 0013 0400     		.2byte	0x4
 3974 0015 F3       		.byte	0xf3
 3975 0016 01       		.uleb128 0x1
 3976 0017 50       		.byte	0x50
 3977 0018 9F       		.byte	0x9f
 3978 0019 46000000 		.4byte	.LVL3
 3979 001d 4A000000 		.4byte	.LVL4
 3980 0021 0100     		.2byte	0x1
 3981 0023 50       		.byte	0x50
 3982 0024 4A000000 		.4byte	.LVL4
 3983 0028 4C000000 		.4byte	.LVL5
 3984 002c 0400     		.2byte	0x4
 3985 002e F3       		.byte	0xf3
 3986 002f 01       		.uleb128 0x1
 3987 0030 50       		.byte	0x50
 3988 0031 9F       		.byte	0x9f
 3989 0032 4C000000 		.4byte	.LVL5
 3990 0036 4E000000 		.4byte	.LVL6
 3991 003a 0100     		.2byte	0x1
 3992 003c 50       		.byte	0x50
 3993 003d 4E000000 		.4byte	.LVL6
 3994 0041 50000000 		.4byte	.LVL7
ARM GAS  /tmp/ccNQmvjm.s 			page 72


 3995 0045 0400     		.2byte	0x4
 3996 0047 F3       		.byte	0xf3
 3997 0048 01       		.uleb128 0x1
 3998 0049 50       		.byte	0x50
 3999 004a 9F       		.byte	0x9f
 4000 004b 50000000 		.4byte	.LVL7
 4001 004f 52000000 		.4byte	.LVL8
 4002 0053 0100     		.2byte	0x1
 4003 0055 50       		.byte	0x50
 4004 0056 52000000 		.4byte	.LVL8
 4005 005a 54000000 		.4byte	.LVL9
 4006 005e 0400     		.2byte	0x4
 4007 0060 F3       		.byte	0xf3
 4008 0061 01       		.uleb128 0x1
 4009 0062 50       		.byte	0x50
 4010 0063 9F       		.byte	0x9f
 4011 0064 54000000 		.4byte	.LVL9
 4012 0068 56000000 		.4byte	.LVL10
 4013 006c 0100     		.2byte	0x1
 4014 006e 50       		.byte	0x50
 4015 006f 56000000 		.4byte	.LVL10
 4016 0073 58000000 		.4byte	.LVL11
 4017 0077 0400     		.2byte	0x4
 4018 0079 F3       		.byte	0xf3
 4019 007a 01       		.uleb128 0x1
 4020 007b 50       		.byte	0x50
 4021 007c 9F       		.byte	0x9f
 4022 007d 58000000 		.4byte	.LVL11
 4023 0081 5A000000 		.4byte	.LVL12
 4024 0085 0100     		.2byte	0x1
 4025 0087 50       		.byte	0x50
 4026 0088 5A000000 		.4byte	.LVL12
 4027 008c 5C000000 		.4byte	.LVL13
 4028 0090 0400     		.2byte	0x4
 4029 0092 F3       		.byte	0xf3
 4030 0093 01       		.uleb128 0x1
 4031 0094 50       		.byte	0x50
 4032 0095 9F       		.byte	0x9f
 4033 0096 5C000000 		.4byte	.LVL13
 4034 009a 5E000000 		.4byte	.LVL14
 4035 009e 0100     		.2byte	0x1
 4036 00a0 50       		.byte	0x50
 4037 00a1 5E000000 		.4byte	.LVL14
 4038 00a5 60000000 		.4byte	.LVL15
 4039 00a9 0400     		.2byte	0x4
 4040 00ab F3       		.byte	0xf3
 4041 00ac 01       		.uleb128 0x1
 4042 00ad 50       		.byte	0x50
 4043 00ae 9F       		.byte	0x9f
 4044 00af 60000000 		.4byte	.LVL15
 4045 00b3 62000000 		.4byte	.LVL16
 4046 00b7 0100     		.2byte	0x1
 4047 00b9 50       		.byte	0x50
 4048 00ba 62000000 		.4byte	.LVL16
 4049 00be 64000000 		.4byte	.LVL17
 4050 00c2 0400     		.2byte	0x4
 4051 00c4 F3       		.byte	0xf3
ARM GAS  /tmp/ccNQmvjm.s 			page 73


 4052 00c5 01       		.uleb128 0x1
 4053 00c6 50       		.byte	0x50
 4054 00c7 9F       		.byte	0x9f
 4055 00c8 64000000 		.4byte	.LVL17
 4056 00cc 66000000 		.4byte	.LVL18
 4057 00d0 0100     		.2byte	0x1
 4058 00d2 50       		.byte	0x50
 4059 00d3 66000000 		.4byte	.LVL18
 4060 00d7 68000000 		.4byte	.LVL19
 4061 00db 0400     		.2byte	0x4
 4062 00dd F3       		.byte	0xf3
 4063 00de 01       		.uleb128 0x1
 4064 00df 50       		.byte	0x50
 4065 00e0 9F       		.byte	0x9f
 4066 00e1 68000000 		.4byte	.LVL19
 4067 00e5 6C000000 		.4byte	.LVL20
 4068 00e9 0100     		.2byte	0x1
 4069 00eb 50       		.byte	0x50
 4070 00ec 6C000000 		.4byte	.LVL20
 4071 00f0 6E000000 		.4byte	.LVL21
 4072 00f4 0400     		.2byte	0x4
 4073 00f6 F3       		.byte	0xf3
 4074 00f7 01       		.uleb128 0x1
 4075 00f8 50       		.byte	0x50
 4076 00f9 9F       		.byte	0x9f
 4077 00fa 6E000000 		.4byte	.LVL21
 4078 00fe 72000000 		.4byte	.LVL22
 4079 0102 0100     		.2byte	0x1
 4080 0104 50       		.byte	0x50
 4081 0105 72000000 		.4byte	.LVL22
 4082 0109 74000000 		.4byte	.LVL23
 4083 010d 0400     		.2byte	0x4
 4084 010f F3       		.byte	0xf3
 4085 0110 01       		.uleb128 0x1
 4086 0111 50       		.byte	0x50
 4087 0112 9F       		.byte	0x9f
 4088 0113 74000000 		.4byte	.LVL23
 4089 0117 78000000 		.4byte	.LVL24
 4090 011b 0100     		.2byte	0x1
 4091 011d 50       		.byte	0x50
 4092 011e 78000000 		.4byte	.LVL24
 4093 0122 7A000000 		.4byte	.LVL25
 4094 0126 0400     		.2byte	0x4
 4095 0128 F3       		.byte	0xf3
 4096 0129 01       		.uleb128 0x1
 4097 012a 50       		.byte	0x50
 4098 012b 9F       		.byte	0x9f
 4099 012c 7A000000 		.4byte	.LVL25
 4100 0130 7E000000 		.4byte	.LVL26
 4101 0134 0100     		.2byte	0x1
 4102 0136 50       		.byte	0x50
 4103 0137 7E000000 		.4byte	.LVL26
 4104 013b 80000000 		.4byte	.LVL27
 4105 013f 0400     		.2byte	0x4
 4106 0141 F3       		.byte	0xf3
 4107 0142 01       		.uleb128 0x1
 4108 0143 50       		.byte	0x50
ARM GAS  /tmp/ccNQmvjm.s 			page 74


 4109 0144 9F       		.byte	0x9f
 4110 0145 80000000 		.4byte	.LVL27
 4111 0149 84000000 		.4byte	.LVL28
 4112 014d 0100     		.2byte	0x1
 4113 014f 50       		.byte	0x50
 4114 0150 84000000 		.4byte	.LVL28
 4115 0154 86000000 		.4byte	.LVL29
 4116 0158 0400     		.2byte	0x4
 4117 015a F3       		.byte	0xf3
 4118 015b 01       		.uleb128 0x1
 4119 015c 50       		.byte	0x50
 4120 015d 9F       		.byte	0x9f
 4121 015e 86000000 		.4byte	.LVL29
 4122 0162 8A000000 		.4byte	.LVL30
 4123 0166 0100     		.2byte	0x1
 4124 0168 50       		.byte	0x50
 4125 0169 8A000000 		.4byte	.LVL30
 4126 016d 8C000000 		.4byte	.LFE43
 4127 0171 0400     		.2byte	0x4
 4128 0173 F3       		.byte	0xf3
 4129 0174 01       		.uleb128 0x1
 4130 0175 50       		.byte	0x50
 4131 0176 9F       		.byte	0x9f
 4132 0177 00000000 		.4byte	0
 4133 017b 00000000 		.4byte	0
 4134              	.LLST1:
 4135 017f 00000000 		.4byte	.LVL0
 4136 0183 4A000000 		.4byte	.LVL4
 4137 0187 0200     		.2byte	0x2
 4138 0189 30       		.byte	0x30
 4139 018a 9F       		.byte	0x9f
 4140 018b 4A000000 		.4byte	.LVL4
 4141 018f 4C000000 		.4byte	.LVL5
 4142 0193 0100     		.2byte	0x1
 4143 0195 50       		.byte	0x50
 4144 0196 4C000000 		.4byte	.LVL5
 4145 019a 8C000000 		.4byte	.LFE43
 4146 019e 0200     		.2byte	0x2
 4147 01a0 30       		.byte	0x30
 4148 01a1 9F       		.byte	0x9f
 4149 01a2 00000000 		.4byte	0
 4150 01a6 00000000 		.4byte	0
 4151              	.LLST2:
 4152 01aa 36000000 		.4byte	.LVL1
 4153 01ae 44000000 		.4byte	.LVL2
 4154 01b2 0100     		.2byte	0x1
 4155 01b4 50       		.byte	0x50
 4156 01b5 44000000 		.4byte	.LVL2
 4157 01b9 46000000 		.4byte	.LVL3
 4158 01bd 0400     		.2byte	0x4
 4159 01bf F3       		.byte	0xf3
 4160 01c0 01       		.uleb128 0x1
 4161 01c1 50       		.byte	0x50
 4162 01c2 9F       		.byte	0x9f
 4163 01c3 86000000 		.4byte	.LVL29
 4164 01c7 8A000000 		.4byte	.LVL30
 4165 01cb 0100     		.2byte	0x1
ARM GAS  /tmp/ccNQmvjm.s 			page 75


 4166 01cd 50       		.byte	0x50
 4167 01ce 8A000000 		.4byte	.LVL30
 4168 01d2 8C000000 		.4byte	.LFE43
 4169 01d6 0400     		.2byte	0x4
 4170 01d8 F3       		.byte	0xf3
 4171 01d9 01       		.uleb128 0x1
 4172 01da 50       		.byte	0x50
 4173 01db 9F       		.byte	0x9f
 4174 01dc 00000000 		.4byte	0
 4175 01e0 00000000 		.4byte	0
 4176              	.LLST3:
 4177 01e4 00000000 		.4byte	.LVL32
 4178 01e8 02000000 		.4byte	.LVL33
 4179 01ec 0100     		.2byte	0x1
 4180 01ee 51       		.byte	0x51
 4181 01ef 02000000 		.4byte	.LVL33
 4182 01f3 0A000000 		.4byte	.LFE37
 4183 01f7 0400     		.2byte	0x4
 4184 01f9 F3       		.byte	0xf3
 4185 01fa 01       		.uleb128 0x1
 4186 01fb 51       		.byte	0x51
 4187 01fc 9F       		.byte	0x9f
 4188 01fd 00000000 		.4byte	0
 4189 0201 00000000 		.4byte	0
 4190              	.LLST4:
 4191 0205 00000000 		.4byte	.LVL34
 4192 0209 04000000 		.4byte	.LVL35
 4193 020d 0100     		.2byte	0x1
 4194 020f 51       		.byte	0x51
 4195 0210 04000000 		.4byte	.LVL35
 4196 0214 14000000 		.4byte	.LFE38
 4197 0218 0400     		.2byte	0x4
 4198 021a F3       		.byte	0xf3
 4199 021b 01       		.uleb128 0x1
 4200 021c 51       		.byte	0x51
 4201 021d 9F       		.byte	0x9f
 4202 021e 00000000 		.4byte	0
 4203 0222 00000000 		.4byte	0
 4204              	.LLST5:
 4205 0226 00000000 		.4byte	.LVL34
 4206 022a 0A000000 		.4byte	.LVL36
 4207 022e 0100     		.2byte	0x1
 4208 0230 52       		.byte	0x52
 4209 0231 0A000000 		.4byte	.LVL36
 4210 0235 14000000 		.4byte	.LFE38
 4211 0239 0400     		.2byte	0x4
 4212 023b F3       		.byte	0xf3
 4213 023c 01       		.uleb128 0x1
 4214 023d 52       		.byte	0x52
 4215 023e 9F       		.byte	0x9f
 4216 023f 00000000 		.4byte	0
 4217 0243 00000000 		.4byte	0
 4218              	.LLST6:
 4219 0247 00000000 		.4byte	.LVL37
 4220 024b 0E000000 		.4byte	.LVL39
 4221 024f 0100     		.2byte	0x1
 4222 0251 51       		.byte	0x51
ARM GAS  /tmp/ccNQmvjm.s 			page 76


 4223 0252 0E000000 		.4byte	.LVL39
 4224 0256 20000000 		.4byte	.LFE39
 4225 025a 0400     		.2byte	0x4
 4226 025c F3       		.byte	0xf3
 4227 025d 01       		.uleb128 0x1
 4228 025e 51       		.byte	0x51
 4229 025f 9F       		.byte	0x9f
 4230 0260 00000000 		.4byte	0
 4231 0264 00000000 		.4byte	0
 4232              	.LLST7:
 4233 0268 00000000 		.4byte	.LVL37
 4234 026c 10000000 		.4byte	.LVL40
 4235 0270 0100     		.2byte	0x1
 4236 0272 52       		.byte	0x52
 4237 0273 10000000 		.4byte	.LVL40
 4238 0277 20000000 		.4byte	.LFE39
 4239 027b 0400     		.2byte	0x4
 4240 027d F3       		.byte	0xf3
 4241 027e 01       		.uleb128 0x1
 4242 027f 52       		.byte	0x52
 4243 0280 9F       		.byte	0x9f
 4244 0281 00000000 		.4byte	0
 4245 0285 00000000 		.4byte	0
 4246              	.LLST8:
 4247 0289 00000000 		.4byte	.LVL37
 4248 028d 04000000 		.4byte	.LVL38
 4249 0291 0100     		.2byte	0x1
 4250 0293 53       		.byte	0x53
 4251 0294 04000000 		.4byte	.LVL38
 4252 0298 20000000 		.4byte	.LFE39
 4253 029c 0400     		.2byte	0x4
 4254 029e F3       		.byte	0xf3
 4255 029f 01       		.uleb128 0x1
 4256 02a0 53       		.byte	0x53
 4257 02a1 9F       		.byte	0x9f
 4258 02a2 00000000 		.4byte	0
 4259 02a6 00000000 		.4byte	0
 4260              	.LLST9:
 4261 02aa 00000000 		.4byte	.LVL41
 4262 02ae 04000000 		.4byte	.LVL42
 4263 02b2 0100     		.2byte	0x1
 4264 02b4 51       		.byte	0x51
 4265 02b5 04000000 		.4byte	.LVL42
 4266 02b9 0E000000 		.4byte	.LFE40
 4267 02bd 0400     		.2byte	0x4
 4268 02bf F3       		.byte	0xf3
 4269 02c0 01       		.uleb128 0x1
 4270 02c1 51       		.byte	0x51
 4271 02c2 9F       		.byte	0x9f
 4272 02c3 00000000 		.4byte	0
 4273 02c7 00000000 		.4byte	0
 4274              	.LLST10:
 4275 02cb 00000000 		.4byte	.LVL43
 4276 02cf 0A000000 		.4byte	.LVL45
 4277 02d3 0100     		.2byte	0x1
 4278 02d5 51       		.byte	0x51
 4279 02d6 0A000000 		.4byte	.LVL45
ARM GAS  /tmp/ccNQmvjm.s 			page 77


 4280 02da 16000000 		.4byte	.LFE41
 4281 02de 0400     		.2byte	0x4
 4282 02e0 F3       		.byte	0xf3
 4283 02e1 01       		.uleb128 0x1
 4284 02e2 51       		.byte	0x51
 4285 02e3 9F       		.byte	0x9f
 4286 02e4 00000000 		.4byte	0
 4287 02e8 00000000 		.4byte	0
 4288              	.LLST11:
 4289 02ec 00000000 		.4byte	.LVL43
 4290 02f0 04000000 		.4byte	.LVL44
 4291 02f4 0100     		.2byte	0x1
 4292 02f6 52       		.byte	0x52
 4293 02f7 04000000 		.4byte	.LVL44
 4294 02fb 16000000 		.4byte	.LFE41
 4295 02ff 0400     		.2byte	0x4
 4296 0301 F3       		.byte	0xf3
 4297 0302 01       		.uleb128 0x1
 4298 0303 52       		.byte	0x52
 4299 0304 9F       		.byte	0x9f
 4300 0305 00000000 		.4byte	0
 4301 0309 00000000 		.4byte	0
 4302              	.LLST12:
 4303 030d 00000000 		.4byte	.LVL46
 4304 0311 06000000 		.4byte	.LVL47
 4305 0315 0100     		.2byte	0x1
 4306 0317 51       		.byte	0x51
 4307 0318 06000000 		.4byte	.LVL47
 4308 031c 0A000000 		.4byte	.LFE42
 4309 0320 0400     		.2byte	0x4
 4310 0322 F3       		.byte	0xf3
 4311 0323 01       		.uleb128 0x1
 4312 0324 51       		.byte	0x51
 4313 0325 9F       		.byte	0x9f
 4314 0326 00000000 		.4byte	0
 4315 032a 00000000 		.4byte	0
 4316              	.LLST13:
 4317 032e 00000000 		.4byte	.LVL48
 4318 0332 16000000 		.4byte	.LVL52
 4319 0336 0100     		.2byte	0x1
 4320 0338 50       		.byte	0x50
 4321 0339 16000000 		.4byte	.LVL52
 4322 033d F2000000 		.4byte	.LVL65
 4323 0341 0100     		.2byte	0x1
 4324 0343 55       		.byte	0x55
 4325 0344 F2000000 		.4byte	.LVL65
 4326 0348 F6000000 		.4byte	.LVL66
 4327 034c 0400     		.2byte	0x4
 4328 034e F3       		.byte	0xf3
 4329 034f 01       		.uleb128 0x1
 4330 0350 50       		.byte	0x50
 4331 0351 9F       		.byte	0x9f
 4332 0352 F6000000 		.4byte	.LVL66
 4333 0356 2A010000 		.4byte	.LFE44
 4334 035a 0100     		.2byte	0x1
 4335 035c 55       		.byte	0x55
 4336 035d 00000000 		.4byte	0
ARM GAS  /tmp/ccNQmvjm.s 			page 78


 4337 0361 00000000 		.4byte	0
 4338              	.LLST14:
 4339 0365 00000000 		.4byte	.LVL48
 4340 0369 1A000000 		.4byte	.LVL53
 4341 036d 0100     		.2byte	0x1
 4342 036f 51       		.byte	0x51
 4343 0370 1A000000 		.4byte	.LVL53
 4344 0374 2A010000 		.4byte	.LFE44
 4345 0378 0400     		.2byte	0x4
 4346 037a F3       		.byte	0xf3
 4347 037b 01       		.uleb128 0x1
 4348 037c 51       		.byte	0x51
 4349 037d 9F       		.byte	0x9f
 4350 037e 00000000 		.4byte	0
 4351 0382 00000000 		.4byte	0
 4352              	.LLST15:
 4353 0386 12000000 		.4byte	.LVL51
 4354 038a 4A000000 		.4byte	.LVL56
 4355 038e 0100     		.2byte	0x1
 4356 0390 54       		.byte	0x54
 4357 0391 74000000 		.4byte	.LVL58
 4358 0395 84000000 		.4byte	.LVL59
 4359 0399 0100     		.2byte	0x1
 4360 039b 54       		.byte	0x54
 4361 039c 94000000 		.4byte	.LVL60
 4362 03a0 D4000000 		.4byte	.LVL64
 4363 03a4 0100     		.2byte	0x1
 4364 03a6 54       		.byte	0x54
 4365 03a7 F6000000 		.4byte	.LVL66
 4366 03ab 2A010000 		.4byte	.LFE44
 4367 03af 0100     		.2byte	0x1
 4368 03b1 54       		.byte	0x54
 4369 03b2 00000000 		.4byte	0
 4370 03b6 00000000 		.4byte	0
 4371              	.LLST16:
 4372 03ba 04000000 		.4byte	.LVL49
 4373 03be 0A000000 		.4byte	.LVL50
 4374 03c2 0900     		.2byte	0x9
 4375 03c4 74       		.byte	0x74
 4376 03c5 00       		.sleb128 0
 4377 03c6 0A       		.byte	0xa
 4378 03c7 00FF     		.2byte	0xff00
 4379 03c9 1A       		.byte	0x1a
 4380 03ca 38       		.byte	0x38
 4381 03cb 25       		.byte	0x25
 4382 03cc 9F       		.byte	0x9f
 4383 03cd 00000000 		.4byte	0
 4384 03d1 00000000 		.4byte	0
 4385              	.LLST17:
 4386 03d5 42000000 		.4byte	.LVL55
 4387 03d9 94000000 		.4byte	.LVL60
 4388 03dd 0100     		.2byte	0x1
 4389 03df 56       		.byte	0x56
 4390 03e0 AA000000 		.4byte	.LVL62
 4391 03e4 F2000000 		.4byte	.LVL65
 4392 03e8 0100     		.2byte	0x1
 4393 03ea 56       		.byte	0x56
ARM GAS  /tmp/ccNQmvjm.s 			page 79


 4394 03eb 0E010000 		.4byte	.LVL68
 4395 03ef 2A010000 		.4byte	.LFE44
 4396 03f3 0100     		.2byte	0x1
 4397 03f5 56       		.byte	0x56
 4398 03f6 00000000 		.4byte	0
 4399 03fa 00000000 		.4byte	0
 4400              	.LLST18:
 4401 03fe 00000000 		.4byte	.LVL70
 4402 0402 0A000000 		.4byte	.LVL72
 4403 0406 0100     		.2byte	0x1
 4404 0408 50       		.byte	0x50
 4405 0409 0A000000 		.4byte	.LVL72
 4406 040d 0E000000 		.4byte	.LFE45
 4407 0411 0400     		.2byte	0x4
 4408 0413 F3       		.byte	0xf3
 4409 0414 01       		.uleb128 0x1
 4410 0415 50       		.byte	0x50
 4411 0416 9F       		.byte	0x9f
 4412 0417 00000000 		.4byte	0
 4413 041b 00000000 		.4byte	0
 4414              	.LLST19:
 4415 041f 00000000 		.4byte	.LVL70
 4416 0423 06000000 		.4byte	.LVL71
 4417 0427 0100     		.2byte	0x1
 4418 0429 51       		.byte	0x51
 4419 042a 06000000 		.4byte	.LVL71
 4420 042e 0E000000 		.4byte	.LFE45
 4421 0432 0400     		.2byte	0x4
 4422 0434 F3       		.byte	0xf3
 4423 0435 01       		.uleb128 0x1
 4424 0436 51       		.byte	0x51
 4425 0437 9F       		.byte	0x9f
 4426 0438 00000000 		.4byte	0
 4427 043c 00000000 		.4byte	0
 4428              	.LLST20:
 4429 0440 00000000 		.4byte	.LVL70
 4430 0444 0A000000 		.4byte	.LVL72
 4431 0448 0200     		.2byte	0x2
 4432 044a 30       		.byte	0x30
 4433 044b 9F       		.byte	0x9f
 4434 044c 0A000000 		.4byte	.LVL72
 4435 0450 0E000000 		.4byte	.LFE45
 4436 0454 0100     		.2byte	0x1
 4437 0456 50       		.byte	0x50
 4438 0457 00000000 		.4byte	0
 4439 045b 00000000 		.4byte	0
 4440              	.LLST21:
 4441 045f 00000000 		.4byte	.LVL74
 4442 0463 30000000 		.4byte	.LVL77
 4443 0467 0100     		.2byte	0x1
 4444 0469 50       		.byte	0x50
 4445 046a 30000000 		.4byte	.LVL77
 4446 046e 4C000000 		.4byte	.LFE46
 4447 0472 0400     		.2byte	0x4
 4448 0474 F3       		.byte	0xf3
 4449 0475 01       		.uleb128 0x1
 4450 0476 50       		.byte	0x50
ARM GAS  /tmp/ccNQmvjm.s 			page 80


 4451 0477 9F       		.byte	0x9f
 4452 0478 00000000 		.4byte	0
 4453 047c 00000000 		.4byte	0
 4454              	.LLST22:
 4455 0480 00000000 		.4byte	.LVL74
 4456 0484 28000000 		.4byte	.LVL75
 4457 0488 0100     		.2byte	0x1
 4458 048a 51       		.byte	0x51
 4459 048b 28000000 		.4byte	.LVL75
 4460 048f 2C000000 		.4byte	.LVL76
 4461 0493 0400     		.2byte	0x4
 4462 0495 F3       		.byte	0xf3
 4463 0496 01       		.uleb128 0x1
 4464 0497 51       		.byte	0x51
 4465 0498 9F       		.byte	0x9f
 4466 0499 2C000000 		.4byte	.LVL76
 4467 049d 48000000 		.4byte	.LVL78
 4468 04a1 0100     		.2byte	0x1
 4469 04a3 51       		.byte	0x51
 4470 04a4 48000000 		.4byte	.LVL78
 4471 04a8 4C000000 		.4byte	.LFE46
 4472 04ac 0400     		.2byte	0x4
 4473 04ae F3       		.byte	0xf3
 4474 04af 01       		.uleb128 0x1
 4475 04b0 51       		.byte	0x51
 4476 04b1 9F       		.byte	0x9f
 4477 04b2 00000000 		.4byte	0
 4478 04b6 00000000 		.4byte	0
 4479              	.LLST23:
 4480 04ba 00000000 		.4byte	.LVL80
 4481 04be 06000000 		.4byte	.LVL81
 4482 04c2 0100     		.2byte	0x1
 4483 04c4 51       		.byte	0x51
 4484 04c5 06000000 		.4byte	.LVL81
 4485 04c9 14000000 		.4byte	.LFE47
 4486 04cd 0400     		.2byte	0x4
 4487 04cf F3       		.byte	0xf3
 4488 04d0 01       		.uleb128 0x1
 4489 04d1 51       		.byte	0x51
 4490 04d2 9F       		.byte	0x9f
 4491 04d3 00000000 		.4byte	0
 4492 04d7 00000000 		.4byte	0
 4493              	.LLST24:
 4494 04db 00000000 		.4byte	.LVL83
 4495 04df 02000000 		.4byte	.LVL84
 4496 04e3 0100     		.2byte	0x1
 4497 04e5 50       		.byte	0x50
 4498 04e6 02000000 		.4byte	.LVL84
 4499 04ea 06000000 		.4byte	.LFE49
 4500 04ee 0400     		.2byte	0x4
 4501 04f0 F3       		.byte	0xf3
 4502 04f1 01       		.uleb128 0x1
 4503 04f2 50       		.byte	0x50
 4504 04f3 9F       		.byte	0x9f
 4505 04f4 00000000 		.4byte	0
 4506 04f8 00000000 		.4byte	0
 4507              	.LLST25:
ARM GAS  /tmp/ccNQmvjm.s 			page 81


 4508 04fc 00000000 		.4byte	.LVL85
 4509 0500 02000000 		.4byte	.LVL86
 4510 0504 0100     		.2byte	0x1
 4511 0506 50       		.byte	0x50
 4512 0507 02000000 		.4byte	.LVL86
 4513 050b 06000000 		.4byte	.LFE50
 4514 050f 0400     		.2byte	0x4
 4515 0511 F3       		.byte	0xf3
 4516 0512 01       		.uleb128 0x1
 4517 0513 50       		.byte	0x50
 4518 0514 9F       		.byte	0x9f
 4519 0515 00000000 		.4byte	0
 4520 0519 00000000 		.4byte	0
 4521              	.LLST26:
 4522 051d 00000000 		.4byte	.LVL87
 4523 0521 08000000 		.4byte	.LVL89
 4524 0525 0100     		.2byte	0x1
 4525 0527 50       		.byte	0x50
 4526 0528 08000000 		.4byte	.LVL89
 4527 052c 16000000 		.4byte	.LFE51
 4528 0530 0400     		.2byte	0x4
 4529 0532 F3       		.byte	0xf3
 4530 0533 01       		.uleb128 0x1
 4531 0534 50       		.byte	0x50
 4532 0535 9F       		.byte	0x9f
 4533 0536 00000000 		.4byte	0
 4534 053a 00000000 		.4byte	0
 4535              	.LLST27:
 4536 053e 00000000 		.4byte	.LVL87
 4537 0542 06000000 		.4byte	.LVL88
 4538 0546 0100     		.2byte	0x1
 4539 0548 51       		.byte	0x51
 4540 0549 06000000 		.4byte	.LVL88
 4541 054d 16000000 		.4byte	.LFE51
 4542 0551 0400     		.2byte	0x4
 4543 0553 F3       		.byte	0xf3
 4544 0554 01       		.uleb128 0x1
 4545 0555 51       		.byte	0x51
 4546 0556 9F       		.byte	0x9f
 4547 0557 00000000 		.4byte	0
 4548 055b 00000000 		.4byte	0
 4549              	.LLST28:
 4550 055f 06000000 		.4byte	.LVL88
 4551 0563 08000000 		.4byte	.LVL89
 4552 0567 0C00     		.2byte	0xc
 4553 0569 71       		.byte	0x71
 4554 056a 00       		.sleb128 0
 4555 056b 71       		.byte	0x71
 4556 056c 00       		.sleb128 0
 4557 056d 70       		.byte	0x70
 4558 056e 00       		.sleb128 0
 4559 056f 1A       		.byte	0x1a
 4560 0570 29       		.byte	0x29
 4561 0571 08       		.byte	0x8
 4562 0572 FF       		.byte	0xff
 4563 0573 1A       		.byte	0x1a
 4564 0574 9F       		.byte	0x9f
ARM GAS  /tmp/ccNQmvjm.s 			page 82


 4565 0575 08000000 		.4byte	.LVL89
 4566 0579 16000000 		.4byte	.LFE51
 4567 057d 0D00     		.2byte	0xd
 4568 057f 71       		.byte	0x71
 4569 0580 00       		.sleb128 0
 4570 0581 71       		.byte	0x71
 4571 0582 00       		.sleb128 0
 4572 0583 F3       		.byte	0xf3
 4573 0584 01       		.uleb128 0x1
 4574 0585 50       		.byte	0x50
 4575 0586 1A       		.byte	0x1a
 4576 0587 29       		.byte	0x29
 4577 0588 08       		.byte	0x8
 4578 0589 FF       		.byte	0xff
 4579 058a 1A       		.byte	0x1a
 4580 058b 9F       		.byte	0x9f
 4581 058c 00000000 		.4byte	0
 4582 0590 00000000 		.4byte	0
 4583              	.LLST29:
 4584 0594 00000000 		.4byte	.LVL90
 4585 0598 06000000 		.4byte	.LVL91
 4586 059c 0100     		.2byte	0x1
 4587 059e 50       		.byte	0x50
 4588 059f 06000000 		.4byte	.LVL91
 4589 05a3 44000000 		.4byte	.LFE52
 4590 05a7 0100     		.2byte	0x1
 4591 05a9 53       		.byte	0x53
 4592 05aa 00000000 		.4byte	0
 4593 05ae 00000000 		.4byte	0
 4594              		.section	.debug_aranges,"",%progbits
 4595 0000 9C000000 		.4byte	0x9c
 4596 0004 0200     		.2byte	0x2
 4597 0006 00000000 		.4byte	.Ldebug_info0
 4598 000a 04       		.byte	0x4
 4599 000b 00       		.byte	0
 4600 000c 0000     		.2byte	0
 4601 000e 0000     		.2byte	0
 4602 0010 00000000 		.4byte	.LFB43
 4603 0014 8C000000 		.4byte	.LFE43-.LFB43
 4604 0018 00000000 		.4byte	.LFB36
 4605 001c 34000000 		.4byte	.LFE36-.LFB36
 4606 0020 00000000 		.4byte	.LFB37
 4607 0024 0A000000 		.4byte	.LFE37-.LFB37
 4608 0028 00000000 		.4byte	.LFB38
 4609 002c 14000000 		.4byte	.LFE38-.LFB38
 4610 0030 00000000 		.4byte	.LFB39
 4611 0034 20000000 		.4byte	.LFE39-.LFB39
 4612 0038 00000000 		.4byte	.LFB40
 4613 003c 0E000000 		.4byte	.LFE40-.LFB40
 4614 0040 00000000 		.4byte	.LFB41
 4615 0044 16000000 		.4byte	.LFE41-.LFB41
 4616 0048 00000000 		.4byte	.LFB42
 4617 004c 0A000000 		.4byte	.LFE42-.LFB42
 4618 0050 00000000 		.4byte	.LFB44
 4619 0054 2A010000 		.4byte	.LFE44-.LFB44
 4620 0058 00000000 		.4byte	.LFB45
 4621 005c 0E000000 		.4byte	.LFE45-.LFB45
ARM GAS  /tmp/ccNQmvjm.s 			page 83


 4622 0060 00000000 		.4byte	.LFB46
 4623 0064 4C000000 		.4byte	.LFE46-.LFB46
 4624 0068 00000000 		.4byte	.LFB47
 4625 006c 14000000 		.4byte	.LFE47-.LFB47
 4626 0070 00000000 		.4byte	.LFB48
 4627 0074 04000000 		.4byte	.LFE48-.LFB48
 4628 0078 00000000 		.4byte	.LFB49
 4629 007c 06000000 		.4byte	.LFE49-.LFB49
 4630 0080 00000000 		.4byte	.LFB50
 4631 0084 06000000 		.4byte	.LFE50-.LFB50
 4632 0088 00000000 		.4byte	.LFB51
 4633 008c 16000000 		.4byte	.LFE51-.LFB51
 4634 0090 00000000 		.4byte	.LFB52
 4635 0094 44000000 		.4byte	.LFE52-.LFB52
 4636 0098 00000000 		.4byte	0
 4637 009c 00000000 		.4byte	0
 4638              		.section	.debug_ranges,"",%progbits
 4639              	.Ldebug_ranges0:
 4640 0000 36000000 		.4byte	.LBB4
 4641 0004 46000000 		.4byte	.LBE4
 4642 0008 86000000 		.4byte	.LBB7
 4643 000c 8C000000 		.4byte	.LBE7
 4644 0010 00000000 		.4byte	0
 4645 0014 00000000 		.4byte	0
 4646 0018 00000000 		.4byte	.LFB43
 4647 001c 8C000000 		.4byte	.LFE43
 4648 0020 00000000 		.4byte	.LFB36
 4649 0024 34000000 		.4byte	.LFE36
 4650 0028 00000000 		.4byte	.LFB37
 4651 002c 0A000000 		.4byte	.LFE37
 4652 0030 00000000 		.4byte	.LFB38
 4653 0034 14000000 		.4byte	.LFE38
 4654 0038 00000000 		.4byte	.LFB39
 4655 003c 20000000 		.4byte	.LFE39
 4656 0040 00000000 		.4byte	.LFB40
 4657 0044 0E000000 		.4byte	.LFE40
 4658 0048 00000000 		.4byte	.LFB41
 4659 004c 16000000 		.4byte	.LFE41
 4660 0050 00000000 		.4byte	.LFB42
 4661 0054 0A000000 		.4byte	.LFE42
 4662 0058 00000000 		.4byte	.LFB44
 4663 005c 2A010000 		.4byte	.LFE44
 4664 0060 00000000 		.4byte	.LFB45
 4665 0064 0E000000 		.4byte	.LFE45
 4666 0068 00000000 		.4byte	.LFB46
 4667 006c 4C000000 		.4byte	.LFE46
 4668 0070 00000000 		.4byte	.LFB47
 4669 0074 14000000 		.4byte	.LFE47
 4670 0078 00000000 		.4byte	.LFB48
 4671 007c 04000000 		.4byte	.LFE48
 4672 0080 00000000 		.4byte	.LFB49
 4673 0084 06000000 		.4byte	.LFE49
 4674 0088 00000000 		.4byte	.LFB50
 4675 008c 06000000 		.4byte	.LFE50
 4676 0090 00000000 		.4byte	.LFB51
 4677 0094 16000000 		.4byte	.LFE51
 4678 0098 00000000 		.4byte	.LFB52
ARM GAS  /tmp/ccNQmvjm.s 			page 84


 4679 009c 44000000 		.4byte	.LFE52
 4680 00a0 00000000 		.4byte	0
 4681 00a4 00000000 		.4byte	0
 4682              		.section	.debug_line,"",%progbits
 4683              	.Ldebug_line0:
 4684 0000 3F040000 		.section	.debug_str,"MS",%progbits,1
 4684      02006702 
 4684      00000201 
 4684      FB0E0D00 
 4684      01010101 
 4685              	.LASF155:
 4686 0000 55415254 		.ascii	"UART_IMR\000"
 4686      5F494D52 
 4686      00
 4687              	.LASF137:
 4688 0009 504D435F 		.ascii	"PMC_SR\000"
 4688      535200
 4689              	.LASF2:
 4690 0010 73697A65 		.ascii	"size_t\000"
 4690      5F7400
 4691              	.LASF187:
 4692 0017 74726163 		.ascii	"tracking\000"
 4692      6B696E67 
 4692      00
 4693              	.LASF128:
 4694 0020 434B4752 		.ascii	"CKGR_MOR\000"
 4694      5F4D4F52 
 4694      00
 4695              	.LASF73:
 4696 0029 4F757470 		.ascii	"OutputQueue\000"
 4696      75745175 
 4696      65756500 
 4697              	.LASF212:
 4698 0035 4144435F 		.ascii	"ADC_SetComparisonWindow\000"
 4698      53657443 
 4698      6F6D7061 
 4698      7269736F 
 4698      6E57696E 
 4699              	.LASF194:
 4700 004d 66726565 		.ascii	"freeRun\000"
 4700      52756E00 
 4701              	.LASF226:
 4702 0055 474E5520 		.ascii	"GNU C 4.8.1 -mcpu=cortex-m3 -mno-thumb-interwork -m"
 4702      4320342E 
 4702      382E3120 
 4702      2D6D6370 
 4702      753D636F 
 4703 0088 7468756D 		.ascii	"thumb -ggdb -O2 -std=gnu99 -fomit-frame-pointer -fa"
 4703      62202D67 
 4703      67646220 
 4703      2D4F3220 
 4703      2D737464 
 4704 00bb 6C69676E 		.ascii	"lign-functions=16 -ffunction-sections -fdata-sectio"
 4704      2D66756E 
 4704      6374696F 
 4704      6E733D31 
 4704      36202D66 
ARM GAS  /tmp/ccNQmvjm.s 			page 85


 4705 00ee 6E73202D 		.ascii	"ns -fno-common\000"
 4705      666E6F2D 
 4705      636F6D6D 
 4705      6F6E00
 4706              	.LASF161:
 4707 00fd 55415254 		.ascii	"UART_RCR\000"
 4707      5F524352 
 4707      00
 4708              	.LASF227:
 4709 0106 2E2E2F74 		.ascii	"../third_party/ChibiOS/os/hal/platforms/AT91SAM3S/a"
 4709      68697264 
 4709      5F706172 
 4709      74792F43 
 4709      68696269 
 4710 0139 746D656C 		.ascii	"tmel_adc.c\000"
 4710      5F616463 
 4710      2E6300
 4711              	.LASF13:
 4712 0144 6C6F6E67 		.ascii	"long long unsigned int\000"
 4712      206C6F6E 
 4712      6720756E 
 4712      7369676E 
 4712      65642069 
 4713              	.LASF74:
 4714 015b 42617365 		.ascii	"BaseChannelVMT\000"
 4714      4368616E 
 4714      6E656C56 
 4714      4D5400
 4715              	.LASF59:
 4716 016a 65786974 		.ascii	"exitcode\000"
 4716      636F6465 
 4716      00
 4717              	.LASF225:
 4718 0173 49544D5F 		.ascii	"ITM_RxBuffer\000"
 4718      52784275 
 4718      66666572 
 4718      00
 4719              	.LASF26:
 4720 0180 705F7072 		.ascii	"p_prio\000"
 4720      696F00
 4721              	.LASF204:
 4722 0187 6164635F 		.ascii	"adc_freq\000"
 4722      66726571 
 4722      00
 4723              	.LASF80:
 4724 0190 72656164 		.ascii	"readt\000"
 4724      7400
 4725              	.LASF64:
 4726 0196 715F7761 		.ascii	"q_waiting\000"
 4726      6974696E 
 4726      6700
 4727              	.LASF12:
 4728 01a0 6C6F6E67 		.ascii	"long long int\000"
 4728      206C6F6E 
 4728      6720696E 
 4728      7400
 4729              	.LASF1:
ARM GAS  /tmp/ccNQmvjm.s 			page 86


 4730 01ae 7369676E 		.ascii	"signed char\000"
 4730      65642063 
 4730      68617200 
 4731              	.LASF168:
 4732 01ba 55415254 		.ascii	"UART_PTCR\000"
 4732      5F505443 
 4732      5200
 4733              	.LASF103:
 4734 01c4 4144435F 		.ascii	"ADC_CGR\000"
 4734      43475200 
 4735              	.LASF217:
 4736 01cc 4144435F 		.ascii	"ADC_IsStatusSet\000"
 4736      49735374 
 4736      61747573 
 4736      53657400 
 4737              	.LASF41:
 4738 01dc 705F6D70 		.ascii	"p_mpool\000"
 4738      6F6F6C00 
 4739              	.LASF15:
 4740 01e4 626F6F6C 		.ascii	"bool_t\000"
 4740      5F7400
 4741              	.LASF49:
 4742 01eb 6D5F7175 		.ascii	"m_queue\000"
 4742      65756500 
 4743              	.LASF99:
 4744 01f3 52657365 		.ascii	"Reserved2\000"
 4744      72766564 
 4744      3200
 4745              	.LASF106:
 4746 01fd 52657365 		.ascii	"Reserved3\000"
 4746      72766564 
 4746      3300
 4747              	.LASF108:
 4748 0207 52657365 		.ascii	"Reserved4\000"
 4748      72766564 
 4748      3400
 4749              	.LASF111:
 4750 0211 52657365 		.ascii	"Reserved5\000"
 4750      72766564 
 4750      3500
 4751              	.LASF142:
 4752 021b 52657365 		.ascii	"Reserved6\000"
 4752      72766564 
 4752      3600
 4753              	.LASF145:
 4754 0225 52657365 		.ascii	"Reserved7\000"
 4754      72766564 
 4754      3700
 4755              	.LASF149:
 4756 022f 52657365 		.ascii	"Reserved8\000"
 4756      72766564 
 4756      3800
 4757              	.LASF205:
 4758 0239 64774368 		.ascii	"dwChannel\000"
 4758      616E6E65 
 4758      6C00
 4759              	.LASF216:
ARM GAS  /tmp/ccNQmvjm.s 			page 87


 4760 0243 6477466C 		.ascii	"dwFlag\000"
 4760      616700
 4761              	.LASF178:
 4762 024a 73746174 		.ascii	"state\000"
 4762      6500
 4763              	.LASF167:
 4764 0250 55415254 		.ascii	"UART_TNCR\000"
 4764      5F544E43 
 4764      5200
 4765              	.LASF9:
 4766 025a 6C6F6E67 		.ascii	"long int\000"
 4766      20696E74 
 4766      00
 4767              	.LASF203:
 4768 0263 6D636B5F 		.ascii	"mck_freq\000"
 4768      66726571 
 4768      00
 4769              	.LASF104:
 4770 026c 4144435F 		.ascii	"ADC_COR\000"
 4770      434F5200 
 4771              	.LASF17:
 4772 0274 74737461 		.ascii	"tstate_t\000"
 4772      74655F74 
 4772      00
 4773              	.LASF189:
 4774 027d 73746172 		.ascii	"startup\000"
 4774      74757000 
 4775              	.LASF231:
 4776 0285 5F5F6173 		.ascii	"__assert_func\000"
 4776      73657274 
 4776      5F66756E 
 4776      6300
 4777              	.LASF125:
 4778 0293 504D435F 		.ascii	"PMC_PCER0\000"
 4778      50434552 
 4778      3000
 4779              	.LASF146:
 4780 029d 504D435F 		.ascii	"PMC_PCER1\000"
 4780      50434552 
 4780      3100
 4781              	.LASF66:
 4782 02a7 715F6275 		.ascii	"q_buffer\000"
 4782      66666572 
 4782      00
 4783              	.LASF68:
 4784 02b0 715F7772 		.ascii	"q_wrptr\000"
 4784      70747200 
 4785              	.LASF34:
 4786 02b8 705F7469 		.ascii	"p_time\000"
 4786      6D6500
 4787              	.LASF143:
 4788 02bf 504D435F 		.ascii	"PMC_WPMR\000"
 4788      57504D52 
 4788      00
 4789              	.LASF28:
 4790 02c8 705F6E65 		.ascii	"p_newer\000"
 4790      77657200 
ARM GAS  /tmp/ccNQmvjm.s 			page 88


 4791              	.LASF77:
 4792 02d0 70757477 		.ascii	"putwouldblock\000"
 4792      6F756C64 
 4792      626C6F63 
 4792      6B00
 4793              	.LASF94:
 4794 02de 4144435F 		.ascii	"ADC_LCDR\000"
 4794      4C434452 
 4794      00
 4795              	.LASF169:
 4796 02e7 55415254 		.ascii	"UART_PTSR\000"
 4796      5F505453 
 4796      5200
 4797              	.LASF190:
 4798 02f1 70726573 		.ascii	"prescal\000"
 4798      63616C00 
 4799              	.LASF223:
 4800 02f9 70774275 		.ascii	"pwBuffer\000"
 4800      66666572 
 4800      00
 4801              	.LASF121:
 4802 0302 4144435F 		.ascii	"ADC_PTSR\000"
 4802      50545352 
 4802      00
 4803              	.LASF44:
 4804 030b 72656761 		.ascii	"regarm_t\000"
 4804      726D5F74 
 4804      00
 4805              	.LASF134:
 4806 0314 504D435F 		.ascii	"PMC_PCK\000"
 4806      50434B00 
 4807              	.LASF118:
 4808 031c 4144435F 		.ascii	"ADC_TNPR\000"
 4808      544E5052 
 4808      00
 4809              	.LASF23:
 4810 0325 54687265 		.ascii	"Thread\000"
 4810      616400
 4811              	.LASF56:
 4812 032c 4576656E 		.ascii	"EventSource\000"
 4812      74536F75 
 4812      72636500 
 4813              	.LASF192:
 4814 0338 74726745 		.ascii	"trgEn\000"
 4814      6E00
 4815              	.LASF197:
 4816 033e 4144435F 		.ascii	"ADC_CfgPowerSave\000"
 4816      43666750 
 4816      6F776572 
 4816      53617665 
 4816      00
 4817              	.LASF195:
 4818 034f 4144435F 		.ascii	"ADC_CfgLowRes\000"
 4818      4366674C 
 4818      6F775265 
 4818      7300
 4819              	.LASF0:
ARM GAS  /tmp/ccNQmvjm.s 			page 89


 4820 035d 756E7369 		.ascii	"unsigned int\000"
 4820      676E6564 
 4820      20696E74 
 4820      00
 4821              	.LASF129:
 4822 036a 434B4752 		.ascii	"CKGR_MCFR\000"
 4822      5F4D4346 
 4822      5200
 4823              	.LASF182:
 4824 0374 53657269 		.ascii	"SerialDriverVMT\000"
 4824      616C4472 
 4824      69766572 
 4824      564D5400 
 4825              	.LASF199:
 4826 0384 66777570 		.ascii	"fwup\000"
 4826      00
 4827              	.LASF179:
 4828 0389 69717565 		.ascii	"iqueue\000"
 4828      756500
 4829              	.LASF36:
 4830 0390 705F6D73 		.ascii	"p_msgqueue\000"
 4830      67717565 
 4830      756500
 4831              	.LASF214:
 4832 039b 4144435F 		.ascii	"ADC_GetConvertedData\000"
 4832      47657443 
 4832      6F6E7665 
 4832      72746564 
 4832      44617461 
 4833              	.LASF210:
 4834 03b0 4144435F 		.ascii	"ADC_SetCompareMode\000"
 4834      53657443 
 4834      6F6D7061 
 4834      72654D6F 
 4834      646500
 4835              	.LASF158:
 4836 03c3 55415254 		.ascii	"UART_THR\000"
 4836      5F544852 
 4836      00
 4837              	.LASF188:
 4838 03cc 4144435F 		.ascii	"ADC_cfgFrequency\000"
 4838      63666746 
 4838      72657175 
 4838      656E6379 
 4838      00
 4839              	.LASF176:
 4840 03dd 6576656E 		.ascii	"event\000"
 4840      7400
 4841              	.LASF96:
 4842 03e3 4144435F 		.ascii	"ADC_IDR\000"
 4842      49445200 
 4843              	.LASF7:
 4844 03eb 73686F72 		.ascii	"short unsigned int\000"
 4844      7420756E 
 4844      7369676E 
 4844      65642069 
 4844      6E7400
ARM GAS  /tmp/ccNQmvjm.s 			page 90


 4845              	.LASF132:
 4846 03fe 504D435F 		.ascii	"PMC_MCKR\000"
 4846      4D434B52 
 4846      00
 4847              	.LASF198:
 4848 0407 736C6565 		.ascii	"sleep\000"
 4848      7000
 4849              	.LASF162:
 4850 040d 55415254 		.ascii	"UART_TPR\000"
 4850      5F545052 
 4850      00
 4851              	.LASF126:
 4852 0416 504D435F 		.ascii	"PMC_PCDR0\000"
 4852      50434452 
 4852      3000
 4853              	.LASF147:
 4854 0420 504D435F 		.ascii	"PMC_PCDR1\000"
 4854      50434452 
 4854      3100
 4855              	.LASF20:
 4856 042a 6D73675F 		.ascii	"msg_t\000"
 4856      7400
 4857              	.LASF180:
 4858 0430 6F717565 		.ascii	"oqueue\000"
 4858      756500
 4859              	.LASF88:
 4860 0437 4144435F 		.ascii	"ADC_SEQR1\000"
 4860      53455152 
 4860      3100
 4861              	.LASF53:
 4862 0441 656C5F6E 		.ascii	"el_next\000"
 4862      65787400 
 4863              	.LASF79:
 4864 0449 77726974 		.ascii	"writet\000"
 4864      657400
 4865              	.LASF60:
 4866 0450 77746F62 		.ascii	"wtobjp\000"
 4866      6A7000
 4867              	.LASF83:
 4868 0457 526F5265 		.ascii	"RoReg\000"
 4868      6700
 4869              	.LASF151:
 4870 045d 55415254 		.ascii	"UART_CR\000"
 4870      5F435200 
 4871              	.LASF43:
 4872 0465 54687265 		.ascii	"ThreadsList\000"
 4872      6164734C 
 4872      69737400 
 4873              	.LASF21:
 4874 0471 6576656E 		.ascii	"eventmask_t\000"
 4874      746D6173 
 4874      6B5F7400 
 4875              	.LASF119:
 4876 047d 4144435F 		.ascii	"ADC_TNCR\000"
 4876      544E4352 
 4876      00
 4877              	.LASF71:
ARM GAS  /tmp/ccNQmvjm.s 			page 91


 4878 0486 716E6F74 		.ascii	"qnotify_t\000"
 4878      6966795F 
 4878      7400
 4879              	.LASF63:
 4880 0490 47656E65 		.ascii	"GenericQueue\000"
 4880      72696351 
 4880      75657565 
 4880      00
 4881              	.LASF102:
 4882 049d 4144435F 		.ascii	"ADC_CWR\000"
 4882      43575200 
 4883              	.LASF222:
 4884 04a5 70414443 		.ascii	"pADC\000"
 4884      00
 4885              	.LASF133:
 4886 04aa 504D435F 		.ascii	"PMC_USB\000"
 4886      55534200 
 4887              	.LASF42:
 4888 04b2 54687265 		.ascii	"ThreadsQueue\000"
 4888      61647351 
 4888      75657565 
 4888      00
 4889              	.LASF75:
 4890 04bf 77726974 		.ascii	"write\000"
 4890      6500
 4891              	.LASF115:
 4892 04c5 4144435F 		.ascii	"ADC_TCR\000"
 4892      54435200 
 4893              	.LASF150:
 4894 04cd 504D435F 		.ascii	"PMC_OCR\000"
 4894      4F435200 
 4895              	.LASF35:
 4896 04d5 705F7761 		.ascii	"p_waiting\000"
 4896      6974696E 
 4896      6700
 4897              	.LASF25:
 4898 04df 705F7072 		.ascii	"p_prev\000"
 4898      657600
 4899              	.LASF47:
 4900 04e6 73697A65 		.ascii	"sizetype\000"
 4900      74797065 
 4900      00
 4901              	.LASF166:
 4902 04ef 55415254 		.ascii	"UART_TNPR\000"
 4902      5F544E50 
 4902      5200
 4903              	.LASF116:
 4904 04f9 4144435F 		.ascii	"ADC_RNPR\000"
 4904      524E5052 
 4904      00
 4905              	.LASF48:
 4906 0502 4D757465 		.ascii	"Mutex\000"
 4906      7800
 4907              	.LASF213:
 4908 0508 64774869 		.ascii	"dwHi_Lo\000"
 4908      5F4C6F00 
 4909              	.LASF141:
ARM GAS  /tmp/ccNQmvjm.s 			page 92


 4910 0510 504D435F 		.ascii	"PMC_FOCR\000"
 4910      464F4352 
 4910      00
 4911              	.LASF165:
 4912 0519 55415254 		.ascii	"UART_RNCR\000"
 4912      5F524E43 
 4912      5200
 4913              	.LASF139:
 4914 0523 504D435F 		.ascii	"PMC_FSMR\000"
 4914      46534D52 
 4914      00
 4915              	.LASF87:
 4916 052c 4144435F 		.ascii	"ADC_MR\000"
 4916      4D5200
 4917              	.LASF185:
 4918 0533 4144435F 		.ascii	"ADC_CfgTiming\000"
 4918      43666754 
 4918      696D696E 
 4918      6700
 4919              	.LASF156:
 4920 0541 55415254 		.ascii	"UART_SR\000"
 4920      5F535200 
 4921              	.LASF221:
 4922 0549 4144435F 		.ascii	"ADC_ReadBuffer\000"
 4922      52656164 
 4922      42756666 
 4922      657200
 4923              	.LASF82:
 4924 0558 696F666C 		.ascii	"ioflags_t\000"
 4924      6167735F 
 4924      7400
 4925              	.LASF228:
 4926 0562 2F686F6D 		.ascii	"/home/santi/Documentos/ProyectoDron_2018/MCU/creato"
 4926      652F7361 
 4926      6E74692F 
 4926      446F6375 
 4926      6D656E74 
 4927 0595 7200     		.ascii	"r\000"
 4928              	.LASF51:
 4929 0597 6D5F6E65 		.ascii	"m_next\000"
 4929      787400
 4930              	.LASF160:
 4931 059e 55415254 		.ascii	"UART_RPR\000"
 4931      5F525052 
 4931      00
 4932              	.LASF55:
 4933 05a7 656C5F6D 		.ascii	"el_mask\000"
 4933      61736B00 
 4934              	.LASF84:
 4935 05af 576F5265 		.ascii	"WoReg\000"
 4935      6700
 4936              	.LASF159:
 4937 05b5 55415254 		.ascii	"UART_BRGR\000"
 4937      5F425247 
 4937      5200
 4938              	.LASF101:
 4939 05bf 4144435F 		.ascii	"ADC_EMR\000"
ARM GAS  /tmp/ccNQmvjm.s 			page 93


 4939      454D5200 
 4940              	.LASF224:
 4941 05c7 64775369 		.ascii	"dwSize\000"
 4941      7A6500
 4942              	.LASF229:
 4943 05ce 63616C63 		.ascii	"calcul_startup\000"
 4943      756C5F73 
 4943      74617274 
 4943      757000
 4944              	.LASF86:
 4945 05dd 4144435F 		.ascii	"ADC_CR\000"
 4945      435200
 4946              	.LASF173:
 4947 05e4 53445F52 		.ascii	"SD_READY\000"
 4947      45414459 
 4947      00
 4948              	.LASF33:
 4949 05ed 705F7265 		.ascii	"p_refs\000"
 4949      667300
 4950              	.LASF18:
 4951 05f4 74726566 		.ascii	"trefs_t\000"
 4951      735F7400 
 4952              	.LASF14:
 4953 05fc 75696E74 		.ascii	"uint_fast16_t\000"
 4953      5F666173 
 4953      7431365F 
 4953      7400
 4954              	.LASF130:
 4955 060a 434B4752 		.ascii	"CKGR_PLLAR\000"
 4955      5F504C4C 
 4955      415200
 4956              	.LASF201:
 4957 0615 75736571 		.ascii	"useq\000"
 4957      00
 4958              	.LASF112:
 4959 061a 4144435F 		.ascii	"ADC_RPR\000"
 4959      52505200 
 4960              	.LASF19:
 4961 0622 74707269 		.ascii	"tprio_t\000"
 4961      6F5F7400 
 4962              	.LASF69:
 4963 062a 715F7264 		.ascii	"q_rdptr\000"
 4963      70747200 
 4964              	.LASF191:
 4965 0632 4144435F 		.ascii	"ADC_CfgTrigering\000"
 4965      43666754 
 4965      72696765 
 4965      72696E67 
 4965      00
 4966              	.LASF218:
 4967 0643 4144435F 		.ascii	"ADC_IsChannelInterruptStatusSet\000"
 4967      49734368 
 4967      616E6E65 
 4967      6C496E74 
 4967      65727275 
 4968              	.LASF92:
 4969 0663 4144435F 		.ascii	"ADC_CHSR\000"
ARM GAS  /tmp/ccNQmvjm.s 			page 94


 4969      43485352 
 4969      00
 4970              	.LASF8:
 4971 066c 696E7433 		.ascii	"int32_t\000"
 4971      325F7400 
 4972              	.LASF4:
 4973 0674 756E7369 		.ascii	"unsigned char\000"
 4973      676E6564 
 4973      20636861 
 4973      7200
 4974              	.LASF98:
 4975 0682 4144435F 		.ascii	"ADC_ISR\000"
 4975      49535200 
 4976              	.LASF164:
 4977 068a 55415254 		.ascii	"UART_RNPR\000"
 4977      5F524E50 
 4977      5200
 4978              	.LASF54:
 4979 0694 656C5F6C 		.ascii	"el_listener\000"
 4979      69737465 
 4979      6E657200 
 4980              	.LASF148:
 4981 06a0 504D435F 		.ascii	"PMC_PCSR1\000"
 4981      50435352 
 4981      3100
 4982              	.LASF39:
 4983 06aa 705F6D74 		.ascii	"p_mtxlist\000"
 4983      786C6973 
 4983      7400
 4984              	.LASF6:
 4985 06b4 73686F72 		.ascii	"short int\000"
 4985      7420696E 
 4985      7400
 4986              	.LASF31:
 4987 06be 705F7374 		.ascii	"p_state\000"
 4987      61746500 
 4988              	.LASF186:
 4989 06c6 70416463 		.ascii	"pAdc\000"
 4989      00
 4990              	.LASF220:
 4991 06cb 64775374 		.ascii	"dwStatus\000"
 4991      61747573 
 4991      00
 4992              	.LASF29:
 4993 06d4 705F6F6C 		.ascii	"p_older\000"
 4993      64657200 
 4994              	.LASF61:
 4995 06dc 65776D61 		.ascii	"ewmask\000"
 4995      736B00
 4996              	.LASF24:
 4997 06e3 705F6E65 		.ascii	"p_next\000"
 4997      787400
 4998              	.LASF16:
 4999 06ea 746D6F64 		.ascii	"tmode_t\000"
 4999      655F7400 
 5000              	.LASF127:
 5001 06f2 504D435F 		.ascii	"PMC_PCSR0\000"
ARM GAS  /tmp/ccNQmvjm.s 			page 95


 5001      50435352 
 5001      3000
 5002              	.LASF32:
 5003 06fc 705F666C 		.ascii	"p_flags\000"
 5003      61677300 
 5004              	.LASF209:
 5005 0704 5F5F6675 		.ascii	"__func__\000"
 5005      6E635F5F 
 5005      00
 5006              	.LASF136:
 5007 070d 504D435F 		.ascii	"PMC_IDR\000"
 5007      49445200 
 5008              	.LASF172:
 5009 0715 53445F53 		.ascii	"SD_STOP\000"
 5009      544F5000 
 5010              	.LASF207:
 5011 071d 4144435F 		.ascii	"ADC_SetCompareChannel\000"
 5011      53657443 
 5011      6F6D7061 
 5011      72654368 
 5011      616E6E65 
 5012              	.LASF215:
 5013 0733 4144435F 		.ascii	"ADC_IsInterruptMasked\000"
 5013      4973496E 
 5013      74657272 
 5013      7570744D 
 5013      61736B65 
 5014              	.LASF163:
 5015 0749 55415254 		.ascii	"UART_TCR\000"
 5015      5F544352 
 5015      00
 5016              	.LASF38:
 5017 0752 705F6570 		.ascii	"p_epending\000"
 5017      656E6469 
 5017      6E6700
 5018              	.LASF171:
 5019 075d 53445F55 		.ascii	"SD_UNINIT\000"
 5019      4E494E49 
 5019      5400
 5020              	.LASF65:
 5021 0767 715F636F 		.ascii	"q_counter\000"
 5021      756E7465 
 5021      7200
 5022              	.LASF157:
 5023 0771 55415254 		.ascii	"UART_RHR\000"
 5023      5F524852 
 5023      00
 5024              	.LASF174:
 5025 077a 73647374 		.ascii	"sdstate_t\000"
 5025      6174655F 
 5025      7400
 5026              	.LASF131:
 5027 0784 434B4752 		.ascii	"CKGR_PLLBR\000"
 5027      5F504C4C 
 5027      425200
 5028              	.LASF175:
 5029 078f 53657269 		.ascii	"SerialDriver\000"
ARM GAS  /tmp/ccNQmvjm.s 			page 96


 5029      616C4472 
 5029      69766572 
 5029      00
 5030              	.LASF152:
 5031 079c 55415254 		.ascii	"UART_MR\000"
 5031      5F4D5200 
 5032              	.LASF11:
 5033 07a4 6C6F6E67 		.ascii	"long unsigned int\000"
 5033      20756E73 
 5033      69676E65 
 5033      6420696E 
 5033      7400
 5034              	.LASF105:
 5035 07b6 4144435F 		.ascii	"ADC_CDR\000"
 5035      43445200 
 5036              	.LASF76:
 5037 07be 72656164 		.ascii	"read\000"
 5037      00
 5038              	.LASF62:
 5039 07c3 63686172 		.ascii	"char\000"
 5039      00
 5040              	.LASF109:
 5041 07c8 4144435F 		.ascii	"ADC_WPMR\000"
 5041      57504D52 
 5041      00
 5042              	.LASF93:
 5043 07d1 52657365 		.ascii	"Reserved1\000"
 5043      72766564 
 5043      3100
 5044              	.LASF124:
 5045 07db 504D435F 		.ascii	"PMC_SCSR\000"
 5045      53435352 
 5045      00
 5046              	.LASF91:
 5047 07e4 4144435F 		.ascii	"ADC_CHDR\000"
 5047      43484452 
 5047      00
 5048              	.LASF196:
 5049 07ed 7265736F 		.ascii	"resolution\000"
 5049      6C757469 
 5049      6F6E00
 5050              	.LASF22:
 5051 07f8 73797374 		.ascii	"systime_t\000"
 5051      696D655F 
 5051      7400
 5052              	.LASF40:
 5053 0802 705F7265 		.ascii	"p_realprio\000"
 5053      616C7072 
 5053      696F00
 5054              	.LASF90:
 5055 080d 4144435F 		.ascii	"ADC_CHER\000"
 5055      43484552 
 5055      00
 5056              	.LASF117:
 5057 0816 4144435F 		.ascii	"ADC_RNCR\000"
 5057      524E4352 
 5057      00
ARM GAS  /tmp/ccNQmvjm.s 			page 97


 5058              	.LASF95:
 5059 081f 4144435F 		.ascii	"ADC_IER\000"
 5059      49455200 
 5060              	.LASF100:
 5061 0827 4144435F 		.ascii	"ADC_OVER\000"
 5061      4F564552 
 5061      00
 5062              	.LASF170:
 5063 0830 55617274 		.ascii	"Uart\000"
 5063      00
 5064              	.LASF123:
 5065 0835 504D435F 		.ascii	"PMC_SCDR\000"
 5065      53434452 
 5065      00
 5066              	.LASF30:
 5067 083e 705F6E61 		.ascii	"p_name\000"
 5067      6D6500
 5068              	.LASF200:
 5069 0845 4144435F 		.ascii	"ADC_CfgChannelMode\000"
 5069      43666743 
 5069      68616E6E 
 5069      656C4D6F 
 5069      646500
 5070              	.LASF183:
 5071 0858 67657466 		.ascii	"getflags\000"
 5071      6C616773 
 5071      00
 5072              	.LASF46:
 5073 0861 636F6E74 		.ascii	"context\000"
 5073      65787400 
 5074              	.LASF135:
 5075 0869 504D435F 		.ascii	"PMC_IER\000"
 5075      49455200 
 5076              	.LASF154:
 5077 0871 55415254 		.ascii	"UART_IDR\000"
 5077      5F494452 
 5077      00
 5078              	.LASF45:
 5079 087a 696E7463 		.ascii	"intctx\000"
 5079      747800
 5080              	.LASF202:
 5081 0881 4144435F 		.ascii	"ADC_check\000"
 5081      63686563 
 5081      6B00
 5082              	.LASF97:
 5083 088b 4144435F 		.ascii	"ADC_IMR\000"
 5083      494D5200 
 5084              	.LASF10:
 5085 0893 75696E74 		.ascii	"uint32_t\000"
 5085      33325F74 
 5085      00
 5086              	.LASF85:
 5087 089c 52775265 		.ascii	"RwReg\000"
 5087      6700
 5088              	.LASF67:
 5089 08a2 715F746F 		.ascii	"q_top\000"
 5089      7000
ARM GAS  /tmp/ccNQmvjm.s 			page 98


 5090              	.LASF58:
 5091 08a8 7264796D 		.ascii	"rdymsg\000"
 5091      736700
 5092              	.LASF57:
 5093 08af 65735F6E 		.ascii	"es_next\000"
 5093      65787400 
 5094              	.LASF206:
 5095 08b7 64774461 		.ascii	"dwData\000"
 5095      746100
 5096              	.LASF138:
 5097 08be 504D435F 		.ascii	"PMC_IMR\000"
 5097      494D5200 
 5098              	.LASF70:
 5099 08c6 715F6E6F 		.ascii	"q_notify\000"
 5099      74696679 
 5099      00
 5100              	.LASF37:
 5101 08cf 705F6D73 		.ascii	"p_msg\000"
 5101      6700
 5102              	.LASF3:
 5103 08d5 75696E74 		.ascii	"uint8_t\000"
 5103      385F7400 
 5104              	.LASF89:
 5105 08dd 4144435F 		.ascii	"ADC_SEQR2\000"
 5105      53455152 
 5105      3200
 5106              	.LASF72:
 5107 08e7 496E7075 		.ascii	"InputQueue\000"
 5107      74517565 
 5107      756500
 5108              	.LASF81:
 5109 08f2 42617365 		.ascii	"BaseChannel\000"
 5109      4368616E 
 5109      6E656C00 
 5110              	.LASF177:
 5111 08fe 666C6167 		.ascii	"flags\000"
 5111      7300
 5112              	.LASF113:
 5113 0904 4144435F 		.ascii	"ADC_RCR\000"
 5113      52435200 
 5114              	.LASF219:
 5115 090c 64774164 		.ascii	"dwAdc_sr\000"
 5115      635F7372 
 5115      00
 5116              	.LASF184:
 5117 0915 4144435F 		.ascii	"ADC_Initialize\000"
 5117      496E6974 
 5117      69616C69 
 5117      7A6500
 5118              	.LASF52:
 5119 0924 4576656E 		.ascii	"EventListener\000"
 5119      744C6973 
 5119      74656E65 
 5119      7200
 5120              	.LASF193:
 5121 0932 74726753 		.ascii	"trgSel\000"
 5121      656C00
ARM GAS  /tmp/ccNQmvjm.s 			page 99


 5122              	.LASF140:
 5123 0939 504D435F 		.ascii	"PMC_FSPR\000"
 5123      46535052 
 5123      00
 5124              	.LASF120:
 5125 0942 4144435F 		.ascii	"ADC_PTCR\000"
 5125      50544352 
 5125      00
 5126              	.LASF208:
 5127 094b 73746172 		.ascii	"startup_value\000"
 5127      7475705F 
 5127      76616C75 
 5127      6500
 5128              	.LASF122:
 5129 0959 504D435F 		.ascii	"PMC_SCER\000"
 5129      53434552 
 5129      00
 5130              	.LASF181:
 5131 0962 75617274 		.ascii	"uart\000"
 5131      00
 5132              	.LASF78:
 5133 0967 67657477 		.ascii	"getwouldblock\000"
 5133      6F756C64 
 5133      626C6F63 
 5133      6B00
 5134              	.LASF114:
 5135 0975 4144435F 		.ascii	"ADC_TPR\000"
 5135      54505200 
 5136              	.LASF153:
 5137 097d 55415254 		.ascii	"UART_IER\000"
 5137      5F494552 
 5137      00
 5138              	.LASF5:
 5139 0986 696E7431 		.ascii	"int16_t\000"
 5139      365F7400 
 5140              	.LASF50:
 5141 098e 6D5F6F77 		.ascii	"m_owner\000"
 5141      6E657200 
 5142              	.LASF107:
 5143 0996 4144435F 		.ascii	"ADC_ACR\000"
 5143      41435200 
 5144              	.LASF27:
 5145 099e 705F6374 		.ascii	"p_ctx\000"
 5145      7800
 5146              	.LASF211:
 5147 09a4 64774D6F 		.ascii	"dwMode\000"
 5147      646500
 5148              	.LASF110:
 5149 09ab 4144435F 		.ascii	"ADC_WPSR\000"
 5149      57505352 
 5149      00
 5150              	.LASF144:
 5151 09b4 504D435F 		.ascii	"PMC_WPSR\000"
 5151      57505352 
 5151      00
 5152              	.LASF230:
 5153 09bd 63687072 		.ascii	"chprintf\000"
ARM GAS  /tmp/ccNQmvjm.s 			page 100


 5153      696E7466 
 5153      00
 5154              		.ident	"GCC: (Sourcery CodeBench Lite 2013.11-24) 4.8.1"
ARM GAS  /tmp/ccNQmvjm.s 			page 101


DEFINED SYMBOLS
                            *ABS*:00000000 atmel_adc.c
     /tmp/ccNQmvjm.s:19     .text.calcul_startup:00000000 $t
     /tmp/ccNQmvjm.s:24     .text.calcul_startup:00000000 calcul_startup
     /tmp/ccNQmvjm.s:183    .text.ADC_Initialize:00000000 $t
     /tmp/ccNQmvjm.s:189    .text.ADC_Initialize:00000000 ADC_Initialize
     /tmp/ccNQmvjm.s:236    .text.ADC_CfgTiming:00000000 $t
     /tmp/ccNQmvjm.s:242    .text.ADC_CfgTiming:00000000 ADC_CfgTiming
     /tmp/ccNQmvjm.s:260    .text.ADC_cfgFrequency:00000000 $t
     /tmp/ccNQmvjm.s:266    .text.ADC_cfgFrequency:00000000 ADC_cfgFrequency
     /tmp/ccNQmvjm.s:294    .text.ADC_CfgTrigering:00000000 $t
     /tmp/ccNQmvjm.s:300    .text.ADC_CfgTrigering:00000000 ADC_CfgTrigering
     /tmp/ccNQmvjm.s:340    .text.ADC_CfgLowRes:00000000 $t
     /tmp/ccNQmvjm.s:346    .text.ADC_CfgLowRes:00000000 ADC_CfgLowRes
     /tmp/ccNQmvjm.s:366    .text.ADC_CfgPowerSave:00000000 $t
     /tmp/ccNQmvjm.s:372    .text.ADC_CfgPowerSave:00000000 ADC_CfgPowerSave
     /tmp/ccNQmvjm.s:400    .text.ADC_CfgChannelMode:00000000 $t
     /tmp/ccNQmvjm.s:406    .text.ADC_CfgChannelMode:00000000 ADC_CfgChannelMode
     /tmp/ccNQmvjm.s:424    .text.ADC_check:00000000 $t
     /tmp/ccNQmvjm.s:430    .text.ADC_check:00000000 ADC_check
     /tmp/ccNQmvjm.s:904    .rodata.str1.4:00000000 .LC0
     /tmp/ccNQmvjm.s:915    .rodata.str1.4:00000090 .LC3
     /tmp/ccNQmvjm.s:911    .rodata.str1.4:00000058 .LC2
     /tmp/ccNQmvjm.s:907    .rodata.str1.4:00000020 .LC1
     /tmp/ccNQmvjm.s:918    .rodata.str1.4:000000c0 .LC4
     /tmp/ccNQmvjm.s:609    .text.ADC_GetConvertedData:00000000 $t
     /tmp/ccNQmvjm.s:615    .text.ADC_GetConvertedData:00000000 ADC_GetConvertedData
     /tmp/ccNQmvjm.s:640    .text.ADC_SetCompareChannel:00000000 $t
     /tmp/ccNQmvjm.s:646    .text.ADC_SetCompareChannel:00000000 ADC_SetCompareChannel
     /tmp/ccNQmvjm.s:921    .rodata.str1.4:000000e4 .LC5
     /tmp/ccNQmvjm.s:897    .rodata.__func__.5994:00000000 .LANCHOR0
     /tmp/ccNQmvjm.s:925    .rodata.str1.4:00000124 .LC6
     /tmp/ccNQmvjm.s:703    .text.ADC_SetCompareMode:00000000 $t
     /tmp/ccNQmvjm.s:709    .text.ADC_SetCompareMode:00000000 ADC_SetCompareMode
     /tmp/ccNQmvjm.s:734    .text.ADC_SetComparisonWindow:00000000 $t
     /tmp/ccNQmvjm.s:740    .text.ADC_SetComparisonWindow:00000000 ADC_SetComparisonWindow
     /tmp/ccNQmvjm.s:755    .text.ADC_IsInterruptMasked:00000000 $t
     /tmp/ccNQmvjm.s:761    .text.ADC_IsInterruptMasked:00000000 ADC_IsInterruptMasked
     /tmp/ccNQmvjm.s:779    .text.ADC_IsStatusSet:00000000 $t
     /tmp/ccNQmvjm.s:785    .text.ADC_IsStatusSet:00000000 ADC_IsStatusSet
     /tmp/ccNQmvjm.s:803    .text.ADC_IsChannelInterruptStatusSet:00000000 $t
     /tmp/ccNQmvjm.s:809    .text.ADC_IsChannelInterruptStatusSet:00000000 ADC_IsChannelInterruptStatusSet
     /tmp/ccNQmvjm.s:832    .text.ADC_ReadBuffer:00000000 $t
     /tmp/ccNQmvjm.s:838    .text.ADC_ReadBuffer:00000000 ADC_ReadBuffer
     /tmp/ccNQmvjm.s:896    .rodata.__func__.5994:00000000 $d
     /tmp/ccNQmvjm.s:900    .rodata.__func__.5994:00000000 __func__.5994
     /tmp/ccNQmvjm.s:903    .rodata.str1.4:00000000 $d
                     .debug_frame:00000010 $d

UNDEFINED SYMBOLS
SD2
chprintf
__assert_func
