ARM GAS  /tmp/ccNQmvjm.s 			page 1


   1              		.syntax unified
   2              		.cpu cortex-m3
   3              		.fpu softvfp
   4              		.eabi_attribute 20, 1
   5              		.eabi_attribute 21, 1
   6              		.eabi_attribute 23, 3
   7              		.eabi_attribute 24, 1
   8              		.eabi_attribute 25, 1
   9              		.eabi_attribute 26, 1
  10              		.eabi_attribute 30, 2
  11              		.eabi_attribute 34, 1
  12              		.eabi_attribute 18, 4
  13              		.thumb
  14              		.file	"atmel_adc.c"
  15              		.text
  16              	.Ltext0:
  17              		.cfi_sections	.debug_frame
  18              		.section	.text.calcul_startup,"ax",%progbits
  19              		.align	2
  20              		.p2align 4,,15
  21              		.thumb
  22              		.thumb_func
  23              		.type	calcul_startup, %function
  24              	calcul_startup:
  25              	.LFB43:
  26              		.file 1 "../third_party/ChibiOS/os/hal/platforms/AT91SAM3S/atmel_adc.c"
  27              		.loc 1 133 0
  28              		.cfi_startproc
  29              		@ args = 0, pretend = 0, frame = 0
  30              		@ frame_needed = 0, uses_anonymous_args = 0
  31              		@ link register save eliminated.
  32              	.LVL0:
  33              		.loc 1 136 0
  34 0000 18B3     		cbz	r0, .L2
  35              		.loc 1 138 0
  36 0002 0128     		cmp	r0, #1
  37 0004 22D0     		beq	.L5
  38              		.loc 1 140 0
  39 0006 0228     		cmp	r0, #2
  40 0008 22D0     		beq	.L6
  41              		.loc 1 142 0
  42 000a 0328     		cmp	r0, #3
  43 000c 22D0     		beq	.L7
  44              		.loc 1 144 0
  45 000e 0428     		cmp	r0, #4
  46 0010 24D0     		beq	.L8
  47              		.loc 1 146 0
  48 0012 0528     		cmp	r0, #5
  49 0014 20D0     		beq	.L9
  50              		.loc 1 148 0
  51 0016 0628     		cmp	r0, #6
  52 0018 22D0     		beq	.L10
  53              		.loc 1 150 0
  54 001a 0728     		cmp	r0, #7
  55 001c 22D0     		beq	.L11
  56              		.loc 1 152 0
  57 001e 0828     		cmp	r0, #8
ARM GAS  /tmp/ccNQmvjm.s 			page 2


  58 0020 22D0     		beq	.L12
  59              		.loc 1 154 0
  60 0022 0928     		cmp	r0, #9
  61 0024 23D0     		beq	.L13
  62              		.loc 1 156 0
  63 0026 0A28     		cmp	r0, #10
  64 0028 24D0     		beq	.L14
  65              		.loc 1 158 0
  66 002a 0B28     		cmp	r0, #11
  67 002c 25D0     		beq	.L15
  68              		.loc 1 160 0
  69 002e 0C28     		cmp	r0, #12
  70 0030 26D0     		beq	.L16
  71              		.loc 1 162 0
  72 0032 0D28     		cmp	r0, #13
  73 0034 07D0     		beq	.L17
  74              	.LVL1:
  75              	.LBB4:
  76              	.LBB5:
  77              		.loc 1 164 0
  78 0036 0E28     		cmp	r0, #14
  79 0038 25D0     		beq	.L18
  80              		.loc 1 134 0
  81 003a 0F28     		cmp	r0, #15
  82 003c 0CBF     		ite	eq
  83 003e 4FF47070 		moveq	r0, #960
  84 0042 0020     		movne	r0, #0
  85              	.LVL2:
  86 0044 7047     		bx	lr
  87              	.LVL3:
  88              	.L17:
  89              	.LBE5:
  90              	.LBE4:
  91              		.loc 1 163 0
  92 0046 4FF45070 		mov	r0, #832
  93              	.LVL4:
  94              	.L2:
  95              		.loc 1 170 0
  96 004a 7047     		bx	lr
  97              	.LVL5:
  98              	.L5:
  99              		.loc 1 139 0
 100 004c 0820     		movs	r0, #8
 101              	.LVL6:
 102 004e 7047     		bx	lr
 103              	.LVL7:
 104              	.L6:
 105              		.loc 1 141 0
 106 0050 1020     		movs	r0, #16
 107              	.LVL8:
 108 0052 7047     		bx	lr
 109              	.LVL9:
 110              	.L7:
 111              		.loc 1 143 0
 112 0054 1820     		movs	r0, #24
 113              	.LVL10:
 114 0056 7047     		bx	lr
ARM GAS  /tmp/ccNQmvjm.s 			page 3


 115              	.LVL11:
 116              	.L9:
 117              		.loc 1 147 0
 118 0058 5020     		movs	r0, #80
 119              	.LVL12:
 120 005a 7047     		bx	lr
 121              	.LVL13:
 122              	.L8:
 123              		.loc 1 145 0
 124 005c 4020     		movs	r0, #64
 125              	.LVL14:
 126 005e 7047     		bx	lr
 127              	.LVL15:
 128              	.L10:
 129              		.loc 1 149 0
 130 0060 6020     		movs	r0, #96
 131              	.LVL16:
 132 0062 7047     		bx	lr
 133              	.LVL17:
 134              	.L11:
 135              		.loc 1 151 0
 136 0064 7020     		movs	r0, #112
 137              	.LVL18:
 138 0066 7047     		bx	lr
 139              	.LVL19:
 140              	.L12:
 141              		.loc 1 153 0
 142 0068 4FF40070 		mov	r0, #512
 143              	.LVL20:
 144 006c 7047     		bx	lr
 145              	.LVL21:
 146              	.L13:
 147              		.loc 1 155 0
 148 006e 4FF41070 		mov	r0, #576
 149              	.LVL22:
 150 0072 7047     		bx	lr
 151              	.LVL23:
 152              	.L14:
 153              		.loc 1 157 0
 154 0074 4FF42070 		mov	r0, #640
 155              	.LVL24:
 156 0078 7047     		bx	lr
 157              	.LVL25:
 158              	.L15:
 159              		.loc 1 159 0
 160 007a 4FF43070 		mov	r0, #704
 161              	.LVL26:
 162 007e 7047     		bx	lr
 163              	.LVL27:
 164              	.L16:
 165              		.loc 1 161 0
 166 0080 4FF44070 		mov	r0, #768
 167              	.LVL28:
 168 0084 7047     		bx	lr
 169              	.LVL29:
 170              	.L18:
 171              	.LBB7:
ARM GAS  /tmp/ccNQmvjm.s 			page 4


 172              	.LBB6:
 173              		.loc 1 165 0
 174 0086 4FF46070 		mov	r0, #896
 175              	.LVL30:
 176 008a 7047     		bx	lr
 177              	.LBE6:
 178              	.LBE7:
 179              		.cfi_endproc
 180              	.LFE43:
 181              		.size	calcul_startup, .-calcul_startup
 182 008c AFF30080 		.section	.text.ADC_Initialize,"ax",%progbits
 183              		.align	2
 184              		.p2align 4,,15
 185              		.global	ADC_Initialize
 186              		.thumb
 187              		.thumb_func
 188              		.type	ADC_Initialize, %function
 189              	ADC_Initialize:
 190              	.LFB36:
 191              		.loc 1 62 0
 192              		.cfi_startproc
 193              		@ args = 0, pretend = 0, frame = 0
 194              		@ frame_needed = 0, uses_anonymous_args = 0
 195              		@ link register save eliminated.
 196              	.LVL31:
 197 0000 70B4     		push	{r4, r5, r6}
 198              		.cfi_def_cfa_offset 12
 199              		.cfi_offset 4, -12
 200              		.cfi_offset 5, -8
 201              		.cfi_offset 6, -4
 202              		.loc 1 64 0
 203 0002 4FF48063 		mov	r3, #1024
 204 0006 4FF48641 		mov	r1, #17152
 205              		.loc 1 66 0
 206 000a 44F20132 		movw	r2, #17153
 207              		.loc 1 64 0
 208 000e C4F20E03 		movt	r3, 16398
 209              		.loc 1 65 0
 210 0012 4FF00056 		mov	r6, #536870912
 211              		.loc 1 69 0
 212 0016 0125     		movs	r5, #1
 213              		.loc 1 73 0
 214 0018 0024     		movs	r4, #0
 215              		.loc 1 64 0
 216 001a C5F24D01 		movt	r1, 20557
 217              		.loc 1 66 0
 218 001e C5F24D02 		movt	r2, 20557
 219              		.loc 1 64 0
 220 0022 C3F8E410 		str	r1, [r3, #228]
 221              		.loc 1 65 0
 222 0026 1E61     		str	r6, [r3, #16]
 223              		.loc 1 66 0
 224 0028 C3F8E420 		str	r2, [r3, #228]
 225              		.loc 1 69 0
 226 002c 0560     		str	r5, [r0]
 227              		.loc 1 73 0
 228 002e 4460     		str	r4, [r0, #4]
ARM GAS  /tmp/ccNQmvjm.s 			page 5


 229              		.loc 1 74 0
 230 0030 70BC     		pop	{r4, r5, r6}
 231 0032 7047     		bx	lr
 232              		.cfi_endproc
 233              	.LFE36:
 234              		.size	ADC_Initialize, .-ADC_Initialize
 235 0034 AFF30080 		.section	.text.ADC_CfgTiming,"ax",%progbits
 235      AFF30080 
 235      AFF30080 
 236              		.align	2
 237              		.p2align 4,,15
 238              		.global	ADC_CfgTiming
 239              		.thumb
 240              		.thumb_func
 241              		.type	ADC_CfgTiming, %function
 242              	ADC_CfgTiming:
 243              	.LFB37:
 244              		.loc 1 80 0
 245              		.cfi_startproc
 246              		@ args = 0, pretend = 0, frame = 0
 247              		@ frame_needed = 0, uses_anonymous_args = 0
 248              		@ link register save eliminated.
 249              	.LVL32:
 250              		.loc 1 81 0
 251 0000 0906     		lsls	r1, r1, #24
 252              	.LVL33:
 253 0002 01F07061 		and	r1, r1, #251658240
 254 0006 4160     		str	r1, [r0, #4]
 255 0008 7047     		bx	lr
 256              		.cfi_endproc
 257              	.LFE37:
 258              		.size	ADC_CfgTiming, .-ADC_CfgTiming
 259 000a 00BFAFF3 		.section	.text.ADC_cfgFrequency,"ax",%progbits
 259      0080
 260              		.align	2
 261              		.p2align 4,,15
 262              		.global	ADC_cfgFrequency
 263              		.thumb
 264              		.thumb_func
 265              		.type	ADC_cfgFrequency, %function
 266              	ADC_cfgFrequency:
 267              	.LFB38:
 268              		.loc 1 88 0
 269              		.cfi_startproc
 270              		@ args = 0, pretend = 0, frame = 0
 271              		@ frame_needed = 0, uses_anonymous_args = 0
 272              		@ link register save eliminated.
 273              	.LVL34:
 274              		.loc 1 89 0
 275 0000 4368     		ldr	r3, [r0, #4]
 276              		.loc 1 90 0
 277 0002 0904     		lsls	r1, r1, #16
 278              	.LVL35:
 279 0004 01F47021 		and	r1, r1, #983040
 280              		.loc 1 89 0
 281 0008 1202     		lsls	r2, r2, #8
 282              	.LVL36:
ARM GAS  /tmp/ccNQmvjm.s 			page 6


 283 000a 92B2     		uxth	r2, r2
 284              		.loc 1 90 0
 285 000c 0B43     		orrs	r3, r3, r1
 286              		.loc 1 89 0
 287 000e 1343     		orrs	r3, r3, r2
 288 0010 4360     		str	r3, [r0, #4]
 289 0012 7047     		bx	lr
 290              		.cfi_endproc
 291              	.LFE38:
 292              		.size	ADC_cfgFrequency, .-ADC_cfgFrequency
 293 0014 AFF30080 		.section	.text.ADC_CfgTrigering,"ax",%progbits
 293      AFF30080 
 293      AFF30080 
 294              		.align	2
 295              		.p2align 4,,15
 296              		.global	ADC_CfgTrigering
 297              		.thumb
 298              		.thumb_func
 299              		.type	ADC_CfgTrigering, %function
 300              	ADC_CfgTrigering:
 301              	.LFB39:
 302              		.loc 1 97 0
 303              		.cfi_startproc
 304              		@ args = 0, pretend = 0, frame = 0
 305              		@ frame_needed = 0, uses_anonymous_args = 0
 306              		@ link register save eliminated.
 307              	.LVL37:
 308 0000 10B4     		push	{r4}
 309              		.cfi_def_cfa_offset 4
 310              		.cfi_offset 4, -4
 311              		.loc 1 100 0
 312 0002 DB01     		lsls	r3, r3, #7
 313              	.LVL38:
 314              		.loc 1 98 0
 315 0004 4468     		ldr	r4, [r0, #4]
 316              		.loc 1 100 0
 317 0006 DBB2     		uxtb	r3, r3
 318              		.loc 1 99 0
 319 0008 1C43     		orrs	r4, r4, r3
 320              		.loc 1 98 0
 321 000a 01F00101 		and	r1, r1, #1
 322              	.LVL39:
 323              		.loc 1 99 0
 324 000e 5200     		lsls	r2, r2, #1
 325              	.LVL40:
 326              		.loc 1 100 0
 327 0010 2143     		orrs	r1, r1, r4
 328              		.loc 1 99 0
 329 0012 02F00E02 		and	r2, r2, #14
 330              		.loc 1 98 0
 331 0016 1143     		orrs	r1, r1, r2
 332 0018 4160     		str	r1, [r0, #4]
 333              		.loc 1 101 0
 334 001a 5DF8044B 		ldr	r4, [sp], #4
 335 001e 7047     		bx	lr
 336              		.cfi_endproc
 337              	.LFE39:
ARM GAS  /tmp/ccNQmvjm.s 			page 7


 338              		.size	ADC_CfgTrigering, .-ADC_CfgTrigering
 339              		.section	.text.ADC_CfgLowRes,"ax",%progbits
 340              		.align	2
 341              		.p2align 4,,15
 342              		.global	ADC_CfgLowRes
 343              		.thumb
 344              		.thumb_func
 345              		.type	ADC_CfgLowRes, %function
 346              	ADC_CfgLowRes:
 347              	.LFB40:
 348              		.loc 1 107 0
 349              		.cfi_startproc
 350              		@ args = 0, pretend = 0, frame = 0
 351              		@ frame_needed = 0, uses_anonymous_args = 0
 352              		@ link register save eliminated.
 353              	.LVL41:
 354              		.loc 1 108 0
 355 0000 4268     		ldr	r2, [r0, #4]
 356 0002 0901     		lsls	r1, r1, #4
 357              	.LVL42:
 358 0004 01F01003 		and	r3, r1, #16
 359 0008 1343     		orrs	r3, r3, r2
 360 000a 4360     		str	r3, [r0, #4]
 361 000c 7047     		bx	lr
 362              		.cfi_endproc
 363              	.LFE40:
 364              		.size	ADC_CfgLowRes, .-ADC_CfgLowRes
 365 000e 00BF     		.section	.text.ADC_CfgPowerSave,"ax",%progbits
 366              		.align	2
 367              		.p2align 4,,15
 368              		.global	ADC_CfgPowerSave
 369              		.thumb
 370              		.thumb_func
 371              		.type	ADC_CfgPowerSave, %function
 372              	ADC_CfgPowerSave:
 373              	.LFB41:
 374              		.loc 1 115 0
 375              		.cfi_startproc
 376              		@ args = 0, pretend = 0, frame = 0
 377              		@ frame_needed = 0, uses_anonymous_args = 0
 378              		@ link register save eliminated.
 379              	.LVL43:
 380              		.loc 1 116 0
 381 0000 4368     		ldr	r3, [r0, #4]
 382              		.loc 1 117 0
 383 0002 9201     		lsls	r2, r2, #6
 384              	.LVL44:
 385 0004 02F04002 		and	r2, r2, #64
 386              		.loc 1 116 0
 387 0008 4901     		lsls	r1, r1, #5
 388              	.LVL45:
 389 000a 01F02001 		and	r1, r1, #32
 390              		.loc 1 117 0
 391 000e 1343     		orrs	r3, r3, r2
 392              		.loc 1 116 0
 393 0010 0B43     		orrs	r3, r3, r1
 394 0012 4360     		str	r3, [r0, #4]
ARM GAS  /tmp/ccNQmvjm.s 			page 8


 395 0014 7047     		bx	lr
 396              		.cfi_endproc
 397              	.LFE41:
 398              		.size	ADC_CfgPowerSave, .-ADC_CfgPowerSave
 399 0016 00BFAFF3 		.section	.text.ADC_CfgChannelMode,"ax",%progbits
 399      0080AFF3 
 399      0080
 400              		.align	2
 401              		.p2align 4,,15
 402              		.global	ADC_CfgChannelMode
 403              		.thumb
 404              		.thumb_func
 405              		.type	ADC_CfgChannelMode, %function
 406              	ADC_CfgChannelMode:
 407              	.LFB42:
 408              		.loc 1 124 0
 409              		.cfi_startproc
 410              		@ args = 0, pretend = 0, frame = 0
 411              		@ frame_needed = 0, uses_anonymous_args = 0
 412              		@ link register save eliminated.
 413              	.LVL46:
 414              		.loc 1 125 0
 415 0000 4368     		ldr	r3, [r0, #4]
 416 0002 43EAC171 		orr	r1, r3, r1, lsl #31
 417              	.LVL47:
 418 0006 4160     		str	r1, [r0, #4]
 419 0008 7047     		bx	lr
 420              		.cfi_endproc
 421              	.LFE42:
 422              		.size	ADC_CfgChannelMode, .-ADC_CfgChannelMode
 423              		.section	.text.ADC_check,"ax",%progbits
 424              		.align	2
 425              		.p2align 4,,15
 426              		.global	ADC_check
 427              		.thumb
 428              		.thumb_func
 429              		.type	ADC_check, %function
 430              	ADC_check:
 431              	.LFB44:
 432              		.loc 1 176 0
 433              		.cfi_startproc
 434              		@ args = 0, pretend = 0, frame = 8
 435              		@ frame_needed = 0, uses_anonymous_args = 0
 436              	.LVL48:
 437 0000 70B5     		push	{r4, r5, r6, lr}
 438              		.cfi_def_cfa_offset 16
 439              		.cfi_offset 4, -16
 440              		.cfi_offset 5, -12
 441              		.cfi_offset 6, -8
 442              		.cfi_offset 14, -4
 443              		.loc 1 182 0
 444 0002 4468     		ldr	r4, [r0, #4]
 445              	.LVL49:
 446              		.loc 1 176 0
 447 0004 0546     		mov	r5, r0
 448              		.loc 1 182 0
 449 0006 C4F30724 		ubfx	r4, r4, #8, #8
ARM GAS  /tmp/ccNQmvjm.s 			page 9


 450              	.LVL50:
 451              		.loc 1 183 0
 452 000a 0134     		adds	r4, r4, #1
 453 000c 6400     		lsls	r4, r4, #1
 454 000e B1FBF4F4 		udiv	r4, r1, r4
 455              	.LVL51:
 456              		.loc 1 184 0
 457 0012 40F20000 		movw	r0, #:lower16:SD2
 458              	.LVL52:
 459 0016 40F20001 		movw	r1, #:lower16:.LC0
 460              	.LVL53:
 461              		.loc 1 176 0
 462 001a 82B0     		sub	sp, sp, #8
 463              		.cfi_def_cfa_offset 24
 464              		.loc 1 184 0
 465 001c 2246     		mov	r2, r4
 466 001e C0F20000 		movt	r0, #:upper16:SD2
 467 0022 C0F20001 		movt	r1, #:upper16:.LC0
 468 0026 FFF7FEFF 		bl	chprintf
 469              	.LVL54:
 470              		.loc 1 186 0
 471 002a 002C     		cmp	r4, #0
 472 002c 63D0     		beq	.L47
 473              		.loc 1 190 0
 474 002e 4FF49052 		mov	r2, #4608
 475 0032 C0F27A02 		movt	r2, 122
 476 0036 9442     		cmp	r4, r2
 477 0038 2CD8     		bhi	.L48
 478              	.L30:
 479              		.loc 1 195 0
 480 003a 6868     		ldr	r0, [r5, #4]
 481              		.loc 1 196 0
 482 003c 6B68     		ldr	r3, [r5, #4]
 483              		.loc 1 195 0
 484 003e C0F30346 		ubfx	r6, r0, #16, #4
 485              	.LVL55:
 486              		.loc 1 196 0
 487 0042 9806     		lsls	r0, r3, #26
 488 0044 16D4     		bmi	.L31
 489              		.loc 1 199 0
 490 0046 04EB8404 		add	r4, r4, r4, lsl #2
 491              	.LVL56:
 492 004a 4DF68363 		movw	r3, #56963
 493 004e E400     		lsls	r4, r4, #3
 494 0050 C4F21B33 		movt	r3, 17179
 495 0054 A3FB0403 		umull	r0, r3, r3, r4
 496              	.L46:
 497              		.loc 1 213 0
 498 0058 3046     		mov	r0, r6
 499 005a 9A0C     		lsrs	r2, r3, #18
 500 005c FFF7FEFF 		bl	calcul_startup
 501              	.LVL57:
 502 0060 8242     		cmp	r2, r0
 503 0062 0346     		mov	r3, r0
 504              		.loc 1 215 0
 505 0064 84BF     		itt	hi
 506 0066 40F20001 		movwhi	r1, #:lower16:.LC3
ARM GAS  /tmp/ccNQmvjm.s 			page 10


 507 006a 40F20000 		movwhi	r0, #:lower16:SD2
 508              		.loc 1 213 0
 509 006e 39D8     		bhi	.L43
 510              	.L28:
 511              		.loc 1 234 0
 512 0070 02B0     		add	sp, sp, #8
 513              		@ sp needed
 514 0072 70BD     		pop	{r4, r5, r6, pc}
 515              	.LVL58:
 516              	.L31:
 517              		.loc 1 206 0
 518 0074 6B68     		ldr	r3, [r5, #4]
 519 0076 1906     		lsls	r1, r3, #24
 520 0078 49D4     		bmi	.L49
 521              		.loc 1 210 0
 522 007a 6B68     		ldr	r3, [r5, #4]
 523 007c 5A06     		lsls	r2, r3, #25
 524 007e 14D4     		bmi	.L35
 525              	.L50:
 526              		.loc 1 213 0
 527 0080 04EB8404 		add	r4, r4, r4, lsl #2
 528              	.LVL59:
 529 0084 4DF68363 		movw	r3, #56963
 530 0088 E400     		lsls	r4, r4, #3
 531 008a C4F21B33 		movt	r3, 17179
 532 008e A3FB0413 		umull	r1, r3, r3, r4
 533 0092 E1E7     		b	.L46
 534              	.LVL60:
 535              	.L48:
 536              		.loc 1 192 0
 537 0094 40F20000 		movw	r0, #:lower16:SD2
 538 0098 40F20001 		movw	r1, #:lower16:.LC2
 539 009c C0F20000 		movt	r0, #:upper16:SD2
 540 00a0 C0F20001 		movt	r1, #:upper16:.LC2
 541 00a4 FFF7FEFF 		bl	chprintf
 542              	.LVL61:
 543 00a8 C7E7     		b	.L30
 544              	.LVL62:
 545              	.L35:
 546              		.loc 1 220 0
 547 00aa 6B68     		ldr	r3, [r5, #4]
 548 00ac 5B06     		lsls	r3, r3, #25
 549 00ae DFD5     		bpl	.L28
 550              		.loc 1 223 0
 551 00b0 3046     		mov	r0, r6
 552 00b2 FFF7FEFF 		bl	calcul_startup
 553              	.LVL63:
 554 00b6 04EB4401 		add	r1, r4, r4, lsl #1
 555 00ba 4DF68362 		movw	r2, #56963
 556 00be 8900     		lsls	r1, r1, #2
 557 00c0 C4F21B32 		movt	r2, 17179
 558 00c4 0346     		mov	r3, r0
 559 00c6 A2FB0101 		umull	r0, r1, r2, r1
 560 00ca B3EB914F 		cmp	r3, r1, lsr #18
 561 00ce CFD2     		bcs	.L28
 562              		.loc 1 225 0
 563 00d0 04EB8404 		add	r4, r4, r4, lsl #2
ARM GAS  /tmp/ccNQmvjm.s 			page 11


 564              	.LVL64:
 565 00d4 E400     		lsls	r4, r4, #3
 566 00d6 A2FB0412 		umull	r1, r2, r2, r4
 567 00da 40F20000 		movw	r0, #:lower16:SD2
 568 00de 40F20001 		movw	r1, #:lower16:.LC3
 569 00e2 920C     		lsrs	r2, r2, #18
 570              	.L43:
 571 00e4 C0F20000 		movt	r0, #:upper16:SD2
 572 00e8 C0F20001 		movt	r1, #:upper16:.LC3
 573              		.loc 1 234 0
 574 00ec 02B0     		add	sp, sp, #8
 575              		@ sp needed
 576 00ee BDE87040 		pop	{r4, r5, r6, lr}
 577              	.LVL65:
 578              		.loc 1 225 0
 579 00f2 FFF7FEBF 		b	chprintf
 580              	.LVL66:
 581              	.L47:
 582              		.loc 1 188 0
 583 00f6 40F20000 		movw	r0, #:lower16:SD2
 584 00fa 40F20001 		movw	r1, #:lower16:.LC1
 585 00fe C0F20000 		movt	r0, #:upper16:SD2
 586 0102 C0F20001 		movt	r1, #:upper16:.LC1
 587 0106 0122     		movs	r2, #1
 588 0108 FFF7FEFF 		bl	chprintf
 589              	.LVL67:
 590 010c 95E7     		b	.L30
 591              	.LVL68:
 592              	.L49:
 593              		.loc 1 208 0
 594 010e 40F20000 		movw	r0, #:lower16:SD2
 595 0112 40F20001 		movw	r1, #:lower16:.LC4
 596 0116 C0F20000 		movt	r0, #:upper16:SD2
 597 011a C0F20001 		movt	r1, #:upper16:.LC4
 598 011e FFF7FEFF 		bl	chprintf
 599              	.LVL69:
 600              		.loc 1 210 0
 601 0122 6B68     		ldr	r3, [r5, #4]
 602 0124 5A06     		lsls	r2, r3, #25
 603 0126 C0D4     		bmi	.L35
 604 0128 AAE7     		b	.L50
 605              		.cfi_endproc
 606              	.LFE44:
 607              		.size	ADC_check, .-ADC_check
 608 012a 00BFAFF3 		.section	.text.ADC_GetConvertedData,"ax",%progbits
 608      0080
 609              		.align	2
 610              		.p2align 4,,15
 611              		.global	ADC_GetConvertedData
 612              		.thumb
 613              		.thumb_func
 614              		.type	ADC_GetConvertedData, %function
 615              	ADC_GetConvertedData:
 616              	.LFB45:
 617              		.loc 1 245 0
 618              		.cfi_startproc
 619              		@ args = 0, pretend = 0, frame = 0
ARM GAS  /tmp/ccNQmvjm.s 			page 12


 620              		@ frame_needed = 0, uses_anonymous_args = 0
 621              		@ link register save eliminated.
 622              	.LVL70:
 623              		.loc 1 249 0
 624 0000 0F29     		cmp	r1, #15
 625              		.loc 1 251 0
 626 0002 9ABF     		itte	ls
 627 0004 1431     		addls	r1, r1, #20
 628              	.LVL71:
 629 0006 50F82100 		ldrls	r0, [r0, r1, lsl #2]
 630              	.LVL72:
 631              		.loc 1 246 0
 632 000a 0020     		movhi	r0, #0
 633              	.LVL73:
 634              		.loc 1 255 0
 635 000c 7047     		bx	lr
 636              		.cfi_endproc
 637              	.LFE45:
 638              		.size	ADC_GetConvertedData, .-ADC_GetConvertedData
 639 000e 00BF     		.section	.text.ADC_SetCompareChannel,"ax",%progbits
 640              		.align	2
 641              		.p2align 4,,15
 642              		.global	ADC_SetCompareChannel
 643              		.thumb
 644              		.thumb_func
 645              		.type	ADC_SetCompareChannel, %function
 646              	ADC_SetCompareChannel:
 647              	.LFB46:
 648              		.loc 1 263 0
 649              		.cfi_startproc
 650              		@ args = 0, pretend = 0, frame = 0
 651              		@ frame_needed = 0, uses_anonymous_args = 0
 652              	.LVL74:
 653              		.loc 1 264 0
 654 0000 1029     		cmp	r1, #16
 655              		.loc 1 263 0
 656 0002 08B5     		push	{r3, lr}
 657              		.cfi_def_cfa_offset 8
 658              		.cfi_offset 3, -8
 659              		.cfi_offset 14, -4
 660              		.loc 1 264 0
 661 0004 12D8     		bhi	.L58
 662              		.loc 1 268 0
 663 0006 036C     		ldr	r3, [r0, #64]
 664 0008 1DBF     		ittte	ne
 665 000a 23F40073 		bicne	r3, r3, #512
 666 000e 0364     		strne	r3, [r0, #64]
 667              		.loc 1 269 0
 668 0010 036C     		ldrne	r3, [r0, #64]
 669              		.loc 1 274 0
 670 0012 43F40073 		orreq	r3, r3, #512
 671              		.loc 1 269 0
 672 0016 1DBF     		ittte	ne
 673 0018 23F0F003 		bicne	r3, r3, #240
 674 001c 0364     		strne	r3, [r0, #64]
 675              		.loc 1 270 0
 676 001e 036C     		ldrne	r3, [r0, #64]
ARM GAS  /tmp/ccNQmvjm.s 			page 13


 677              		.loc 1 274 0
 678 0020 0364     		streq	r3, [r0, #64]
 679              		.loc 1 270 0
 680 0022 1CBF     		itt	ne
 681 0024 43EA0111 		orrne	r1, r3, r1, lsl #4
 682              	.LVL75:
 683 0028 0164     		strne	r1, [r0, #64]
 684 002a 08BD     		pop	{r3, pc}
 685              	.LVL76:
 686              	.L58:
 687              		.loc 1 264 0 discriminator 1
 688 002c 40F20000 		movw	r0, #:lower16:.LC5
 689              	.LVL77:
 690 0030 40F20002 		movw	r2, #:lower16:.LANCHOR0
 691 0034 40F20003 		movw	r3, #:lower16:.LC6
 692 0038 C0F20000 		movt	r0, #:upper16:.LC5
 693 003c C0F20002 		movt	r2, #:upper16:.LANCHOR0
 694 0040 C0F20003 		movt	r3, #:upper16:.LC6
 695 0044 4FF48471 		mov	r1, #264
 696              	.LVL78:
 697 0048 FFF7FEFF 		bl	__assert_func
 698              	.LVL79:
 699              		.cfi_endproc
 700              	.LFE46:
 701              		.size	ADC_SetCompareChannel, .-ADC_SetCompareChannel
 702 004c AFF30080 		.section	.text.ADC_SetCompareMode,"ax",%progbits
 703              		.align	2
 704              		.p2align 4,,15
 705              		.global	ADC_SetCompareMode
 706              		.thumb
 707              		.thumb_func
 708              		.type	ADC_SetCompareMode, %function
 709              	ADC_SetCompareMode:
 710              	.LFB47:
 711              		.loc 1 284 0
 712              		.cfi_startproc
 713              		@ args = 0, pretend = 0, frame = 0
 714              		@ frame_needed = 0, uses_anonymous_args = 0
 715              		@ link register save eliminated.
 716              	.LVL80:
 717              		.loc 1 285 0
 718 0000 036C     		ldr	r3, [r0, #64]
 719              		.loc 1 286 0
 720 0002 01F00301 		and	r1, r1, #3
 721              	.LVL81:
 722              		.loc 1 285 0
 723 0006 23F00303 		bic	r3, r3, #3
 724 000a 0364     		str	r3, [r0, #64]
 725              		.loc 1 286 0
 726 000c 036C     		ldr	r3, [r0, #64]
 727 000e 1943     		orrs	r1, r1, r3
 728 0010 0164     		str	r1, [r0, #64]
 729 0012 7047     		bx	lr
 730              		.cfi_endproc
 731              	.LFE47:
 732              		.size	ADC_SetCompareMode, .-ADC_SetCompareMode
 733 0014 AFF30080 		.section	.text.ADC_SetComparisonWindow,"ax",%progbits
ARM GAS  /tmp/ccNQmvjm.s 			page 14


 733      AFF30080 
 733      AFF30080 
 734              		.align	2
 735              		.p2align 4,,15
 736              		.global	ADC_SetComparisonWindow
 737              		.thumb
 738              		.thumb_func
 739              		.type	ADC_SetComparisonWindow, %function
 740              	ADC_SetComparisonWindow:
 741              	.LFB48:
 742              		.loc 1 295 0
 743              		.cfi_startproc
 744              		@ args = 0, pretend = 0, frame = 0
 745              		@ frame_needed = 0, uses_anonymous_args = 0
 746              		@ link register save eliminated.
 747              	.LVL82:
 748              		.loc 1 296 0
 749 0000 4164     		str	r1, [r0, #68]
 750 0002 7047     		bx	lr
 751              		.cfi_endproc
 752              	.LFE48:
 753              		.size	ADC_SetComparisonWindow, .-ADC_SetComparisonWindow
 754 0004 AFF30080 		.section	.text.ADC_IsInterruptMasked,"ax",%progbits
 754      AFF30080 
 754      AFF30080 
 755              		.align	2
 756              		.p2align 4,,15
 757              		.global	ADC_IsInterruptMasked
 758              		.thumb
 759              		.thumb_func
 760              		.type	ADC_IsInterruptMasked, %function
 761              	ADC_IsInterruptMasked:
 762              	.LFB49:
 763              		.loc 1 308 0
 764              		.cfi_startproc
 765              		@ args = 0, pretend = 0, frame = 0
 766              		@ frame_needed = 0, uses_anonymous_args = 0
 767              		@ link register save eliminated.
 768              	.LVL83:
 769              		.loc 1 309 0
 770 0000 C06A     		ldr	r0, [r0, #44]
 771              	.LVL84:
 772              		.loc 1 310 0
 773 0002 0840     		ands	r0, r0, r1
 774 0004 7047     		bx	lr
 775              		.cfi_endproc
 776              	.LFE49:
 777              		.size	ADC_IsInterruptMasked, .-ADC_IsInterruptMasked
 778 0006 00BFAFF3 		.section	.text.ADC_IsStatusSet,"ax",%progbits
 778      0080AFF3 
 778      0080
 779              		.align	2
 780              		.p2align 4,,15
 781              		.global	ADC_IsStatusSet
 782              		.thumb
 783              		.thumb_func
 784              		.type	ADC_IsStatusSet, %function
ARM GAS  /tmp/ccNQmvjm.s 			page 15


 785              	ADC_IsStatusSet:
 786              	.LFB50:
 787              		.loc 1 321 0
 788              		.cfi_startproc
 789              		@ args = 0, pretend = 0, frame = 0
 790              		@ frame_needed = 0, uses_anonymous_args = 0
 791              		@ link register save eliminated.
 792              	.LVL85:
 793              		.loc 1 322 0
 794 0000 006B     		ldr	r0, [r0, #48]
 795              	.LVL86:
 796              		.loc 1 323 0
 797 0002 0840     		ands	r0, r0, r1
 798 0004 7047     		bx	lr
 799              		.cfi_endproc
 800              	.LFE50:
 801              		.size	ADC_IsStatusSet, .-ADC_IsStatusSet
 802 0006 00BFAFF3 		.section	.text.ADC_IsChannelInterruptStatusSet,"ax",%progbits
 802      0080AFF3 
 802      0080
 803              		.align	2
 804              		.p2align 4,,15
 805              		.global	ADC_IsChannelInterruptStatusSet
 806              		.thumb
 807              		.thumb_func
 808              		.type	ADC_IsChannelInterruptStatusSet, %function
 809              	ADC_IsChannelInterruptStatusSet:
 810              	.LFB51:
 811              		.loc 1 334 0
 812              		.cfi_startproc
 813              		@ args = 0, pretend = 0, frame = 0
 814              		@ frame_needed = 0, uses_anonymous_args = 0
 815              		@ link register save eliminated.
 816              	.LVL87:
 817              		.loc 1 337 0
 818 0000 0123     		movs	r3, #1
 819 0002 03FA01F1 		lsl	r1, r3, r1
 820              	.LVL88:
 821 0006 0840     		ands	r0, r0, r1
 822              	.LVL89:
 823              		.loc 1 347 0
 824 0008 B1EB000C 		subs	ip, r1, r0
 825 000c DCF10000 		rsbs	r0, ip, #0
 826 0010 50EB0C00 		adcs	r0, r0, ip
 827 0014 7047     		bx	lr
 828              		.cfi_endproc
 829              	.LFE51:
 830              		.size	ADC_IsChannelInterruptStatusSet, .-ADC_IsChannelInterruptStatusSet
 831 0016 00BFAFF3 		.section	.text.ADC_ReadBuffer,"ax",%progbits
 831      0080AFF3 
 831      0080
 832              		.align	2
 833              		.p2align 4,,15
 834              		.global	ADC_ReadBuffer
 835              		.thumb
 836              		.thumb_func
 837              		.type	ADC_ReadBuffer, %function
ARM GAS  /tmp/ccNQmvjm.s 			page 16


 838              	ADC_ReadBuffer:
 839              	.LFB52:
 840              		.loc 1 357 0
 841              		.cfi_startproc
 842              		@ args = 0, pretend = 0, frame = 0
 843              		@ frame_needed = 0, uses_anonymous_args = 0
 844              		@ link register save eliminated.
 845              	.LVL90:
 846 0000 0346     		mov	r3, r0
 847              		.loc 1 359 0
 848 0002 D0F80401 		ldr	r0, [r0, #260]
 849              	.LVL91:
 850              		.loc 1 357 0
 851 0006 10B4     		push	{r4}
 852              		.cfi_def_cfa_offset 4
 853              		.cfi_offset 4, -4
 854              		.loc 1 359 0
 855 0008 10B9     		cbnz	r0, .L65
 856              		.loc 1 359 0 is_stmt 0 discriminator 1
 857 000a D3F81401 		ldr	r0, [r3, #276]
 858 000e 70B1     		cbz	r0, .L68
 859              	.L65:
 860              		.loc 1 370 0 is_stmt 1
 861 0010 D3F81401 		ldr	r0, [r3, #276]
 862 0014 38B9     		cbnz	r0, .L67
 863              		.loc 1 372 0
 864 0016 C3F81011 		str	r1, [r3, #272]
 865              		.loc 1 375 0
 866 001a 0120     		movs	r0, #1
 867              		.loc 1 373 0
 868 001c C3F81421 		str	r2, [r3, #276]
 869              		.loc 1 382 0
 870 0020 5DF8044B 		ldr	r4, [sp], #4
 871 0024 7047     		bx	lr
 872              	.L67:
 873              		.loc 1 379 0
 874 0026 0020     		movs	r0, #0
 875              		.loc 1 382 0
 876 0028 5DF8044B 		ldr	r4, [sp], #4
 877 002c 7047     		bx	lr
 878              	.L68:
 879              		.loc 1 363 0
 880 002e 0124     		movs	r4, #1
 881              		.loc 1 361 0
 882 0030 C3F80011 		str	r1, [r3, #256]
 883              		.loc 1 365 0
 884 0034 2046     		mov	r0, r4
 885              		.loc 1 362 0
 886 0036 C3F80421 		str	r2, [r3, #260]
 887              		.loc 1 363 0
 888 003a C3F82041 		str	r4, [r3, #288]
 889              		.loc 1 382 0
 890 003e 5DF8044B 		ldr	r4, [sp], #4
 891 0042 7047     		bx	lr
 892              		.cfi_endproc
 893              	.LFE52:
 894              		.size	ADC_ReadBuffer, .-ADC_ReadBuffer
ARM GAS  /tmp/ccNQmvjm.s 			page 17


 895 0044 AFF30080 		.section	.rodata.__func__.5994,"a",%progbits
 895      AFF30080 
 895      AFF30080 
 896              		.align	2
 897              		.set	.LANCHOR0,. + 0
 898              		.type	__func__.5994, %object
 899              		.size	__func__.5994, 22
 900              	__func__.5994:
 901 0000 4144435F 		.ascii	"ADC_SetCompareChannel\000"
 901      53657443 
 901      6F6D7061 
 901      72654368 
 901      616E6E65 
 902 0016 0000     		.section	.rodata.str1.4,"aMS",%progbits,1
 903              		.align	2
 904              	.LC0:
 905 0000 41444320 		.ascii	"ADC clock frequency =  %d Hz\015\012\000"
 905      636C6F63 
 905      6B206672 
 905      65717565 
 905      6E637920 
 906 001f 00       		.space	1
 907              	.LC1:
 908 0020 61646320 		.ascii	"adc frequency too low (out of specification: %d Hz)"
 908      66726571 
 908      75656E63 
 908      7920746F 
 908      6F206C6F 
 909 0053 0D0A00   		.ascii	"\015\012\000"
 910 0056 0000     		.space	2
 911              	.LC2:
 912 0058 61646320 		.ascii	"adc frequency too high (out of specification: %d Hz"
 912      66726571 
 912      75656E63 
 912      7920746F 
 912      6F206869 
 913 008b 290D0A00 		.ascii	")\015\012\000"
 914 008f 00       		.space	1
 915              	.LC3:
 916 0090 53746172 		.ascii	"Startup time too small: %d, programmed: %d\015\012\000"
 916      74757020 
 916      74696D65 
 916      20746F6F 
 916      20736D61 
 917 00bd 000000   		.space	3
 918              	.LC4:
 919 00c0 46726565 		.ascii	"FreeRun forbidden in sleep mode\012\015\000"
 919      52756E20 
 919      666F7262 
 919      69646465 
 919      6E20696E 
 920 00e2 0000     		.space	2
 921              	.LC5:
 922 00e4 2E2E2F74 		.ascii	"../third_party/ChibiOS/os/hal/platforms/AT91SAM3S/a"
 922      68697264 
 922      5F706172 
 922      74792F43 
ARM GAS  /tmp/ccNQmvjm.s 			page 18


 922      68696269 
 923 0117 746D656C 		.ascii	"tmel_adc.c\000"
 923      5F616463 
 923      2E6300
 924 0122 0000     		.space	2
 925              	.LC6:
 926 0124 64774368 		.ascii	"dwChannel <= 16\000"
 926      616E6E65 
 926      6C203C3D 
 926      20313600 
 927              		.text
 928              	.Letext0:
 929              		.file 2 "/home/santi/arm-2013.11/lib/gcc/arm-none-eabi/4.8.1/include/stddef.h"
 930              		.file 3 "/home/santi/arm-2013.11/arm-none-eabi/include/stdint.h"
 931              		.file 4 "../third_party/ChibiOS/os/ports/GCC/ARMCMx/chtypes.h"
 932              		.file 5 "../third_party/ChibiOS/os/kernel/include/chlists.h"
 933              		.file 6 "../third_party/ChibiOS/os/kernel/include/chthreads.h"
 934              		.file 7 "../third_party/ChibiOS/os/ports/GCC/ARMCMx/chcore_v7m.h"
 935              		.file 8 "../third_party/ChibiOS/os/kernel/include/chmtx.h"
 936              		.file 9 "../third_party/ChibiOS/os/kernel/include/chevents.h"
 937              		.file 10 "../third_party/ChibiOS/os/kernel/include/chqueues.h"
 938              		.file 11 "../third_party/ChibiOS/os/kernel/include/chioch.h"
 939              		.file 12 "../third_party/ChibiOS/os/hal/platforms/AT91SAM3S/at91lib/SAM3S.h"
 940              		.file 13 "../third_party/ChibiOS/os/hal/include/serial.h"
 941              		.file 14 "../third_party/ChibiOS/os/hal/platforms/AT91SAM3S/core_cm3.h"
 942              		.file 15 "../third_party/ChibiOS/os/hal/platforms/AT91SAM3S/serial_lld.h"
 943              		.file 16 "../third_party/ChibiOS/os/various/chprintf.h"
 944              		.file 17 "/home/santi/arm-2013.11/arm-none-eabi/include/assert.h"