ARM GAS  /tmp/ccZFhEbD.s 			page 1


   1              		.syntax unified
   2              		.cpu cortex-m3
   3              		.fpu softvfp
   4              		.eabi_attribute 20, 1
   5              		.eabi_attribute 21, 1
   6              		.eabi_attribute 23, 3
   7              		.eabi_attribute 24, 1
   8              		.eabi_attribute 25, 1
   9              		.eabi_attribute 26, 1
  10              		.eabi_attribute 30, 2
  11              		.eabi_attribute 34, 1
  12              		.eabi_attribute 18, 4
  13              		.thumb
  14              		.file	"chcond.c"
  15              		.text
  16              	.Ltext0:
  17              		.cfi_sections	.debug_frame
  18              		.section	.text.chCondInit,"ax",%progbits
  19              		.align	2
  20              		.p2align 4,,15
  21              		.global	chCondInit
  22              		.thumb
  23              		.thumb_func
  24              		.type	chCondInit, %function
  25              	chCondInit:
  26              	.LFB7:
  27              		.file 1 "../third_party/ChibiOS/os/kernel/src/chcond.c"
  28              		.loc 1 59 0
  29              		.cfi_startproc
  30              		@ args = 0, pretend = 0, frame = 0
  31              		@ frame_needed = 0, uses_anonymous_args = 0
  32              		@ link register save eliminated.
  33              	.LVL0:
  34              		.loc 1 63 0
  35 0000 4060     		str	r0, [r0, #4]
  36 0002 0060     		str	r0, [r0]
  37 0004 7047     		bx	lr
  38              		.cfi_endproc
  39              	.LFE7:
  40              		.size	chCondInit, .-chCondInit
  41 0006 00BFAFF3 		.section	.text.chCondSignal,"ax",%progbits
  41      0080AFF3 
  41      0080
  42              		.align	2
  43              		.p2align 4,,15
  44              		.global	chCondSignal
  45              		.thumb
  46              		.thumb_func
  47              		.type	chCondSignal, %function
  48              	chCondSignal:
  49              	.LFB8:
  50              		.loc 1 73 0
  51              		.cfi_startproc
  52              		@ args = 0, pretend = 0, frame = 0
  53              		@ frame_needed = 0, uses_anonymous_args = 0
  54              	.LVL1:
  55 0000 08B5     		push	{r3, lr}
ARM GAS  /tmp/ccZFhEbD.s 			page 2


  56              		.cfi_def_cfa_offset 8
  57              		.cfi_offset 3, -8
  58              		.cfi_offset 14, -4
  59              		.loc 1 73 0
  60 0002 0246     		mov	r2, r0
  61              	.LBB14:
  62              		.loc 1 77 0
  63 0004 2023     		movs	r3, #32
  64              	@ 77 "../third_party/ChibiOS/os/kernel/src/chcond.c" 1
  65 0006 83F31188 		msr     BASEPRI, r3
  66              	@ 0 "" 2
  67              		.thumb
  68              	.LBE14:
  69              		.loc 1 78 0
  70 000a 0068     		ldr	r0, [r0]
  71              	.LVL2:
  72 000c 9042     		cmp	r0, r2
  73 000e 05D0     		beq	.L3
  74              	.LVL3:
  75              	.LBB15:
  76              	.LBB16:
  77              		.file 2 "../third_party/ChibiOS/os/kernel/include/chinline.h"
  78              		.loc 2 62 0
  79 0010 0368     		ldr	r3, [r0]
  80              	.LBE16:
  81              	.LBE15:
  82              		.loc 1 79 0
  83 0012 0021     		movs	r1, #0
  84              	.LBB18:
  85              	.LBB17:
  86              		.loc 2 62 0
  87 0014 1360     		str	r3, [r2]
  88 0016 5A60     		str	r2, [r3, #4]
  89              	.LBE17:
  90              	.LBE18:
  91              		.loc 1 79 0
  92 0018 FFF7FEFF 		bl	chSchWakeupS
  93              	.LVL4:
  94              	.L3:
  95              	.LBB19:
  96              		.loc 1 80 0
  97 001c 0023     		movs	r3, #0
  98              	@ 80 "../third_party/ChibiOS/os/kernel/src/chcond.c" 1
  99 001e 83F31188 		msr     BASEPRI, r3
 100              	@ 0 "" 2
 101              		.thumb
 102 0022 08BD     		pop	{r3, pc}
 103              	.LBE19:
 104              		.cfi_endproc
 105              	.LFE8:
 106              		.size	chCondSignal, .-chCondSignal
 107 0024 AFF30080 		.section	.text.chCondSignalI,"ax",%progbits
 107      AFF30080 
 107      AFF30080 
 108              		.align	2
 109              		.p2align 4,,15
 110              		.global	chCondSignalI
ARM GAS  /tmp/ccZFhEbD.s 			page 3


 111              		.thumb
 112              		.thumb_func
 113              		.type	chCondSignalI, %function
 114              	chCondSignalI:
 115              	.LFB9:
 116              		.loc 1 94 0
 117              		.cfi_startproc
 118              		@ args = 0, pretend = 0, frame = 0
 119              		@ frame_needed = 0, uses_anonymous_args = 0
 120              	.LVL5:
 121 0000 08B5     		push	{r3, lr}
 122              		.cfi_def_cfa_offset 8
 123              		.cfi_offset 3, -8
 124              		.cfi_offset 14, -4
 125              		.loc 1 94 0
 126 0002 0346     		mov	r3, r0
 127              		.loc 1 99 0
 128 0004 0068     		ldr	r0, [r0]
 129              	.LVL6:
 130 0006 9842     		cmp	r0, r3
 131 0008 06D0     		beq	.L5
 132              	.LVL7:
 133              	.LBB20:
 134              	.LBB21:
 135              		.loc 2 62 0
 136 000a 0268     		ldr	r2, [r0]
 137 000c 1A60     		str	r2, [r3]
 138 000e 5360     		str	r3, [r2, #4]
 139              	.LBE21:
 140              	.LBE20:
 141              		.loc 1 100 0
 142 0010 FFF7FEFF 		bl	chSchReadyI
 143              	.LVL8:
 144 0014 0023     		movs	r3, #0
 145 0016 4362     		str	r3, [r0, #36]
 146              	.LVL9:
 147              	.L5:
 148 0018 08BD     		pop	{r3, pc}
 149              		.cfi_endproc
 150              	.LFE9:
 151              		.size	chCondSignalI, .-chCondSignalI
 152 001a 00BFAFF3 		.section	.text.chCondBroadcastI,"ax",%progbits
 152      0080
 153              		.align	2
 154              		.p2align 4,,15
 155              		.global	chCondBroadcastI
 156              		.thumb
 157              		.thumb_func
 158              		.type	chCondBroadcastI, %function
 159              	chCondBroadcastI:
 160              	.LFB11:
 161              		.loc 1 129 0
 162              		.cfi_startproc
 163              		@ args = 0, pretend = 0, frame = 0
 164              		@ frame_needed = 0, uses_anonymous_args = 0
 165              	.LVL10:
 166 0000 38B5     		push	{r3, r4, r5, lr}
ARM GAS  /tmp/ccZFhEbD.s 			page 4


 167              		.cfi_def_cfa_offset 16
 168              		.cfi_offset 3, -16
 169              		.cfi_offset 4, -12
 170              		.cfi_offset 5, -8
 171              		.cfi_offset 14, -4
 172              		.loc 1 129 0
 173 0002 0446     		mov	r4, r0
 174              		.loc 1 137 0
 175 0004 0068     		ldr	r0, [r0]
 176              	.LVL11:
 177 0006 A042     		cmp	r0, r4
 178 0008 0AD0     		beq	.L7
 179              		.loc 1 138 0
 180 000a 6FF00105 		mvn	r5, #1
 181              	.L10:
 182              	.LVL12:
 183              	.LBB22:
 184              	.LBB23:
 185              		.loc 2 62 0
 186 000e 0368     		ldr	r3, [r0]
 187 0010 2360     		str	r3, [r4]
 188 0012 5C60     		str	r4, [r3, #4]
 189              	.LBE23:
 190              	.LBE22:
 191              		.loc 1 138 0
 192 0014 FFF7FEFF 		bl	chSchReadyI
 193              	.LVL13:
 194 0018 4562     		str	r5, [r0, #36]
 195              		.loc 1 137 0
 196 001a 2068     		ldr	r0, [r4]
 197 001c A042     		cmp	r0, r4
 198 001e F6D1     		bne	.L10
 199              	.LVL14:
 200              	.L7:
 201 0020 38BD     		pop	{r3, r4, r5, pc}
 202              		.cfi_endproc
 203              	.LFE11:
 204              		.size	chCondBroadcastI, .-chCondBroadcastI
 205 0022 00BFAFF3 		.section	.text.chCondBroadcast,"ax",%progbits
 205      0080AFF3 
 205      0080AFF3 
 205      0080
 206              		.align	2
 207              		.p2align 4,,15
 208              		.global	chCondBroadcast
 209              		.thumb
 210              		.thumb_func
 211              		.type	chCondBroadcast, %function
 212              	chCondBroadcast:
 213              	.LFB10:
 214              		.loc 1 110 0
 215              		.cfi_startproc
 216              		@ args = 0, pretend = 0, frame = 0
 217              		@ frame_needed = 0, uses_anonymous_args = 0
 218              	.LVL15:
 219 0000 08B5     		push	{r3, lr}
 220              		.cfi_def_cfa_offset 8
ARM GAS  /tmp/ccZFhEbD.s 			page 5


 221              		.cfi_offset 3, -8
 222              		.cfi_offset 14, -4
 223              	.LBB24:
 224              		.loc 1 112 0
 225 0002 2023     		movs	r3, #32
 226              	@ 112 "../third_party/ChibiOS/os/kernel/src/chcond.c" 1
 227 0004 83F31188 		msr     BASEPRI, r3
 228              	@ 0 "" 2
 229              		.thumb
 230              	.LBE24:
 231              		.loc 1 113 0
 232 0008 FFF7FEFF 		bl	chCondBroadcastI
 233              	.LVL16:
 234              		.loc 1 114 0
 235 000c FFF7FEFF 		bl	chSchRescheduleS
 236              	.LVL17:
 237              	.LBB25:
 238              		.loc 1 115 0
 239 0010 0023     		movs	r3, #0
 240              	@ 115 "../third_party/ChibiOS/os/kernel/src/chcond.c" 1
 241 0012 83F31188 		msr     BASEPRI, r3
 242              	@ 0 "" 2
 243              		.thumb
 244 0016 08BD     		pop	{r3, pc}
 245              	.LBE25:
 246              		.cfi_endproc
 247              	.LFE10:
 248              		.size	chCondBroadcast, .-chCondBroadcast
 249 0018 AFF30080 		.section	.text.chCondWaitS,"ax",%progbits
 249      AFF30080 
 250              		.align	2
 251              		.p2align 4,,15
 252              		.global	chCondWaitS
 253              		.thumb
 254              		.thumb_func
 255              		.type	chCondWaitS, %function
 256              	chCondWaitS:
 257              	.LFB13:
 258              		.loc 1 184 0
 259              		.cfi_startproc
 260              		@ args = 0, pretend = 0, frame = 0
 261              		@ frame_needed = 0, uses_anonymous_args = 0
 262              	.LVL18:
 263              		.loc 1 185 0
 264 0000 40F20003 		movw	r3, #:lower16:rlist
 265              		.loc 1 184 0
 266 0004 70B5     		push	{r4, r5, r6, lr}
 267              		.cfi_def_cfa_offset 16
 268              		.cfi_offset 4, -16
 269              		.cfi_offset 5, -12
 270              		.cfi_offset 6, -8
 271              		.cfi_offset 14, -4
 272              		.loc 1 185 0
 273 0006 C0F20003 		movt	r3, #:upper16:rlist
 274 000a DC69     		ldr	r4, [r3, #28]
 275              	.LVL19:
 276              		.loc 1 184 0
ARM GAS  /tmp/ccZFhEbD.s 			page 6


 277 000c 0546     		mov	r5, r0
 278              		.loc 1 195 0
 279 000e FFF7FEFF 		bl	chMtxUnlockS
 280              	.LVL20:
 281              		.loc 1 196 0
 282 0012 6562     		str	r5, [r4, #36]
 283              		.loc 1 195 0
 284 0014 0646     		mov	r6, r0
 285              	.LVL21:
 286              	.LBB26:
 287              	.LBB27:
 288              		.loc 2 43 0
 289 0016 2B46     		mov	r3, r5
 290 0018 03E0     		b	.L15
 291              	.LVL22:
 292              	.L17:
 293              		.loc 2 46 0
 294 001a 9968     		ldr	r1, [r3, #8]
 295 001c A268     		ldr	r2, [r4, #8]
 296 001e 9142     		cmp	r1, r2
 297 0020 02D3     		bcc	.L14
 298              	.L15:
 299              		.loc 2 45 0
 300 0022 1B68     		ldr	r3, [r3]
 301              	.LVL23:
 302              		.loc 2 46 0
 303 0024 9D42     		cmp	r5, r3
 304 0026 F8D1     		bne	.L17
 305              	.L14:
 306              		.loc 2 48 0
 307 0028 5A68     		ldr	r2, [r3, #4]
 308              	.LBE27:
 309              	.LBE26:
 310              		.loc 1 198 0
 311 002a 0520     		movs	r0, #5
 312              	.LVL24:
 313              	.LBB29:
 314              	.LBB28:
 315              		.loc 2 47 0
 316 002c 2360     		str	r3, [r4]
 317              		.loc 2 48 0
 318 002e 6260     		str	r2, [r4, #4]
 319              		.loc 2 49 0
 320 0030 5C60     		str	r4, [r3, #4]
 321 0032 1460     		str	r4, [r2]
 322              	.LBE28:
 323              	.LBE29:
 324              		.loc 1 198 0
 325 0034 FFF7FEFF 		bl	chSchGoSleepS
 326              	.LVL25:
 327              		.loc 1 199 0
 328 0038 646A     		ldr	r4, [r4, #36]
 329              	.LVL26:
 330              		.loc 1 200 0
 331 003a 3046     		mov	r0, r6
 332 003c FFF7FEFF 		bl	chMtxLockS
 333              	.LVL27:
ARM GAS  /tmp/ccZFhEbD.s 			page 7


 334              		.loc 1 202 0
 335 0040 2046     		mov	r0, r4
 336 0042 70BD     		pop	{r4, r5, r6, pc}
 337              		.cfi_endproc
 338              	.LFE13:
 339              		.size	chCondWaitS, .-chCondWaitS
 340 0044 AFF30080 		.section	.text.chCondWait,"ax",%progbits
 340      AFF30080 
 340      AFF30080 
 341              		.align	2
 342              		.p2align 4,,15
 343              		.global	chCondWait
 344              		.thumb
 345              		.thumb_func
 346              		.type	chCondWait, %function
 347              	chCondWait:
 348              	.LFB12:
 349              		.loc 1 158 0
 350              		.cfi_startproc
 351              		@ args = 0, pretend = 0, frame = 0
 352              		@ frame_needed = 0, uses_anonymous_args = 0
 353              	.LVL28:
 354 0000 08B5     		push	{r3, lr}
 355              		.cfi_def_cfa_offset 8
 356              		.cfi_offset 3, -8
 357              		.cfi_offset 14, -4
 358              	.LBB30:
 359              		.loc 1 161 0
 360 0002 2023     		movs	r3, #32
 361              	@ 161 "../third_party/ChibiOS/os/kernel/src/chcond.c" 1
 362 0004 83F31188 		msr     BASEPRI, r3
 363              	@ 0 "" 2
 364              		.thumb
 365              	.LBE30:
 366              		.loc 1 162 0
 367 0008 FFF7FEFF 		bl	chCondWaitS
 368              	.LVL29:
 369              	.LBB31:
 370              		.loc 1 163 0
 371 000c 0023     		movs	r3, #0
 372              	@ 163 "../third_party/ChibiOS/os/kernel/src/chcond.c" 1
 373 000e 83F31188 		msr     BASEPRI, r3
 374              	@ 0 "" 2
 375              		.thumb
 376              	.LBE31:
 377              		.loc 1 165 0
 378 0012 08BD     		pop	{r3, pc}
 379              		.cfi_endproc
 380              	.LFE12:
 381              		.size	chCondWait, .-chCondWait
 382 0014 AFF30080 		.section	.text.chCondWaitTimeoutS,"ax",%progbits
 382      AFF30080 
 382      AFF30080 
 383              		.align	2
 384              		.p2align 4,,15
 385              		.global	chCondWaitTimeoutS
 386              		.thumb
ARM GAS  /tmp/ccZFhEbD.s 			page 8


 387              		.thumb_func
 388              		.type	chCondWaitTimeoutS, %function
 389              	chCondWaitTimeoutS:
 390              	.LFB15:
 391              		.loc 1 270 0
 392              		.cfi_startproc
 393              		@ args = 0, pretend = 0, frame = 0
 394              		@ frame_needed = 0, uses_anonymous_args = 0
 395              	.LVL30:
 396 0000 2DE9F041 		push	{r4, r5, r6, r7, r8, lr}
 397              		.cfi_def_cfa_offset 24
 398              		.cfi_offset 4, -24
 399              		.cfi_offset 5, -20
 400              		.cfi_offset 6, -16
 401              		.cfi_offset 7, -12
 402              		.cfi_offset 8, -8
 403              		.cfi_offset 14, -4
 404              		.loc 1 270 0
 405 0004 0646     		mov	r6, r0
 406 0006 8846     		mov	r8, r1
 407              		.loc 1 280 0
 408 0008 FFF7FEFF 		bl	chMtxUnlockS
 409              	.LVL31:
 410              		.loc 1 281 0
 411 000c 40F20003 		movw	r3, #:lower16:rlist
 412 0010 C0F20003 		movt	r3, #:upper16:rlist
 413 0014 DD69     		ldr	r5, [r3, #28]
 414              		.loc 1 280 0
 415 0016 0746     		mov	r7, r0
 416              	.LVL32:
 417              	.LBB32:
 418              	.LBB33:
 419              		.loc 2 43 0
 420 0018 3346     		mov	r3, r6
 421              	.LBE33:
 422              	.LBE32:
 423              		.loc 1 281 0
 424 001a 6E62     		str	r6, [r5, #36]
 425              	.LVL33:
 426 001c 03E0     		b	.L24
 427              	.LVL34:
 428              	.L20:
 429              	.LBB37:
 430              	.LBB34:
 431              		.loc 2 46 0
 432 001e 9C68     		ldr	r4, [r3, #8]
 433 0020 AA68     		ldr	r2, [r5, #8]
 434 0022 9442     		cmp	r4, r2
 435 0024 02D3     		bcc	.L23
 436              	.L24:
 437              		.loc 2 45 0
 438 0026 1B68     		ldr	r3, [r3]
 439              	.LVL35:
 440              		.loc 2 46 0
 441 0028 9E42     		cmp	r6, r3
 442 002a F8D1     		bne	.L20
 443              	.L23:
ARM GAS  /tmp/ccZFhEbD.s 			page 9


 444              		.loc 2 48 0
 445 002c 5A68     		ldr	r2, [r3, #4]
 446              	.LBE34:
 447              	.LBE37:
 448              		.loc 1 283 0
 449 002e 4146     		mov	r1, r8
 450              	.LBB38:
 451              	.LBB35:
 452              		.loc 2 47 0
 453 0030 2B60     		str	r3, [r5]
 454              		.loc 2 48 0
 455 0032 6A60     		str	r2, [r5, #4]
 456              	.LBE35:
 457              	.LBE38:
 458              		.loc 1 283 0
 459 0034 0520     		movs	r0, #5
 460              	.LVL36:
 461              	.LBB39:
 462              	.LBB36:
 463              		.loc 2 49 0
 464 0036 5D60     		str	r5, [r3, #4]
 465 0038 1560     		str	r5, [r2]
 466              	.LBE36:
 467              	.LBE39:
 468              		.loc 1 283 0
 469 003a FFF7FEFF 		bl	chSchGoSleepTimeoutS
 470              	.LVL37:
 471              		.loc 1 284 0
 472 003e 431C     		adds	r3, r0, #1
 473              		.loc 1 283 0
 474 0040 0446     		mov	r4, r0
 475              	.LVL38:
 476              		.loc 1 284 0
 477 0042 02D0     		beq	.L22
 478              		.loc 1 285 0
 479 0044 3846     		mov	r0, r7
 480              	.LVL39:
 481 0046 FFF7FEFF 		bl	chMtxLockS
 482              	.LVL40:
 483              	.L22:
 484              		.loc 1 287 0
 485 004a 2046     		mov	r0, r4
 486 004c BDE8F081 		pop	{r4, r5, r6, r7, r8, pc}
 487              		.cfi_endproc
 488              	.LFE15:
 489              		.size	chCondWaitTimeoutS, .-chCondWaitTimeoutS
 490              		.section	.text.chCondWaitTimeout,"ax",%progbits
 491              		.align	2
 492              		.p2align 4,,15
 493              		.global	chCondWaitTimeout
 494              		.thumb
 495              		.thumb_func
 496              		.type	chCondWaitTimeout, %function
 497              	chCondWaitTimeout:
 498              	.LFB14:
 499              		.loc 1 233 0
 500              		.cfi_startproc
ARM GAS  /tmp/ccZFhEbD.s 			page 10


 501              		@ args = 0, pretend = 0, frame = 0
 502              		@ frame_needed = 0, uses_anonymous_args = 0
 503              	.LVL41:
 504 0000 08B5     		push	{r3, lr}
 505              		.cfi_def_cfa_offset 8
 506              		.cfi_offset 3, -8
 507              		.cfi_offset 14, -4
 508              	.LBB40:
 509              		.loc 1 236 0
 510 0002 2023     		movs	r3, #32
 511              	@ 236 "../third_party/ChibiOS/os/kernel/src/chcond.c" 1
 512 0004 83F31188 		msr     BASEPRI, r3
 513              	@ 0 "" 2
 514              		.thumb
 515              	.LBE40:
 516              		.loc 1 237 0
 517 0008 FFF7FEFF 		bl	chCondWaitTimeoutS
 518              	.LVL42:
 519              	.LBB41:
 520              		.loc 1 238 0
 521 000c 0023     		movs	r3, #0
 522              	@ 238 "../third_party/ChibiOS/os/kernel/src/chcond.c" 1
 523 000e 83F31188 		msr     BASEPRI, r3
 524              	@ 0 "" 2
 525              		.thumb
 526              	.LBE41:
 527              		.loc 1 240 0
 528 0012 08BD     		pop	{r3, pc}
 529              		.cfi_endproc
 530              	.LFE14:
 531              		.size	chCondWaitTimeout, .-chCondWaitTimeout
 532 0014 AFF30080 		.text
 532      AFF30080 
 532      AFF30080 
 533              	.Letext0:
 534              		.file 3 "/home/santi/arm-2013.11/arm-none-eabi/include/stdint.h"
 535              		.file 4 "../third_party/ChibiOS/os/ports/GCC/ARMCMx/chtypes.h"
 536              		.file 5 "../third_party/ChibiOS/os/kernel/include/chlists.h"
 537              		.file 6 "../third_party/ChibiOS/os/kernel/include/chthreads.h"
 538              		.file 7 "../third_party/ChibiOS/os/ports/GCC/ARMCMx/chcore_v7m.h"
 539              		.file 8 "../third_party/ChibiOS/os/kernel/include/chschd.h"
 540              		.file 9 "../third_party/ChibiOS/os/kernel/include/chmtx.h"
 541              		.file 10 "../third_party/ChibiOS/os/kernel/include/chcond.h"