ARM GAS  /tmp/ccZFhEbD.s 			page 1


   1              		.syntax unified
   2              		.cpu cortex-m3
   3              		.fpu softvfp
   4              		.eabi_attribute 20, 1
   5              		.eabi_attribute 21, 1
   6              		.eabi_attribute 23, 3
   7              		.eabi_attribute 24, 1
   8              		.eabi_attribute 25, 1
   9              		.eabi_attribute 26, 1
  10              		.eabi_attribute 30, 2
  11              		.eabi_attribute 34, 1
  12              		.eabi_attribute 18, 4
  13              		.thumb
  14              		.file	"chcond.c"
  15              		.text
  16              	.Ltext0:
  17              		.cfi_sections	.debug_frame
  18              		.section	.text.chCondInit,"ax",%progbits
  19              		.align	2
  20              		.p2align 4,,15
  21              		.global	chCondInit
  22              		.thumb
  23              		.thumb_func
  24              		.type	chCondInit, %function
  25              	chCondInit:
  26              	.LFB7:
  27              		.file 1 "../third_party/ChibiOS/os/kernel/src/chcond.c"
  28              		.loc 1 59 0
  29              		.cfi_startproc
  30              		@ args = 0, pretend = 0, frame = 0
  31              		@ frame_needed = 0, uses_anonymous_args = 0
  32              		@ link register save eliminated.
  33              	.LVL0:
  34              		.loc 1 63 0
  35 0000 4060     		str	r0, [r0, #4]
  36 0002 0060     		str	r0, [r0]
  37 0004 7047     		bx	lr
  38              		.cfi_endproc
  39              	.LFE7:
  40              		.size	chCondInit, .-chCondInit
  41 0006 00BFAFF3 		.section	.text.chCondSignal,"ax",%progbits
  41      0080AFF3 
  41      0080
  42              		.align	2
  43              		.p2align 4,,15
  44              		.global	chCondSignal
  45              		.thumb
  46              		.thumb_func
  47              		.type	chCondSignal, %function
  48              	chCondSignal:
  49              	.LFB8:
  50              		.loc 1 73 0
  51              		.cfi_startproc
  52              		@ args = 0, pretend = 0, frame = 0
  53              		@ frame_needed = 0, uses_anonymous_args = 0
  54              	.LVL1:
  55 0000 08B5     		push	{r3, lr}
ARM GAS  /tmp/ccZFhEbD.s 			page 2


  56              		.cfi_def_cfa_offset 8
  57              		.cfi_offset 3, -8
  58              		.cfi_offset 14, -4
  59              		.loc 1 73 0
  60 0002 0246     		mov	r2, r0
  61              	.LBB14:
  62              		.loc 1 77 0
  63 0004 2023     		movs	r3, #32
  64              	@ 77 "../third_party/ChibiOS/os/kernel/src/chcond.c" 1
  65 0006 83F31188 		msr     BASEPRI, r3
  66              	@ 0 "" 2
  67              		.thumb
  68              	.LBE14:
  69              		.loc 1 78 0
  70 000a 0068     		ldr	r0, [r0]
  71              	.LVL2:
  72 000c 9042     		cmp	r0, r2
  73 000e 05D0     		beq	.L3
  74              	.LVL3:
  75              	.LBB15:
  76              	.LBB16:
  77              		.file 2 "../third_party/ChibiOS/os/kernel/include/chinline.h"
  78              		.loc 2 62 0
  79 0010 0368     		ldr	r3, [r0]
  80              	.LBE16:
  81              	.LBE15:
  82              		.loc 1 79 0
  83 0012 0021     		movs	r1, #0
  84              	.LBB18:
  85              	.LBB17:
  86              		.loc 2 62 0
  87 0014 1360     		str	r3, [r2]
  88 0016 5A60     		str	r2, [r3, #4]
  89              	.LBE17:
  90              	.LBE18:
  91              		.loc 1 79 0
  92 0018 FFF7FEFF 		bl	chSchWakeupS
  93              	.LVL4:
  94              	.L3:
  95              	.LBB19:
  96              		.loc 1 80 0
  97 001c 0023     		movs	r3, #0
  98              	@ 80 "../third_party/ChibiOS/os/kernel/src/chcond.c" 1
  99 001e 83F31188 		msr     BASEPRI, r3
 100              	@ 0 "" 2
 101              		.thumb
 102 0022 08BD     		pop	{r3, pc}
 103              	.LBE19:
 104              		.cfi_endproc
 105              	.LFE8:
 106              		.size	chCondSignal, .-chCondSignal
 107 0024 AFF30080 		.section	.text.chCondSignalI,"ax",%progbits
 107      AFF30080 
 107      AFF30080 
 108              		.align	2
 109              		.p2align 4,,15
 110              		.global	chCondSignalI
ARM GAS  /tmp/ccZFhEbD.s 			page 3


 111              		.thumb
 112              		.thumb_func
 113              		.type	chCondSignalI, %function
 114              	chCondSignalI:
 115              	.LFB9:
 116              		.loc 1 94 0
 117              		.cfi_startproc
 118              		@ args = 0, pretend = 0, frame = 0
 119              		@ frame_needed = 0, uses_anonymous_args = 0
 120              	.LVL5:
 121 0000 08B5     		push	{r3, lr}
 122              		.cfi_def_cfa_offset 8
 123              		.cfi_offset 3, -8
 124              		.cfi_offset 14, -4
 125              		.loc 1 94 0
 126 0002 0346     		mov	r3, r0
 127              		.loc 1 99 0
 128 0004 0068     		ldr	r0, [r0]
 129              	.LVL6:
 130 0006 9842     		cmp	r0, r3
 131 0008 06D0     		beq	.L5
 132              	.LVL7:
 133              	.LBB20:
 134              	.LBB21:
 135              		.loc 2 62 0
 136 000a 0268     		ldr	r2, [r0]
 137 000c 1A60     		str	r2, [r3]
 138 000e 5360     		str	r3, [r2, #4]
 139              	.LBE21:
 140              	.LBE20:
 141              		.loc 1 100 0
 142 0010 FFF7FEFF 		bl	chSchReadyI
 143              	.LVL8:
 144 0014 0023     		movs	r3, #0
 145 0016 4362     		str	r3, [r0, #36]
 146              	.LVL9:
 147              	.L5:
 148 0018 08BD     		pop	{r3, pc}
 149              		.cfi_endproc
 150              	.LFE9:
 151              		.size	chCondSignalI, .-chCondSignalI
 152 001a 00BFAFF3 		.section	.text.chCondBroadcastI,"ax",%progbits
 152      0080
 153              		.align	2
 154              		.p2align 4,,15
 155              		.global	chCondBroadcastI
 156              		.thumb
 157              		.thumb_func
 158              		.type	chCondBroadcastI, %function
 159              	chCondBroadcastI:
 160              	.LFB11:
 161              		.loc 1 129 0
 162              		.cfi_startproc
 163              		@ args = 0, pretend = 0, frame = 0
 164              		@ frame_needed = 0, uses_anonymous_args = 0
 165              	.LVL10:
 166 0000 38B5     		push	{r3, r4, r5, lr}
ARM GAS  /tmp/ccZFhEbD.s 			page 4


 167              		.cfi_def_cfa_offset 16
 168              		.cfi_offset 3, -16
 169              		.cfi_offset 4, -12
 170              		.cfi_offset 5, -8
 171              		.cfi_offset 14, -4
 172              		.loc 1 129 0
 173 0002 0446     		mov	r4, r0
 174              		.loc 1 137 0
 175 0004 0068     		ldr	r0, [r0]
 176              	.LVL11:
 177 0006 A042     		cmp	r0, r4
 178 0008 0AD0     		beq	.L7
 179              		.loc 1 138 0
 180 000a 6FF00105 		mvn	r5, #1
 181              	.L10:
 182              	.LVL12:
 183              	.LBB22:
 184              	.LBB23:
 185              		.loc 2 62 0
 186 000e 0368     		ldr	r3, [r0]
 187 0010 2360     		str	r3, [r4]
 188 0012 5C60     		str	r4, [r3, #4]
 189              	.LBE23:
 190              	.LBE22:
 191              		.loc 1 138 0
 192 0014 FFF7FEFF 		bl	chSchReadyI
 193              	.LVL13:
 194 0018 4562     		str	r5, [r0, #36]
 195              		.loc 1 137 0
 196 001a 2068     		ldr	r0, [r4]
 197 001c A042     		cmp	r0, r4
 198 001e F6D1     		bne	.L10
 199              	.LVL14:
 200              	.L7:
 201 0020 38BD     		pop	{r3, r4, r5, pc}
 202              		.cfi_endproc
 203              	.LFE11:
 204              		.size	chCondBroadcastI, .-chCondBroadcastI
 205 0022 00BFAFF3 		.section	.text.chCondBroadcast,"ax",%progbits
 205      0080AFF3 
 205      0080AFF3 
 205      0080
 206              		.align	2
 207              		.p2align 4,,15
 208              		.global	chCondBroadcast
 209              		.thumb
 210              		.thumb_func
 211              		.type	chCondBroadcast, %function
 212              	chCondBroadcast:
 213              	.LFB10:
 214              		.loc 1 110 0
 215              		.cfi_startproc
 216              		@ args = 0, pretend = 0, frame = 0
 217              		@ frame_needed = 0, uses_anonymous_args = 0
 218              	.LVL15:
 219 0000 08B5     		push	{r3, lr}
 220              		.cfi_def_cfa_offset 8
ARM GAS  /tmp/ccZFhEbD.s 			page 5


 221              		.cfi_offset 3, -8
 222              		.cfi_offset 14, -4
 223              	.LBB24:
 224              		.loc 1 112 0
 225 0002 2023     		movs	r3, #32
 226              	@ 112 "../third_party/ChibiOS/os/kernel/src/chcond.c" 1
 227 0004 83F31188 		msr     BASEPRI, r3
 228              	@ 0 "" 2
 229              		.thumb
 230              	.LBE24:
 231              		.loc 1 113 0
 232 0008 FFF7FEFF 		bl	chCondBroadcastI
 233              	.LVL16:
 234              		.loc 1 114 0
 235 000c FFF7FEFF 		bl	chSchRescheduleS
 236              	.LVL17:
 237              	.LBB25:
 238              		.loc 1 115 0
 239 0010 0023     		movs	r3, #0
 240              	@ 115 "../third_party/ChibiOS/os/kernel/src/chcond.c" 1
 241 0012 83F31188 		msr     BASEPRI, r3
 242              	@ 0 "" 2
 243              		.thumb
 244 0016 08BD     		pop	{r3, pc}
 245              	.LBE25:
 246              		.cfi_endproc
 247              	.LFE10:
 248              		.size	chCondBroadcast, .-chCondBroadcast
 249 0018 AFF30080 		.section	.text.chCondWaitS,"ax",%progbits
 249      AFF30080 
 250              		.align	2
 251              		.p2align 4,,15
 252              		.global	chCondWaitS
 253              		.thumb
 254              		.thumb_func
 255              		.type	chCondWaitS, %function
 256              	chCondWaitS:
 257              	.LFB13:
 258              		.loc 1 184 0
 259              		.cfi_startproc
 260              		@ args = 0, pretend = 0, frame = 0
 261              		@ frame_needed = 0, uses_anonymous_args = 0
 262              	.LVL18:
 263              		.loc 1 185 0
 264 0000 40F20003 		movw	r3, #:lower16:rlist
 265              		.loc 1 184 0
 266 0004 70B5     		push	{r4, r5, r6, lr}
 267              		.cfi_def_cfa_offset 16
 268              		.cfi_offset 4, -16
 269              		.cfi_offset 5, -12
 270              		.cfi_offset 6, -8
 271              		.cfi_offset 14, -4
 272              		.loc 1 185 0
 273 0006 C0F20003 		movt	r3, #:upper16:rlist
 274 000a DC69     		ldr	r4, [r3, #28]
 275              	.LVL19:
 276              		.loc 1 184 0
ARM GAS  /tmp/ccZFhEbD.s 			page 6


 277 000c 0546     		mov	r5, r0
 278              		.loc 1 195 0
 279 000e FFF7FEFF 		bl	chMtxUnlockS
 280              	.LVL20:
 281              		.loc 1 196 0
 282 0012 6562     		str	r5, [r4, #36]
 283              		.loc 1 195 0
 284 0014 0646     		mov	r6, r0
 285              	.LVL21:
 286              	.LBB26:
 287              	.LBB27:
 288              		.loc 2 43 0
 289 0016 2B46     		mov	r3, r5
 290 0018 03E0     		b	.L15
 291              	.LVL22:
 292              	.L17:
 293              		.loc 2 46 0
 294 001a 9968     		ldr	r1, [r3, #8]
 295 001c A268     		ldr	r2, [r4, #8]
 296 001e 9142     		cmp	r1, r2
 297 0020 02D3     		bcc	.L14
 298              	.L15:
 299              		.loc 2 45 0
 300 0022 1B68     		ldr	r3, [r3]
 301              	.LVL23:
 302              		.loc 2 46 0
 303 0024 9D42     		cmp	r5, r3
 304 0026 F8D1     		bne	.L17
 305              	.L14:
 306              		.loc 2 48 0
 307 0028 5A68     		ldr	r2, [r3, #4]
 308              	.LBE27:
 309              	.LBE26:
 310              		.loc 1 198 0
 311 002a 0520     		movs	r0, #5
 312              	.LVL24:
 313              	.LBB29:
 314              	.LBB28:
 315              		.loc 2 47 0
 316 002c 2360     		str	r3, [r4]
 317              		.loc 2 48 0
 318 002e 6260     		str	r2, [r4, #4]
 319              		.loc 2 49 0
 320 0030 5C60     		str	r4, [r3, #4]
 321 0032 1460     		str	r4, [r2]
 322              	.LBE28:
 323              	.LBE29:
 324              		.loc 1 198 0
 325 0034 FFF7FEFF 		bl	chSchGoSleepS
 326              	.LVL25:
 327              		.loc 1 199 0
 328 0038 646A     		ldr	r4, [r4, #36]
 329              	.LVL26:
 330              		.loc 1 200 0
 331 003a 3046     		mov	r0, r6
 332 003c FFF7FEFF 		bl	chMtxLockS
 333              	.LVL27:
ARM GAS  /tmp/ccZFhEbD.s 			page 7


 334              		.loc 1 202 0
 335 0040 2046     		mov	r0, r4
 336 0042 70BD     		pop	{r4, r5, r6, pc}
 337              		.cfi_endproc
 338              	.LFE13:
 339              		.size	chCondWaitS, .-chCondWaitS
 340 0044 AFF30080 		.section	.text.chCondWait,"ax",%progbits
 340      AFF30080 
 340      AFF30080 
 341              		.align	2
 342              		.p2align 4,,15
 343              		.global	chCondWait
 344              		.thumb
 345              		.thumb_func
 346              		.type	chCondWait, %function
 347              	chCondWait:
 348              	.LFB12:
 349              		.loc 1 158 0
 350              		.cfi_startproc
 351              		@ args = 0, pretend = 0, frame = 0
 352              		@ frame_needed = 0, uses_anonymous_args = 0
 353              	.LVL28:
 354 0000 08B5     		push	{r3, lr}
 355              		.cfi_def_cfa_offset 8
 356              		.cfi_offset 3, -8
 357              		.cfi_offset 14, -4
 358              	.LBB30:
 359              		.loc 1 161 0
 360 0002 2023     		movs	r3, #32
 361              	@ 161 "../third_party/ChibiOS/os/kernel/src/chcond.c" 1
 362 0004 83F31188 		msr     BASEPRI, r3
 363              	@ 0 "" 2
 364              		.thumb
 365              	.LBE30:
 366              		.loc 1 162 0
 367 0008 FFF7FEFF 		bl	chCondWaitS
 368              	.LVL29:
 369              	.LBB31:
 370              		.loc 1 163 0
 371 000c 0023     		movs	r3, #0
 372              	@ 163 "../third_party/ChibiOS/os/kernel/src/chcond.c" 1
 373 000e 83F31188 		msr     BASEPRI, r3
 374              	@ 0 "" 2
 375              		.thumb
 376              	.LBE31:
 377              		.loc 1 165 0
 378 0012 08BD     		pop	{r3, pc}
 379              		.cfi_endproc
 380              	.LFE12:
 381              		.size	chCondWait, .-chCondWait
 382 0014 AFF30080 		.section	.text.chCondWaitTimeoutS,"ax",%progbits
 382      AFF30080 
 382      AFF30080 
 383              		.align	2
 384              		.p2align 4,,15
 385              		.global	chCondWaitTimeoutS
 386              		.thumb
ARM GAS  /tmp/ccZFhEbD.s 			page 8


 387              		.thumb_func
 388              		.type	chCondWaitTimeoutS, %function
 389              	chCondWaitTimeoutS:
 390              	.LFB15:
 391              		.loc 1 270 0
 392              		.cfi_startproc
 393              		@ args = 0, pretend = 0, frame = 0
 394              		@ frame_needed = 0, uses_anonymous_args = 0
 395              	.LVL30:
 396 0000 2DE9F041 		push	{r4, r5, r6, r7, r8, lr}
 397              		.cfi_def_cfa_offset 24
 398              		.cfi_offset 4, -24
 399              		.cfi_offset 5, -20
 400              		.cfi_offset 6, -16
 401              		.cfi_offset 7, -12
 402              		.cfi_offset 8, -8
 403              		.cfi_offset 14, -4
 404              		.loc 1 270 0
 405 0004 0646     		mov	r6, r0
 406 0006 8846     		mov	r8, r1
 407              		.loc 1 280 0
 408 0008 FFF7FEFF 		bl	chMtxUnlockS
 409              	.LVL31:
 410              		.loc 1 281 0
 411 000c 40F20003 		movw	r3, #:lower16:rlist
 412 0010 C0F20003 		movt	r3, #:upper16:rlist
 413 0014 DD69     		ldr	r5, [r3, #28]
 414              		.loc 1 280 0
 415 0016 0746     		mov	r7, r0
 416              	.LVL32:
 417              	.LBB32:
 418              	.LBB33:
 419              		.loc 2 43 0
 420 0018 3346     		mov	r3, r6
 421              	.LBE33:
 422              	.LBE32:
 423              		.loc 1 281 0
 424 001a 6E62     		str	r6, [r5, #36]
 425              	.LVL33:
 426 001c 03E0     		b	.L24
 427              	.LVL34:
 428              	.L20:
 429              	.LBB37:
 430              	.LBB34:
 431              		.loc 2 46 0
 432 001e 9C68     		ldr	r4, [r3, #8]
 433 0020 AA68     		ldr	r2, [r5, #8]
 434 0022 9442     		cmp	r4, r2
 435 0024 02D3     		bcc	.L23
 436              	.L24:
 437              		.loc 2 45 0
 438 0026 1B68     		ldr	r3, [r3]
 439              	.LVL35:
 440              		.loc 2 46 0
 441 0028 9E42     		cmp	r6, r3
 442 002a F8D1     		bne	.L20
 443              	.L23:
ARM GAS  /tmp/ccZFhEbD.s 			page 9


 444              		.loc 2 48 0
 445 002c 5A68     		ldr	r2, [r3, #4]
 446              	.LBE34:
 447              	.LBE37:
 448              		.loc 1 283 0
 449 002e 4146     		mov	r1, r8
 450              	.LBB38:
 451              	.LBB35:
 452              		.loc 2 47 0
 453 0030 2B60     		str	r3, [r5]
 454              		.loc 2 48 0
 455 0032 6A60     		str	r2, [r5, #4]
 456              	.LBE35:
 457              	.LBE38:
 458              		.loc 1 283 0
 459 0034 0520     		movs	r0, #5
 460              	.LVL36:
 461              	.LBB39:
 462              	.LBB36:
 463              		.loc 2 49 0
 464 0036 5D60     		str	r5, [r3, #4]
 465 0038 1560     		str	r5, [r2]
 466              	.LBE36:
 467              	.LBE39:
 468              		.loc 1 283 0
 469 003a FFF7FEFF 		bl	chSchGoSleepTimeoutS
 470              	.LVL37:
 471              		.loc 1 284 0
 472 003e 431C     		adds	r3, r0, #1
 473              		.loc 1 283 0
 474 0040 0446     		mov	r4, r0
 475              	.LVL38:
 476              		.loc 1 284 0
 477 0042 02D0     		beq	.L22
 478              		.loc 1 285 0
 479 0044 3846     		mov	r0, r7
 480              	.LVL39:
 481 0046 FFF7FEFF 		bl	chMtxLockS
 482              	.LVL40:
 483              	.L22:
 484              		.loc 1 287 0
 485 004a 2046     		mov	r0, r4
 486 004c BDE8F081 		pop	{r4, r5, r6, r7, r8, pc}
 487              		.cfi_endproc
 488              	.LFE15:
 489              		.size	chCondWaitTimeoutS, .-chCondWaitTimeoutS
 490              		.section	.text.chCondWaitTimeout,"ax",%progbits
 491              		.align	2
 492              		.p2align 4,,15
 493              		.global	chCondWaitTimeout
 494              		.thumb
 495              		.thumb_func
 496              		.type	chCondWaitTimeout, %function
 497              	chCondWaitTimeout:
 498              	.LFB14:
 499              		.loc 1 233 0
 500              		.cfi_startproc
ARM GAS  /tmp/ccZFhEbD.s 			page 10


 501              		@ args = 0, pretend = 0, frame = 0
 502              		@ frame_needed = 0, uses_anonymous_args = 0
 503              	.LVL41:
 504 0000 08B5     		push	{r3, lr}
 505              		.cfi_def_cfa_offset 8
 506              		.cfi_offset 3, -8
 507              		.cfi_offset 14, -4
 508              	.LBB40:
 509              		.loc 1 236 0
 510 0002 2023     		movs	r3, #32
 511              	@ 236 "../third_party/ChibiOS/os/kernel/src/chcond.c" 1
 512 0004 83F31188 		msr     BASEPRI, r3
 513              	@ 0 "" 2
 514              		.thumb
 515              	.LBE40:
 516              		.loc 1 237 0
 517 0008 FFF7FEFF 		bl	chCondWaitTimeoutS
 518              	.LVL42:
 519              	.LBB41:
 520              		.loc 1 238 0
 521 000c 0023     		movs	r3, #0
 522              	@ 238 "../third_party/ChibiOS/os/kernel/src/chcond.c" 1
 523 000e 83F31188 		msr     BASEPRI, r3
 524              	@ 0 "" 2
 525              		.thumb
 526              	.LBE41:
 527              		.loc 1 240 0
 528 0012 08BD     		pop	{r3, pc}
 529              		.cfi_endproc
 530              	.LFE14:
 531              		.size	chCondWaitTimeout, .-chCondWaitTimeout
 532 0014 AFF30080 		.text
 532      AFF30080 
 532      AFF30080 
 533              	.Letext0:
 534              		.file 3 "/home/santi/arm-2013.11/arm-none-eabi/include/stdint.h"
 535              		.file 4 "../third_party/ChibiOS/os/ports/GCC/ARMCMx/chtypes.h"
 536              		.file 5 "../third_party/ChibiOS/os/kernel/include/chlists.h"
 537              		.file 6 "../third_party/ChibiOS/os/kernel/include/chthreads.h"
 538              		.file 7 "../third_party/ChibiOS/os/ports/GCC/ARMCMx/chcore_v7m.h"
 539              		.file 8 "../third_party/ChibiOS/os/kernel/include/chschd.h"
 540              		.file 9 "../third_party/ChibiOS/os/kernel/include/chmtx.h"
 541              		.file 10 "../third_party/ChibiOS/os/kernel/include/chcond.h"
 542              		.section	.debug_info,"",%progbits
 543              	.Ldebug_info0:
 544 0000 42090000 		.4byte	0x942
 545 0004 0400     		.2byte	0x4
 546 0006 00000000 		.4byte	.Ldebug_abbrev0
 547 000a 04       		.byte	0x4
 548 000b 01       		.uleb128 0x1
 549 000c 25000000 		.4byte	.LASF78
 550 0010 01       		.byte	0x1
 551 0011 4F030000 		.4byte	.LASF79
 552 0015 3A020000 		.4byte	.LASF80
 553 0019 58000000 		.4byte	.Ldebug_ranges0+0x58
 554 001d 00000000 		.4byte	0
 555 0021 00000000 		.4byte	.Ldebug_line0
ARM GAS  /tmp/ccZFhEbD.s 			page 11


 556 0025 02       		.uleb128 0x2
 557 0026 04       		.byte	0x4
 558 0027 05       		.byte	0x5
 559 0028 696E7400 		.ascii	"int\000"
 560 002c 03       		.uleb128 0x3
 561 002d 04       		.byte	0x4
 562 002e 07       		.byte	0x7
 563 002f 9E010000 		.4byte	.LASF0
 564 0033 03       		.uleb128 0x3
 565 0034 01       		.byte	0x1
 566 0035 06       		.byte	0x6
 567 0036 13010000 		.4byte	.LASF1
 568 003a 04       		.uleb128 0x4
 569 003b FE030000 		.4byte	.LASF5
 570 003f 03       		.byte	0x3
 571 0040 2A       		.byte	0x2a
 572 0041 45000000 		.4byte	0x45
 573 0045 03       		.uleb128 0x3
 574 0046 01       		.byte	0x1
 575 0047 08       		.byte	0x8
 576 0048 C3020000 		.4byte	.LASF2
 577 004c 03       		.uleb128 0x3
 578 004d 02       		.byte	0x2
 579 004e 05       		.byte	0x5
 580 004f DB020000 		.4byte	.LASF3
 581 0053 03       		.uleb128 0x3
 582 0054 02       		.byte	0x2
 583 0055 07       		.byte	0x7
 584 0056 C5010000 		.4byte	.LASF4
 585 005a 04       		.uleb128 0x4
 586 005b BB020000 		.4byte	.LASF6
 587 005f 03       		.byte	0x3
 588 0060 4F       		.byte	0x4f
 589 0061 65000000 		.4byte	0x65
 590 0065 03       		.uleb128 0x3
 591 0066 04       		.byte	0x4
 592 0067 05       		.byte	0x5
 593 0068 37010000 		.4byte	.LASF7
 594 006c 04       		.uleb128 0x4
 595 006d 32030000 		.4byte	.LASF8
 596 0071 03       		.byte	0x3
 597 0072 50       		.byte	0x50
 598 0073 77000000 		.4byte	0x77
 599 0077 03       		.uleb128 0x3
 600 0078 04       		.byte	0x4
 601 0079 07       		.byte	0x7
 602 007a AB010000 		.4byte	.LASF9
 603 007e 03       		.uleb128 0x3
 604 007f 08       		.byte	0x8
 605 0080 05       		.byte	0x5
 606 0081 05010000 		.4byte	.LASF10
 607 0085 03       		.uleb128 0x3
 608 0086 08       		.byte	0x8
 609 0087 07       		.byte	0x7
 610 0088 CD000000 		.4byte	.LASF11
 611 008c 04       		.uleb128 0x4
 612 008d EA010000 		.4byte	.LASF12
ARM GAS  /tmp/ccZFhEbD.s 			page 12


 613 0091 04       		.byte	0x4
 614 0092 2F       		.byte	0x2f
 615 0093 3A000000 		.4byte	0x3a
 616 0097 04       		.uleb128 0x4
 617 0098 40010000 		.4byte	.LASF13
 618 009c 04       		.byte	0x4
 619 009d 30       		.byte	0x30
 620 009e 3A000000 		.4byte	0x3a
 621 00a2 04       		.uleb128 0x4
 622 00a3 96020000 		.4byte	.LASF14
 623 00a7 04       		.byte	0x4
 624 00a8 31       		.byte	0x31
 625 00a9 3A000000 		.4byte	0x3a
 626 00ad 04       		.uleb128 0x4
 627 00ae A5020000 		.4byte	.LASF15
 628 00b2 04       		.byte	0x4
 629 00b3 32       		.byte	0x32
 630 00b4 6C000000 		.4byte	0x6c
 631 00b8 04       		.uleb128 0x4
 632 00b9 D8010000 		.4byte	.LASF16
 633 00bd 04       		.byte	0x4
 634 00be 33       		.byte	0x33
 635 00bf 5A000000 		.4byte	0x5a
 636 00c3 04       		.uleb128 0x4
 637 00c4 FE010000 		.4byte	.LASF17
 638 00c8 04       		.byte	0x4
 639 00c9 35       		.byte	0x35
 640 00ca 6C000000 		.4byte	0x6c
 641 00ce 04       		.uleb128 0x4
 642 00cf A1030000 		.4byte	.LASF18
 643 00d3 04       		.byte	0x4
 644 00d4 36       		.byte	0x36
 645 00d5 6C000000 		.4byte	0x6c
 646 00d9 04       		.uleb128 0x4
 647 00da 8B010000 		.4byte	.LASF19
 648 00de 04       		.byte	0x4
 649 00df 37       		.byte	0x37
 650 00e0 5A000000 		.4byte	0x5a
 651 00e4 04       		.uleb128 0x4
 652 00e5 0A030000 		.4byte	.LASF20
 653 00e9 05       		.byte	0x5
 654 00ea 2A       		.byte	0x2a
 655 00eb EF000000 		.4byte	0xef
 656 00ef 05       		.uleb128 0x5
 657 00f0 0A030000 		.4byte	.LASF20
 658 00f4 48       		.byte	0x48
 659 00f5 06       		.byte	0x6
 660 00f6 5E       		.byte	0x5e
 661 00f7 E0010000 		.4byte	0x1e0
 662 00fb 06       		.uleb128 0x6
 663 00fc FB020000 		.4byte	.LASF21
 664 0100 06       		.byte	0x6
 665 0101 5F       		.byte	0x5f
 666 0102 01020000 		.4byte	0x201
 667 0106 00       		.byte	0
 668 0107 06       		.uleb128 0x6
 669 0108 9E020000 		.4byte	.LASF22
ARM GAS  /tmp/ccZFhEbD.s 			page 13


 670 010c 06       		.byte	0x6
 671 010d 61       		.byte	0x61
 672 010e 01020000 		.4byte	0x201
 673 0112 04       		.byte	0x4
 674 0113 06       		.uleb128 0x6
 675 0114 FE000000 		.4byte	.LASF23
 676 0118 06       		.byte	0x6
 677 0119 63       		.byte	0x63
 678 011a AD000000 		.4byte	0xad
 679 011e 08       		.byte	0x8
 680 011f 06       		.uleb128 0x6
 681 0120 4D040000 		.4byte	.LASF24
 682 0124 06       		.byte	0x6
 683 0125 64       		.byte	0x64
 684 0126 BA020000 		.4byte	0x2ba
 685 012a 0C       		.byte	0xc
 686 012b 06       		.uleb128 0x6
 687 012c 54010000 		.4byte	.LASF25
 688 0130 06       		.byte	0x6
 689 0131 66       		.byte	0x66
 690 0132 01020000 		.4byte	0x201
 691 0136 10       		.byte	0x10
 692 0137 06       		.uleb128 0x6
 693 0138 2C020000 		.4byte	.LASF26
 694 013c 06       		.byte	0x6
 695 013d 67       		.byte	0x67
 696 013e 01020000 		.4byte	0x201
 697 0142 14       		.byte	0x14
 698 0143 06       		.uleb128 0x6
 699 0144 0D040000 		.4byte	.LASF27
 700 0148 06       		.byte	0x6
 701 0149 6E       		.byte	0x6e
 702 014a EA030000 		.4byte	0x3ea
 703 014e 18       		.byte	0x18
 704 014f 06       		.uleb128 0x6
 705 0150 E5020000 		.4byte	.LASF28
 706 0154 06       		.byte	0x6
 707 0155 79       		.byte	0x79
 708 0156 97000000 		.4byte	0x97
 709 015a 1C       		.byte	0x1c
 710 015b 06       		.uleb128 0x6
 711 015c 02030000 		.4byte	.LASF29
 712 0160 06       		.byte	0x6
 713 0161 7D       		.byte	0x7d
 714 0162 8C000000 		.4byte	0x8c
 715 0166 1D       		.byte	0x1d
 716 0167 06       		.uleb128 0x6
 717 0168 E7030000 		.4byte	.LASF30
 718 016c 06       		.byte	0x6
 719 016d 82       		.byte	0x82
 720 016e A2000000 		.4byte	0xa2
 721 0172 1E       		.byte	0x1e
 722 0173 06       		.uleb128 0x6
 723 0174 C1030000 		.4byte	.LASF31
 724 0178 06       		.byte	0x6
 725 0179 89       		.byte	0x89
 726 017a E2020000 		.4byte	0x2e2
ARM GAS  /tmp/ccZFhEbD.s 			page 14


 727 017e 20       		.byte	0x20
 728 017f 07       		.uleb128 0x7
 729 0180 705F7500 		.ascii	"p_u\000"
 730 0184 06       		.byte	0x6
 731 0185 AE       		.byte	0xae
 732 0186 B5030000 		.4byte	0x3b5
 733 018a 24       		.byte	0x24
 734 018b 06       		.uleb128 0x6
 735 018c 53040000 		.4byte	.LASF32
 736 0190 06       		.byte	0x6
 737 0191 B3       		.byte	0xb3
 738 0192 27020000 		.4byte	0x227
 739 0196 28       		.byte	0x28
 740 0197 06       		.uleb128 0x6
 741 0198 CF030000 		.4byte	.LASF33
 742 019c 06       		.byte	0x6
 743 019d B9       		.byte	0xb9
 744 019e 07020000 		.4byte	0x207
 745 01a2 2C       		.byte	0x2c
 746 01a3 06       		.uleb128 0x6
 747 01a4 0D000000 		.4byte	.LASF34
 748 01a8 06       		.byte	0x6
 749 01a9 BD       		.byte	0xbd
 750 01aa B8000000 		.4byte	0xb8
 751 01ae 34       		.byte	0x34
 752 01af 06       		.uleb128 0x6
 753 01b0 27030000 		.4byte	.LASF35
 754 01b4 06       		.byte	0x6
 755 01b5 C3       		.byte	0xc3
 756 01b6 C3000000 		.4byte	0xc3
 757 01ba 38       		.byte	0x38
 758 01bb 06       		.uleb128 0x6
 759 01bc D1020000 		.4byte	.LASF36
 760 01c0 06       		.byte	0x6
 761 01c1 CA       		.byte	0xca
 762 01c2 FC030000 		.4byte	0x3fc
 763 01c6 3C       		.byte	0x3c
 764 01c7 06       		.uleb128 0x6
 765 01c8 AB030000 		.4byte	.LASF37
 766 01cc 06       		.byte	0x6
 767 01cd CE       		.byte	0xce
 768 01ce AD000000 		.4byte	0xad
 769 01d2 40       		.byte	0x40
 770 01d3 06       		.uleb128 0x6
 771 01d4 1F010000 		.4byte	.LASF38
 772 01d8 06       		.byte	0x6
 773 01d9 D4       		.byte	0xd4
 774 01da 3D020000 		.4byte	0x23d
 775 01de 44       		.byte	0x44
 776 01df 00       		.byte	0
 777 01e0 08       		.uleb128 0x8
 778 01e1 08       		.byte	0x8
 779 01e2 05       		.byte	0x5
 780 01e3 61       		.byte	0x61
 781 01e4 01020000 		.4byte	0x201
 782 01e8 06       		.uleb128 0x6
 783 01e9 FB020000 		.4byte	.LASF21
ARM GAS  /tmp/ccZFhEbD.s 			page 15


 784 01ed 05       		.byte	0x5
 785 01ee 62       		.byte	0x62
 786 01ef 01020000 		.4byte	0x201
 787 01f3 00       		.byte	0
 788 01f4 06       		.uleb128 0x6
 789 01f5 9E020000 		.4byte	.LASF22
 790 01f9 05       		.byte	0x5
 791 01fa 64       		.byte	0x64
 792 01fb 01020000 		.4byte	0x201
 793 01ff 04       		.byte	0x4
 794 0200 00       		.byte	0
 795 0201 09       		.uleb128 0x9
 796 0202 04       		.byte	0x4
 797 0203 E4000000 		.4byte	0xe4
 798 0207 04       		.uleb128 0x4
 799 0208 00000000 		.4byte	.LASF39
 800 020c 05       		.byte	0x5
 801 020d 66       		.byte	0x66
 802 020e E0010000 		.4byte	0x1e0
 803 0212 08       		.uleb128 0x8
 804 0213 04       		.byte	0x4
 805 0214 05       		.byte	0x5
 806 0215 6B       		.byte	0x6b
 807 0216 27020000 		.4byte	0x227
 808 021a 06       		.uleb128 0x6
 809 021b FB020000 		.4byte	.LASF21
 810 021f 05       		.byte	0x5
 811 0220 6D       		.byte	0x6d
 812 0221 01020000 		.4byte	0x201
 813 0225 00       		.byte	0
 814 0226 00       		.byte	0
 815 0227 04       		.uleb128 0x4
 816 0228 F2010000 		.4byte	.LASF40
 817 022c 05       		.byte	0x5
 818 022d 70       		.byte	0x70
 819 022e 12020000 		.4byte	0x212
 820 0232 04       		.uleb128 0x4
 821 0233 75010000 		.4byte	.LASF41
 822 0237 07       		.byte	0x7
 823 0238 D7       		.byte	0xd7
 824 0239 3D020000 		.4byte	0x23d
 825 023d 0A       		.uleb128 0xa
 826 023e 04       		.byte	0x4
 827 023f 05       		.uleb128 0x5
 828 0240 C8030000 		.4byte	.LASF42
 829 0244 24       		.byte	0x24
 830 0245 07       		.byte	0x7
 831 0246 FE       		.byte	0xfe
 832 0247 BA020000 		.4byte	0x2ba
 833 024b 0B       		.uleb128 0xb
 834 024c 723400   		.ascii	"r4\000"
 835 024f 07       		.byte	0x7
 836 0250 1101     		.2byte	0x111
 837 0252 32020000 		.4byte	0x232
 838 0256 00       		.byte	0
 839 0257 0B       		.uleb128 0xb
 840 0258 723500   		.ascii	"r5\000"
ARM GAS  /tmp/ccZFhEbD.s 			page 16


 841 025b 07       		.byte	0x7
 842 025c 1201     		.2byte	0x112
 843 025e 32020000 		.4byte	0x232
 844 0262 04       		.byte	0x4
 845 0263 0B       		.uleb128 0xb
 846 0264 723600   		.ascii	"r6\000"
 847 0267 07       		.byte	0x7
 848 0268 1301     		.2byte	0x113
 849 026a 32020000 		.4byte	0x232
 850 026e 08       		.byte	0x8
 851 026f 0B       		.uleb128 0xb
 852 0270 723700   		.ascii	"r7\000"
 853 0273 07       		.byte	0x7
 854 0274 1401     		.2byte	0x114
 855 0276 32020000 		.4byte	0x232
 856 027a 0C       		.byte	0xc
 857 027b 0B       		.uleb128 0xb
 858 027c 723800   		.ascii	"r8\000"
 859 027f 07       		.byte	0x7
 860 0280 1501     		.2byte	0x115
 861 0282 32020000 		.4byte	0x232
 862 0286 10       		.byte	0x10
 863 0287 0B       		.uleb128 0xb
 864 0288 723900   		.ascii	"r9\000"
 865 028b 07       		.byte	0x7
 866 028c 1601     		.2byte	0x116
 867 028e 32020000 		.4byte	0x232
 868 0292 14       		.byte	0x14
 869 0293 0B       		.uleb128 0xb
 870 0294 72313000 		.ascii	"r10\000"
 871 0298 07       		.byte	0x7
 872 0299 1701     		.2byte	0x117
 873 029b 32020000 		.4byte	0x232
 874 029f 18       		.byte	0x18
 875 02a0 0B       		.uleb128 0xb
 876 02a1 72313100 		.ascii	"r11\000"
 877 02a5 07       		.byte	0x7
 878 02a6 1801     		.2byte	0x118
 879 02a8 32020000 		.4byte	0x232
 880 02ac 1C       		.byte	0x1c
 881 02ad 0B       		.uleb128 0xb
 882 02ae 6C7200   		.ascii	"lr\000"
 883 02b1 07       		.byte	0x7
 884 02b2 1901     		.2byte	0x119
 885 02b4 32020000 		.4byte	0x232
 886 02b8 20       		.byte	0x20
 887 02b9 00       		.byte	0
 888 02ba 0C       		.uleb128 0xc
 889 02bb BD010000 		.4byte	.LASF43
 890 02bf 04       		.byte	0x4
 891 02c0 07       		.byte	0x7
 892 02c1 2301     		.2byte	0x123
 893 02c3 D5020000 		.4byte	0x2d5
 894 02c7 0B       		.uleb128 0xb
 895 02c8 72313300 		.ascii	"r13\000"
 896 02cc 07       		.byte	0x7
 897 02cd 2401     		.2byte	0x124
ARM GAS  /tmp/ccZFhEbD.s 			page 17


 898 02cf D5020000 		.4byte	0x2d5
 899 02d3 00       		.byte	0
 900 02d4 00       		.byte	0
 901 02d5 09       		.uleb128 0x9
 902 02d6 04       		.byte	0x4
 903 02d7 3F020000 		.4byte	0x23f
 904 02db 03       		.uleb128 0x3
 905 02dc 04       		.byte	0x4
 906 02dd 07       		.byte	0x7
 907 02de 10020000 		.4byte	.LASF44
 908 02e2 0D       		.uleb128 0xd
 909 02e3 CE000000 		.4byte	0xce
 910 02e7 08       		.uleb128 0x8
 911 02e8 20       		.byte	0x20
 912 02e9 08       		.byte	0x8
 913 02ea 5E       		.byte	0x5e
 914 02eb 44030000 		.4byte	0x344
 915 02ef 06       		.uleb128 0x6
 916 02f0 3B030000 		.4byte	.LASF45
 917 02f4 08       		.byte	0x8
 918 02f5 5F       		.byte	0x5f
 919 02f6 07020000 		.4byte	0x207
 920 02fa 00       		.byte	0
 921 02fb 06       		.uleb128 0x6
 922 02fc ED020000 		.4byte	.LASF46
 923 0300 08       		.byte	0x8
 924 0301 60       		.byte	0x60
 925 0302 AD000000 		.4byte	0xad
 926 0306 08       		.byte	0x8
 927 0307 06       		.uleb128 0x6
 928 0308 34020000 		.4byte	.LASF47
 929 030c 08       		.byte	0x8
 930 030d 62       		.byte	0x62
 931 030e BA020000 		.4byte	0x2ba
 932 0312 0C       		.byte	0xc
 933 0313 06       		.uleb128 0x6
 934 0314 6D010000 		.4byte	.LASF48
 935 0318 08       		.byte	0x8
 936 0319 65       		.byte	0x65
 937 031a 01020000 		.4byte	0x201
 938 031e 10       		.byte	0x10
 939 031f 06       		.uleb128 0x6
 940 0320 7E020000 		.4byte	.LASF49
 941 0324 08       		.byte	0x8
 942 0325 66       		.byte	0x66
 943 0326 01020000 		.4byte	0x201
 944 032a 14       		.byte	0x14
 945 032b 06       		.uleb128 0x6
 946 032c 3B040000 		.4byte	.LASF50
 947 0330 08       		.byte	0x8
 948 0331 6A       		.byte	0x6a
 949 0332 D9000000 		.4byte	0xd9
 950 0336 18       		.byte	0x18
 951 0337 06       		.uleb128 0x6
 952 0338 74020000 		.4byte	.LASF51
 953 033c 08       		.byte	0x8
 954 033d 6C       		.byte	0x6c
ARM GAS  /tmp/ccZFhEbD.s 			page 18


 955 033e 01020000 		.4byte	0x201
 956 0342 1C       		.byte	0x1c
 957 0343 00       		.byte	0
 958 0344 04       		.uleb128 0x4
 959 0345 EE030000 		.4byte	.LASF52
 960 0349 08       		.byte	0x8
 961 034a 6E       		.byte	0x6e
 962 034b E7020000 		.4byte	0x2e7
 963 034f 05       		.uleb128 0x5
 964 0350 0A020000 		.4byte	.LASF53
 965 0354 10       		.byte	0x10
 966 0355 09       		.byte	0x9
 967 0356 2C       		.byte	0x2c
 968 0357 80030000 		.4byte	0x380
 969 035b 06       		.uleb128 0x6
 970 035c 27010000 		.4byte	.LASF54
 971 0360 09       		.byte	0x9
 972 0361 2D       		.byte	0x2d
 973 0362 07020000 		.4byte	0x207
 974 0366 00       		.byte	0
 975 0367 06       		.uleb128 0x6
 976 0368 45040000 		.4byte	.LASF55
 977 036c 09       		.byte	0x9
 978 036d 2F       		.byte	0x2f
 979 036e 01020000 		.4byte	0x201
 980 0372 08       		.byte	0x8
 981 0373 06       		.uleb128 0x6
 982 0374 9A030000 		.4byte	.LASF56
 983 0378 09       		.byte	0x9
 984 0379 31       		.byte	0x31
 985 037a 80030000 		.4byte	0x380
 986 037e 0C       		.byte	0xc
 987 037f 00       		.byte	0
 988 0380 09       		.uleb128 0x9
 989 0381 04       		.byte	0x4
 990 0382 4F030000 		.4byte	0x34f
 991 0386 04       		.uleb128 0x4
 992 0387 0A020000 		.4byte	.LASF53
 993 038b 09       		.byte	0x9
 994 038c 33       		.byte	0x33
 995 038d 4F030000 		.4byte	0x34f
 996 0391 05       		.uleb128 0x5
 997 0392 2F010000 		.4byte	.LASF57
 998 0396 08       		.byte	0x8
 999 0397 0A       		.byte	0xa
 1000 0398 36       		.byte	0x36
 1001 0399 AA030000 		.4byte	0x3aa
 1002 039d 06       		.uleb128 0x6
 1003 039e 11030000 		.4byte	.LASF58
 1004 03a2 0A       		.byte	0xa
 1005 03a3 37       		.byte	0x37
 1006 03a4 07020000 		.4byte	0x207
 1007 03a8 00       		.byte	0
 1008 03a9 00       		.byte	0
 1009 03aa 04       		.uleb128 0x4
 1010 03ab 2F010000 		.4byte	.LASF57
 1011 03af 0A       		.byte	0xa
ARM GAS  /tmp/ccZFhEbD.s 			page 19


 1012 03b0 38       		.byte	0x38
 1013 03b1 91030000 		.4byte	0x391
 1014 03b5 0E       		.uleb128 0xe
 1015 03b6 04       		.byte	0x4
 1016 03b7 06       		.byte	0x6
 1017 03b8 90       		.byte	0x90
 1018 03b9 EA030000 		.4byte	0x3ea
 1019 03bd 0F       		.uleb128 0xf
 1020 03be 1E000000 		.4byte	.LASF59
 1021 03c2 06       		.byte	0x6
 1022 03c3 97       		.byte	0x97
 1023 03c4 B8000000 		.4byte	0xb8
 1024 03c8 0F       		.uleb128 0xf
 1025 03c9 E4000000 		.4byte	.LASF60
 1026 03cd 06       		.byte	0x6
 1027 03ce 9E       		.byte	0x9e
 1028 03cf B8000000 		.4byte	0xb8
 1029 03d3 0F       		.uleb128 0xf
 1030 03d4 06040000 		.4byte	.LASF61
 1031 03d8 06       		.byte	0x6
 1032 03d9 A5       		.byte	0xa5
 1033 03da 3D020000 		.4byte	0x23d
 1034 03de 0F       		.uleb128 0xf
 1035 03df F4020000 		.4byte	.LASF62
 1036 03e3 06       		.byte	0x6
 1037 03e4 AC       		.byte	0xac
 1038 03e5 C3000000 		.4byte	0xc3
 1039 03e9 00       		.byte	0
 1040 03ea 09       		.uleb128 0x9
 1041 03eb 04       		.byte	0x4
 1042 03ec F0030000 		.4byte	0x3f0
 1043 03f0 10       		.uleb128 0x10
 1044 03f1 F5030000 		.4byte	0x3f5
 1045 03f5 03       		.uleb128 0x3
 1046 03f6 01       		.byte	0x1
 1047 03f7 08       		.byte	0x8
 1048 03f8 7D030000 		.4byte	.LASF63
 1049 03fc 09       		.uleb128 0x9
 1050 03fd 04       		.byte	0x4
 1051 03fe 86030000 		.4byte	0x386
 1052 0402 11       		.uleb128 0x11
 1053 0403 82030000 		.4byte	.LASF81
 1054 0407 02       		.byte	0x2
 1055 0408 3B       		.byte	0x3b
 1056 0409 01020000 		.4byte	0x201
 1057 040d 03       		.byte	0x3
 1058 040e 28040000 		.4byte	0x428
 1059 0412 12       		.uleb128 0x12
 1060 0413 74717000 		.ascii	"tqp\000"
 1061 0417 02       		.byte	0x2
 1062 0418 3B       		.byte	0x3b
 1063 0419 28040000 		.4byte	0x428
 1064 041d 13       		.uleb128 0x13
 1065 041e 747000   		.ascii	"tp\000"
 1066 0421 02       		.byte	0x2
 1067 0422 3C       		.byte	0x3c
 1068 0423 01020000 		.4byte	0x201
ARM GAS  /tmp/ccZFhEbD.s 			page 20


 1069 0427 00       		.byte	0
 1070 0428 09       		.uleb128 0x9
 1071 0429 04       		.byte	0x4
 1072 042a 07020000 		.4byte	0x207
 1073 042e 14       		.uleb128 0x14
 1074 042f DE010000 		.4byte	.LASF82
 1075 0433 02       		.byte	0x2
 1076 0434 29       		.byte	0x29
 1077 0435 03       		.byte	0x3
 1078 0436 5A040000 		.4byte	0x45a
 1079 043a 12       		.uleb128 0x12
 1080 043b 747000   		.ascii	"tp\000"
 1081 043e 02       		.byte	0x2
 1082 043f 29       		.byte	0x29
 1083 0440 01020000 		.4byte	0x201
 1084 0444 12       		.uleb128 0x12
 1085 0445 74717000 		.ascii	"tqp\000"
 1086 0449 02       		.byte	0x2
 1087 044a 29       		.byte	0x29
 1088 044b 28040000 		.4byte	0x428
 1089 044f 13       		.uleb128 0x13
 1090 0450 637000   		.ascii	"cp\000"
 1091 0453 02       		.byte	0x2
 1092 0454 2B       		.byte	0x2b
 1093 0455 01020000 		.4byte	0x201
 1094 0459 00       		.byte	0
 1095 045a 15       		.uleb128 0x15
 1096 045b 13000000 		.4byte	.LASF64
 1097 045f 01       		.byte	0x1
 1098 0460 3B       		.byte	0x3b
 1099 0461 00000000 		.4byte	.LFB7
 1100 0465 06000000 		.4byte	.LFE7-.LFB7
 1101 0469 01       		.uleb128 0x1
 1102 046a 9C       		.byte	0x9c
 1103 046b 7C040000 		.4byte	0x47c
 1104 046f 16       		.uleb128 0x16
 1105 0470 637000   		.ascii	"cp\000"
 1106 0473 01       		.byte	0x1
 1107 0474 3B       		.byte	0x3b
 1108 0475 7C040000 		.4byte	0x47c
 1109 0479 01       		.uleb128 0x1
 1110 047a 50       		.byte	0x50
 1111 047b 00       		.byte	0
 1112 047c 09       		.uleb128 0x9
 1113 047d 04       		.byte	0x4
 1114 047e AA030000 		.4byte	0x3aa
 1115 0482 15       		.uleb128 0x15
 1116 0483 7E010000 		.4byte	.LASF65
 1117 0487 01       		.byte	0x1
 1118 0488 49       		.byte	0x49
 1119 0489 00000000 		.4byte	.LFB8
 1120 048d 24000000 		.4byte	.LFE8-.LFB8
 1121 0491 01       		.uleb128 0x1
 1122 0492 9C       		.byte	0x9c
 1123 0493 17050000 		.4byte	0x517
 1124 0497 17       		.uleb128 0x17
 1125 0498 637000   		.ascii	"cp\000"
ARM GAS  /tmp/ccZFhEbD.s 			page 21


 1126 049b 01       		.byte	0x1
 1127 049c 49       		.byte	0x49
 1128 049d 7C040000 		.4byte	0x47c
 1129 04a1 00000000 		.4byte	.LLST0
 1130 04a5 18       		.uleb128 0x18
 1131 04a6 04000000 		.4byte	.LBB14
 1132 04aa 06000000 		.4byte	.LBE14-.LBB14
 1133 04ae C0040000 		.4byte	0x4c0
 1134 04b2 19       		.uleb128 0x19
 1135 04b3 746D7000 		.ascii	"tmp\000"
 1136 04b7 01       		.byte	0x1
 1137 04b8 4D       		.byte	0x4d
 1138 04b9 6C000000 		.4byte	0x6c
 1139 04bd 01       		.uleb128 0x1
 1140 04be 53       		.byte	0x53
 1141 04bf 00       		.byte	0
 1142 04c0 1A       		.uleb128 0x1a
 1143 04c1 02040000 		.4byte	0x402
 1144 04c5 10000000 		.4byte	.LBB15
 1145 04c9 00000000 		.4byte	.Ldebug_ranges0+0
 1146 04cd 01       		.byte	0x1
 1147 04ce 4F       		.byte	0x4f
 1148 04cf EC040000 		.4byte	0x4ec
 1149 04d3 1B       		.uleb128 0x1b
 1150 04d4 12040000 		.4byte	0x412
 1151 04d8 2C000000 		.4byte	.LLST1
 1152 04dc 1C       		.uleb128 0x1c
 1153 04dd 00000000 		.4byte	.Ldebug_ranges0+0
 1154 04e1 1D       		.uleb128 0x1d
 1155 04e2 1D040000 		.4byte	0x41d
 1156 04e6 4D000000 		.4byte	.LLST2
 1157 04ea 00       		.byte	0
 1158 04eb 00       		.byte	0
 1159 04ec 18       		.uleb128 0x18
 1160 04ed 1C000000 		.4byte	.LBB19
 1161 04f1 08000000 		.4byte	.LBE19-.LBB19
 1162 04f5 07050000 		.4byte	0x507
 1163 04f9 19       		.uleb128 0x19
 1164 04fa 746D7000 		.ascii	"tmp\000"
 1165 04fe 01       		.byte	0x1
 1166 04ff 50       		.byte	0x50
 1167 0500 6C000000 		.4byte	0x6c
 1168 0504 01       		.uleb128 0x1
 1169 0505 53       		.byte	0x53
 1170 0506 00       		.byte	0
 1171 0507 1E       		.uleb128 0x1e
 1172 0508 1C000000 		.4byte	.LVL4
 1173 050c D0080000 		.4byte	0x8d0
 1174 0510 1F       		.uleb128 0x1f
 1175 0511 01       		.uleb128 0x1
 1176 0512 51       		.byte	0x51
 1177 0513 01       		.uleb128 0x1
 1178 0514 30       		.byte	0x30
 1179 0515 00       		.byte	0
 1180 0516 00       		.byte	0
 1181 0517 15       		.uleb128 0x15
 1182 0518 AD020000 		.4byte	.LASF66
ARM GAS  /tmp/ccZFhEbD.s 			page 22


 1183 051c 01       		.byte	0x1
 1184 051d 5E       		.byte	0x5e
 1185 051e 00000000 		.4byte	.LFB9
 1186 0522 1A000000 		.4byte	.LFE9-.LFB9
 1187 0526 01       		.uleb128 0x1
 1188 0527 9C       		.byte	0x9c
 1189 0528 74050000 		.4byte	0x574
 1190 052c 17       		.uleb128 0x17
 1191 052d 637000   		.ascii	"cp\000"
 1192 0530 01       		.byte	0x1
 1193 0531 5E       		.byte	0x5e
 1194 0532 7C040000 		.4byte	0x47c
 1195 0536 60000000 		.4byte	.LLST3
 1196 053a 20       		.uleb128 0x20
 1197 053b 02040000 		.4byte	0x402
 1198 053f 0A000000 		.4byte	.LBB20
 1199 0543 06000000 		.4byte	.LBE20-.LBB20
 1200 0547 01       		.byte	0x1
 1201 0548 64       		.byte	0x64
 1202 0549 6A050000 		.4byte	0x56a
 1203 054d 1B       		.uleb128 0x1b
 1204 054e 12040000 		.4byte	0x412
 1205 0552 8C000000 		.4byte	.LLST4
 1206 0556 21       		.uleb128 0x21
 1207 0557 0A000000 		.4byte	.LBB21
 1208 055b 06000000 		.4byte	.LBE21-.LBB21
 1209 055f 1D       		.uleb128 0x1d
 1210 0560 1D040000 		.4byte	0x41d
 1211 0564 AD000000 		.4byte	.LLST5
 1212 0568 00       		.byte	0
 1213 0569 00       		.byte	0
 1214 056a 22       		.uleb128 0x22
 1215 056b 14000000 		.4byte	.LVL8
 1216 056f E6080000 		.4byte	0x8e6
 1217 0573 00       		.byte	0
 1218 0574 15       		.uleb128 0x15
 1219 0575 ED000000 		.4byte	.LASF67
 1220 0579 01       		.byte	0x1
 1221 057a 81       		.byte	0x81
 1222 057b 00000000 		.4byte	.LFB11
 1223 057f 22000000 		.4byte	.LFE11-.LFB11
 1224 0583 01       		.uleb128 0x1
 1225 0584 9C       		.byte	0x9c
 1226 0585 D1050000 		.4byte	0x5d1
 1227 0589 17       		.uleb128 0x17
 1228 058a 637000   		.ascii	"cp\000"
 1229 058d 01       		.byte	0x1
 1230 058e 81       		.byte	0x81
 1231 058f 7C040000 		.4byte	0x47c
 1232 0593 C0000000 		.4byte	.LLST6
 1233 0597 20       		.uleb128 0x20
 1234 0598 02040000 		.4byte	0x402
 1235 059c 0E000000 		.4byte	.LBB22
 1236 05a0 06000000 		.4byte	.LBE22-.LBB22
 1237 05a4 01       		.byte	0x1
 1238 05a5 8A       		.byte	0x8a
 1239 05a6 C7050000 		.4byte	0x5c7
ARM GAS  /tmp/ccZFhEbD.s 			page 23


 1240 05aa 1B       		.uleb128 0x1b
 1241 05ab 12040000 		.4byte	0x412
 1242 05af DE000000 		.4byte	.LLST7
 1243 05b3 21       		.uleb128 0x21
 1244 05b4 0E000000 		.4byte	.LBB23
 1245 05b8 06000000 		.4byte	.LBE23-.LBB23
 1246 05bc 1D       		.uleb128 0x1d
 1247 05bd 1D040000 		.4byte	0x41d
 1248 05c1 F1000000 		.4byte	.LLST8
 1249 05c5 00       		.byte	0
 1250 05c6 00       		.byte	0
 1251 05c7 22       		.uleb128 0x22
 1252 05c8 18000000 		.4byte	.LVL13
 1253 05cc E6080000 		.4byte	0x8e6
 1254 05d0 00       		.byte	0
 1255 05d1 15       		.uleb128 0x15
 1256 05d2 86020000 		.4byte	.LASF68
 1257 05d6 01       		.byte	0x1
 1258 05d7 6E       		.byte	0x6e
 1259 05d8 00000000 		.4byte	.LFB10
 1260 05dc 18000000 		.4byte	.LFE10-.LFB10
 1261 05e0 01       		.uleb128 0x1
 1262 05e1 9C       		.byte	0x9c
 1263 05e2 49060000 		.4byte	0x649
 1264 05e6 17       		.uleb128 0x17
 1265 05e7 637000   		.ascii	"cp\000"
 1266 05ea 01       		.byte	0x1
 1267 05eb 6E       		.byte	0x6e
 1268 05ec 7C040000 		.4byte	0x47c
 1269 05f0 04010000 		.4byte	.LLST9
 1270 05f4 18       		.uleb128 0x18
 1271 05f5 02000000 		.4byte	.LBB24
 1272 05f9 06000000 		.4byte	.LBE24-.LBB24
 1273 05fd 0F060000 		.4byte	0x60f
 1274 0601 19       		.uleb128 0x19
 1275 0602 746D7000 		.ascii	"tmp\000"
 1276 0606 01       		.byte	0x1
 1277 0607 70       		.byte	0x70
 1278 0608 6C000000 		.4byte	0x6c
 1279 060c 01       		.uleb128 0x1
 1280 060d 53       		.byte	0x53
 1281 060e 00       		.byte	0
 1282 060f 18       		.uleb128 0x18
 1283 0610 10000000 		.4byte	.LBB25
 1284 0614 08000000 		.4byte	.LBE25-.LBB25
 1285 0618 2A060000 		.4byte	0x62a
 1286 061c 19       		.uleb128 0x19
 1287 061d 746D7000 		.ascii	"tmp\000"
 1288 0621 01       		.byte	0x1
 1289 0622 73       		.byte	0x73
 1290 0623 6C000000 		.4byte	0x6c
 1291 0627 01       		.uleb128 0x1
 1292 0628 53       		.byte	0x53
 1293 0629 00       		.byte	0
 1294 062a 23       		.uleb128 0x23
 1295 062b 0C000000 		.4byte	.LVL16
 1296 062f 74050000 		.4byte	0x574
ARM GAS  /tmp/ccZFhEbD.s 			page 24


 1297 0633 3F060000 		.4byte	0x63f
 1298 0637 1F       		.uleb128 0x1f
 1299 0638 01       		.uleb128 0x1
 1300 0639 50       		.byte	0x50
 1301 063a 03       		.uleb128 0x3
 1302 063b F3       		.byte	0xf3
 1303 063c 01       		.uleb128 0x1
 1304 063d 50       		.byte	0x50
 1305 063e 00       		.byte	0
 1306 063f 22       		.uleb128 0x22
 1307 0640 10000000 		.4byte	.LVL17
 1308 0644 FB080000 		.4byte	0x8fb
 1309 0648 00       		.byte	0
 1310 0649 24       		.uleb128 0x24
 1311 064a 8E030000 		.4byte	.LASF69
 1312 064e 01       		.byte	0x1
 1313 064f B8       		.byte	0xb8
 1314 0650 B8000000 		.4byte	0xb8
 1315 0654 00000000 		.4byte	.LFB13
 1316 0658 44000000 		.4byte	.LFE13-.LFB13
 1317 065c 01       		.uleb128 0x1
 1318 065d 9C       		.byte	0x9c
 1319 065e FA060000 		.4byte	0x6fa
 1320 0662 17       		.uleb128 0x17
 1321 0663 637000   		.ascii	"cp\000"
 1322 0666 01       		.byte	0x1
 1323 0667 B8       		.byte	0xb8
 1324 0668 7C040000 		.4byte	0x47c
 1325 066c 25010000 		.4byte	.LLST10
 1326 0670 25       		.uleb128 0x25
 1327 0671 63747000 		.ascii	"ctp\000"
 1328 0675 01       		.byte	0x1
 1329 0676 B9       		.byte	0xb9
 1330 0677 01020000 		.4byte	0x201
 1331 067b 43010000 		.4byte	.LLST11
 1332 067f 25       		.uleb128 0x25
 1333 0680 6D7000   		.ascii	"mp\000"
 1334 0683 01       		.byte	0x1
 1335 0684 BA       		.byte	0xba
 1336 0685 FC030000 		.4byte	0x3fc
 1337 0689 56010000 		.4byte	.LLST12
 1338 068d 19       		.uleb128 0x19
 1339 068e 6D736700 		.ascii	"msg\000"
 1340 0692 01       		.byte	0x1
 1341 0693 BB       		.byte	0xbb
 1342 0694 B8000000 		.4byte	0xb8
 1343 0698 01       		.uleb128 0x1
 1344 0699 54       		.byte	0x54
 1345 069a 1A       		.uleb128 0x1a
 1346 069b 2E040000 		.4byte	0x42e
 1347 069f 16000000 		.4byte	.LBB26
 1348 06a3 18000000 		.4byte	.Ldebug_ranges0+0x18
 1349 06a7 01       		.byte	0x1
 1350 06a8 C5       		.byte	0xc5
 1351 06a9 CD060000 		.4byte	0x6cd
 1352 06ad 26       		.uleb128 0x26
 1353 06ae 44040000 		.4byte	0x444
ARM GAS  /tmp/ccZFhEbD.s 			page 25


 1354 06b2 01       		.uleb128 0x1
 1355 06b3 55       		.byte	0x55
 1356 06b4 1B       		.uleb128 0x1b
 1357 06b5 3A040000 		.4byte	0x43a
 1358 06b9 74010000 		.4byte	.LLST13
 1359 06bd 1C       		.uleb128 0x1c
 1360 06be 18000000 		.4byte	.Ldebug_ranges0+0x18
 1361 06c2 1D       		.uleb128 0x1d
 1362 06c3 4F040000 		.4byte	0x44f
 1363 06c7 87010000 		.4byte	.LLST14
 1364 06cb 00       		.byte	0
 1365 06cc 00       		.byte	0
 1366 06cd 22       		.uleb128 0x22
 1367 06ce 12000000 		.4byte	.LVL20
 1368 06d2 02090000 		.4byte	0x902
 1369 06d6 23       		.uleb128 0x23
 1370 06d7 38000000 		.4byte	.LVL25
 1371 06db 0D090000 		.4byte	0x90d
 1372 06df E9060000 		.4byte	0x6e9
 1373 06e3 1F       		.uleb128 0x1f
 1374 06e4 01       		.uleb128 0x1
 1375 06e5 50       		.byte	0x50
 1376 06e6 01       		.uleb128 0x1
 1377 06e7 35       		.byte	0x35
 1378 06e8 00       		.byte	0
 1379 06e9 1E       		.uleb128 0x1e
 1380 06ea 40000000 		.4byte	.LVL27
 1381 06ee 1E090000 		.4byte	0x91e
 1382 06f2 1F       		.uleb128 0x1f
 1383 06f3 01       		.uleb128 0x1
 1384 06f4 50       		.byte	0x50
 1385 06f5 02       		.uleb128 0x2
 1386 06f6 76       		.byte	0x76
 1387 06f7 00       		.sleb128 0
 1388 06f8 00       		.byte	0
 1389 06f9 00       		.byte	0
 1390 06fa 24       		.uleb128 0x24
 1391 06fb B6030000 		.4byte	.LASF70
 1392 06ff 01       		.byte	0x1
 1393 0700 9E       		.byte	0x9e
 1394 0701 B8000000 		.4byte	0xb8
 1395 0705 00000000 		.4byte	.LFB12
 1396 0709 14000000 		.4byte	.LFE12-.LFB12
 1397 070d 01       		.uleb128 0x1
 1398 070e 9C       		.byte	0x9c
 1399 070f 76070000 		.4byte	0x776
 1400 0713 17       		.uleb128 0x17
 1401 0714 637000   		.ascii	"cp\000"
 1402 0717 01       		.byte	0x1
 1403 0718 9E       		.byte	0x9e
 1404 0719 7C040000 		.4byte	0x47c
 1405 071d A5010000 		.4byte	.LLST15
 1406 0721 19       		.uleb128 0x19
 1407 0722 6D736700 		.ascii	"msg\000"
 1408 0726 01       		.byte	0x1
 1409 0727 9F       		.byte	0x9f
 1410 0728 B8000000 		.4byte	0xb8
ARM GAS  /tmp/ccZFhEbD.s 			page 26


 1411 072c 01       		.uleb128 0x1
 1412 072d 50       		.byte	0x50
 1413 072e 18       		.uleb128 0x18
 1414 072f 02000000 		.4byte	.LBB30
 1415 0733 06000000 		.4byte	.LBE30-.LBB30
 1416 0737 49070000 		.4byte	0x749
 1417 073b 19       		.uleb128 0x19
 1418 073c 746D7000 		.ascii	"tmp\000"
 1419 0740 01       		.byte	0x1
 1420 0741 A1       		.byte	0xa1
 1421 0742 6C000000 		.4byte	0x6c
 1422 0746 01       		.uleb128 0x1
 1423 0747 53       		.byte	0x53
 1424 0748 00       		.byte	0
 1425 0749 18       		.uleb128 0x18
 1426 074a 0C000000 		.4byte	.LBB31
 1427 074e 06000000 		.4byte	.LBE31-.LBB31
 1428 0752 64070000 		.4byte	0x764
 1429 0756 19       		.uleb128 0x19
 1430 0757 746D7000 		.ascii	"tmp\000"
 1431 075b 01       		.byte	0x1
 1432 075c A3       		.byte	0xa3
 1433 075d 6C000000 		.4byte	0x6c
 1434 0761 01       		.uleb128 0x1
 1435 0762 53       		.byte	0x53
 1436 0763 00       		.byte	0
 1437 0764 1E       		.uleb128 0x1e
 1438 0765 0C000000 		.4byte	.LVL29
 1439 0769 49060000 		.4byte	0x649
 1440 076d 1F       		.uleb128 0x1f
 1441 076e 01       		.uleb128 0x1
 1442 076f 50       		.byte	0x50
 1443 0770 03       		.uleb128 0x3
 1444 0771 F3       		.byte	0xf3
 1445 0772 01       		.uleb128 0x1
 1446 0773 50       		.byte	0x50
 1447 0774 00       		.byte	0
 1448 0775 00       		.byte	0
 1449 0776 27       		.uleb128 0x27
 1450 0777 19020000 		.4byte	.LASF71
 1451 077b 01       		.byte	0x1
 1452 077c 0E01     		.2byte	0x10e
 1453 077e B8000000 		.4byte	0xb8
 1454 0782 00000000 		.4byte	.LFB15
 1455 0786 50000000 		.4byte	.LFE15-.LFB15
 1456 078a 01       		.uleb128 0x1
 1457 078b 9C       		.byte	0x9c
 1458 078c 33080000 		.4byte	0x833
 1459 0790 28       		.uleb128 0x28
 1460 0791 637000   		.ascii	"cp\000"
 1461 0794 01       		.byte	0x1
 1462 0795 0E01     		.2byte	0x10e
 1463 0797 7C040000 		.4byte	0x47c
 1464 079b C6010000 		.4byte	.LLST16
 1465 079f 29       		.uleb128 0x29
 1466 07a0 6F020000 		.4byte	.LASF72
 1467 07a4 01       		.byte	0x1
ARM GAS  /tmp/ccZFhEbD.s 			page 27


 1468 07a5 0E01     		.2byte	0x10e
 1469 07a7 CE000000 		.4byte	0xce
 1470 07ab E4010000 		.4byte	.LLST17
 1471 07af 2A       		.uleb128 0x2a
 1472 07b0 6D7000   		.ascii	"mp\000"
 1473 07b3 01       		.byte	0x1
 1474 07b4 0F01     		.2byte	0x10f
 1475 07b6 FC030000 		.4byte	0x3fc
 1476 07ba 02020000 		.4byte	.LLST18
 1477 07be 2A       		.uleb128 0x2a
 1478 07bf 6D736700 		.ascii	"msg\000"
 1479 07c3 01       		.byte	0x1
 1480 07c4 1001     		.2byte	0x110
 1481 07c6 B8000000 		.4byte	0xb8
 1482 07ca 20020000 		.4byte	.LLST19
 1483 07ce 2B       		.uleb128 0x2b
 1484 07cf 2E040000 		.4byte	0x42e
 1485 07d3 18000000 		.4byte	.LBB32
 1486 07d7 30000000 		.4byte	.Ldebug_ranges0+0x30
 1487 07db 01       		.byte	0x1
 1488 07dc 1A01     		.2byte	0x11a
 1489 07de 00080000 		.4byte	0x800
 1490 07e2 26       		.uleb128 0x26
 1491 07e3 44040000 		.4byte	0x444
 1492 07e7 01       		.uleb128 0x1
 1493 07e8 56       		.byte	0x56
 1494 07e9 26       		.uleb128 0x26
 1495 07ea 3A040000 		.4byte	0x43a
 1496 07ee 01       		.uleb128 0x1
 1497 07ef 55       		.byte	0x55
 1498 07f0 1C       		.uleb128 0x1c
 1499 07f1 30000000 		.4byte	.Ldebug_ranges0+0x30
 1500 07f5 1D       		.uleb128 0x1d
 1501 07f6 4F040000 		.4byte	0x44f
 1502 07fa 3E020000 		.4byte	.LLST20
 1503 07fe 00       		.byte	0
 1504 07ff 00       		.byte	0
 1505 0800 22       		.uleb128 0x22
 1506 0801 0C000000 		.4byte	.LVL31
 1507 0805 02090000 		.4byte	0x902
 1508 0809 23       		.uleb128 0x23
 1509 080a 3E000000 		.4byte	.LVL37
 1510 080e 2F090000 		.4byte	0x92f
 1511 0812 22080000 		.4byte	0x822
 1512 0816 1F       		.uleb128 0x1f
 1513 0817 01       		.uleb128 0x1
 1514 0818 51       		.byte	0x51
 1515 0819 02       		.uleb128 0x2
 1516 081a 78       		.byte	0x78
 1517 081b 00       		.sleb128 0
 1518 081c 1F       		.uleb128 0x1f
 1519 081d 01       		.uleb128 0x1
 1520 081e 50       		.byte	0x50
 1521 081f 01       		.uleb128 0x1
 1522 0820 35       		.byte	0x35
 1523 0821 00       		.byte	0
 1524 0822 1E       		.uleb128 0x1e
ARM GAS  /tmp/ccZFhEbD.s 			page 28


 1525 0823 4A000000 		.4byte	.LVL40
 1526 0827 1E090000 		.4byte	0x91e
 1527 082b 1F       		.uleb128 0x1f
 1528 082c 01       		.uleb128 0x1
 1529 082d 50       		.byte	0x50
 1530 082e 02       		.uleb128 0x2
 1531 082f 77       		.byte	0x77
 1532 0830 00       		.sleb128 0
 1533 0831 00       		.byte	0
 1534 0832 00       		.byte	0
 1535 0833 24       		.uleb128 0x24
 1536 0834 14040000 		.4byte	.LASF73
 1537 0838 01       		.byte	0x1
 1538 0839 E9       		.byte	0xe9
 1539 083a B8000000 		.4byte	0xb8
 1540 083e 00000000 		.4byte	.LFB14
 1541 0842 14000000 		.4byte	.LFE14-.LFB14
 1542 0846 01       		.uleb128 0x1
 1543 0847 9C       		.byte	0x9c
 1544 0848 C5080000 		.4byte	0x8c5
 1545 084c 17       		.uleb128 0x17
 1546 084d 637000   		.ascii	"cp\000"
 1547 0850 01       		.byte	0x1
 1548 0851 E9       		.byte	0xe9
 1549 0852 7C040000 		.4byte	0x47c
 1550 0856 5C020000 		.4byte	.LLST21
 1551 085a 2C       		.uleb128 0x2c
 1552 085b 6F020000 		.4byte	.LASF72
 1553 085f 01       		.byte	0x1
 1554 0860 E9       		.byte	0xe9
 1555 0861 CE000000 		.4byte	0xce
 1556 0865 7D020000 		.4byte	.LLST22
 1557 0869 19       		.uleb128 0x19
 1558 086a 6D736700 		.ascii	"msg\000"
 1559 086e 01       		.byte	0x1
 1560 086f EA       		.byte	0xea
 1561 0870 B8000000 		.4byte	0xb8
 1562 0874 01       		.uleb128 0x1
 1563 0875 50       		.byte	0x50
 1564 0876 18       		.uleb128 0x18
 1565 0877 02000000 		.4byte	.LBB40
 1566 087b 06000000 		.4byte	.LBE40-.LBB40
 1567 087f 91080000 		.4byte	0x891
 1568 0883 19       		.uleb128 0x19
 1569 0884 746D7000 		.ascii	"tmp\000"
 1570 0888 01       		.byte	0x1
 1571 0889 EC       		.byte	0xec
 1572 088a 6C000000 		.4byte	0x6c
 1573 088e 01       		.uleb128 0x1
 1574 088f 53       		.byte	0x53
 1575 0890 00       		.byte	0
 1576 0891 18       		.uleb128 0x18
 1577 0892 0C000000 		.4byte	.LBB41
 1578 0896 06000000 		.4byte	.LBE41-.LBB41
 1579 089a AC080000 		.4byte	0x8ac
 1580 089e 19       		.uleb128 0x19
 1581 089f 746D7000 		.ascii	"tmp\000"
ARM GAS  /tmp/ccZFhEbD.s 			page 29


 1582 08a3 01       		.byte	0x1
 1583 08a4 EE       		.byte	0xee
 1584 08a5 6C000000 		.4byte	0x6c
 1585 08a9 01       		.uleb128 0x1
 1586 08aa 53       		.byte	0x53
 1587 08ab 00       		.byte	0
 1588 08ac 1E       		.uleb128 0x1e
 1589 08ad 0C000000 		.4byte	.LVL42
 1590 08b1 76070000 		.4byte	0x776
 1591 08b5 1F       		.uleb128 0x1f
 1592 08b6 01       		.uleb128 0x1
 1593 08b7 51       		.byte	0x51
 1594 08b8 03       		.uleb128 0x3
 1595 08b9 F3       		.byte	0xf3
 1596 08ba 01       		.uleb128 0x1
 1597 08bb 51       		.byte	0x51
 1598 08bc 1F       		.uleb128 0x1f
 1599 08bd 01       		.uleb128 0x1
 1600 08be 50       		.byte	0x50
 1601 08bf 03       		.uleb128 0x3
 1602 08c0 F3       		.byte	0xf3
 1603 08c1 01       		.uleb128 0x1
 1604 08c2 50       		.byte	0x50
 1605 08c3 00       		.byte	0
 1606 08c4 00       		.byte	0
 1607 08c5 2D       		.uleb128 0x2d
 1608 08c6 F8030000 		.4byte	.LASF83
 1609 08ca 08       		.byte	0x8
 1610 08cb 72       		.byte	0x72
 1611 08cc 44030000 		.4byte	0x344
 1612 08d0 2E       		.uleb128 0x2e
 1613 08d1 DA030000 		.4byte	.LASF74
 1614 08d5 08       		.byte	0x8
 1615 08d6 9C       		.byte	0x9c
 1616 08d7 E6080000 		.4byte	0x8e6
 1617 08db 2F       		.uleb128 0x2f
 1618 08dc 01020000 		.4byte	0x201
 1619 08e0 2F       		.uleb128 0x2f
 1620 08e1 B8000000 		.4byte	0xb8
 1621 08e5 00       		.byte	0
 1622 08e6 30       		.uleb128 0x30
 1623 08e7 43030000 		.4byte	.LASF84
 1624 08eb 08       		.byte	0x8
 1625 08ec 93       		.byte	0x93
 1626 08ed 01020000 		.4byte	0x201
 1627 08f1 FB080000 		.4byte	0x8fb
 1628 08f5 2F       		.uleb128 0x2f
 1629 08f6 01020000 		.4byte	0x201
 1630 08fa 00       		.byte	0
 1631 08fb 31       		.uleb128 0x31
 1632 08fc 5C010000 		.4byte	.LASF85
 1633 0900 08       		.byte	0x8
 1634 0901 9F       		.byte	0x9f
 1635 0902 32       		.uleb128 0x32
 1636 0903 91010000 		.4byte	.LASF86
 1637 0907 09       		.byte	0x9
 1638 0908 3E       		.byte	0x3e
ARM GAS  /tmp/ccZFhEbD.s 			page 30


 1639 0909 FC030000 		.4byte	0x3fc
 1640 090d 2E       		.uleb128 0x2e
 1641 090e 19030000 		.4byte	.LASF75
 1642 0912 08       		.byte	0x8
 1643 0913 96       		.byte	0x96
 1644 0914 1E090000 		.4byte	0x91e
 1645 0918 2F       		.uleb128 0x2f
 1646 0919 97000000 		.4byte	0x97
 1647 091d 00       		.byte	0
 1648 091e 2E       		.uleb128 0x2e
 1649 091f 49010000 		.4byte	.LASF76
 1650 0923 09       		.byte	0x9
 1651 0924 3A       		.byte	0x3a
 1652 0925 2F090000 		.4byte	0x92f
 1653 0929 2F       		.uleb128 0x2f
 1654 092a FC030000 		.4byte	0x3fc
 1655 092e 00       		.byte	0
 1656 092f 33       		.uleb128 0x33
 1657 0930 26040000 		.4byte	.LASF77
 1658 0934 08       		.byte	0x8
 1659 0935 99       		.byte	0x99
 1660 0936 B8000000 		.4byte	0xb8
 1661 093a 2F       		.uleb128 0x2f
 1662 093b 97000000 		.4byte	0x97
 1663 093f 2F       		.uleb128 0x2f
 1664 0940 CE000000 		.4byte	0xce
 1665 0944 00       		.byte	0
 1666 0945 00       		.byte	0
 1667              		.section	.debug_abbrev,"",%progbits
 1668              	.Ldebug_abbrev0:
 1669 0000 01       		.uleb128 0x1
 1670 0001 11       		.uleb128 0x11
 1671 0002 01       		.byte	0x1
 1672 0003 25       		.uleb128 0x25
 1673 0004 0E       		.uleb128 0xe
 1674 0005 13       		.uleb128 0x13
 1675 0006 0B       		.uleb128 0xb
 1676 0007 03       		.uleb128 0x3
 1677 0008 0E       		.uleb128 0xe
 1678 0009 1B       		.uleb128 0x1b
 1679 000a 0E       		.uleb128 0xe
 1680 000b 55       		.uleb128 0x55
 1681 000c 17       		.uleb128 0x17
 1682 000d 11       		.uleb128 0x11
 1683 000e 01       		.uleb128 0x1
 1684 000f 10       		.uleb128 0x10
 1685 0010 17       		.uleb128 0x17
 1686 0011 00       		.byte	0
 1687 0012 00       		.byte	0
 1688 0013 02       		.uleb128 0x2
 1689 0014 24       		.uleb128 0x24
 1690 0015 00       		.byte	0
 1691 0016 0B       		.uleb128 0xb
 1692 0017 0B       		.uleb128 0xb
 1693 0018 3E       		.uleb128 0x3e
 1694 0019 0B       		.uleb128 0xb
 1695 001a 03       		.uleb128 0x3
ARM GAS  /tmp/ccZFhEbD.s 			page 31


 1696 001b 08       		.uleb128 0x8
 1697 001c 00       		.byte	0
 1698 001d 00       		.byte	0
 1699 001e 03       		.uleb128 0x3
 1700 001f 24       		.uleb128 0x24
 1701 0020 00       		.byte	0
 1702 0021 0B       		.uleb128 0xb
 1703 0022 0B       		.uleb128 0xb
 1704 0023 3E       		.uleb128 0x3e
 1705 0024 0B       		.uleb128 0xb
 1706 0025 03       		.uleb128 0x3
 1707 0026 0E       		.uleb128 0xe
 1708 0027 00       		.byte	0
 1709 0028 00       		.byte	0
 1710 0029 04       		.uleb128 0x4
 1711 002a 16       		.uleb128 0x16
 1712 002b 00       		.byte	0
 1713 002c 03       		.uleb128 0x3
 1714 002d 0E       		.uleb128 0xe
 1715 002e 3A       		.uleb128 0x3a
 1716 002f 0B       		.uleb128 0xb
 1717 0030 3B       		.uleb128 0x3b
 1718 0031 0B       		.uleb128 0xb
 1719 0032 49       		.uleb128 0x49
 1720 0033 13       		.uleb128 0x13
 1721 0034 00       		.byte	0
 1722 0035 00       		.byte	0
 1723 0036 05       		.uleb128 0x5
 1724 0037 13       		.uleb128 0x13
 1725 0038 01       		.byte	0x1
 1726 0039 03       		.uleb128 0x3
 1727 003a 0E       		.uleb128 0xe
 1728 003b 0B       		.uleb128 0xb
 1729 003c 0B       		.uleb128 0xb
 1730 003d 3A       		.uleb128 0x3a
 1731 003e 0B       		.uleb128 0xb
 1732 003f 3B       		.uleb128 0x3b
 1733 0040 0B       		.uleb128 0xb
 1734 0041 01       		.uleb128 0x1
 1735 0042 13       		.uleb128 0x13
 1736 0043 00       		.byte	0
 1737 0044 00       		.byte	0
 1738 0045 06       		.uleb128 0x6
 1739 0046 0D       		.uleb128 0xd
 1740 0047 00       		.byte	0
 1741 0048 03       		.uleb128 0x3
 1742 0049 0E       		.uleb128 0xe
 1743 004a 3A       		.uleb128 0x3a
 1744 004b 0B       		.uleb128 0xb
 1745 004c 3B       		.uleb128 0x3b
 1746 004d 0B       		.uleb128 0xb
 1747 004e 49       		.uleb128 0x49
 1748 004f 13       		.uleb128 0x13
 1749 0050 38       		.uleb128 0x38
 1750 0051 0B       		.uleb128 0xb
 1751 0052 00       		.byte	0
 1752 0053 00       		.byte	0
ARM GAS  /tmp/ccZFhEbD.s 			page 32


 1753 0054 07       		.uleb128 0x7
 1754 0055 0D       		.uleb128 0xd
 1755 0056 00       		.byte	0
 1756 0057 03       		.uleb128 0x3
 1757 0058 08       		.uleb128 0x8
 1758 0059 3A       		.uleb128 0x3a
 1759 005a 0B       		.uleb128 0xb
 1760 005b 3B       		.uleb128 0x3b
 1761 005c 0B       		.uleb128 0xb
 1762 005d 49       		.uleb128 0x49
 1763 005e 13       		.uleb128 0x13
 1764 005f 38       		.uleb128 0x38
 1765 0060 0B       		.uleb128 0xb
 1766 0061 00       		.byte	0
 1767 0062 00       		.byte	0
 1768 0063 08       		.uleb128 0x8
 1769 0064 13       		.uleb128 0x13
 1770 0065 01       		.byte	0x1
 1771 0066 0B       		.uleb128 0xb
 1772 0067 0B       		.uleb128 0xb
 1773 0068 3A       		.uleb128 0x3a
 1774 0069 0B       		.uleb128 0xb
 1775 006a 3B       		.uleb128 0x3b
 1776 006b 0B       		.uleb128 0xb
 1777 006c 01       		.uleb128 0x1
 1778 006d 13       		.uleb128 0x13
 1779 006e 00       		.byte	0
 1780 006f 00       		.byte	0
 1781 0070 09       		.uleb128 0x9
 1782 0071 0F       		.uleb128 0xf
 1783 0072 00       		.byte	0
 1784 0073 0B       		.uleb128 0xb
 1785 0074 0B       		.uleb128 0xb
 1786 0075 49       		.uleb128 0x49
 1787 0076 13       		.uleb128 0x13
 1788 0077 00       		.byte	0
 1789 0078 00       		.byte	0
 1790 0079 0A       		.uleb128 0xa
 1791 007a 0F       		.uleb128 0xf
 1792 007b 00       		.byte	0
 1793 007c 0B       		.uleb128 0xb
 1794 007d 0B       		.uleb128 0xb
 1795 007e 00       		.byte	0
 1796 007f 00       		.byte	0
 1797 0080 0B       		.uleb128 0xb
 1798 0081 0D       		.uleb128 0xd
 1799 0082 00       		.byte	0
 1800 0083 03       		.uleb128 0x3
 1801 0084 08       		.uleb128 0x8
 1802 0085 3A       		.uleb128 0x3a
 1803 0086 0B       		.uleb128 0xb
 1804 0087 3B       		.uleb128 0x3b
 1805 0088 05       		.uleb128 0x5
 1806 0089 49       		.uleb128 0x49
 1807 008a 13       		.uleb128 0x13
 1808 008b 38       		.uleb128 0x38
 1809 008c 0B       		.uleb128 0xb
ARM GAS  /tmp/ccZFhEbD.s 			page 33


 1810 008d 00       		.byte	0
 1811 008e 00       		.byte	0
 1812 008f 0C       		.uleb128 0xc
 1813 0090 13       		.uleb128 0x13
 1814 0091 01       		.byte	0x1
 1815 0092 03       		.uleb128 0x3
 1816 0093 0E       		.uleb128 0xe
 1817 0094 0B       		.uleb128 0xb
 1818 0095 0B       		.uleb128 0xb
 1819 0096 3A       		.uleb128 0x3a
 1820 0097 0B       		.uleb128 0xb
 1821 0098 3B       		.uleb128 0x3b
 1822 0099 05       		.uleb128 0x5
 1823 009a 01       		.uleb128 0x1
 1824 009b 13       		.uleb128 0x13
 1825 009c 00       		.byte	0
 1826 009d 00       		.byte	0
 1827 009e 0D       		.uleb128 0xd
 1828 009f 35       		.uleb128 0x35
 1829 00a0 00       		.byte	0
 1830 00a1 49       		.uleb128 0x49
 1831 00a2 13       		.uleb128 0x13
 1832 00a3 00       		.byte	0
 1833 00a4 00       		.byte	0
 1834 00a5 0E       		.uleb128 0xe
 1835 00a6 17       		.uleb128 0x17
 1836 00a7 01       		.byte	0x1
 1837 00a8 0B       		.uleb128 0xb
 1838 00a9 0B       		.uleb128 0xb
 1839 00aa 3A       		.uleb128 0x3a
 1840 00ab 0B       		.uleb128 0xb
 1841 00ac 3B       		.uleb128 0x3b
 1842 00ad 0B       		.uleb128 0xb
 1843 00ae 01       		.uleb128 0x1
 1844 00af 13       		.uleb128 0x13
 1845 00b0 00       		.byte	0
 1846 00b1 00       		.byte	0
 1847 00b2 0F       		.uleb128 0xf
 1848 00b3 0D       		.uleb128 0xd
 1849 00b4 00       		.byte	0
 1850 00b5 03       		.uleb128 0x3
 1851 00b6 0E       		.uleb128 0xe
 1852 00b7 3A       		.uleb128 0x3a
 1853 00b8 0B       		.uleb128 0xb
 1854 00b9 3B       		.uleb128 0x3b
 1855 00ba 0B       		.uleb128 0xb
 1856 00bb 49       		.uleb128 0x49
 1857 00bc 13       		.uleb128 0x13
 1858 00bd 00       		.byte	0
 1859 00be 00       		.byte	0
 1860 00bf 10       		.uleb128 0x10
 1861 00c0 26       		.uleb128 0x26
 1862 00c1 00       		.byte	0
 1863 00c2 49       		.uleb128 0x49
 1864 00c3 13       		.uleb128 0x13
 1865 00c4 00       		.byte	0
 1866 00c5 00       		.byte	0
ARM GAS  /tmp/ccZFhEbD.s 			page 34


 1867 00c6 11       		.uleb128 0x11
 1868 00c7 2E       		.uleb128 0x2e
 1869 00c8 01       		.byte	0x1
 1870 00c9 03       		.uleb128 0x3
 1871 00ca 0E       		.uleb128 0xe
 1872 00cb 3A       		.uleb128 0x3a
 1873 00cc 0B       		.uleb128 0xb
 1874 00cd 3B       		.uleb128 0x3b
 1875 00ce 0B       		.uleb128 0xb
 1876 00cf 27       		.uleb128 0x27
 1877 00d0 19       		.uleb128 0x19
 1878 00d1 49       		.uleb128 0x49
 1879 00d2 13       		.uleb128 0x13
 1880 00d3 20       		.uleb128 0x20
 1881 00d4 0B       		.uleb128 0xb
 1882 00d5 01       		.uleb128 0x1
 1883 00d6 13       		.uleb128 0x13
 1884 00d7 00       		.byte	0
 1885 00d8 00       		.byte	0
 1886 00d9 12       		.uleb128 0x12
 1887 00da 05       		.uleb128 0x5
 1888 00db 00       		.byte	0
 1889 00dc 03       		.uleb128 0x3
 1890 00dd 08       		.uleb128 0x8
 1891 00de 3A       		.uleb128 0x3a
 1892 00df 0B       		.uleb128 0xb
 1893 00e0 3B       		.uleb128 0x3b
 1894 00e1 0B       		.uleb128 0xb
 1895 00e2 49       		.uleb128 0x49
 1896 00e3 13       		.uleb128 0x13
 1897 00e4 00       		.byte	0
 1898 00e5 00       		.byte	0
 1899 00e6 13       		.uleb128 0x13
 1900 00e7 34       		.uleb128 0x34
 1901 00e8 00       		.byte	0
 1902 00e9 03       		.uleb128 0x3
 1903 00ea 08       		.uleb128 0x8
 1904 00eb 3A       		.uleb128 0x3a
 1905 00ec 0B       		.uleb128 0xb
 1906 00ed 3B       		.uleb128 0x3b
 1907 00ee 0B       		.uleb128 0xb
 1908 00ef 49       		.uleb128 0x49
 1909 00f0 13       		.uleb128 0x13
 1910 00f1 00       		.byte	0
 1911 00f2 00       		.byte	0
 1912 00f3 14       		.uleb128 0x14
 1913 00f4 2E       		.uleb128 0x2e
 1914 00f5 01       		.byte	0x1
 1915 00f6 03       		.uleb128 0x3
 1916 00f7 0E       		.uleb128 0xe
 1917 00f8 3A       		.uleb128 0x3a
 1918 00f9 0B       		.uleb128 0xb
 1919 00fa 3B       		.uleb128 0x3b
 1920 00fb 0B       		.uleb128 0xb
 1921 00fc 27       		.uleb128 0x27
 1922 00fd 19       		.uleb128 0x19
 1923 00fe 20       		.uleb128 0x20
ARM GAS  /tmp/ccZFhEbD.s 			page 35


 1924 00ff 0B       		.uleb128 0xb
 1925 0100 01       		.uleb128 0x1
 1926 0101 13       		.uleb128 0x13
 1927 0102 00       		.byte	0
 1928 0103 00       		.byte	0
 1929 0104 15       		.uleb128 0x15
 1930 0105 2E       		.uleb128 0x2e
 1931 0106 01       		.byte	0x1
 1932 0107 3F       		.uleb128 0x3f
 1933 0108 19       		.uleb128 0x19
 1934 0109 03       		.uleb128 0x3
 1935 010a 0E       		.uleb128 0xe
 1936 010b 3A       		.uleb128 0x3a
 1937 010c 0B       		.uleb128 0xb
 1938 010d 3B       		.uleb128 0x3b
 1939 010e 0B       		.uleb128 0xb
 1940 010f 27       		.uleb128 0x27
 1941 0110 19       		.uleb128 0x19
 1942 0111 11       		.uleb128 0x11
 1943 0112 01       		.uleb128 0x1
 1944 0113 12       		.uleb128 0x12
 1945 0114 06       		.uleb128 0x6
 1946 0115 40       		.uleb128 0x40
 1947 0116 18       		.uleb128 0x18
 1948 0117 9742     		.uleb128 0x2117
 1949 0119 19       		.uleb128 0x19
 1950 011a 01       		.uleb128 0x1
 1951 011b 13       		.uleb128 0x13
 1952 011c 00       		.byte	0
 1953 011d 00       		.byte	0
 1954 011e 16       		.uleb128 0x16
 1955 011f 05       		.uleb128 0x5
 1956 0120 00       		.byte	0
 1957 0121 03       		.uleb128 0x3
 1958 0122 08       		.uleb128 0x8
 1959 0123 3A       		.uleb128 0x3a
 1960 0124 0B       		.uleb128 0xb
 1961 0125 3B       		.uleb128 0x3b
 1962 0126 0B       		.uleb128 0xb
 1963 0127 49       		.uleb128 0x49
 1964 0128 13       		.uleb128 0x13
 1965 0129 02       		.uleb128 0x2
 1966 012a 18       		.uleb128 0x18
 1967 012b 00       		.byte	0
 1968 012c 00       		.byte	0
 1969 012d 17       		.uleb128 0x17
 1970 012e 05       		.uleb128 0x5
 1971 012f 00       		.byte	0
 1972 0130 03       		.uleb128 0x3
 1973 0131 08       		.uleb128 0x8
 1974 0132 3A       		.uleb128 0x3a
 1975 0133 0B       		.uleb128 0xb
 1976 0134 3B       		.uleb128 0x3b
 1977 0135 0B       		.uleb128 0xb
 1978 0136 49       		.uleb128 0x49
 1979 0137 13       		.uleb128 0x13
 1980 0138 02       		.uleb128 0x2
ARM GAS  /tmp/ccZFhEbD.s 			page 36


 1981 0139 17       		.uleb128 0x17
 1982 013a 00       		.byte	0
 1983 013b 00       		.byte	0
 1984 013c 18       		.uleb128 0x18
 1985 013d 0B       		.uleb128 0xb
 1986 013e 01       		.byte	0x1
 1987 013f 11       		.uleb128 0x11
 1988 0140 01       		.uleb128 0x1
 1989 0141 12       		.uleb128 0x12
 1990 0142 06       		.uleb128 0x6
 1991 0143 01       		.uleb128 0x1
 1992 0144 13       		.uleb128 0x13
 1993 0145 00       		.byte	0
 1994 0146 00       		.byte	0
 1995 0147 19       		.uleb128 0x19
 1996 0148 34       		.uleb128 0x34
 1997 0149 00       		.byte	0
 1998 014a 03       		.uleb128 0x3
 1999 014b 08       		.uleb128 0x8
 2000 014c 3A       		.uleb128 0x3a
 2001 014d 0B       		.uleb128 0xb
 2002 014e 3B       		.uleb128 0x3b
 2003 014f 0B       		.uleb128 0xb
 2004 0150 49       		.uleb128 0x49
 2005 0151 13       		.uleb128 0x13
 2006 0152 02       		.uleb128 0x2
 2007 0153 18       		.uleb128 0x18
 2008 0154 00       		.byte	0
 2009 0155 00       		.byte	0
 2010 0156 1A       		.uleb128 0x1a
 2011 0157 1D       		.uleb128 0x1d
 2012 0158 01       		.byte	0x1
 2013 0159 31       		.uleb128 0x31
 2014 015a 13       		.uleb128 0x13
 2015 015b 52       		.uleb128 0x52
 2016 015c 01       		.uleb128 0x1
 2017 015d 55       		.uleb128 0x55
 2018 015e 17       		.uleb128 0x17
 2019 015f 58       		.uleb128 0x58
 2020 0160 0B       		.uleb128 0xb
 2021 0161 59       		.uleb128 0x59
 2022 0162 0B       		.uleb128 0xb
 2023 0163 01       		.uleb128 0x1
 2024 0164 13       		.uleb128 0x13
 2025 0165 00       		.byte	0
 2026 0166 00       		.byte	0
 2027 0167 1B       		.uleb128 0x1b
 2028 0168 05       		.uleb128 0x5
 2029 0169 00       		.byte	0
 2030 016a 31       		.uleb128 0x31
 2031 016b 13       		.uleb128 0x13
 2032 016c 02       		.uleb128 0x2
 2033 016d 17       		.uleb128 0x17
 2034 016e 00       		.byte	0
 2035 016f 00       		.byte	0
 2036 0170 1C       		.uleb128 0x1c
 2037 0171 0B       		.uleb128 0xb
ARM GAS  /tmp/ccZFhEbD.s 			page 37


 2038 0172 01       		.byte	0x1
 2039 0173 55       		.uleb128 0x55
 2040 0174 17       		.uleb128 0x17
 2041 0175 00       		.byte	0
 2042 0176 00       		.byte	0
 2043 0177 1D       		.uleb128 0x1d
 2044 0178 34       		.uleb128 0x34
 2045 0179 00       		.byte	0
 2046 017a 31       		.uleb128 0x31
 2047 017b 13       		.uleb128 0x13
 2048 017c 02       		.uleb128 0x2
 2049 017d 17       		.uleb128 0x17
 2050 017e 00       		.byte	0
 2051 017f 00       		.byte	0
 2052 0180 1E       		.uleb128 0x1e
 2053 0181 898201   		.uleb128 0x4109
 2054 0184 01       		.byte	0x1
 2055 0185 11       		.uleb128 0x11
 2056 0186 01       		.uleb128 0x1
 2057 0187 31       		.uleb128 0x31
 2058 0188 13       		.uleb128 0x13
 2059 0189 00       		.byte	0
 2060 018a 00       		.byte	0
 2061 018b 1F       		.uleb128 0x1f
 2062 018c 8A8201   		.uleb128 0x410a
 2063 018f 00       		.byte	0
 2064 0190 02       		.uleb128 0x2
 2065 0191 18       		.uleb128 0x18
 2066 0192 9142     		.uleb128 0x2111
 2067 0194 18       		.uleb128 0x18
 2068 0195 00       		.byte	0
 2069 0196 00       		.byte	0
 2070 0197 20       		.uleb128 0x20
 2071 0198 1D       		.uleb128 0x1d
 2072 0199 01       		.byte	0x1
 2073 019a 31       		.uleb128 0x31
 2074 019b 13       		.uleb128 0x13
 2075 019c 11       		.uleb128 0x11
 2076 019d 01       		.uleb128 0x1
 2077 019e 12       		.uleb128 0x12
 2078 019f 06       		.uleb128 0x6
 2079 01a0 58       		.uleb128 0x58
 2080 01a1 0B       		.uleb128 0xb
 2081 01a2 59       		.uleb128 0x59
 2082 01a3 0B       		.uleb128 0xb
 2083 01a4 01       		.uleb128 0x1
 2084 01a5 13       		.uleb128 0x13
 2085 01a6 00       		.byte	0
 2086 01a7 00       		.byte	0
 2087 01a8 21       		.uleb128 0x21
 2088 01a9 0B       		.uleb128 0xb
 2089 01aa 01       		.byte	0x1
 2090 01ab 11       		.uleb128 0x11
 2091 01ac 01       		.uleb128 0x1
 2092 01ad 12       		.uleb128 0x12
 2093 01ae 06       		.uleb128 0x6
 2094 01af 00       		.byte	0
ARM GAS  /tmp/ccZFhEbD.s 			page 38


 2095 01b0 00       		.byte	0
 2096 01b1 22       		.uleb128 0x22
 2097 01b2 898201   		.uleb128 0x4109
 2098 01b5 00       		.byte	0
 2099 01b6 11       		.uleb128 0x11
 2100 01b7 01       		.uleb128 0x1
 2101 01b8 31       		.uleb128 0x31
 2102 01b9 13       		.uleb128 0x13
 2103 01ba 00       		.byte	0
 2104 01bb 00       		.byte	0
 2105 01bc 23       		.uleb128 0x23
 2106 01bd 898201   		.uleb128 0x4109
 2107 01c0 01       		.byte	0x1
 2108 01c1 11       		.uleb128 0x11
 2109 01c2 01       		.uleb128 0x1
 2110 01c3 31       		.uleb128 0x31
 2111 01c4 13       		.uleb128 0x13
 2112 01c5 01       		.uleb128 0x1
 2113 01c6 13       		.uleb128 0x13
 2114 01c7 00       		.byte	0
 2115 01c8 00       		.byte	0
 2116 01c9 24       		.uleb128 0x24
 2117 01ca 2E       		.uleb128 0x2e
 2118 01cb 01       		.byte	0x1
 2119 01cc 3F       		.uleb128 0x3f
 2120 01cd 19       		.uleb128 0x19
 2121 01ce 03       		.uleb128 0x3
 2122 01cf 0E       		.uleb128 0xe
 2123 01d0 3A       		.uleb128 0x3a
 2124 01d1 0B       		.uleb128 0xb
 2125 01d2 3B       		.uleb128 0x3b
 2126 01d3 0B       		.uleb128 0xb
 2127 01d4 27       		.uleb128 0x27
 2128 01d5 19       		.uleb128 0x19
 2129 01d6 49       		.uleb128 0x49
 2130 01d7 13       		.uleb128 0x13
 2131 01d8 11       		.uleb128 0x11
 2132 01d9 01       		.uleb128 0x1
 2133 01da 12       		.uleb128 0x12
 2134 01db 06       		.uleb128 0x6
 2135 01dc 40       		.uleb128 0x40
 2136 01dd 18       		.uleb128 0x18
 2137 01de 9742     		.uleb128 0x2117
 2138 01e0 19       		.uleb128 0x19
 2139 01e1 01       		.uleb128 0x1
 2140 01e2 13       		.uleb128 0x13
 2141 01e3 00       		.byte	0
 2142 01e4 00       		.byte	0
 2143 01e5 25       		.uleb128 0x25
 2144 01e6 34       		.uleb128 0x34
 2145 01e7 00       		.byte	0
 2146 01e8 03       		.uleb128 0x3
 2147 01e9 08       		.uleb128 0x8
 2148 01ea 3A       		.uleb128 0x3a
 2149 01eb 0B       		.uleb128 0xb
 2150 01ec 3B       		.uleb128 0x3b
 2151 01ed 0B       		.uleb128 0xb
ARM GAS  /tmp/ccZFhEbD.s 			page 39


 2152 01ee 49       		.uleb128 0x49
 2153 01ef 13       		.uleb128 0x13
 2154 01f0 02       		.uleb128 0x2
 2155 01f1 17       		.uleb128 0x17
 2156 01f2 00       		.byte	0
 2157 01f3 00       		.byte	0
 2158 01f4 26       		.uleb128 0x26
 2159 01f5 05       		.uleb128 0x5
 2160 01f6 00       		.byte	0
 2161 01f7 31       		.uleb128 0x31
 2162 01f8 13       		.uleb128 0x13
 2163 01f9 02       		.uleb128 0x2
 2164 01fa 18       		.uleb128 0x18
 2165 01fb 00       		.byte	0
 2166 01fc 00       		.byte	0
 2167 01fd 27       		.uleb128 0x27
 2168 01fe 2E       		.uleb128 0x2e
 2169 01ff 01       		.byte	0x1
 2170 0200 3F       		.uleb128 0x3f
 2171 0201 19       		.uleb128 0x19
 2172 0202 03       		.uleb128 0x3
 2173 0203 0E       		.uleb128 0xe
 2174 0204 3A       		.uleb128 0x3a
 2175 0205 0B       		.uleb128 0xb
 2176 0206 3B       		.uleb128 0x3b
 2177 0207 05       		.uleb128 0x5
 2178 0208 27       		.uleb128 0x27
 2179 0209 19       		.uleb128 0x19
 2180 020a 49       		.uleb128 0x49
 2181 020b 13       		.uleb128 0x13
 2182 020c 11       		.uleb128 0x11
 2183 020d 01       		.uleb128 0x1
 2184 020e 12       		.uleb128 0x12
 2185 020f 06       		.uleb128 0x6
 2186 0210 40       		.uleb128 0x40
 2187 0211 18       		.uleb128 0x18
 2188 0212 9742     		.uleb128 0x2117
 2189 0214 19       		.uleb128 0x19
 2190 0215 01       		.uleb128 0x1
 2191 0216 13       		.uleb128 0x13
 2192 0217 00       		.byte	0
 2193 0218 00       		.byte	0
 2194 0219 28       		.uleb128 0x28
 2195 021a 05       		.uleb128 0x5
 2196 021b 00       		.byte	0
 2197 021c 03       		.uleb128 0x3
 2198 021d 08       		.uleb128 0x8
 2199 021e 3A       		.uleb128 0x3a
 2200 021f 0B       		.uleb128 0xb
 2201 0220 3B       		.uleb128 0x3b
 2202 0221 05       		.uleb128 0x5
 2203 0222 49       		.uleb128 0x49
 2204 0223 13       		.uleb128 0x13
 2205 0224 02       		.uleb128 0x2
 2206 0225 17       		.uleb128 0x17
 2207 0226 00       		.byte	0
 2208 0227 00       		.byte	0
ARM GAS  /tmp/ccZFhEbD.s 			page 40


 2209 0228 29       		.uleb128 0x29
 2210 0229 05       		.uleb128 0x5
 2211 022a 00       		.byte	0
 2212 022b 03       		.uleb128 0x3
 2213 022c 0E       		.uleb128 0xe
 2214 022d 3A       		.uleb128 0x3a
 2215 022e 0B       		.uleb128 0xb
 2216 022f 3B       		.uleb128 0x3b
 2217 0230 05       		.uleb128 0x5
 2218 0231 49       		.uleb128 0x49
 2219 0232 13       		.uleb128 0x13
 2220 0233 02       		.uleb128 0x2
 2221 0234 17       		.uleb128 0x17
 2222 0235 00       		.byte	0
 2223 0236 00       		.byte	0
 2224 0237 2A       		.uleb128 0x2a
 2225 0238 34       		.uleb128 0x34
 2226 0239 00       		.byte	0
 2227 023a 03       		.uleb128 0x3
 2228 023b 08       		.uleb128 0x8
 2229 023c 3A       		.uleb128 0x3a
 2230 023d 0B       		.uleb128 0xb
 2231 023e 3B       		.uleb128 0x3b
 2232 023f 05       		.uleb128 0x5
 2233 0240 49       		.uleb128 0x49
 2234 0241 13       		.uleb128 0x13
 2235 0242 02       		.uleb128 0x2
 2236 0243 17       		.uleb128 0x17
 2237 0244 00       		.byte	0
 2238 0245 00       		.byte	0
 2239 0246 2B       		.uleb128 0x2b
 2240 0247 1D       		.uleb128 0x1d
 2241 0248 01       		.byte	0x1
 2242 0249 31       		.uleb128 0x31
 2243 024a 13       		.uleb128 0x13
 2244 024b 52       		.uleb128 0x52
 2245 024c 01       		.uleb128 0x1
 2246 024d 55       		.uleb128 0x55
 2247 024e 17       		.uleb128 0x17
 2248 024f 58       		.uleb128 0x58
 2249 0250 0B       		.uleb128 0xb
 2250 0251 59       		.uleb128 0x59
 2251 0252 05       		.uleb128 0x5
 2252 0253 01       		.uleb128 0x1
 2253 0254 13       		.uleb128 0x13
 2254 0255 00       		.byte	0
 2255 0256 00       		.byte	0
 2256 0257 2C       		.uleb128 0x2c
 2257 0258 05       		.uleb128 0x5
 2258 0259 00       		.byte	0
 2259 025a 03       		.uleb128 0x3
 2260 025b 0E       		.uleb128 0xe
 2261 025c 3A       		.uleb128 0x3a
 2262 025d 0B       		.uleb128 0xb
 2263 025e 3B       		.uleb128 0x3b
 2264 025f 0B       		.uleb128 0xb
 2265 0260 49       		.uleb128 0x49
ARM GAS  /tmp/ccZFhEbD.s 			page 41


 2266 0261 13       		.uleb128 0x13
 2267 0262 02       		.uleb128 0x2
 2268 0263 17       		.uleb128 0x17
 2269 0264 00       		.byte	0
 2270 0265 00       		.byte	0
 2271 0266 2D       		.uleb128 0x2d
 2272 0267 34       		.uleb128 0x34
 2273 0268 00       		.byte	0
 2274 0269 03       		.uleb128 0x3
 2275 026a 0E       		.uleb128 0xe
 2276 026b 3A       		.uleb128 0x3a
 2277 026c 0B       		.uleb128 0xb
 2278 026d 3B       		.uleb128 0x3b
 2279 026e 0B       		.uleb128 0xb
 2280 026f 49       		.uleb128 0x49
 2281 0270 13       		.uleb128 0x13
 2282 0271 3F       		.uleb128 0x3f
 2283 0272 19       		.uleb128 0x19
 2284 0273 3C       		.uleb128 0x3c
 2285 0274 19       		.uleb128 0x19
 2286 0275 00       		.byte	0
 2287 0276 00       		.byte	0
 2288 0277 2E       		.uleb128 0x2e
 2289 0278 2E       		.uleb128 0x2e
 2290 0279 01       		.byte	0x1
 2291 027a 3F       		.uleb128 0x3f
 2292 027b 19       		.uleb128 0x19
 2293 027c 03       		.uleb128 0x3
 2294 027d 0E       		.uleb128 0xe
 2295 027e 3A       		.uleb128 0x3a
 2296 027f 0B       		.uleb128 0xb
 2297 0280 3B       		.uleb128 0x3b
 2298 0281 0B       		.uleb128 0xb
 2299 0282 27       		.uleb128 0x27
 2300 0283 19       		.uleb128 0x19
 2301 0284 3C       		.uleb128 0x3c
 2302 0285 19       		.uleb128 0x19
 2303 0286 01       		.uleb128 0x1
 2304 0287 13       		.uleb128 0x13
 2305 0288 00       		.byte	0
 2306 0289 00       		.byte	0
 2307 028a 2F       		.uleb128 0x2f
 2308 028b 05       		.uleb128 0x5
 2309 028c 00       		.byte	0
 2310 028d 49       		.uleb128 0x49
 2311 028e 13       		.uleb128 0x13
 2312 028f 00       		.byte	0
 2313 0290 00       		.byte	0
 2314 0291 30       		.uleb128 0x30
 2315 0292 2E       		.uleb128 0x2e
 2316 0293 01       		.byte	0x1
 2317 0294 3F       		.uleb128 0x3f
 2318 0295 19       		.uleb128 0x19
 2319 0296 03       		.uleb128 0x3
 2320 0297 0E       		.uleb128 0xe
 2321 0298 3A       		.uleb128 0x3a
 2322 0299 0B       		.uleb128 0xb
ARM GAS  /tmp/ccZFhEbD.s 			page 42


 2323 029a 3B       		.uleb128 0x3b
 2324 029b 0B       		.uleb128 0xb
 2325 029c 27       		.uleb128 0x27
 2326 029d 19       		.uleb128 0x19
 2327 029e 49       		.uleb128 0x49
 2328 029f 13       		.uleb128 0x13
 2329 02a0 3C       		.uleb128 0x3c
 2330 02a1 19       		.uleb128 0x19
 2331 02a2 01       		.uleb128 0x1
 2332 02a3 13       		.uleb128 0x13
 2333 02a4 00       		.byte	0
 2334 02a5 00       		.byte	0
 2335 02a6 31       		.uleb128 0x31
 2336 02a7 2E       		.uleb128 0x2e
 2337 02a8 00       		.byte	0
 2338 02a9 3F       		.uleb128 0x3f
 2339 02aa 19       		.uleb128 0x19
 2340 02ab 03       		.uleb128 0x3
 2341 02ac 0E       		.uleb128 0xe
 2342 02ad 3A       		.uleb128 0x3a
 2343 02ae 0B       		.uleb128 0xb
 2344 02af 3B       		.uleb128 0x3b
 2345 02b0 0B       		.uleb128 0xb
 2346 02b1 27       		.uleb128 0x27
 2347 02b2 19       		.uleb128 0x19
 2348 02b3 3C       		.uleb128 0x3c
 2349 02b4 19       		.uleb128 0x19
 2350 02b5 00       		.byte	0
 2351 02b6 00       		.byte	0
 2352 02b7 32       		.uleb128 0x32
 2353 02b8 2E       		.uleb128 0x2e
 2354 02b9 00       		.byte	0
 2355 02ba 3F       		.uleb128 0x3f
 2356 02bb 19       		.uleb128 0x19
 2357 02bc 03       		.uleb128 0x3
 2358 02bd 0E       		.uleb128 0xe
 2359 02be 3A       		.uleb128 0x3a
 2360 02bf 0B       		.uleb128 0xb
 2361 02c0 3B       		.uleb128 0x3b
 2362 02c1 0B       		.uleb128 0xb
 2363 02c2 27       		.uleb128 0x27
 2364 02c3 19       		.uleb128 0x19
 2365 02c4 49       		.uleb128 0x49
 2366 02c5 13       		.uleb128 0x13
 2367 02c6 3C       		.uleb128 0x3c
 2368 02c7 19       		.uleb128 0x19
 2369 02c8 00       		.byte	0
 2370 02c9 00       		.byte	0
 2371 02ca 33       		.uleb128 0x33
 2372 02cb 2E       		.uleb128 0x2e
 2373 02cc 01       		.byte	0x1
 2374 02cd 3F       		.uleb128 0x3f
 2375 02ce 19       		.uleb128 0x19
 2376 02cf 03       		.uleb128 0x3
 2377 02d0 0E       		.uleb128 0xe
 2378 02d1 3A       		.uleb128 0x3a
 2379 02d2 0B       		.uleb128 0xb
ARM GAS  /tmp/ccZFhEbD.s 			page 43


 2380 02d3 3B       		.uleb128 0x3b
 2381 02d4 0B       		.uleb128 0xb
 2382 02d5 27       		.uleb128 0x27
 2383 02d6 19       		.uleb128 0x19
 2384 02d7 49       		.uleb128 0x49
 2385 02d8 13       		.uleb128 0x13
 2386 02d9 3C       		.uleb128 0x3c
 2387 02da 19       		.uleb128 0x19
 2388 02db 00       		.byte	0
 2389 02dc 00       		.byte	0
 2390 02dd 00       		.byte	0
 2391              		.section	.debug_loc,"",%progbits
 2392              	.Ldebug_loc0:
 2393              	.LLST0:
 2394 0000 00000000 		.4byte	.LVL1
 2395 0004 0C000000 		.4byte	.LVL2
 2396 0008 0100     		.2byte	0x1
 2397 000a 50       		.byte	0x50
 2398 000b 0C000000 		.4byte	.LVL2
 2399 000f 1B000000 		.4byte	.LVL4-1
 2400 0013 0100     		.2byte	0x1
 2401 0015 52       		.byte	0x52
 2402 0016 1B000000 		.4byte	.LVL4-1
 2403 001a 24000000 		.4byte	.LFE8
 2404 001e 0400     		.2byte	0x4
 2405 0020 F3       		.byte	0xf3
 2406 0021 01       		.uleb128 0x1
 2407 0022 50       		.byte	0x50
 2408 0023 9F       		.byte	0x9f
 2409 0024 00000000 		.4byte	0
 2410 0028 00000000 		.4byte	0
 2411              	.LLST1:
 2412 002c 10000000 		.4byte	.LVL3
 2413 0030 1B000000 		.4byte	.LVL4-1
 2414 0034 0100     		.2byte	0x1
 2415 0036 52       		.byte	0x52
 2416 0037 1B000000 		.4byte	.LVL4-1
 2417 003b 1C000000 		.4byte	.LVL4
 2418 003f 0400     		.2byte	0x4
 2419 0041 F3       		.byte	0xf3
 2420 0042 01       		.uleb128 0x1
 2421 0043 50       		.byte	0x50
 2422 0044 9F       		.byte	0x9f
 2423 0045 00000000 		.4byte	0
 2424 0049 00000000 		.4byte	0
 2425              	.LLST2:
 2426 004d 10000000 		.4byte	.LVL3
 2427 0051 1B000000 		.4byte	.LVL4-1
 2428 0055 0100     		.2byte	0x1
 2429 0057 50       		.byte	0x50
 2430 0058 00000000 		.4byte	0
 2431 005c 00000000 		.4byte	0
 2432              	.LLST3:
 2433 0060 00000000 		.4byte	.LVL5
 2434 0064 06000000 		.4byte	.LVL6
 2435 0068 0100     		.2byte	0x1
 2436 006a 50       		.byte	0x50
ARM GAS  /tmp/ccZFhEbD.s 			page 44


 2437 006b 06000000 		.4byte	.LVL6
 2438 006f 13000000 		.4byte	.LVL8-1
 2439 0073 0100     		.2byte	0x1
 2440 0075 53       		.byte	0x53
 2441 0076 13000000 		.4byte	.LVL8-1
 2442 007a 1A000000 		.4byte	.LFE9
 2443 007e 0400     		.2byte	0x4
 2444 0080 F3       		.byte	0xf3
 2445 0081 01       		.uleb128 0x1
 2446 0082 50       		.byte	0x50
 2447 0083 9F       		.byte	0x9f
 2448 0084 00000000 		.4byte	0
 2449 0088 00000000 		.4byte	0
 2450              	.LLST4:
 2451 008c 0A000000 		.4byte	.LVL7
 2452 0090 13000000 		.4byte	.LVL8-1
 2453 0094 0100     		.2byte	0x1
 2454 0096 53       		.byte	0x53
 2455 0097 13000000 		.4byte	.LVL8-1
 2456 009b 18000000 		.4byte	.LVL9
 2457 009f 0400     		.2byte	0x4
 2458 00a1 F3       		.byte	0xf3
 2459 00a2 01       		.uleb128 0x1
 2460 00a3 50       		.byte	0x50
 2461 00a4 9F       		.byte	0x9f
 2462 00a5 00000000 		.4byte	0
 2463 00a9 00000000 		.4byte	0
 2464              	.LLST5:
 2465 00ad 0A000000 		.4byte	.LVL7
 2466 00b1 13000000 		.4byte	.LVL8-1
 2467 00b5 0100     		.2byte	0x1
 2468 00b7 50       		.byte	0x50
 2469 00b8 00000000 		.4byte	0
 2470 00bc 00000000 		.4byte	0
 2471              	.LLST6:
 2472 00c0 00000000 		.4byte	.LVL10
 2473 00c4 06000000 		.4byte	.LVL11
 2474 00c8 0100     		.2byte	0x1
 2475 00ca 50       		.byte	0x50
 2476 00cb 06000000 		.4byte	.LVL11
 2477 00cf 22000000 		.4byte	.LFE11
 2478 00d3 0100     		.2byte	0x1
 2479 00d5 54       		.byte	0x54
 2480 00d6 00000000 		.4byte	0
 2481 00da 00000000 		.4byte	0
 2482              	.LLST7:
 2483 00de 0E000000 		.4byte	.LVL12
 2484 00e2 20000000 		.4byte	.LVL14
 2485 00e6 0100     		.2byte	0x1
 2486 00e8 54       		.byte	0x54
 2487 00e9 00000000 		.4byte	0
 2488 00ed 00000000 		.4byte	0
 2489              	.LLST8:
 2490 00f1 0E000000 		.4byte	.LVL12
 2491 00f5 17000000 		.4byte	.LVL13-1
 2492 00f9 0100     		.2byte	0x1
 2493 00fb 50       		.byte	0x50
ARM GAS  /tmp/ccZFhEbD.s 			page 45


 2494 00fc 00000000 		.4byte	0
 2495 0100 00000000 		.4byte	0
 2496              	.LLST9:
 2497 0104 00000000 		.4byte	.LVL15
 2498 0108 0B000000 		.4byte	.LVL16-1
 2499 010c 0100     		.2byte	0x1
 2500 010e 50       		.byte	0x50
 2501 010f 0B000000 		.4byte	.LVL16-1
 2502 0113 18000000 		.4byte	.LFE10
 2503 0117 0400     		.2byte	0x4
 2504 0119 F3       		.byte	0xf3
 2505 011a 01       		.uleb128 0x1
 2506 011b 50       		.byte	0x50
 2507 011c 9F       		.byte	0x9f
 2508 011d 00000000 		.4byte	0
 2509 0121 00000000 		.4byte	0
 2510              	.LLST10:
 2511 0125 00000000 		.4byte	.LVL18
 2512 0129 11000000 		.4byte	.LVL20-1
 2513 012d 0100     		.2byte	0x1
 2514 012f 50       		.byte	0x50
 2515 0130 11000000 		.4byte	.LVL20-1
 2516 0134 44000000 		.4byte	.LFE13
 2517 0138 0100     		.2byte	0x1
 2518 013a 55       		.byte	0x55
 2519 013b 00000000 		.4byte	0
 2520 013f 00000000 		.4byte	0
 2521              	.LLST11:
 2522 0143 0C000000 		.4byte	.LVL19
 2523 0147 3A000000 		.4byte	.LVL26
 2524 014b 0100     		.2byte	0x1
 2525 014d 54       		.byte	0x54
 2526 014e 00000000 		.4byte	0
 2527 0152 00000000 		.4byte	0
 2528              	.LLST12:
 2529 0156 16000000 		.4byte	.LVL21
 2530 015a 2C000000 		.4byte	.LVL24
 2531 015e 0100     		.2byte	0x1
 2532 0160 50       		.byte	0x50
 2533 0161 2C000000 		.4byte	.LVL24
 2534 0165 44000000 		.4byte	.LFE13
 2535 0169 0100     		.2byte	0x1
 2536 016b 56       		.byte	0x56
 2537 016c 00000000 		.4byte	0
 2538 0170 00000000 		.4byte	0
 2539              	.LLST13:
 2540 0174 16000000 		.4byte	.LVL21
 2541 0178 3A000000 		.4byte	.LVL26
 2542 017c 0100     		.2byte	0x1
 2543 017e 54       		.byte	0x54
 2544 017f 00000000 		.4byte	0
 2545 0183 00000000 		.4byte	0
 2546              	.LLST14:
 2547 0187 16000000 		.4byte	.LVL21
 2548 018b 1A000000 		.4byte	.LVL22
 2549 018f 0100     		.2byte	0x1
 2550 0191 55       		.byte	0x55
ARM GAS  /tmp/ccZFhEbD.s 			page 46


 2551 0192 1A000000 		.4byte	.LVL22
 2552 0196 37000000 		.4byte	.LVL25-1
 2553 019a 0100     		.2byte	0x1
 2554 019c 53       		.byte	0x53
 2555 019d 00000000 		.4byte	0
 2556 01a1 00000000 		.4byte	0
 2557              	.LLST15:
 2558 01a5 00000000 		.4byte	.LVL28
 2559 01a9 0B000000 		.4byte	.LVL29-1
 2560 01ad 0100     		.2byte	0x1
 2561 01af 50       		.byte	0x50
 2562 01b0 0B000000 		.4byte	.LVL29-1
 2563 01b4 14000000 		.4byte	.LFE12
 2564 01b8 0400     		.2byte	0x4
 2565 01ba F3       		.byte	0xf3
 2566 01bb 01       		.uleb128 0x1
 2567 01bc 50       		.byte	0x50
 2568 01bd 9F       		.byte	0x9f
 2569 01be 00000000 		.4byte	0
 2570 01c2 00000000 		.4byte	0
 2571              	.LLST16:
 2572 01c6 00000000 		.4byte	.LVL30
 2573 01ca 0B000000 		.4byte	.LVL31-1
 2574 01ce 0100     		.2byte	0x1
 2575 01d0 50       		.byte	0x50
 2576 01d1 0B000000 		.4byte	.LVL31-1
 2577 01d5 50000000 		.4byte	.LFE15
 2578 01d9 0100     		.2byte	0x1
 2579 01db 56       		.byte	0x56
 2580 01dc 00000000 		.4byte	0
 2581 01e0 00000000 		.4byte	0
 2582              	.LLST17:
 2583 01e4 00000000 		.4byte	.LVL30
 2584 01e8 0B000000 		.4byte	.LVL31-1
 2585 01ec 0100     		.2byte	0x1
 2586 01ee 51       		.byte	0x51
 2587 01ef 0B000000 		.4byte	.LVL31-1
 2588 01f3 50000000 		.4byte	.LFE15
 2589 01f7 0100     		.2byte	0x1
 2590 01f9 58       		.byte	0x58
 2591 01fa 00000000 		.4byte	0
 2592 01fe 00000000 		.4byte	0
 2593              	.LLST18:
 2594 0202 18000000 		.4byte	.LVL32
 2595 0206 36000000 		.4byte	.LVL36
 2596 020a 0100     		.2byte	0x1
 2597 020c 50       		.byte	0x50
 2598 020d 36000000 		.4byte	.LVL36
 2599 0211 50000000 		.4byte	.LFE15
 2600 0215 0100     		.2byte	0x1
 2601 0217 57       		.byte	0x57
 2602 0218 00000000 		.4byte	0
 2603 021c 00000000 		.4byte	0
 2604              	.LLST19:
 2605 0220 42000000 		.4byte	.LVL38
 2606 0224 46000000 		.4byte	.LVL39
 2607 0228 0100     		.2byte	0x1
ARM GAS  /tmp/ccZFhEbD.s 			page 47


 2608 022a 50       		.byte	0x50
 2609 022b 46000000 		.4byte	.LVL39
 2610 022f 50000000 		.4byte	.LFE15
 2611 0233 0100     		.2byte	0x1
 2612 0235 54       		.byte	0x54
 2613 0236 00000000 		.4byte	0
 2614 023a 00000000 		.4byte	0
 2615              	.LLST20:
 2616 023e 1C000000 		.4byte	.LVL33
 2617 0242 1E000000 		.4byte	.LVL34
 2618 0246 0100     		.2byte	0x1
 2619 0248 56       		.byte	0x56
 2620 0249 1E000000 		.4byte	.LVL34
 2621 024d 3D000000 		.4byte	.LVL37-1
 2622 0251 0100     		.2byte	0x1
 2623 0253 53       		.byte	0x53
 2624 0254 00000000 		.4byte	0
 2625 0258 00000000 		.4byte	0
 2626              	.LLST21:
 2627 025c 00000000 		.4byte	.LVL41
 2628 0260 0B000000 		.4byte	.LVL42-1
 2629 0264 0100     		.2byte	0x1
 2630 0266 50       		.byte	0x50
 2631 0267 0B000000 		.4byte	.LVL42-1
 2632 026b 14000000 		.4byte	.LFE14
 2633 026f 0400     		.2byte	0x4
 2634 0271 F3       		.byte	0xf3
 2635 0272 01       		.uleb128 0x1
 2636 0273 50       		.byte	0x50
 2637 0274 9F       		.byte	0x9f
 2638 0275 00000000 		.4byte	0
 2639 0279 00000000 		.4byte	0
 2640              	.LLST22:
 2641 027d 00000000 		.4byte	.LVL41
 2642 0281 0B000000 		.4byte	.LVL42-1
 2643 0285 0100     		.2byte	0x1
 2644 0287 51       		.byte	0x51
 2645 0288 0B000000 		.4byte	.LVL42-1
 2646 028c 14000000 		.4byte	.LFE14
 2647 0290 0400     		.2byte	0x4
 2648 0292 F3       		.byte	0xf3
 2649 0293 01       		.uleb128 0x1
 2650 0294 51       		.byte	0x51
 2651 0295 9F       		.byte	0x9f
 2652 0296 00000000 		.4byte	0
 2653 029a 00000000 		.4byte	0
 2654              		.section	.debug_aranges,"",%progbits
 2655 0000 5C000000 		.4byte	0x5c
 2656 0004 0200     		.2byte	0x2
 2657 0006 00000000 		.4byte	.Ldebug_info0
 2658 000a 04       		.byte	0x4
 2659 000b 00       		.byte	0
 2660 000c 0000     		.2byte	0
 2661 000e 0000     		.2byte	0
 2662 0010 00000000 		.4byte	.LFB7
 2663 0014 06000000 		.4byte	.LFE7-.LFB7
 2664 0018 00000000 		.4byte	.LFB8
ARM GAS  /tmp/ccZFhEbD.s 			page 48


 2665 001c 24000000 		.4byte	.LFE8-.LFB8
 2666 0020 00000000 		.4byte	.LFB9
 2667 0024 1A000000 		.4byte	.LFE9-.LFB9
 2668 0028 00000000 		.4byte	.LFB11
 2669 002c 22000000 		.4byte	.LFE11-.LFB11
 2670 0030 00000000 		.4byte	.LFB10
 2671 0034 18000000 		.4byte	.LFE10-.LFB10
 2672 0038 00000000 		.4byte	.LFB13
 2673 003c 44000000 		.4byte	.LFE13-.LFB13
 2674 0040 00000000 		.4byte	.LFB12
 2675 0044 14000000 		.4byte	.LFE12-.LFB12
 2676 0048 00000000 		.4byte	.LFB15
 2677 004c 50000000 		.4byte	.LFE15-.LFB15
 2678 0050 00000000 		.4byte	.LFB14
 2679 0054 14000000 		.4byte	.LFE14-.LFB14
 2680 0058 00000000 		.4byte	0
 2681 005c 00000000 		.4byte	0
 2682              		.section	.debug_ranges,"",%progbits
 2683              	.Ldebug_ranges0:
 2684 0000 10000000 		.4byte	.LBB15
 2685 0004 12000000 		.4byte	.LBE15
 2686 0008 14000000 		.4byte	.LBB18
 2687 000c 18000000 		.4byte	.LBE18
 2688 0010 00000000 		.4byte	0
 2689 0014 00000000 		.4byte	0
 2690 0018 16000000 		.4byte	.LBB26
 2691 001c 2A000000 		.4byte	.LBE26
 2692 0020 2C000000 		.4byte	.LBB29
 2693 0024 34000000 		.4byte	.LBE29
 2694 0028 00000000 		.4byte	0
 2695 002c 00000000 		.4byte	0
 2696 0030 18000000 		.4byte	.LBB32
 2697 0034 1A000000 		.4byte	.LBE32
 2698 0038 1E000000 		.4byte	.LBB37
 2699 003c 2E000000 		.4byte	.LBE37
 2700 0040 30000000 		.4byte	.LBB38
 2701 0044 34000000 		.4byte	.LBE38
 2702 0048 36000000 		.4byte	.LBB39
 2703 004c 3A000000 		.4byte	.LBE39
 2704 0050 00000000 		.4byte	0
 2705 0054 00000000 		.4byte	0
 2706 0058 00000000 		.4byte	.LFB7
 2707 005c 06000000 		.4byte	.LFE7
 2708 0060 00000000 		.4byte	.LFB8
 2709 0064 24000000 		.4byte	.LFE8
 2710 0068 00000000 		.4byte	.LFB9
 2711 006c 1A000000 		.4byte	.LFE9
 2712 0070 00000000 		.4byte	.LFB11
 2713 0074 22000000 		.4byte	.LFE11
 2714 0078 00000000 		.4byte	.LFB10
 2715 007c 18000000 		.4byte	.LFE10
 2716 0080 00000000 		.4byte	.LFB13
 2717 0084 44000000 		.4byte	.LFE13
 2718 0088 00000000 		.4byte	.LFB12
 2719 008c 14000000 		.4byte	.LFE12
 2720 0090 00000000 		.4byte	.LFB15
 2721 0094 50000000 		.4byte	.LFE15
ARM GAS  /tmp/ccZFhEbD.s 			page 49


 2722 0098 00000000 		.4byte	.LFB14
 2723 009c 14000000 		.4byte	.LFE14
 2724 00a0 00000000 		.4byte	0
 2725 00a4 00000000 		.4byte	0
 2726              		.section	.debug_line,"",%progbits
 2727              	.Ldebug_line0:
 2728 0000 7B020000 		.section	.debug_str,"MS",%progbits,1
 2728      02003C01 
 2728      00000201 
 2728      FB0E0D00 
 2728      01010101 
 2729              	.LASF39:
 2730 0000 54687265 		.ascii	"ThreadsQueue\000"
 2730      61647351 
 2730      75657565 
 2730      00
 2731              	.LASF34:
 2732 000d 705F6D73 		.ascii	"p_msg\000"
 2732      6700
 2733              	.LASF64:
 2734 0013 6368436F 		.ascii	"chCondInit\000"
 2734      6E64496E 
 2734      697400
 2735              	.LASF59:
 2736 001e 7264796D 		.ascii	"rdymsg\000"
 2736      736700
 2737              	.LASF78:
 2738 0025 474E5520 		.ascii	"GNU C 4.8.1 -mcpu=cortex-m3 -mno-thumb-interwork -m"
 2738      4320342E 
 2738      382E3120 
 2738      2D6D6370 
 2738      753D636F 
 2739 0058 7468756D 		.ascii	"thumb -ggdb -O2 -std=gnu99 -fomit-frame-pointer -fa"
 2739      62202D67 
 2739      67646220 
 2739      2D4F3220 
 2739      2D737464 
 2740 008b 6C69676E 		.ascii	"lign-functions=16 -ffunction-sections -fdata-sectio"
 2740      2D66756E 
 2740      6374696F 
 2740      6E733D31 
 2740      36202D66 
 2741 00be 6E73202D 		.ascii	"ns -fno-common\000"
 2741      666E6F2D 
 2741      636F6D6D 
 2741      6F6E00
 2742              	.LASF11:
 2743 00cd 6C6F6E67 		.ascii	"long long unsigned int\000"
 2743      206C6F6E 
 2743      6720756E 
 2743      7369676E 
 2743      65642069 
 2744              	.LASF60:
 2745 00e4 65786974 		.ascii	"exitcode\000"
 2745      636F6465 
 2745      00
 2746              	.LASF67:
ARM GAS  /tmp/ccZFhEbD.s 			page 50


 2747 00ed 6368436F 		.ascii	"chCondBroadcastI\000"
 2747      6E644272 
 2747      6F616463 
 2747      61737449 
 2747      00
 2748              	.LASF23:
 2749 00fe 705F7072 		.ascii	"p_prio\000"
 2749      696F00
 2750              	.LASF10:
 2751 0105 6C6F6E67 		.ascii	"long long int\000"
 2751      206C6F6E 
 2751      6720696E 
 2751      7400
 2752              	.LASF1:
 2753 0113 7369676E 		.ascii	"signed char\000"
 2753      65642063 
 2753      68617200 
 2754              	.LASF38:
 2755 011f 705F6D70 		.ascii	"p_mpool\000"
 2755      6F6F6C00 
 2756              	.LASF54:
 2757 0127 6D5F7175 		.ascii	"m_queue\000"
 2757      65756500 
 2758              	.LASF57:
 2759 012f 436F6E64 		.ascii	"CondVar\000"
 2759      56617200 
 2760              	.LASF7:
 2761 0137 6C6F6E67 		.ascii	"long int\000"
 2761      20696E74 
 2761      00
 2762              	.LASF13:
 2763 0140 74737461 		.ascii	"tstate_t\000"
 2763      74655F74 
 2763      00
 2764              	.LASF76:
 2765 0149 63684D74 		.ascii	"chMtxLockS\000"
 2765      784C6F63 
 2765      6B5300
 2766              	.LASF25:
 2767 0154 705F6E65 		.ascii	"p_newer\000"
 2767      77657200 
 2768              	.LASF85:
 2769 015c 63685363 		.ascii	"chSchRescheduleS\000"
 2769      68526573 
 2769      63686564 
 2769      756C6553 
 2769      00
 2770              	.LASF48:
 2771 016d 725F6E65 		.ascii	"r_newer\000"
 2771      77657200 
 2772              	.LASF41:
 2773 0175 72656761 		.ascii	"regarm_t\000"
 2773      726D5F74 
 2773      00
 2774              	.LASF65:
 2775 017e 6368436F 		.ascii	"chCondSignal\000"
 2775      6E645369 
ARM GAS  /tmp/ccZFhEbD.s 			page 51


 2775      676E616C 
 2775      00
 2776              	.LASF19:
 2777 018b 636E745F 		.ascii	"cnt_t\000"
 2777      7400
 2778              	.LASF86:
 2779 0191 63684D74 		.ascii	"chMtxUnlockS\000"
 2779      78556E6C 
 2779      6F636B53 
 2779      00
 2780              	.LASF0:
 2781 019e 756E7369 		.ascii	"unsigned int\000"
 2781      676E6564 
 2781      20696E74 
 2781      00
 2782              	.LASF9:
 2783 01ab 6C6F6E67 		.ascii	"long unsigned int\000"
 2783      20756E73 
 2783      69676E65 
 2783      6420696E 
 2783      7400
 2784              	.LASF43:
 2785 01bd 636F6E74 		.ascii	"context\000"
 2785      65787400 
 2786              	.LASF4:
 2787 01c5 73686F72 		.ascii	"short unsigned int\000"
 2787      7420756E 
 2787      7369676E 
 2787      65642069 
 2787      6E7400
 2788              	.LASF16:
 2789 01d8 6D73675F 		.ascii	"msg_t\000"
 2789      7400
 2790              	.LASF82:
 2791 01de 7072696F 		.ascii	"prio_insert\000"
 2791      5F696E73 
 2791      65727400 
 2792              	.LASF12:
 2793 01ea 746D6F64 		.ascii	"tmode_t\000"
 2793      655F7400 
 2794              	.LASF40:
 2795 01f2 54687265 		.ascii	"ThreadsList\000"
 2795      6164734C 
 2795      69737400 
 2796              	.LASF17:
 2797 01fe 6576656E 		.ascii	"eventmask_t\000"
 2797      746D6173 
 2797      6B5F7400 
 2798              	.LASF53:
 2799 020a 4D757465 		.ascii	"Mutex\000"
 2799      7800
 2800              	.LASF44:
 2801 0210 73697A65 		.ascii	"sizetype\000"
 2801      74797065 
 2801      00
 2802              	.LASF71:
 2803 0219 6368436F 		.ascii	"chCondWaitTimeoutS\000"
ARM GAS  /tmp/ccZFhEbD.s 			page 52


 2803      6E645761 
 2803      69745469 
 2803      6D656F75 
 2803      745300
 2804              	.LASF26:
 2805 022c 705F6F6C 		.ascii	"p_older\000"
 2805      64657200 
 2806              	.LASF47:
 2807 0234 725F6374 		.ascii	"r_ctx\000"
 2807      7800
 2808              	.LASF80:
 2809 023a 2F686F6D 		.ascii	"/home/santi/Documentos/ProyectoDron_2018/MCU/creato"
 2809      652F7361 
 2809      6E74692F 
 2809      446F6375 
 2809      6D656E74 
 2810 026d 7200     		.ascii	"r\000"
 2811              	.LASF72:
 2812 026f 74696D65 		.ascii	"time\000"
 2812      00
 2813              	.LASF51:
 2814 0274 725F6375 		.ascii	"r_current\000"
 2814      7272656E 
 2814      7400
 2815              	.LASF49:
 2816 027e 725F6F6C 		.ascii	"r_older\000"
 2816      64657200 
 2817              	.LASF68:
 2818 0286 6368436F 		.ascii	"chCondBroadcast\000"
 2818      6E644272 
 2818      6F616463 
 2818      61737400 
 2819              	.LASF14:
 2820 0296 74726566 		.ascii	"trefs_t\000"
 2820      735F7400 
 2821              	.LASF22:
 2822 029e 705F7072 		.ascii	"p_prev\000"
 2822      657600
 2823              	.LASF15:
 2824 02a5 74707269 		.ascii	"tprio_t\000"
 2824      6F5F7400 
 2825              	.LASF66:
 2826 02ad 6368436F 		.ascii	"chCondSignalI\000"
 2826      6E645369 
 2826      676E616C 
 2826      4900
 2827              	.LASF6:
 2828 02bb 696E7433 		.ascii	"int32_t\000"
 2828      325F7400 
 2829              	.LASF2:
 2830 02c3 756E7369 		.ascii	"unsigned char\000"
 2830      676E6564 
 2830      20636861 
 2830      7200
 2831              	.LASF36:
 2832 02d1 705F6D74 		.ascii	"p_mtxlist\000"
 2832      786C6973 
ARM GAS  /tmp/ccZFhEbD.s 			page 53


 2832      7400
 2833              	.LASF3:
 2834 02db 73686F72 		.ascii	"short int\000"
 2834      7420696E 
 2834      7400
 2835              	.LASF28:
 2836 02e5 705F7374 		.ascii	"p_state\000"
 2836      61746500 
 2837              	.LASF46:
 2838 02ed 725F7072 		.ascii	"r_prio\000"
 2838      696F00
 2839              	.LASF62:
 2840 02f4 65776D61 		.ascii	"ewmask\000"
 2840      736B00
 2841              	.LASF21:
 2842 02fb 705F6E65 		.ascii	"p_next\000"
 2842      787400
 2843              	.LASF29:
 2844 0302 705F666C 		.ascii	"p_flags\000"
 2844      61677300 
 2845              	.LASF20:
 2846 030a 54687265 		.ascii	"Thread\000"
 2846      616400
 2847              	.LASF58:
 2848 0311 635F7175 		.ascii	"c_queue\000"
 2848      65756500 
 2849              	.LASF75:
 2850 0319 63685363 		.ascii	"chSchGoSleepS\000"
 2850      68476F53 
 2850      6C656570 
 2850      5300
 2851              	.LASF35:
 2852 0327 705F6570 		.ascii	"p_epending\000"
 2852      656E6469 
 2852      6E6700
 2853              	.LASF8:
 2854 0332 75696E74 		.ascii	"uint32_t\000"
 2854      33325F74 
 2854      00
 2855              	.LASF45:
 2856 033b 725F7175 		.ascii	"r_queue\000"
 2856      65756500 
 2857              	.LASF84:
 2858 0343 63685363 		.ascii	"chSchReadyI\000"
 2858      68526561 
 2858      64794900 
 2859              	.LASF79:
 2860 034f 2E2E2F74 		.ascii	"../third_party/ChibiOS/os/kernel/src/chcond.c\000"
 2860      68697264 
 2860      5F706172 
 2860      74792F43 
 2860      68696269 
 2861              	.LASF63:
 2862 037d 63686172 		.ascii	"char\000"
 2862      00
 2863              	.LASF81:
 2864 0382 6669666F 		.ascii	"fifo_remove\000"
ARM GAS  /tmp/ccZFhEbD.s 			page 54


 2864      5F72656D 
 2864      6F766500 
 2865              	.LASF69:
 2866 038e 6368436F 		.ascii	"chCondWaitS\000"
 2866      6E645761 
 2866      69745300 
 2867              	.LASF56:
 2868 039a 6D5F6E65 		.ascii	"m_next\000"
 2868      787400
 2869              	.LASF18:
 2870 03a1 73797374 		.ascii	"systime_t\000"
 2870      696D655F 
 2870      7400
 2871              	.LASF37:
 2872 03ab 705F7265 		.ascii	"p_realprio\000"
 2872      616C7072 
 2872      696F00
 2873              	.LASF70:
 2874 03b6 6368436F 		.ascii	"chCondWait\000"
 2874      6E645761 
 2874      697400
 2875              	.LASF31:
 2876 03c1 705F7469 		.ascii	"p_time\000"
 2876      6D6500
 2877              	.LASF42:
 2878 03c8 696E7463 		.ascii	"intctx\000"
 2878      747800
 2879              	.LASF33:
 2880 03cf 705F6D73 		.ascii	"p_msgqueue\000"
 2880      67717565 
 2880      756500
 2881              	.LASF74:
 2882 03da 63685363 		.ascii	"chSchWakeupS\000"
 2882      6857616B 
 2882      65757053 
 2882      00
 2883              	.LASF30:
 2884 03e7 705F7265 		.ascii	"p_refs\000"
 2884      667300
 2885              	.LASF52:
 2886 03ee 52656164 		.ascii	"ReadyList\000"
 2886      794C6973 
 2886      7400
 2887              	.LASF83:
 2888 03f8 726C6973 		.ascii	"rlist\000"
 2888      7400
 2889              	.LASF5:
 2890 03fe 75696E74 		.ascii	"uint8_t\000"
 2890      385F7400 
 2891              	.LASF61:
 2892 0406 77746F62 		.ascii	"wtobjp\000"
 2892      6A7000
 2893              	.LASF27:
 2894 040d 705F6E61 		.ascii	"p_name\000"
 2894      6D6500
 2895              	.LASF73:
 2896 0414 6368436F 		.ascii	"chCondWaitTimeout\000"
ARM GAS  /tmp/ccZFhEbD.s 			page 55


 2896      6E645761 
 2896      69745469 
 2896      6D656F75 
 2896      7400
 2897              	.LASF77:
 2898 0426 63685363 		.ascii	"chSchGoSleepTimeoutS\000"
 2898      68476F53 
 2898      6C656570 
 2898      54696D65 
 2898      6F757453 
 2899              	.LASF50:
 2900 043b 725F7072 		.ascii	"r_preempt\000"
 2900      65656D70 
 2900      7400
 2901              	.LASF55:
 2902 0445 6D5F6F77 		.ascii	"m_owner\000"
 2902      6E657200 
 2903              	.LASF24:
 2904 044d 705F6374 		.ascii	"p_ctx\000"
 2904      7800
 2905              	.LASF32:
 2906 0453 705F7761 		.ascii	"p_waiting\000"
 2906      6974696E 
 2906      6700
 2907              		.ident	"GCC: (Sourcery CodeBench Lite 2013.11-24) 4.8.1"
ARM GAS  /tmp/ccZFhEbD.s 			page 56


DEFINED SYMBOLS
                            *ABS*:00000000 chcond.c
     /tmp/ccZFhEbD.s:19     .text.chCondInit:00000000 $t
     /tmp/ccZFhEbD.s:25     .text.chCondInit:00000000 chCondInit
     /tmp/ccZFhEbD.s:42     .text.chCondSignal:00000000 $t
     /tmp/ccZFhEbD.s:48     .text.chCondSignal:00000000 chCondSignal
     /tmp/ccZFhEbD.s:108    .text.chCondSignalI:00000000 $t
     /tmp/ccZFhEbD.s:114    .text.chCondSignalI:00000000 chCondSignalI
     /tmp/ccZFhEbD.s:153    .text.chCondBroadcastI:00000000 $t
     /tmp/ccZFhEbD.s:159    .text.chCondBroadcastI:00000000 chCondBroadcastI
     /tmp/ccZFhEbD.s:206    .text.chCondBroadcast:00000000 $t
     /tmp/ccZFhEbD.s:212    .text.chCondBroadcast:00000000 chCondBroadcast
     /tmp/ccZFhEbD.s:250    .text.chCondWaitS:00000000 $t
     /tmp/ccZFhEbD.s:256    .text.chCondWaitS:00000000 chCondWaitS
     /tmp/ccZFhEbD.s:341    .text.chCondWait:00000000 $t
     /tmp/ccZFhEbD.s:347    .text.chCondWait:00000000 chCondWait
     /tmp/ccZFhEbD.s:383    .text.chCondWaitTimeoutS:00000000 $t
     /tmp/ccZFhEbD.s:389    .text.chCondWaitTimeoutS:00000000 chCondWaitTimeoutS
     /tmp/ccZFhEbD.s:491    .text.chCondWaitTimeout:00000000 $t
     /tmp/ccZFhEbD.s:497    .text.chCondWaitTimeout:00000000 chCondWaitTimeout
                     .debug_frame:00000010 $d

UNDEFINED SYMBOLS
chSchWakeupS
chSchReadyI
chSchRescheduleS
rlist
chMtxUnlockS
chSchGoSleepS
chMtxLockS
chSchGoSleepTimeoutS
