ARM GAS  /tmp/ccb4cBgo.s 			page 1


   1              		.syntax unified
   2              		.cpu cortex-m3
   3              		.fpu softvfp
   4              		.eabi_attribute 20, 1
   5              		.eabi_attribute 21, 1
   6              		.eabi_attribute 23, 3
   7              		.eabi_attribute 24, 1
   8              		.eabi_attribute 25, 1
   9              		.eabi_attribute 26, 1
  10              		.eabi_attribute 30, 2
  11              		.eabi_attribute 34, 1
  12              		.eabi_attribute 18, 4
  13              		.thumb
  14              		.file	"chdynamic.c"
  15              		.text
  16              	.Ltext0:
  17              		.cfi_sections	.debug_frame
  18              		.section	.text.chThdAddRef,"ax",%progbits
  19              		.align	2
  20              		.p2align 4,,15
  21              		.global	chThdAddRef
  22              		.thumb
  23              		.thumb_func
  24              		.type	chThdAddRef, %function
  25              	chThdAddRef:
  26              	.LFB7:
  27              		.file 1 "../third_party/ChibiOS/os/kernel/src/chdynamic.c"
  28              		.loc 1 52 0
  29              		.cfi_startproc
  30              		@ args = 0, pretend = 0, frame = 0
  31              		@ frame_needed = 0, uses_anonymous_args = 0
  32              		@ link register save eliminated.
  33              	.LVL0:
  34              	.LBB2:
  35              		.loc 1 54 0
  36 0000 2023     		movs	r3, #32
  37              	@ 54 "../third_party/ChibiOS/os/kernel/src/chdynamic.c" 1
  38 0002 83F31188 		msr     BASEPRI, r3
  39              	@ 0 "" 2
  40              		.thumb
  41              	.LBE2:
  42              		.loc 1 56 0
  43 0006 827F     		ldrb	r2, [r0, #30]	@ zero_extendqisi2
  44              	.LBB3:
  45              		.loc 1 57 0
  46 0008 0023     		movs	r3, #0
  47              	.LBE3:
  48              		.loc 1 56 0
  49 000a 0132     		adds	r2, r2, #1
  50 000c 8277     		strb	r2, [r0, #30]
  51              	.LBB4:
  52              		.loc 1 57 0
  53              	@ 57 "../third_party/ChibiOS/os/kernel/src/chdynamic.c" 1
  54 000e 83F31188 		msr     BASEPRI, r3
  55              	@ 0 "" 2
  56              		.thumb
  57              	.LBE4:
ARM GAS  /tmp/ccb4cBgo.s 			page 2


  58              		.loc 1 59 0
  59 0012 7047     		bx	lr
  60              		.cfi_endproc
  61              	.LFE7:
  62              		.size	chThdAddRef, .-chThdAddRef
  63 0014 AFF30080 		.section	.text.chThdRelease,"ax",%progbits
  63      AFF30080 
  63      AFF30080 
  64              		.align	2
  65              		.p2align 4,,15
  66              		.global	chThdRelease
  67              		.thumb
  68              		.thumb_func
  69              		.type	chThdRelease, %function
  70              	chThdRelease:
  71              	.LFB8:
  72              		.loc 1 74 0
  73              		.cfi_startproc
  74              		@ args = 0, pretend = 0, frame = 0
  75              		@ frame_needed = 0, uses_anonymous_args = 0
  76              		@ link register save eliminated.
  77              	.LVL1:
  78              		.loc 1 74 0
  79 0000 0146     		mov	r1, r0
  80              	.LBB5:
  81              		.loc 1 77 0
  82 0002 2023     		movs	r3, #32
  83              	@ 77 "../third_party/ChibiOS/os/kernel/src/chdynamic.c" 1
  84 0004 83F31188 		msr     BASEPRI, r3
  85              	@ 0 "" 2
  86              		.thumb
  87              	.LBE5:
  88              		.loc 1 79 0
  89 0008 827F     		ldrb	r2, [r0, #30]	@ zero_extendqisi2
  90              	.LBB6:
  91              		.loc 1 80 0
  92 000a 0023     		movs	r3, #0
  93              	.LBE6:
  94              		.loc 1 79 0
  95 000c 013A     		subs	r2, r2, #1
  96 000e D2B2     		uxtb	r2, r2
  97 0010 8277     		strb	r2, [r0, #30]
  98              	.LVL2:
  99              	.LBB7:
 100              		.loc 1 80 0
 101              	@ 80 "../third_party/ChibiOS/os/kernel/src/chdynamic.c" 1
 102 0012 83F31188 		msr     BASEPRI, r3
 103              	@ 0 "" 2
 104              		.thumb
 105              	.LBE7:
 106              		.loc 1 85 0
 107 0016 12B9     		cbnz	r2, .L2
 108              		.loc 1 85 0 is_stmt 0 discriminator 1
 109 0018 037F     		ldrb	r3, [r0, #28]	@ zero_extendqisi2
 110 001a 0E2B     		cmp	r3, #14
 111 001c 00D0     		beq	.L7
 112              	.L2:
ARM GAS  /tmp/ccb4cBgo.s 			page 3


 113 001e 7047     		bx	lr
 114              	.L7:
 115              		.loc 1 86 0 is_stmt 1
 116 0020 437F     		ldrb	r3, [r0, #29]	@ zero_extendqisi2
 117 0022 03F00303 		and	r3, r3, #3
 118 0026 012B     		cmp	r3, #1
 119 0028 02D0     		beq	.L4
 120 002a 022B     		cmp	r3, #2
 121 002c 07D0     		beq	.L5
 122 002e 7047     		bx	lr
 123              	.L4:
 124              		.loc 1 90 0
 125 0030 0269     		ldr	r2, [r0, #16]
 126              	.LVL3:
 127 0032 4369     		ldr	r3, [r0, #20]
 128 0034 1A61     		str	r2, [r3, #16]
 129 0036 0A69     		ldr	r2, [r1, #16]
 130 0038 5361     		str	r3, [r2, #20]
 131              		.loc 1 92 0
 132 003a FFF7FEBF 		b	chHeapFree
 133              	.LVL4:
 134              	.L5:
 135              		.loc 1 98 0
 136 003e 0269     		ldr	r2, [r0, #16]
 137              	.LVL5:
 138 0040 4369     		ldr	r3, [r0, #20]
 139              		.loc 1 100 0
 140 0042 406C     		ldr	r0, [r0, #68]
 141              	.LVL6:
 142              		.loc 1 98 0
 143 0044 1A61     		str	r2, [r3, #16]
 144 0046 0A69     		ldr	r2, [r1, #16]
 145 0048 5361     		str	r3, [r2, #20]
 146              		.loc 1 100 0
 147 004a FFF7FEBF 		b	chPoolFree
 148              	.LVL7:
 149              		.cfi_endproc
 150              	.LFE8:
 151              		.size	chThdRelease, .-chThdRelease
 152 004e 00BF     		.section	.text.chThdCreateFromHeap,"ax",%progbits
 153              		.align	2
 154              		.p2align 4,,15
 155              		.global	chThdCreateFromHeap
 156              		.thumb
 157              		.thumb_func
 158              		.type	chThdCreateFromHeap, %function
 159              	chThdCreateFromHeap:
 160              	.LFB9:
 161              		.loc 1 131 0
 162              		.cfi_startproc
 163              		@ args = 4, pretend = 0, frame = 0
 164              		@ frame_needed = 0, uses_anonymous_args = 0
 165              	.LVL8:
 166 0000 70B5     		push	{r4, r5, r6, lr}
 167              		.cfi_def_cfa_offset 16
 168              		.cfi_offset 4, -16
 169              		.cfi_offset 5, -12
ARM GAS  /tmp/ccb4cBgo.s 			page 4


 170              		.cfi_offset 6, -8
 171              		.cfi_offset 14, -4
 172 0002 82B0     		sub	sp, sp, #8
 173              		.cfi_def_cfa_offset 24
 174              		.loc 1 131 0
 175 0004 1646     		mov	r6, r2
 176 0006 1C46     		mov	r4, r3
 177 0008 0D46     		mov	r5, r1
 178              		.loc 1 135 0
 179 000a FFF7FEFF 		bl	chHeapAlloc
 180              	.LVL9:
 181              		.loc 1 136 0
 182 000e 98B1     		cbz	r0, .L9
 183              	.LBB8:
 184              		.loc 1 148 0
 185 0010 2023     		movs	r3, #32
 186              	@ 148 "../third_party/ChibiOS/os/kernel/src/chdynamic.c" 1
 187 0012 83F31188 		msr     BASEPRI, r3
 188              	@ 0 "" 2
 189              		.thumb
 190              	.LBE8:
 191              		.loc 1 149 0
 192 0016 069B     		ldr	r3, [sp, #24]
 193 0018 2946     		mov	r1, r5
 194 001a 0093     		str	r3, [sp]
 195 001c 3246     		mov	r2, r6
 196 001e 2346     		mov	r3, r4
 197 0020 FFF7FEFF 		bl	chThdCreateI
 198              	.LVL10:
 199              		.loc 1 150 0
 200 0024 0123     		movs	r3, #1
 201 0026 4377     		strb	r3, [r0, #29]
 202              		.loc 1 151 0
 203 0028 0021     		movs	r1, #0
 204              		.loc 1 149 0
 205 002a 0446     		mov	r4, r0
 206              	.LVL11:
 207              		.loc 1 151 0
 208 002c FFF7FEFF 		bl	chSchWakeupS
 209              	.LVL12:
 210              	.LBB9:
 211              		.loc 1 152 0
 212 0030 0023     		movs	r3, #0
 213              	@ 152 "../third_party/ChibiOS/os/kernel/src/chdynamic.c" 1
 214 0032 83F31188 		msr     BASEPRI, r3
 215              	@ 0 "" 2
 216              		.thumb
 217              	.LBE9:
 218              		.loc 1 153 0
 219 0036 2046     		mov	r0, r4
 220              	.LVL13:
 221              	.L9:
 222              		.loc 1 154 0
 223 0038 02B0     		add	sp, sp, #8
 224              		@ sp needed
 225 003a 70BD     		pop	{r4, r5, r6, pc}
 226              		.cfi_endproc
ARM GAS  /tmp/ccb4cBgo.s 			page 5


 227              	.LFE9:
 228              		.size	chThdCreateFromHeap, .-chThdCreateFromHeap
 229 003c AFF30080 		.section	.text.chThdCreateFromMemoryPool,"ax",%progbits
 230              		.align	2
 231              		.p2align 4,,15
 232              		.global	chThdCreateFromMemoryPool
 233              		.thumb
 234              		.thumb_func
 235              		.type	chThdCreateFromMemoryPool, %function
 236              	chThdCreateFromMemoryPool:
 237              	.LFB10:
 238              		.loc 1 180 0
 239              		.cfi_startproc
 240              		@ args = 0, pretend = 0, frame = 0
 241              		@ frame_needed = 0, uses_anonymous_args = 0
 242              	.LVL14:
 243 0000 F0B5     		push	{r4, r5, r6, r7, lr}
 244              		.cfi_def_cfa_offset 20
 245              		.cfi_offset 4, -20
 246              		.cfi_offset 5, -16
 247              		.cfi_offset 6, -12
 248              		.cfi_offset 7, -8
 249              		.cfi_offset 14, -4
 250 0002 83B0     		sub	sp, sp, #12
 251              		.cfi_def_cfa_offset 32
 252              		.loc 1 180 0
 253 0004 0F46     		mov	r7, r1
 254 0006 1446     		mov	r4, r2
 255 0008 1E46     		mov	r6, r3
 256 000a 0546     		mov	r5, r0
 257              		.loc 1 186 0
 258 000c FFF7FEFF 		bl	chPoolAlloc
 259              	.LVL15:
 260              		.loc 1 187 0
 261 0010 98B1     		cbz	r0, .L12
 262              	.LBB10:
 263              		.loc 1 199 0
 264 0012 2023     		movs	r3, #32
 265              	@ 199 "../third_party/ChibiOS/os/kernel/src/chdynamic.c" 1
 266 0014 83F31188 		msr     BASEPRI, r3
 267              	@ 0 "" 2
 268              		.thumb
 269              	.LBE10:
 270              		.loc 1 200 0
 271 0018 6968     		ldr	r1, [r5, #4]
 272 001a 3A46     		mov	r2, r7
 273 001c 2346     		mov	r3, r4
 274 001e 0096     		str	r6, [sp]
 275 0020 FFF7FEFF 		bl	chThdCreateI
 276              	.LVL16:
 277              		.loc 1 201 0
 278 0024 0223     		movs	r3, #2
 279 0026 4377     		strb	r3, [r0, #29]
 280              		.loc 1 202 0
 281 0028 4564     		str	r5, [r0, #68]
 282              		.loc 1 203 0
 283 002a 0021     		movs	r1, #0
ARM GAS  /tmp/ccb4cBgo.s 			page 6


 284              		.loc 1 200 0
 285 002c 0446     		mov	r4, r0
 286              	.LVL17:
 287              		.loc 1 203 0
 288 002e FFF7FEFF 		bl	chSchWakeupS
 289              	.LVL18:
 290              	.LBB11:
 291              		.loc 1 204 0
 292 0032 0023     		movs	r3, #0
 293              	@ 204 "../third_party/ChibiOS/os/kernel/src/chdynamic.c" 1
 294 0034 83F31188 		msr     BASEPRI, r3
 295              	@ 0 "" 2
 296              		.thumb
 297              	.LBE11:
 298              		.loc 1 205 0
 299 0038 2046     		mov	r0, r4
 300              	.LVL19:
 301              	.L12:
 302              		.loc 1 206 0
 303 003a 03B0     		add	sp, sp, #12
 304              		@ sp needed
 305 003c F0BD     		pop	{r4, r5, r6, r7, pc}
 306              		.cfi_endproc
 307              	.LFE10:
 308              		.size	chThdCreateFromMemoryPool, .-chThdCreateFromMemoryPool
 309 003e 00BF     		.text
 310              	.Letext0:
 311              		.file 2 "/home/santi/arm-2013.11/lib/gcc/arm-none-eabi/4.8.1/include/stddef.h"
 312              		.file 3 "/home/santi/arm-2013.11/arm-none-eabi/include/stdint.h"
 313              		.file 4 "../third_party/ChibiOS/os/ports/GCC/ARMCMx/chtypes.h"
 314              		.file 5 "../third_party/ChibiOS/os/kernel/include/chlists.h"
 315              		.file 6 "../third_party/ChibiOS/os/kernel/include/chthreads.h"
 316              		.file 7 "../third_party/ChibiOS/os/ports/GCC/ARMCMx/chcore_v7m.h"
 317              		.file 8 "../third_party/ChibiOS/os/kernel/include/chmtx.h"
 318              		.file 9 "../third_party/ChibiOS/os/kernel/include/chmemcore.h"
 319              		.file 10 "../third_party/ChibiOS/os/kernel/include/chheap.h"
 320              		.file 11 "../third_party/ChibiOS/os/kernel/include/chmempools.h"
 321              		.file 12 "../third_party/ChibiOS/os/kernel/include/chschd.h"