ARM GAS  /tmp/ccb4cBgo.s 			page 1


   1              		.syntax unified
   2              		.cpu cortex-m3
   3              		.fpu softvfp
   4              		.eabi_attribute 20, 1
   5              		.eabi_attribute 21, 1
   6              		.eabi_attribute 23, 3
   7              		.eabi_attribute 24, 1
   8              		.eabi_attribute 25, 1
   9              		.eabi_attribute 26, 1
  10              		.eabi_attribute 30, 2
  11              		.eabi_attribute 34, 1
  12              		.eabi_attribute 18, 4
  13              		.thumb
  14              		.file	"chdynamic.c"
  15              		.text
  16              	.Ltext0:
  17              		.cfi_sections	.debug_frame
  18              		.section	.text.chThdAddRef,"ax",%progbits
  19              		.align	2
  20              		.p2align 4,,15
  21              		.global	chThdAddRef
  22              		.thumb
  23              		.thumb_func
  24              		.type	chThdAddRef, %function
  25              	chThdAddRef:
  26              	.LFB7:
  27              		.file 1 "../third_party/ChibiOS/os/kernel/src/chdynamic.c"
  28              		.loc 1 52 0
  29              		.cfi_startproc
  30              		@ args = 0, pretend = 0, frame = 0
  31              		@ frame_needed = 0, uses_anonymous_args = 0
  32              		@ link register save eliminated.
  33              	.LVL0:
  34              	.LBB2:
  35              		.loc 1 54 0
  36 0000 2023     		movs	r3, #32
  37              	@ 54 "../third_party/ChibiOS/os/kernel/src/chdynamic.c" 1
  38 0002 83F31188 		msr     BASEPRI, r3
  39              	@ 0 "" 2
  40              		.thumb
  41              	.LBE2:
  42              		.loc 1 56 0
  43 0006 827F     		ldrb	r2, [r0, #30]	@ zero_extendqisi2
  44              	.LBB3:
  45              		.loc 1 57 0
  46 0008 0023     		movs	r3, #0
  47              	.LBE3:
  48              		.loc 1 56 0
  49 000a 0132     		adds	r2, r2, #1
  50 000c 8277     		strb	r2, [r0, #30]
  51              	.LBB4:
  52              		.loc 1 57 0
  53              	@ 57 "../third_party/ChibiOS/os/kernel/src/chdynamic.c" 1
  54 000e 83F31188 		msr     BASEPRI, r3
  55              	@ 0 "" 2
  56              		.thumb
  57              	.LBE4:
ARM GAS  /tmp/ccb4cBgo.s 			page 2


  58              		.loc 1 59 0
  59 0012 7047     		bx	lr
  60              		.cfi_endproc
  61              	.LFE7:
  62              		.size	chThdAddRef, .-chThdAddRef
  63 0014 AFF30080 		.section	.text.chThdRelease,"ax",%progbits
  63      AFF30080 
  63      AFF30080 
  64              		.align	2
  65              		.p2align 4,,15
  66              		.global	chThdRelease
  67              		.thumb
  68              		.thumb_func
  69              		.type	chThdRelease, %function
  70              	chThdRelease:
  71              	.LFB8:
  72              		.loc 1 74 0
  73              		.cfi_startproc
  74              		@ args = 0, pretend = 0, frame = 0
  75              		@ frame_needed = 0, uses_anonymous_args = 0
  76              		@ link register save eliminated.
  77              	.LVL1:
  78              		.loc 1 74 0
  79 0000 0146     		mov	r1, r0
  80              	.LBB5:
  81              		.loc 1 77 0
  82 0002 2023     		movs	r3, #32
  83              	@ 77 "../third_party/ChibiOS/os/kernel/src/chdynamic.c" 1
  84 0004 83F31188 		msr     BASEPRI, r3
  85              	@ 0 "" 2
  86              		.thumb
  87              	.LBE5:
  88              		.loc 1 79 0
  89 0008 827F     		ldrb	r2, [r0, #30]	@ zero_extendqisi2
  90              	.LBB6:
  91              		.loc 1 80 0
  92 000a 0023     		movs	r3, #0
  93              	.LBE6:
  94              		.loc 1 79 0
  95 000c 013A     		subs	r2, r2, #1
  96 000e D2B2     		uxtb	r2, r2
  97 0010 8277     		strb	r2, [r0, #30]
  98              	.LVL2:
  99              	.LBB7:
 100              		.loc 1 80 0
 101              	@ 80 "../third_party/ChibiOS/os/kernel/src/chdynamic.c" 1
 102 0012 83F31188 		msr     BASEPRI, r3
 103              	@ 0 "" 2
 104              		.thumb
 105              	.LBE7:
 106              		.loc 1 85 0
 107 0016 12B9     		cbnz	r2, .L2
 108              		.loc 1 85 0 is_stmt 0 discriminator 1
 109 0018 037F     		ldrb	r3, [r0, #28]	@ zero_extendqisi2
 110 001a 0E2B     		cmp	r3, #14
 111 001c 00D0     		beq	.L7
 112              	.L2:
ARM GAS  /tmp/ccb4cBgo.s 			page 3


 113 001e 7047     		bx	lr
 114              	.L7:
 115              		.loc 1 86 0 is_stmt 1
 116 0020 437F     		ldrb	r3, [r0, #29]	@ zero_extendqisi2
 117 0022 03F00303 		and	r3, r3, #3
 118 0026 012B     		cmp	r3, #1
 119 0028 02D0     		beq	.L4
 120 002a 022B     		cmp	r3, #2
 121 002c 07D0     		beq	.L5
 122 002e 7047     		bx	lr
 123              	.L4:
 124              		.loc 1 90 0
 125 0030 0269     		ldr	r2, [r0, #16]
 126              	.LVL3:
 127 0032 4369     		ldr	r3, [r0, #20]
 128 0034 1A61     		str	r2, [r3, #16]
 129 0036 0A69     		ldr	r2, [r1, #16]
 130 0038 5361     		str	r3, [r2, #20]
 131              		.loc 1 92 0
 132 003a FFF7FEBF 		b	chHeapFree
 133              	.LVL4:
 134              	.L5:
 135              		.loc 1 98 0
 136 003e 0269     		ldr	r2, [r0, #16]
 137              	.LVL5:
 138 0040 4369     		ldr	r3, [r0, #20]
 139              		.loc 1 100 0
 140 0042 406C     		ldr	r0, [r0, #68]
 141              	.LVL6:
 142              		.loc 1 98 0
 143 0044 1A61     		str	r2, [r3, #16]
 144 0046 0A69     		ldr	r2, [r1, #16]
 145 0048 5361     		str	r3, [r2, #20]
 146              		.loc 1 100 0
 147 004a FFF7FEBF 		b	chPoolFree
 148              	.LVL7:
 149              		.cfi_endproc
 150              	.LFE8:
 151              		.size	chThdRelease, .-chThdRelease
 152 004e 00BF     		.section	.text.chThdCreateFromHeap,"ax",%progbits
 153              		.align	2
 154              		.p2align 4,,15
 155              		.global	chThdCreateFromHeap
 156              		.thumb
 157              		.thumb_func
 158              		.type	chThdCreateFromHeap, %function
 159              	chThdCreateFromHeap:
 160              	.LFB9:
 161              		.loc 1 131 0
 162              		.cfi_startproc
 163              		@ args = 4, pretend = 0, frame = 0
 164              		@ frame_needed = 0, uses_anonymous_args = 0
 165              	.LVL8:
 166 0000 70B5     		push	{r4, r5, r6, lr}
 167              		.cfi_def_cfa_offset 16
 168              		.cfi_offset 4, -16
 169              		.cfi_offset 5, -12
ARM GAS  /tmp/ccb4cBgo.s 			page 4


 170              		.cfi_offset 6, -8
 171              		.cfi_offset 14, -4
 172 0002 82B0     		sub	sp, sp, #8
 173              		.cfi_def_cfa_offset 24
 174              		.loc 1 131 0
 175 0004 1646     		mov	r6, r2
 176 0006 1C46     		mov	r4, r3
 177 0008 0D46     		mov	r5, r1
 178              		.loc 1 135 0
 179 000a FFF7FEFF 		bl	chHeapAlloc
 180              	.LVL9:
 181              		.loc 1 136 0
 182 000e 98B1     		cbz	r0, .L9
 183              	.LBB8:
 184              		.loc 1 148 0
 185 0010 2023     		movs	r3, #32
 186              	@ 148 "../third_party/ChibiOS/os/kernel/src/chdynamic.c" 1
 187 0012 83F31188 		msr     BASEPRI, r3
 188              	@ 0 "" 2
 189              		.thumb
 190              	.LBE8:
 191              		.loc 1 149 0
 192 0016 069B     		ldr	r3, [sp, #24]
 193 0018 2946     		mov	r1, r5
 194 001a 0093     		str	r3, [sp]
 195 001c 3246     		mov	r2, r6
 196 001e 2346     		mov	r3, r4
 197 0020 FFF7FEFF 		bl	chThdCreateI
 198              	.LVL10:
 199              		.loc 1 150 0
 200 0024 0123     		movs	r3, #1
 201 0026 4377     		strb	r3, [r0, #29]
 202              		.loc 1 151 0
 203 0028 0021     		movs	r1, #0
 204              		.loc 1 149 0
 205 002a 0446     		mov	r4, r0
 206              	.LVL11:
 207              		.loc 1 151 0
 208 002c FFF7FEFF 		bl	chSchWakeupS
 209              	.LVL12:
 210              	.LBB9:
 211              		.loc 1 152 0
 212 0030 0023     		movs	r3, #0
 213              	@ 152 "../third_party/ChibiOS/os/kernel/src/chdynamic.c" 1
 214 0032 83F31188 		msr     BASEPRI, r3
 215              	@ 0 "" 2
 216              		.thumb
 217              	.LBE9:
 218              		.loc 1 153 0
 219 0036 2046     		mov	r0, r4
 220              	.LVL13:
 221              	.L9:
 222              		.loc 1 154 0
 223 0038 02B0     		add	sp, sp, #8
 224              		@ sp needed
 225 003a 70BD     		pop	{r4, r5, r6, pc}
 226              		.cfi_endproc
ARM GAS  /tmp/ccb4cBgo.s 			page 5


 227              	.LFE9:
 228              		.size	chThdCreateFromHeap, .-chThdCreateFromHeap
 229 003c AFF30080 		.section	.text.chThdCreateFromMemoryPool,"ax",%progbits
 230              		.align	2
 231              		.p2align 4,,15
 232              		.global	chThdCreateFromMemoryPool
 233              		.thumb
 234              		.thumb_func
 235              		.type	chThdCreateFromMemoryPool, %function
 236              	chThdCreateFromMemoryPool:
 237              	.LFB10:
 238              		.loc 1 180 0
 239              		.cfi_startproc
 240              		@ args = 0, pretend = 0, frame = 0
 241              		@ frame_needed = 0, uses_anonymous_args = 0
 242              	.LVL14:
 243 0000 F0B5     		push	{r4, r5, r6, r7, lr}
 244              		.cfi_def_cfa_offset 20
 245              		.cfi_offset 4, -20
 246              		.cfi_offset 5, -16
 247              		.cfi_offset 6, -12
 248              		.cfi_offset 7, -8
 249              		.cfi_offset 14, -4
 250 0002 83B0     		sub	sp, sp, #12
 251              		.cfi_def_cfa_offset 32
 252              		.loc 1 180 0
 253 0004 0F46     		mov	r7, r1
 254 0006 1446     		mov	r4, r2
 255 0008 1E46     		mov	r6, r3
 256 000a 0546     		mov	r5, r0
 257              		.loc 1 186 0
 258 000c FFF7FEFF 		bl	chPoolAlloc
 259              	.LVL15:
 260              		.loc 1 187 0
 261 0010 98B1     		cbz	r0, .L12
 262              	.LBB10:
 263              		.loc 1 199 0
 264 0012 2023     		movs	r3, #32
 265              	@ 199 "../third_party/ChibiOS/os/kernel/src/chdynamic.c" 1
 266 0014 83F31188 		msr     BASEPRI, r3
 267              	@ 0 "" 2
 268              		.thumb
 269              	.LBE10:
 270              		.loc 1 200 0
 271 0018 6968     		ldr	r1, [r5, #4]
 272 001a 3A46     		mov	r2, r7
 273 001c 2346     		mov	r3, r4
 274 001e 0096     		str	r6, [sp]
 275 0020 FFF7FEFF 		bl	chThdCreateI
 276              	.LVL16:
 277              		.loc 1 201 0
 278 0024 0223     		movs	r3, #2
 279 0026 4377     		strb	r3, [r0, #29]
 280              		.loc 1 202 0
 281 0028 4564     		str	r5, [r0, #68]
 282              		.loc 1 203 0
 283 002a 0021     		movs	r1, #0
ARM GAS  /tmp/ccb4cBgo.s 			page 6


 284              		.loc 1 200 0
 285 002c 0446     		mov	r4, r0
 286              	.LVL17:
 287              		.loc 1 203 0
 288 002e FFF7FEFF 		bl	chSchWakeupS
 289              	.LVL18:
 290              	.LBB11:
 291              		.loc 1 204 0
 292 0032 0023     		movs	r3, #0
 293              	@ 204 "../third_party/ChibiOS/os/kernel/src/chdynamic.c" 1
 294 0034 83F31188 		msr     BASEPRI, r3
 295              	@ 0 "" 2
 296              		.thumb
 297              	.LBE11:
 298              		.loc 1 205 0
 299 0038 2046     		mov	r0, r4
 300              	.LVL19:
 301              	.L12:
 302              		.loc 1 206 0
 303 003a 03B0     		add	sp, sp, #12
 304              		@ sp needed
 305 003c F0BD     		pop	{r4, r5, r6, r7, pc}
 306              		.cfi_endproc
 307              	.LFE10:
 308              		.size	chThdCreateFromMemoryPool, .-chThdCreateFromMemoryPool
 309 003e 00BF     		.text
 310              	.Letext0:
 311              		.file 2 "/home/santi/arm-2013.11/lib/gcc/arm-none-eabi/4.8.1/include/stddef.h"
 312              		.file 3 "/home/santi/arm-2013.11/arm-none-eabi/include/stdint.h"
 313              		.file 4 "../third_party/ChibiOS/os/ports/GCC/ARMCMx/chtypes.h"
 314              		.file 5 "../third_party/ChibiOS/os/kernel/include/chlists.h"
 315              		.file 6 "../third_party/ChibiOS/os/kernel/include/chthreads.h"
 316              		.file 7 "../third_party/ChibiOS/os/ports/GCC/ARMCMx/chcore_v7m.h"
 317              		.file 8 "../third_party/ChibiOS/os/kernel/include/chmtx.h"
 318              		.file 9 "../third_party/ChibiOS/os/kernel/include/chmemcore.h"
 319              		.file 10 "../third_party/ChibiOS/os/kernel/include/chheap.h"
 320              		.file 11 "../third_party/ChibiOS/os/kernel/include/chmempools.h"
 321              		.file 12 "../third_party/ChibiOS/os/kernel/include/chschd.h"
 322              		.section	.debug_info,"",%progbits
 323              	.Ldebug_info0:
 324 0000 3D080000 		.4byte	0x83d
 325 0004 0400     		.2byte	0x4
 326 0006 00000000 		.4byte	.Ldebug_abbrev0
 327 000a 04       		.byte	0x4
 328 000b 01       		.uleb128 0x1
 329 000c 6E000000 		.4byte	.LASF85
 330 0010 01       		.byte	0x1
 331 0011 32000000 		.4byte	.LASF86
 332 0015 A2020000 		.4byte	.LASF87
 333 0019 30000000 		.4byte	.Ldebug_ranges0+0x30
 334 001d 00000000 		.4byte	0
 335 0021 00000000 		.4byte	.Ldebug_line0
 336 0025 02       		.uleb128 0x2
 337 0026 04       		.byte	0x4
 338 0027 05       		.byte	0x5
 339 0028 696E7400 		.ascii	"int\000"
 340 002c 03       		.uleb128 0x3
ARM GAS  /tmp/ccb4cBgo.s 			page 7


 341 002d 1B000000 		.4byte	.LASF2
 342 0031 02       		.byte	0x2
 343 0032 D4       		.byte	0xd4
 344 0033 37000000 		.4byte	0x37
 345 0037 04       		.uleb128 0x4
 346 0038 04       		.byte	0x4
 347 0039 07       		.byte	0x7
 348 003a 0F020000 		.4byte	.LASF0
 349 003e 04       		.uleb128 0x4
 350 003f 01       		.byte	0x1
 351 0040 06       		.byte	0x6
 352 0041 6A010000 		.4byte	.LASF1
 353 0045 03       		.uleb128 0x3
 354 0046 0C040000 		.4byte	.LASF3
 355 004a 03       		.byte	0x3
 356 004b 2A       		.byte	0x2a
 357 004c 50000000 		.4byte	0x50
 358 0050 04       		.uleb128 0x4
 359 0051 01       		.byte	0x1
 360 0052 08       		.byte	0x8
 361 0053 22030000 		.4byte	.LASF4
 362 0057 04       		.uleb128 0x4
 363 0058 02       		.byte	0x2
 364 0059 05       		.byte	0x5
 365 005a 45030000 		.4byte	.LASF5
 366 005e 04       		.uleb128 0x4
 367 005f 02       		.byte	0x2
 368 0060 07       		.byte	0x7
 369 0061 3B020000 		.4byte	.LASF6
 370 0065 03       		.uleb128 0x3
 371 0066 1A030000 		.4byte	.LASF7
 372 006a 03       		.byte	0x3
 373 006b 4F       		.byte	0x4f
 374 006c 70000000 		.4byte	0x70
 375 0070 04       		.uleb128 0x4
 376 0071 04       		.byte	0x4
 377 0072 05       		.byte	0x5
 378 0073 A4010000 		.4byte	.LASF8
 379 0077 03       		.uleb128 0x3
 380 0078 A4030000 		.4byte	.LASF9
 381 007c 03       		.byte	0x3
 382 007d 50       		.byte	0x50
 383 007e 82000000 		.4byte	0x82
 384 0082 04       		.uleb128 0x4
 385 0083 04       		.byte	0x4
 386 0084 07       		.byte	0x7
 387 0085 1C020000 		.4byte	.LASF10
 388 0089 04       		.uleb128 0x4
 389 008a 08       		.byte	0x8
 390 008b 05       		.byte	0x5
 391 008c 5C010000 		.4byte	.LASF11
 392 0090 03       		.uleb128 0x3
 393 0091 29000000 		.4byte	.LASF12
 394 0095 03       		.byte	0x3
 395 0096 78       		.byte	0x78
 396 0097 9B000000 		.4byte	0x9b
 397 009b 04       		.uleb128 0x4
ARM GAS  /tmp/ccb4cBgo.s 			page 8


 398 009c 08       		.byte	0x8
 399 009d 07       		.byte	0x7
 400 009e 23010000 		.4byte	.LASF13
 401 00a2 03       		.uleb128 0x3
 402 00a3 54020000 		.4byte	.LASF14
 403 00a7 04       		.byte	0x4
 404 00a8 2F       		.byte	0x2f
 405 00a9 45000000 		.4byte	0x45
 406 00ad 03       		.uleb128 0x3
 407 00ae C1010000 		.4byte	.LASF15
 408 00b2 04       		.byte	0x4
 409 00b3 30       		.byte	0x30
 410 00b4 45000000 		.4byte	0x45
 411 00b8 03       		.uleb128 0x3
 412 00b9 FE020000 		.4byte	.LASF16
 413 00bd 04       		.byte	0x4
 414 00be 31       		.byte	0x31
 415 00bf 45000000 		.4byte	0x45
 416 00c3 03       		.uleb128 0x3
 417 00c4 12030000 		.4byte	.LASF17
 418 00c8 04       		.byte	0x4
 419 00c9 32       		.byte	0x32
 420 00ca 77000000 		.4byte	0x77
 421 00ce 03       		.uleb128 0x3
 422 00cf 4E020000 		.4byte	.LASF18
 423 00d3 04       		.byte	0x4
 424 00d4 33       		.byte	0x33
 425 00d5 65000000 		.4byte	0x65
 426 00d9 03       		.uleb128 0x3
 427 00da 68020000 		.4byte	.LASF19
 428 00de 04       		.byte	0x4
 429 00df 35       		.byte	0x35
 430 00e0 77000000 		.4byte	0x77
 431 00e4 03       		.uleb128 0x3
 432 00e5 BE030000 		.4byte	.LASF20
 433 00e9 04       		.byte	0x4
 434 00ea 36       		.byte	0x36
 435 00eb 77000000 		.4byte	0x77
 436 00ef 03       		.uleb128 0x3
 437 00f0 86030000 		.4byte	.LASF21
 438 00f4 05       		.byte	0x5
 439 00f5 2A       		.byte	0x2a
 440 00f6 FA000000 		.4byte	0xfa
 441 00fa 05       		.uleb128 0x5
 442 00fb 86030000 		.4byte	.LASF21
 443 00ff 48       		.byte	0x48
 444 0100 06       		.byte	0x6
 445 0101 5E       		.byte	0x5e
 446 0102 EB010000 		.4byte	0x1eb
 447 0106 06       		.uleb128 0x6
 448 0107 6A030000 		.4byte	.LASF22
 449 010b 06       		.byte	0x6
 450 010c 5F       		.byte	0x5f
 451 010d 0C020000 		.4byte	0x20c
 452 0111 00       		.byte	0
 453 0112 06       		.uleb128 0x6
 454 0113 0B030000 		.4byte	.LASF23
ARM GAS  /tmp/ccb4cBgo.s 			page 9


 455 0117 06       		.byte	0x6
 456 0118 61       		.byte	0x61
 457 0119 0C020000 		.4byte	0x20c
 458 011d 04       		.byte	0x4
 459 011e 06       		.uleb128 0x6
 460 011f 55010000 		.4byte	.LASF24
 461 0123 06       		.byte	0x6
 462 0124 63       		.byte	0x63
 463 0125 C3000000 		.4byte	0xc3
 464 0129 08       		.byte	0x8
 465 012a 06       		.uleb128 0x6
 466 012b 41040000 		.4byte	.LASF25
 467 012f 06       		.byte	0x6
 468 0130 64       		.byte	0x64
 469 0131 D0020000 		.4byte	0x2d0
 470 0135 0C       		.byte	0xc
 471 0136 06       		.uleb128 0x6
 472 0137 D2010000 		.4byte	.LASF26
 473 013b 06       		.byte	0x6
 474 013c 66       		.byte	0x66
 475 013d 0C020000 		.4byte	0x20c
 476 0141 10       		.byte	0x10
 477 0142 06       		.uleb128 0x6
 478 0143 9A020000 		.4byte	.LASF27
 479 0147 06       		.byte	0x6
 480 0148 67       		.byte	0x67
 481 0149 0C020000 		.4byte	0x20c
 482 014d 14       		.byte	0x14
 483 014e 06       		.uleb128 0x6
 484 014f 32040000 		.4byte	.LASF28
 485 0153 06       		.byte	0x6
 486 0154 6E       		.byte	0x6e
 487 0155 92040000 		.4byte	0x492
 488 0159 18       		.byte	0x18
 489 015a 06       		.uleb128 0x6
 490 015b 4F030000 		.4byte	.LASF29
 491 015f 06       		.byte	0x6
 492 0160 79       		.byte	0x79
 493 0161 AD000000 		.4byte	0xad
 494 0165 1C       		.byte	0x1c
 495 0166 06       		.uleb128 0x6
 496 0167 71030000 		.4byte	.LASF30
 497 016b 06       		.byte	0x6
 498 016c 7D       		.byte	0x7d
 499 016d A2000000 		.4byte	0xa2
 500 0171 1D       		.byte	0x1d
 501 0172 06       		.uleb128 0x6
 502 0173 05040000 		.4byte	.LASF31
 503 0177 06       		.byte	0x6
 504 0178 82       		.byte	0x82
 505 0179 B8000000 		.4byte	0xb8
 506 017d 1E       		.byte	0x1e
 507 017e 06       		.uleb128 0x6
 508 017f D3030000 		.4byte	.LASF32
 509 0183 06       		.byte	0x6
 510 0184 89       		.byte	0x89
 511 0185 F8020000 		.4byte	0x2f8
ARM GAS  /tmp/ccb4cBgo.s 			page 10


 512 0189 20       		.byte	0x20
 513 018a 07       		.uleb128 0x7
 514 018b 705F7500 		.ascii	"p_u\000"
 515 018f 06       		.byte	0x6
 516 0190 AE       		.byte	0xae
 517 0191 5D040000 		.4byte	0x45d
 518 0195 24       		.byte	0x24
 519 0196 06       		.uleb128 0x6
 520 0197 47040000 		.4byte	.LASF33
 521 019b 06       		.byte	0x6
 522 019c B3       		.byte	0xb3
 523 019d 32020000 		.4byte	0x232
 524 01a1 28       		.byte	0x28
 525 01a2 06       		.uleb128 0x6
 526 01a3 E1030000 		.4byte	.LASF34
 527 01a7 06       		.byte	0x6
 528 01a8 B9       		.byte	0xb9
 529 01a9 12020000 		.4byte	0x212
 530 01ad 2C       		.byte	0x2c
 531 01ae 06       		.uleb128 0x6
 532 01af 15000000 		.4byte	.LASF35
 533 01b3 06       		.byte	0x6
 534 01b4 BD       		.byte	0xbd
 535 01b5 CE000000 		.4byte	0xce
 536 01b9 34       		.byte	0x34
 537 01ba 06       		.uleb128 0x6
 538 01bb 99030000 		.4byte	.LASF36
 539 01bf 06       		.byte	0x6
 540 01c0 C3       		.byte	0xc3
 541 01c1 D9000000 		.4byte	0xd9
 542 01c5 38       		.byte	0x38
 543 01c6 06       		.uleb128 0x6
 544 01c7 3B030000 		.4byte	.LASF37
 545 01cb 06       		.byte	0x6
 546 01cc CA       		.byte	0xca
 547 01cd A4040000 		.4byte	0x4a4
 548 01d1 3C       		.byte	0x3c
 549 01d2 06       		.uleb128 0x6
 550 01d3 C8030000 		.4byte	.LASF38
 551 01d7 06       		.byte	0x6
 552 01d8 CE       		.byte	0xce
 553 01d9 C3000000 		.4byte	0xc3
 554 01dd 40       		.byte	0x40
 555 01de 06       		.uleb128 0x6
 556 01df 7C010000 		.4byte	.LASF39
 557 01e3 06       		.byte	0x6
 558 01e4 D4       		.byte	0xd4
 559 01e5 48020000 		.4byte	0x248
 560 01e9 44       		.byte	0x44
 561 01ea 00       		.byte	0
 562 01eb 08       		.uleb128 0x8
 563 01ec 08       		.byte	0x8
 564 01ed 05       		.byte	0x5
 565 01ee 61       		.byte	0x61
 566 01ef 0C020000 		.4byte	0x20c
 567 01f3 06       		.uleb128 0x6
 568 01f4 6A030000 		.4byte	.LASF22
ARM GAS  /tmp/ccb4cBgo.s 			page 11


 569 01f8 05       		.byte	0x5
 570 01f9 62       		.byte	0x62
 571 01fa 0C020000 		.4byte	0x20c
 572 01fe 00       		.byte	0
 573 01ff 06       		.uleb128 0x6
 574 0200 0B030000 		.4byte	.LASF23
 575 0204 05       		.byte	0x5
 576 0205 64       		.byte	0x64
 577 0206 0C020000 		.4byte	0x20c
 578 020a 04       		.byte	0x4
 579 020b 00       		.byte	0
 580 020c 09       		.uleb128 0x9
 581 020d 04       		.byte	0x4
 582 020e EF000000 		.4byte	0xef
 583 0212 03       		.uleb128 0x3
 584 0213 08000000 		.4byte	.LASF40
 585 0217 05       		.byte	0x5
 586 0218 66       		.byte	0x66
 587 0219 EB010000 		.4byte	0x1eb
 588 021d 08       		.uleb128 0x8
 589 021e 04       		.byte	0x4
 590 021f 05       		.byte	0x5
 591 0220 6B       		.byte	0x6b
 592 0221 32020000 		.4byte	0x232
 593 0225 06       		.uleb128 0x6
 594 0226 6A030000 		.4byte	.LASF22
 595 022a 05       		.byte	0x5
 596 022b 6D       		.byte	0x6d
 597 022c 0C020000 		.4byte	0x20c
 598 0230 00       		.byte	0
 599 0231 00       		.byte	0
 600 0232 03       		.uleb128 0x3
 601 0233 5C020000 		.4byte	.LASF41
 602 0237 05       		.byte	0x5
 603 0238 70       		.byte	0x70
 604 0239 1D020000 		.4byte	0x21d
 605 023d 03       		.uleb128 0x3
 606 023e 00020000 		.4byte	.LASF42
 607 0242 07       		.byte	0x7
 608 0243 D7       		.byte	0xd7
 609 0244 48020000 		.4byte	0x248
 610 0248 0A       		.uleb128 0xa
 611 0249 04       		.byte	0x4
 612 024a 03       		.uleb128 0x3
 613 024b 86020000 		.4byte	.LASF43
 614 024f 07       		.byte	0x7
 615 0250 DD       		.byte	0xdd
 616 0251 90000000 		.4byte	0x90
 617 0255 05       		.uleb128 0x5
 618 0256 DA030000 		.4byte	.LASF44
 619 025a 24       		.byte	0x24
 620 025b 07       		.byte	0x7
 621 025c FE       		.byte	0xfe
 622 025d D0020000 		.4byte	0x2d0
 623 0261 0B       		.uleb128 0xb
 624 0262 723400   		.ascii	"r4\000"
 625 0265 07       		.byte	0x7
ARM GAS  /tmp/ccb4cBgo.s 			page 12


 626 0266 1101     		.2byte	0x111
 627 0268 3D020000 		.4byte	0x23d
 628 026c 00       		.byte	0
 629 026d 0B       		.uleb128 0xb
 630 026e 723500   		.ascii	"r5\000"
 631 0271 07       		.byte	0x7
 632 0272 1201     		.2byte	0x112
 633 0274 3D020000 		.4byte	0x23d
 634 0278 04       		.byte	0x4
 635 0279 0B       		.uleb128 0xb
 636 027a 723600   		.ascii	"r6\000"
 637 027d 07       		.byte	0x7
 638 027e 1301     		.2byte	0x113
 639 0280 3D020000 		.4byte	0x23d
 640 0284 08       		.byte	0x8
 641 0285 0B       		.uleb128 0xb
 642 0286 723700   		.ascii	"r7\000"
 643 0289 07       		.byte	0x7
 644 028a 1401     		.2byte	0x114
 645 028c 3D020000 		.4byte	0x23d
 646 0290 0C       		.byte	0xc
 647 0291 0B       		.uleb128 0xb
 648 0292 723800   		.ascii	"r8\000"
 649 0295 07       		.byte	0x7
 650 0296 1501     		.2byte	0x115
 651 0298 3D020000 		.4byte	0x23d
 652 029c 10       		.byte	0x10
 653 029d 0B       		.uleb128 0xb
 654 029e 723900   		.ascii	"r9\000"
 655 02a1 07       		.byte	0x7
 656 02a2 1601     		.2byte	0x116
 657 02a4 3D020000 		.4byte	0x23d
 658 02a8 14       		.byte	0x14
 659 02a9 0B       		.uleb128 0xb
 660 02aa 72313000 		.ascii	"r10\000"
 661 02ae 07       		.byte	0x7
 662 02af 1701     		.2byte	0x117
 663 02b1 3D020000 		.4byte	0x23d
 664 02b5 18       		.byte	0x18
 665 02b6 0B       		.uleb128 0xb
 666 02b7 72313100 		.ascii	"r11\000"
 667 02bb 07       		.byte	0x7
 668 02bc 1801     		.2byte	0x118
 669 02be 3D020000 		.4byte	0x23d
 670 02c2 1C       		.byte	0x1c
 671 02c3 0B       		.uleb128 0xb
 672 02c4 6C7200   		.ascii	"lr\000"
 673 02c7 07       		.byte	0x7
 674 02c8 1901     		.2byte	0x119
 675 02ca 3D020000 		.4byte	0x23d
 676 02ce 20       		.byte	0x20
 677 02cf 00       		.byte	0
 678 02d0 0C       		.uleb128 0xc
 679 02d1 2E020000 		.4byte	.LASF45
 680 02d5 04       		.byte	0x4
 681 02d6 07       		.byte	0x7
 682 02d7 2301     		.2byte	0x123
ARM GAS  /tmp/ccb4cBgo.s 			page 13


 683 02d9 EB020000 		.4byte	0x2eb
 684 02dd 0B       		.uleb128 0xb
 685 02de 72313300 		.ascii	"r13\000"
 686 02e2 07       		.byte	0x7
 687 02e3 2401     		.2byte	0x124
 688 02e5 EB020000 		.4byte	0x2eb
 689 02e9 00       		.byte	0
 690 02ea 00       		.byte	0
 691 02eb 09       		.uleb128 0x9
 692 02ec 04       		.byte	0x4
 693 02ed 55020000 		.4byte	0x255
 694 02f1 04       		.uleb128 0x4
 695 02f2 04       		.byte	0x4
 696 02f3 07       		.byte	0x7
 697 02f4 91020000 		.4byte	.LASF46
 698 02f8 0D       		.uleb128 0xd
 699 02f9 E4000000 		.4byte	0xe4
 700 02fd 05       		.uleb128 0x5
 701 02fe 74020000 		.4byte	.LASF47
 702 0302 10       		.byte	0x10
 703 0303 08       		.byte	0x8
 704 0304 2C       		.byte	0x2c
 705 0305 2E030000 		.4byte	0x32e
 706 0309 06       		.uleb128 0x6
 707 030a 84010000 		.4byte	.LASF48
 708 030e 08       		.byte	0x8
 709 030f 2D       		.byte	0x2d
 710 0310 12020000 		.4byte	0x212
 711 0314 00       		.byte	0
 712 0315 06       		.uleb128 0x6
 713 0316 39040000 		.4byte	.LASF49
 714 031a 08       		.byte	0x8
 715 031b 2F       		.byte	0x2f
 716 031c 0C020000 		.4byte	0x20c
 717 0320 08       		.byte	0x8
 718 0321 06       		.uleb128 0x6
 719 0322 B7030000 		.4byte	.LASF50
 720 0326 08       		.byte	0x8
 721 0327 31       		.byte	0x31
 722 0328 2E030000 		.4byte	0x32e
 723 032c 0C       		.byte	0xc
 724 032d 00       		.byte	0
 725 032e 09       		.uleb128 0x9
 726 032f 04       		.byte	0x4
 727 0330 FD020000 		.4byte	0x2fd
 728 0334 03       		.uleb128 0x3
 729 0335 74020000 		.4byte	.LASF47
 730 0339 08       		.byte	0x8
 731 033a 33       		.byte	0x33
 732 033b FD020000 		.4byte	0x2fd
 733 033f 03       		.uleb128 0x3
 734 0340 16010000 		.4byte	.LASF51
 735 0344 09       		.byte	0x9
 736 0345 2C       		.byte	0x2c
 737 0346 4A030000 		.4byte	0x34a
 738 034a 09       		.uleb128 0x9
 739 034b 04       		.byte	0x4
ARM GAS  /tmp/ccb4cBgo.s 			page 14


 740 034c 50030000 		.4byte	0x350
 741 0350 0E       		.uleb128 0xe
 742 0351 48020000 		.4byte	0x248
 743 0355 5F030000 		.4byte	0x35f
 744 0359 0F       		.uleb128 0xf
 745 035a 2C000000 		.4byte	0x2c
 746 035e 00       		.byte	0
 747 035f 03       		.uleb128 0x3
 748 0360 EB020000 		.4byte	.LASF52
 749 0364 0A       		.byte	0xa
 750 0365 34       		.byte	0x34
 751 0366 6A030000 		.4byte	0x36a
 752 036a 05       		.uleb128 0x5
 753 036b 51040000 		.4byte	.LASF53
 754 036f 20       		.byte	0x20
 755 0370 0A       		.byte	0xa
 756 0371 47       		.byte	0x47
 757 0372 9B030000 		.4byte	0x39b
 758 0376 06       		.uleb128 0x6
 759 0377 30030000 		.4byte	.LASF54
 760 037b 0A       		.byte	0xa
 761 037c 48       		.byte	0x48
 762 037d 3F030000 		.4byte	0x33f
 763 0381 00       		.byte	0
 764 0382 06       		.uleb128 0x6
 765 0383 43010000 		.4byte	.LASF55
 766 0387 0A       		.byte	0xa
 767 0388 4A       		.byte	0x4a
 768 0389 BA030000 		.4byte	0x3ba
 769 038d 08       		.byte	0x8
 770 038e 06       		.uleb128 0x6
 771 038f 76010000 		.4byte	.LASF56
 772 0393 0A       		.byte	0xa
 773 0394 4C       		.byte	0x4c
 774 0395 34030000 		.4byte	0x334
 775 0399 10       		.byte	0x10
 776 039a 00       		.byte	0
 777 039b 10       		.uleb128 0x10
 778 039c 04       		.byte	0x4
 779 039d 0A       		.byte	0xa
 780 039e 3C       		.byte	0x3c
 781 039f BA030000 		.4byte	0x3ba
 782 03a3 11       		.uleb128 0x11
 783 03a4 50010000 		.4byte	.LASF57
 784 03a8 0A       		.byte	0xa
 785 03a9 3D       		.byte	0x3d
 786 03aa DB030000 		.4byte	0x3db
 787 03ae 11       		.uleb128 0x11
 788 03af AD030000 		.4byte	.LASF58
 789 03b3 0A       		.byte	0xa
 790 03b4 3E       		.byte	0x3e
 791 03b5 E1030000 		.4byte	0x3e1
 792 03b9 00       		.byte	0
 793 03ba 12       		.uleb128 0x12
 794 03bb 57030000 		.4byte	.LASF88
 795 03bf 08       		.byte	0x8
 796 03c0 0A       		.byte	0xa
ARM GAS  /tmp/ccb4cBgo.s 			page 15


 797 03c1 39       		.byte	0x39
 798 03c2 DB030000 		.4byte	0x3db
 799 03c6 11       		.uleb128 0x11
 800 03c7 09020000 		.4byte	.LASF59
 801 03cb 0A       		.byte	0xa
 802 03cc 3A       		.byte	0x3a
 803 03cd 4A020000 		.4byte	0x24a
 804 03d1 13       		.uleb128 0x13
 805 03d2 6800     		.ascii	"h\000"
 806 03d4 0A       		.byte	0xa
 807 03d5 41       		.byte	0x41
 808 03d6 E7030000 		.4byte	0x3e7
 809 03da 00       		.byte	0
 810 03db 09       		.uleb128 0x9
 811 03dc 04       		.byte	0x4
 812 03dd BA030000 		.4byte	0x3ba
 813 03e1 09       		.uleb128 0x9
 814 03e2 04       		.byte	0x4
 815 03e3 5F030000 		.4byte	0x35f
 816 03e7 08       		.uleb128 0x8
 817 03e8 08       		.byte	0x8
 818 03e9 0A       		.byte	0xa
 819 03ea 3B       		.byte	0x3b
 820 03eb 06040000 		.4byte	0x406
 821 03ef 07       		.uleb128 0x7
 822 03f0 7500     		.ascii	"u\000"
 823 03f2 0A       		.byte	0xa
 824 03f3 3F       		.byte	0x3f
 825 03f4 9B030000 		.4byte	0x39b
 826 03f8 00       		.byte	0
 827 03f9 06       		.uleb128 0x6
 828 03fa 36020000 		.4byte	.LASF60
 829 03fe 0A       		.byte	0xa
 830 03ff 40       		.byte	0x40
 831 0400 2C000000 		.4byte	0x2c
 832 0404 04       		.byte	0x4
 833 0405 00       		.byte	0
 834 0406 05       		.uleb128 0x5
 835 0407 F9030000 		.4byte	.LASF61
 836 040b 04       		.byte	0x4
 837 040c 0B       		.byte	0xb
 838 040d 2C       		.byte	0x2c
 839 040e 1F040000 		.4byte	0x41f
 840 0412 06       		.uleb128 0x6
 841 0413 F6020000 		.4byte	.LASF62
 842 0417 0B       		.byte	0xb
 843 0418 2D       		.byte	0x2d
 844 0419 1F040000 		.4byte	0x41f
 845 041d 00       		.byte	0
 846 041e 00       		.byte	0
 847 041f 09       		.uleb128 0x9
 848 0420 04       		.byte	0x4
 849 0421 06040000 		.4byte	0x406
 850 0425 08       		.uleb128 0x8
 851 0426 0C       		.byte	0xc
 852 0427 0B       		.byte	0xb
 853 0428 34       		.byte	0x34
ARM GAS  /tmp/ccb4cBgo.s 			page 16


 854 0429 52040000 		.4byte	0x452
 855 042d 06       		.uleb128 0x6
 856 042e CA010000 		.4byte	.LASF63
 857 0432 0B       		.byte	0xb
 858 0433 35       		.byte	0x35
 859 0434 1F040000 		.4byte	0x41f
 860 0438 00       		.byte	0
 861 0439 06       		.uleb128 0x6
 862 043a D7020000 		.4byte	.LASF64
 863 043e 0B       		.byte	0xb
 864 043f 36       		.byte	0x36
 865 0440 2C000000 		.4byte	0x2c
 866 0444 04       		.byte	0x4
 867 0445 06       		.uleb128 0x6
 868 0446 F4010000 		.4byte	.LASF65
 869 044a 0B       		.byte	0xb
 870 044b 38       		.byte	0x38
 871 044c 3F030000 		.4byte	0x33f
 872 0450 08       		.byte	0x8
 873 0451 00       		.byte	0
 874 0452 03       		.uleb128 0x3
 875 0453 63000000 		.4byte	.LASF66
 876 0457 0B       		.byte	0xb
 877 0458 3A       		.byte	0x3a
 878 0459 25040000 		.4byte	0x425
 879 045d 10       		.uleb128 0x10
 880 045e 04       		.byte	0x4
 881 045f 06       		.byte	0x6
 882 0460 90       		.byte	0x90
 883 0461 92040000 		.4byte	0x492
 884 0465 11       		.uleb128 0x11
 885 0466 22000000 		.4byte	.LASF67
 886 046a 06       		.byte	0x6
 887 046b 97       		.byte	0x97
 888 046c CE000000 		.4byte	0xce
 889 0470 11       		.uleb128 0x11
 890 0471 3A010000 		.4byte	.LASF68
 891 0475 06       		.byte	0x6
 892 0476 9E       		.byte	0x9e
 893 0477 CE000000 		.4byte	0xce
 894 047b 11       		.uleb128 0x11
 895 047c 2B040000 		.4byte	.LASF69
 896 0480 06       		.byte	0x6
 897 0481 A5       		.byte	0xa5
 898 0482 48020000 		.4byte	0x248
 899 0486 11       		.uleb128 0x11
 900 0487 63030000 		.4byte	.LASF70
 901 048b 06       		.byte	0x6
 902 048c AC       		.byte	0xac
 903 048d D9000000 		.4byte	0xd9
 904 0491 00       		.byte	0
 905 0492 09       		.uleb128 0x9
 906 0493 04       		.byte	0x4
 907 0494 98040000 		.4byte	0x498
 908 0498 14       		.uleb128 0x14
 909 0499 9D040000 		.4byte	0x49d
 910 049d 04       		.uleb128 0x4
ARM GAS  /tmp/ccb4cBgo.s 			page 17


 911 049e 01       		.byte	0x1
 912 049f 08       		.byte	0x8
 913 04a0 B2030000 		.4byte	.LASF71
 914 04a4 09       		.uleb128 0x9
 915 04a5 04       		.byte	0x4
 916 04a6 34030000 		.4byte	0x334
 917 04aa 03       		.uleb128 0x3
 918 04ab 00000000 		.4byte	.LASF72
 919 04af 06       		.byte	0x6
 920 04b0 DF       		.byte	0xdf
 921 04b1 B5040000 		.4byte	0x4b5
 922 04b5 09       		.uleb128 0x9
 923 04b6 04       		.byte	0x4
 924 04b7 BB040000 		.4byte	0x4bb
 925 04bb 0E       		.uleb128 0xe
 926 04bc CE000000 		.4byte	0xce
 927 04c0 CA040000 		.4byte	0x4ca
 928 04c4 0F       		.uleb128 0xf
 929 04c5 48020000 		.4byte	0x248
 930 04c9 00       		.byte	0
 931 04ca 15       		.uleb128 0x15
 932 04cb 7A020000 		.4byte	.LASF74
 933 04cf 01       		.byte	0x1
 934 04d0 34       		.byte	0x34
 935 04d1 0C020000 		.4byte	0x20c
 936 04d5 00000000 		.4byte	.LFB7
 937 04d9 14000000 		.4byte	.LFE7-.LFB7
 938 04dd 01       		.uleb128 0x1
 939 04de 9C       		.byte	0x9c
 940 04df 1E050000 		.4byte	0x51e
 941 04e3 16       		.uleb128 0x16
 942 04e4 747000   		.ascii	"tp\000"
 943 04e7 01       		.byte	0x1
 944 04e8 34       		.byte	0x34
 945 04e9 0C020000 		.4byte	0x20c
 946 04ed 01       		.uleb128 0x1
 947 04ee 50       		.byte	0x50
 948 04ef 17       		.uleb128 0x17
 949 04f0 00000000 		.4byte	.LBB2
 950 04f4 06000000 		.4byte	.LBE2-.LBB2
 951 04f8 0A050000 		.4byte	0x50a
 952 04fc 18       		.uleb128 0x18
 953 04fd 746D7000 		.ascii	"tmp\000"
 954 0501 01       		.byte	0x1
 955 0502 36       		.byte	0x36
 956 0503 77000000 		.4byte	0x77
 957 0507 01       		.uleb128 0x1
 958 0508 53       		.byte	0x53
 959 0509 00       		.byte	0
 960 050a 19       		.uleb128 0x19
 961 050b 00000000 		.4byte	.Ldebug_ranges0+0
 962 050f 18       		.uleb128 0x18
 963 0510 746D7000 		.ascii	"tmp\000"
 964 0514 01       		.byte	0x1
 965 0515 39       		.byte	0x39
 966 0516 77000000 		.4byte	0x77
 967 051a 01       		.uleb128 0x1
ARM GAS  /tmp/ccb4cBgo.s 			page 18


 968 051b 53       		.byte	0x53
 969 051c 00       		.byte	0
 970 051d 00       		.byte	0
 971 051e 1A       		.uleb128 0x1a
 972 051f 79030000 		.4byte	.LASF89
 973 0523 01       		.byte	0x1
 974 0524 4A       		.byte	0x4a
 975 0525 00000000 		.4byte	.LFB8
 976 0529 4E000000 		.4byte	.LFE8-.LFB8
 977 052d 01       		.uleb128 0x1
 978 052e 9C       		.byte	0x9c
 979 052f A9050000 		.4byte	0x5a9
 980 0533 1B       		.uleb128 0x1b
 981 0534 747000   		.ascii	"tp\000"
 982 0537 01       		.byte	0x1
 983 0538 4A       		.byte	0x4a
 984 0539 0C020000 		.4byte	0x20c
 985 053d 00000000 		.4byte	.LLST0
 986 0541 1C       		.uleb128 0x1c
 987 0542 06030000 		.4byte	.LASF73
 988 0546 01       		.byte	0x1
 989 0547 4B       		.byte	0x4b
 990 0548 B8000000 		.4byte	0xb8
 991 054c 45000000 		.4byte	.LLST1
 992 0550 17       		.uleb128 0x17
 993 0551 02000000 		.4byte	.LBB5
 994 0555 06000000 		.4byte	.LBE5-.LBB5
 995 0559 6B050000 		.4byte	0x56b
 996 055d 18       		.uleb128 0x18
 997 055e 746D7000 		.ascii	"tmp\000"
 998 0562 01       		.byte	0x1
 999 0563 4D       		.byte	0x4d
 1000 0564 77000000 		.4byte	0x77
 1001 0568 01       		.uleb128 0x1
 1002 0569 53       		.byte	0x53
 1003 056a 00       		.byte	0
 1004 056b 1D       		.uleb128 0x1d
 1005 056c 18000000 		.4byte	.Ldebug_ranges0+0x18
 1006 0570 82050000 		.4byte	0x582
 1007 0574 18       		.uleb128 0x18
 1008 0575 746D7000 		.ascii	"tmp\000"
 1009 0579 01       		.byte	0x1
 1010 057a 50       		.byte	0x50
 1011 057b 77000000 		.4byte	0x77
 1012 057f 01       		.uleb128 0x1
 1013 0580 53       		.byte	0x53
 1014 0581 00       		.byte	0
 1015 0582 1E       		.uleb128 0x1e
 1016 0583 3E000000 		.4byte	.LVL4
 1017 0587 AE070000 		.4byte	0x7ae
 1018 058b 97050000 		.4byte	0x597
 1019 058f 1F       		.uleb128 0x1f
 1020 0590 01       		.uleb128 0x1
 1021 0591 50       		.byte	0x50
 1022 0592 03       		.uleb128 0x3
 1023 0593 F3       		.byte	0xf3
 1024 0594 01       		.uleb128 0x1
ARM GAS  /tmp/ccb4cBgo.s 			page 19


 1025 0595 50       		.byte	0x50
 1026 0596 00       		.byte	0
 1027 0597 20       		.uleb128 0x20
 1028 0598 4E000000 		.4byte	.LVL7
 1029 059c BF070000 		.4byte	0x7bf
 1030 05a0 1F       		.uleb128 0x1f
 1031 05a1 01       		.uleb128 0x1
 1032 05a2 51       		.byte	0x51
 1033 05a3 03       		.uleb128 0x3
 1034 05a4 F3       		.byte	0xf3
 1035 05a5 01       		.uleb128 0x1
 1036 05a6 50       		.byte	0x50
 1037 05a7 00       		.byte	0
 1038 05a8 00       		.byte	0
 1039 05a9 15       		.uleb128 0x15
 1040 05aa AD010000 		.4byte	.LASF75
 1041 05ae 01       		.byte	0x1
 1042 05af 82       		.byte	0x82
 1043 05b0 0C020000 		.4byte	0x20c
 1044 05b4 00000000 		.4byte	.LFB9
 1045 05b8 3C000000 		.4byte	.LFE9-.LFB9
 1046 05bc 01       		.uleb128 0x1
 1047 05bd 9C       		.byte	0x9c
 1048 05be B7060000 		.4byte	0x6b7
 1049 05c2 21       		.uleb128 0x21
 1050 05c3 4A010000 		.4byte	.LASF76
 1051 05c7 01       		.byte	0x1
 1052 05c8 82       		.byte	0x82
 1053 05c9 E1030000 		.4byte	0x3e1
 1054 05cd 63000000 		.4byte	.LLST2
 1055 05d1 21       		.uleb128 0x21
 1056 05d2 36020000 		.4byte	.LASF60
 1057 05d6 01       		.byte	0x1
 1058 05d7 82       		.byte	0x82
 1059 05d8 2C000000 		.4byte	0x2c
 1060 05dc 84000000 		.4byte	.LLST3
 1061 05e0 21       		.uleb128 0x21
 1062 05e1 E6020000 		.4byte	.LASF77
 1063 05e5 01       		.byte	0x1
 1064 05e6 83       		.byte	0x83
 1065 05e7 C3000000 		.4byte	0xc3
 1066 05eb A2000000 		.4byte	.LLST4
 1067 05ef 1B       		.uleb128 0x1b
 1068 05f0 706600   		.ascii	"pf\000"
 1069 05f3 01       		.byte	0x1
 1070 05f4 83       		.byte	0x83
 1071 05f5 AA040000 		.4byte	0x4aa
 1072 05f9 C0000000 		.4byte	.LLST5
 1073 05fd 16       		.uleb128 0x16
 1074 05fe 61726700 		.ascii	"arg\000"
 1075 0602 01       		.byte	0x1
 1076 0603 83       		.byte	0x83
 1077 0604 48020000 		.4byte	0x248
 1078 0608 02       		.uleb128 0x2
 1079 0609 91       		.byte	0x91
 1080 060a 00       		.sleb128 0
 1081 060b 22       		.uleb128 0x22
ARM GAS  /tmp/ccb4cBgo.s 			page 20


 1082 060c 77737000 		.ascii	"wsp\000"
 1083 0610 01       		.byte	0x1
 1084 0611 84       		.byte	0x84
 1085 0612 48020000 		.4byte	0x248
 1086 0616 EC000000 		.4byte	.LLST6
 1087 061a 22       		.uleb128 0x22
 1088 061b 747000   		.ascii	"tp\000"
 1089 061e 01       		.byte	0x1
 1090 061f 85       		.byte	0x85
 1091 0620 0C020000 		.4byte	0x20c
 1092 0624 FF000000 		.4byte	.LLST7
 1093 0628 17       		.uleb128 0x17
 1094 0629 10000000 		.4byte	.LBB8
 1095 062d 06000000 		.4byte	.LBE8-.LBB8
 1096 0631 43060000 		.4byte	0x643
 1097 0635 18       		.uleb128 0x18
 1098 0636 746D7000 		.ascii	"tmp\000"
 1099 063a 01       		.byte	0x1
 1100 063b 94       		.byte	0x94
 1101 063c 77000000 		.4byte	0x77
 1102 0640 01       		.uleb128 0x1
 1103 0641 53       		.byte	0x53
 1104 0642 00       		.byte	0
 1105 0643 17       		.uleb128 0x17
 1106 0644 30000000 		.4byte	.LBB9
 1107 0648 06000000 		.4byte	.LBE9-.LBB9
 1108 064c 5E060000 		.4byte	0x65e
 1109 0650 18       		.uleb128 0x18
 1110 0651 746D7000 		.ascii	"tmp\000"
 1111 0655 01       		.byte	0x1
 1112 0656 98       		.byte	0x98
 1113 0657 77000000 		.4byte	0x77
 1114 065b 01       		.uleb128 0x1
 1115 065c 53       		.byte	0x53
 1116 065d 00       		.byte	0
 1117 065e 23       		.uleb128 0x23
 1118 065f 0E000000 		.4byte	.LVL9
 1119 0663 D5070000 		.4byte	0x7d5
 1120 0667 79060000 		.4byte	0x679
 1121 066b 1F       		.uleb128 0x1f
 1122 066c 01       		.uleb128 0x1
 1123 066d 51       		.byte	0x51
 1124 066e 02       		.uleb128 0x2
 1125 066f 75       		.byte	0x75
 1126 0670 00       		.sleb128 0
 1127 0671 1F       		.uleb128 0x1f
 1128 0672 01       		.uleb128 0x1
 1129 0673 50       		.byte	0x50
 1130 0674 03       		.uleb128 0x3
 1131 0675 F3       		.byte	0xf3
 1132 0676 01       		.uleb128 0x1
 1133 0677 50       		.byte	0x50
 1134 0678 00       		.byte	0
 1135 0679 23       		.uleb128 0x23
 1136 067a 24000000 		.4byte	.LVL10
 1137 067e EF070000 		.4byte	0x7ef
 1138 0682 A1060000 		.4byte	0x6a1
ARM GAS  /tmp/ccb4cBgo.s 			page 21


 1139 0686 1F       		.uleb128 0x1f
 1140 0687 01       		.uleb128 0x1
 1141 0688 53       		.byte	0x53
 1142 0689 02       		.uleb128 0x2
 1143 068a 74       		.byte	0x74
 1144 068b 00       		.sleb128 0
 1145 068c 1F       		.uleb128 0x1f
 1146 068d 01       		.uleb128 0x1
 1147 068e 52       		.byte	0x52
 1148 068f 02       		.uleb128 0x2
 1149 0690 76       		.byte	0x76
 1150 0691 00       		.sleb128 0
 1151 0692 1F       		.uleb128 0x1f
 1152 0693 01       		.uleb128 0x1
 1153 0694 51       		.byte	0x51
 1154 0695 02       		.uleb128 0x2
 1155 0696 75       		.byte	0x75
 1156 0697 00       		.sleb128 0
 1157 0698 1F       		.uleb128 0x1f
 1158 0699 02       		.uleb128 0x2
 1159 069a 7D       		.byte	0x7d
 1160 069b 00       		.sleb128 0
 1161 069c 03       		.uleb128 0x3
 1162 069d 91       		.byte	0x91
 1163 069e 00       		.sleb128 0
 1164 069f 06       		.byte	0x6
 1165 06a0 00       		.byte	0
 1166 06a1 24       		.uleb128 0x24
 1167 06a2 30000000 		.4byte	.LVL12
 1168 06a6 19080000 		.4byte	0x819
 1169 06aa 1F       		.uleb128 0x1f
 1170 06ab 01       		.uleb128 0x1
 1171 06ac 51       		.byte	0x51
 1172 06ad 01       		.uleb128 0x1
 1173 06ae 30       		.byte	0x30
 1174 06af 1F       		.uleb128 0x1f
 1175 06b0 01       		.uleb128 0x1
 1176 06b1 50       		.byte	0x50
 1177 06b2 02       		.uleb128 0x2
 1178 06b3 74       		.byte	0x74
 1179 06b4 00       		.sleb128 0
 1180 06b5 00       		.byte	0
 1181 06b6 00       		.byte	0
 1182 06b7 15       		.uleb128 0x15
 1183 06b8 DA010000 		.4byte	.LASF78
 1184 06bc 01       		.byte	0x1
 1185 06bd B3       		.byte	0xb3
 1186 06be 0C020000 		.4byte	0x20c
 1187 06c2 00000000 		.4byte	.LFB10
 1188 06c6 3E000000 		.4byte	.LFE10-.LFB10
 1189 06ca 01       		.uleb128 0x1
 1190 06cb 9C       		.byte	0x9c
 1191 06cc A8070000 		.4byte	0x7a8
 1192 06d0 1B       		.uleb128 0x1b
 1193 06d1 6D7000   		.ascii	"mp\000"
 1194 06d4 01       		.byte	0x1
 1195 06d5 B3       		.byte	0xb3
ARM GAS  /tmp/ccb4cBgo.s 			page 22


 1196 06d6 A8070000 		.4byte	0x7a8
 1197 06da 1D010000 		.4byte	.LLST8
 1198 06de 21       		.uleb128 0x21
 1199 06df E6020000 		.4byte	.LASF77
 1200 06e3 01       		.byte	0x1
 1201 06e4 B3       		.byte	0xb3
 1202 06e5 C3000000 		.4byte	0xc3
 1203 06e9 3B010000 		.4byte	.LLST9
 1204 06ed 1B       		.uleb128 0x1b
 1205 06ee 706600   		.ascii	"pf\000"
 1206 06f1 01       		.byte	0x1
 1207 06f2 B4       		.byte	0xb4
 1208 06f3 AA040000 		.4byte	0x4aa
 1209 06f7 59010000 		.4byte	.LLST10
 1210 06fb 1B       		.uleb128 0x1b
 1211 06fc 61726700 		.ascii	"arg\000"
 1212 0700 01       		.byte	0x1
 1213 0701 B4       		.byte	0xb4
 1214 0702 48020000 		.4byte	0x248
 1215 0706 85010000 		.4byte	.LLST11
 1216 070a 22       		.uleb128 0x22
 1217 070b 77737000 		.ascii	"wsp\000"
 1218 070f 01       		.byte	0x1
 1219 0710 B5       		.byte	0xb5
 1220 0711 48020000 		.4byte	0x248
 1221 0715 A3010000 		.4byte	.LLST12
 1222 0719 22       		.uleb128 0x22
 1223 071a 747000   		.ascii	"tp\000"
 1224 071d 01       		.byte	0x1
 1225 071e B6       		.byte	0xb6
 1226 071f 0C020000 		.4byte	0x20c
 1227 0723 B6010000 		.4byte	.LLST13
 1228 0727 17       		.uleb128 0x17
 1229 0728 12000000 		.4byte	.LBB10
 1230 072c 06000000 		.4byte	.LBE10-.LBB10
 1231 0730 42070000 		.4byte	0x742
 1232 0734 18       		.uleb128 0x18
 1233 0735 746D7000 		.ascii	"tmp\000"
 1234 0739 01       		.byte	0x1
 1235 073a C7       		.byte	0xc7
 1236 073b 77000000 		.4byte	0x77
 1237 073f 01       		.uleb128 0x1
 1238 0740 53       		.byte	0x53
 1239 0741 00       		.byte	0
 1240 0742 17       		.uleb128 0x17
 1241 0743 32000000 		.4byte	.LBB11
 1242 0747 06000000 		.4byte	.LBE11-.LBB11
 1243 074b 5D070000 		.4byte	0x75d
 1244 074f 18       		.uleb128 0x18
 1245 0750 746D7000 		.ascii	"tmp\000"
 1246 0754 01       		.byte	0x1
 1247 0755 CC       		.byte	0xcc
 1248 0756 77000000 		.4byte	0x77
 1249 075a 01       		.uleb128 0x1
 1250 075b 53       		.byte	0x53
 1251 075c 00       		.byte	0
 1252 075d 23       		.uleb128 0x23
ARM GAS  /tmp/ccb4cBgo.s 			page 23


 1253 075e 10000000 		.4byte	.LVL15
 1254 0762 2F080000 		.4byte	0x82f
 1255 0766 71070000 		.4byte	0x771
 1256 076a 1F       		.uleb128 0x1f
 1257 076b 01       		.uleb128 0x1
 1258 076c 50       		.byte	0x50
 1259 076d 02       		.uleb128 0x2
 1260 076e 75       		.byte	0x75
 1261 076f 00       		.sleb128 0
 1262 0770 00       		.byte	0
 1263 0771 23       		.uleb128 0x23
 1264 0772 24000000 		.4byte	.LVL16
 1265 0776 EF070000 		.4byte	0x7ef
 1266 077a 92070000 		.4byte	0x792
 1267 077e 1F       		.uleb128 0x1f
 1268 077f 01       		.uleb128 0x1
 1269 0780 53       		.byte	0x53
 1270 0781 02       		.uleb128 0x2
 1271 0782 74       		.byte	0x74
 1272 0783 00       		.sleb128 0
 1273 0784 1F       		.uleb128 0x1f
 1274 0785 01       		.uleb128 0x1
 1275 0786 52       		.byte	0x52
 1276 0787 02       		.uleb128 0x2
 1277 0788 77       		.byte	0x77
 1278 0789 00       		.sleb128 0
 1279 078a 1F       		.uleb128 0x1f
 1280 078b 02       		.uleb128 0x2
 1281 078c 7D       		.byte	0x7d
 1282 078d 00       		.sleb128 0
 1283 078e 02       		.uleb128 0x2
 1284 078f 76       		.byte	0x76
 1285 0790 00       		.sleb128 0
 1286 0791 00       		.byte	0
 1287 0792 24       		.uleb128 0x24
 1288 0793 32000000 		.4byte	.LVL18
 1289 0797 19080000 		.4byte	0x819
 1290 079b 1F       		.uleb128 0x1f
 1291 079c 01       		.uleb128 0x1
 1292 079d 51       		.byte	0x51
 1293 079e 01       		.uleb128 0x1
 1294 079f 30       		.byte	0x30
 1295 07a0 1F       		.uleb128 0x1f
 1296 07a1 01       		.uleb128 0x1
 1297 07a2 50       		.byte	0x50
 1298 07a3 02       		.uleb128 0x2
 1299 07a4 74       		.byte	0x74
 1300 07a5 00       		.sleb128 0
 1301 07a6 00       		.byte	0
 1302 07a7 00       		.byte	0
 1303 07a8 09       		.uleb128 0x9
 1304 07a9 04       		.byte	0x4
 1305 07aa 52040000 		.4byte	0x452
 1306 07ae 25       		.uleb128 0x25
 1307 07af 8C010000 		.4byte	.LASF79
 1308 07b3 0A       		.byte	0xa
 1309 07b4 5A       		.byte	0x5a
ARM GAS  /tmp/ccb4cBgo.s 			page 24


 1310 07b5 BF070000 		.4byte	0x7bf
 1311 07b9 0F       		.uleb128 0xf
 1312 07ba 48020000 		.4byte	0x248
 1313 07be 00       		.byte	0
 1314 07bf 25       		.uleb128 0x25
 1315 07c0 20040000 		.4byte	.LASF80
 1316 07c4 0B       		.byte	0xb
 1317 07c5 5C       		.byte	0x5c
 1318 07c6 D5070000 		.4byte	0x7d5
 1319 07ca 0F       		.uleb128 0xf
 1320 07cb A8070000 		.4byte	0x7a8
 1321 07cf 0F       		.uleb128 0xf
 1322 07d0 48020000 		.4byte	0x248
 1323 07d4 00       		.byte	0
 1324 07d5 26       		.uleb128 0x26
 1325 07d6 8D030000 		.4byte	.LASF81
 1326 07da 0A       		.byte	0xa
 1327 07db 59       		.byte	0x59
 1328 07dc 48020000 		.4byte	0x248
 1329 07e0 EF070000 		.4byte	0x7ef
 1330 07e4 0F       		.uleb128 0xf
 1331 07e5 E1030000 		.4byte	0x3e1
 1332 07e9 0F       		.uleb128 0xf
 1333 07ea 2C000000 		.4byte	0x2c
 1334 07ee 00       		.byte	0
 1335 07ef 27       		.uleb128 0x27
 1336 07f0 97010000 		.4byte	.LASF82
 1337 07f4 06       		.byte	0x6
 1338 07f5 6201     		.2byte	0x162
 1339 07f7 0C020000 		.4byte	0x20c
 1340 07fb 19080000 		.4byte	0x819
 1341 07ff 0F       		.uleb128 0xf
 1342 0800 48020000 		.4byte	0x248
 1343 0804 0F       		.uleb128 0xf
 1344 0805 2C000000 		.4byte	0x2c
 1345 0809 0F       		.uleb128 0xf
 1346 080a C3000000 		.4byte	0xc3
 1347 080e 0F       		.uleb128 0xf
 1348 080f AA040000 		.4byte	0x4aa
 1349 0813 0F       		.uleb128 0xf
 1350 0814 48020000 		.4byte	0x248
 1351 0818 00       		.byte	0
 1352 0819 25       		.uleb128 0x25
 1353 081a EC030000 		.4byte	.LASF83
 1354 081e 0C       		.byte	0xc
 1355 081f 9C       		.byte	0x9c
 1356 0820 2F080000 		.4byte	0x82f
 1357 0824 0F       		.uleb128 0xf
 1358 0825 0C020000 		.4byte	0x20c
 1359 0829 0F       		.uleb128 0xf
 1360 082a CE000000 		.4byte	0xce
 1361 082e 00       		.byte	0
 1362 082f 28       		.uleb128 0x28
 1363 0830 14040000 		.4byte	.LASF84
 1364 0834 0B       		.byte	0xb
 1365 0835 5A       		.byte	0x5a
 1366 0836 48020000 		.4byte	0x248
ARM GAS  /tmp/ccb4cBgo.s 			page 25


 1367 083a 0F       		.uleb128 0xf
 1368 083b A8070000 		.4byte	0x7a8
 1369 083f 00       		.byte	0
 1370 0840 00       		.byte	0
 1371              		.section	.debug_abbrev,"",%progbits
 1372              	.Ldebug_abbrev0:
 1373 0000 01       		.uleb128 0x1
 1374 0001 11       		.uleb128 0x11
 1375 0002 01       		.byte	0x1
 1376 0003 25       		.uleb128 0x25
 1377 0004 0E       		.uleb128 0xe
 1378 0005 13       		.uleb128 0x13
 1379 0006 0B       		.uleb128 0xb
 1380 0007 03       		.uleb128 0x3
 1381 0008 0E       		.uleb128 0xe
 1382 0009 1B       		.uleb128 0x1b
 1383 000a 0E       		.uleb128 0xe
 1384 000b 55       		.uleb128 0x55
 1385 000c 17       		.uleb128 0x17
 1386 000d 11       		.uleb128 0x11
 1387 000e 01       		.uleb128 0x1
 1388 000f 10       		.uleb128 0x10
 1389 0010 17       		.uleb128 0x17
 1390 0011 00       		.byte	0
 1391 0012 00       		.byte	0
 1392 0013 02       		.uleb128 0x2
 1393 0014 24       		.uleb128 0x24
 1394 0015 00       		.byte	0
 1395 0016 0B       		.uleb128 0xb
 1396 0017 0B       		.uleb128 0xb
 1397 0018 3E       		.uleb128 0x3e
 1398 0019 0B       		.uleb128 0xb
 1399 001a 03       		.uleb128 0x3
 1400 001b 08       		.uleb128 0x8
 1401 001c 00       		.byte	0
 1402 001d 00       		.byte	0
 1403 001e 03       		.uleb128 0x3
 1404 001f 16       		.uleb128 0x16
 1405 0020 00       		.byte	0
 1406 0021 03       		.uleb128 0x3
 1407 0022 0E       		.uleb128 0xe
 1408 0023 3A       		.uleb128 0x3a
 1409 0024 0B       		.uleb128 0xb
 1410 0025 3B       		.uleb128 0x3b
 1411 0026 0B       		.uleb128 0xb
 1412 0027 49       		.uleb128 0x49
 1413 0028 13       		.uleb128 0x13
 1414 0029 00       		.byte	0
 1415 002a 00       		.byte	0
 1416 002b 04       		.uleb128 0x4
 1417 002c 24       		.uleb128 0x24
 1418 002d 00       		.byte	0
 1419 002e 0B       		.uleb128 0xb
 1420 002f 0B       		.uleb128 0xb
 1421 0030 3E       		.uleb128 0x3e
 1422 0031 0B       		.uleb128 0xb
 1423 0032 03       		.uleb128 0x3
ARM GAS  /tmp/ccb4cBgo.s 			page 26


 1424 0033 0E       		.uleb128 0xe
 1425 0034 00       		.byte	0
 1426 0035 00       		.byte	0
 1427 0036 05       		.uleb128 0x5
 1428 0037 13       		.uleb128 0x13
 1429 0038 01       		.byte	0x1
 1430 0039 03       		.uleb128 0x3
 1431 003a 0E       		.uleb128 0xe
 1432 003b 0B       		.uleb128 0xb
 1433 003c 0B       		.uleb128 0xb
 1434 003d 3A       		.uleb128 0x3a
 1435 003e 0B       		.uleb128 0xb
 1436 003f 3B       		.uleb128 0x3b
 1437 0040 0B       		.uleb128 0xb
 1438 0041 01       		.uleb128 0x1
 1439 0042 13       		.uleb128 0x13
 1440 0043 00       		.byte	0
 1441 0044 00       		.byte	0
 1442 0045 06       		.uleb128 0x6
 1443 0046 0D       		.uleb128 0xd
 1444 0047 00       		.byte	0
 1445 0048 03       		.uleb128 0x3
 1446 0049 0E       		.uleb128 0xe
 1447 004a 3A       		.uleb128 0x3a
 1448 004b 0B       		.uleb128 0xb
 1449 004c 3B       		.uleb128 0x3b
 1450 004d 0B       		.uleb128 0xb
 1451 004e 49       		.uleb128 0x49
 1452 004f 13       		.uleb128 0x13
 1453 0050 38       		.uleb128 0x38
 1454 0051 0B       		.uleb128 0xb
 1455 0052 00       		.byte	0
 1456 0053 00       		.byte	0
 1457 0054 07       		.uleb128 0x7
 1458 0055 0D       		.uleb128 0xd
 1459 0056 00       		.byte	0
 1460 0057 03       		.uleb128 0x3
 1461 0058 08       		.uleb128 0x8
 1462 0059 3A       		.uleb128 0x3a
 1463 005a 0B       		.uleb128 0xb
 1464 005b 3B       		.uleb128 0x3b
 1465 005c 0B       		.uleb128 0xb
 1466 005d 49       		.uleb128 0x49
 1467 005e 13       		.uleb128 0x13
 1468 005f 38       		.uleb128 0x38
 1469 0060 0B       		.uleb128 0xb
 1470 0061 00       		.byte	0
 1471 0062 00       		.byte	0
 1472 0063 08       		.uleb128 0x8
 1473 0064 13       		.uleb128 0x13
 1474 0065 01       		.byte	0x1
 1475 0066 0B       		.uleb128 0xb
 1476 0067 0B       		.uleb128 0xb
 1477 0068 3A       		.uleb128 0x3a
 1478 0069 0B       		.uleb128 0xb
 1479 006a 3B       		.uleb128 0x3b
 1480 006b 0B       		.uleb128 0xb
ARM GAS  /tmp/ccb4cBgo.s 			page 27


 1481 006c 01       		.uleb128 0x1
 1482 006d 13       		.uleb128 0x13
 1483 006e 00       		.byte	0
 1484 006f 00       		.byte	0
 1485 0070 09       		.uleb128 0x9
 1486 0071 0F       		.uleb128 0xf
 1487 0072 00       		.byte	0
 1488 0073 0B       		.uleb128 0xb
 1489 0074 0B       		.uleb128 0xb
 1490 0075 49       		.uleb128 0x49
 1491 0076 13       		.uleb128 0x13
 1492 0077 00       		.byte	0
 1493 0078 00       		.byte	0
 1494 0079 0A       		.uleb128 0xa
 1495 007a 0F       		.uleb128 0xf
 1496 007b 00       		.byte	0
 1497 007c 0B       		.uleb128 0xb
 1498 007d 0B       		.uleb128 0xb
 1499 007e 00       		.byte	0
 1500 007f 00       		.byte	0
 1501 0080 0B       		.uleb128 0xb
 1502 0081 0D       		.uleb128 0xd
 1503 0082 00       		.byte	0
 1504 0083 03       		.uleb128 0x3
 1505 0084 08       		.uleb128 0x8
 1506 0085 3A       		.uleb128 0x3a
 1507 0086 0B       		.uleb128 0xb
 1508 0087 3B       		.uleb128 0x3b
 1509 0088 05       		.uleb128 0x5
 1510 0089 49       		.uleb128 0x49
 1511 008a 13       		.uleb128 0x13
 1512 008b 38       		.uleb128 0x38
 1513 008c 0B       		.uleb128 0xb
 1514 008d 00       		.byte	0
 1515 008e 00       		.byte	0
 1516 008f 0C       		.uleb128 0xc
 1517 0090 13       		.uleb128 0x13
 1518 0091 01       		.byte	0x1
 1519 0092 03       		.uleb128 0x3
 1520 0093 0E       		.uleb128 0xe
 1521 0094 0B       		.uleb128 0xb
 1522 0095 0B       		.uleb128 0xb
 1523 0096 3A       		.uleb128 0x3a
 1524 0097 0B       		.uleb128 0xb
 1525 0098 3B       		.uleb128 0x3b
 1526 0099 05       		.uleb128 0x5
 1527 009a 01       		.uleb128 0x1
 1528 009b 13       		.uleb128 0x13
 1529 009c 00       		.byte	0
 1530 009d 00       		.byte	0
 1531 009e 0D       		.uleb128 0xd
 1532 009f 35       		.uleb128 0x35
 1533 00a0 00       		.byte	0
 1534 00a1 49       		.uleb128 0x49
 1535 00a2 13       		.uleb128 0x13
 1536 00a3 00       		.byte	0
 1537 00a4 00       		.byte	0
ARM GAS  /tmp/ccb4cBgo.s 			page 28


 1538 00a5 0E       		.uleb128 0xe
 1539 00a6 15       		.uleb128 0x15
 1540 00a7 01       		.byte	0x1
 1541 00a8 27       		.uleb128 0x27
 1542 00a9 19       		.uleb128 0x19
 1543 00aa 49       		.uleb128 0x49
 1544 00ab 13       		.uleb128 0x13
 1545 00ac 01       		.uleb128 0x1
 1546 00ad 13       		.uleb128 0x13
 1547 00ae 00       		.byte	0
 1548 00af 00       		.byte	0
 1549 00b0 0F       		.uleb128 0xf
 1550 00b1 05       		.uleb128 0x5
 1551 00b2 00       		.byte	0
 1552 00b3 49       		.uleb128 0x49
 1553 00b4 13       		.uleb128 0x13
 1554 00b5 00       		.byte	0
 1555 00b6 00       		.byte	0
 1556 00b7 10       		.uleb128 0x10
 1557 00b8 17       		.uleb128 0x17
 1558 00b9 01       		.byte	0x1
 1559 00ba 0B       		.uleb128 0xb
 1560 00bb 0B       		.uleb128 0xb
 1561 00bc 3A       		.uleb128 0x3a
 1562 00bd 0B       		.uleb128 0xb
 1563 00be 3B       		.uleb128 0x3b
 1564 00bf 0B       		.uleb128 0xb
 1565 00c0 01       		.uleb128 0x1
 1566 00c1 13       		.uleb128 0x13
 1567 00c2 00       		.byte	0
 1568 00c3 00       		.byte	0
 1569 00c4 11       		.uleb128 0x11
 1570 00c5 0D       		.uleb128 0xd
 1571 00c6 00       		.byte	0
 1572 00c7 03       		.uleb128 0x3
 1573 00c8 0E       		.uleb128 0xe
 1574 00c9 3A       		.uleb128 0x3a
 1575 00ca 0B       		.uleb128 0xb
 1576 00cb 3B       		.uleb128 0x3b
 1577 00cc 0B       		.uleb128 0xb
 1578 00cd 49       		.uleb128 0x49
 1579 00ce 13       		.uleb128 0x13
 1580 00cf 00       		.byte	0
 1581 00d0 00       		.byte	0
 1582 00d1 12       		.uleb128 0x12
 1583 00d2 17       		.uleb128 0x17
 1584 00d3 01       		.byte	0x1
 1585 00d4 03       		.uleb128 0x3
 1586 00d5 0E       		.uleb128 0xe
 1587 00d6 0B       		.uleb128 0xb
 1588 00d7 0B       		.uleb128 0xb
 1589 00d8 3A       		.uleb128 0x3a
 1590 00d9 0B       		.uleb128 0xb
 1591 00da 3B       		.uleb128 0x3b
 1592 00db 0B       		.uleb128 0xb
 1593 00dc 01       		.uleb128 0x1
 1594 00dd 13       		.uleb128 0x13
ARM GAS  /tmp/ccb4cBgo.s 			page 29


 1595 00de 00       		.byte	0
 1596 00df 00       		.byte	0
 1597 00e0 13       		.uleb128 0x13
 1598 00e1 0D       		.uleb128 0xd
 1599 00e2 00       		.byte	0
 1600 00e3 03       		.uleb128 0x3
 1601 00e4 08       		.uleb128 0x8
 1602 00e5 3A       		.uleb128 0x3a
 1603 00e6 0B       		.uleb128 0xb
 1604 00e7 3B       		.uleb128 0x3b
 1605 00e8 0B       		.uleb128 0xb
 1606 00e9 49       		.uleb128 0x49
 1607 00ea 13       		.uleb128 0x13
 1608 00eb 00       		.byte	0
 1609 00ec 00       		.byte	0
 1610 00ed 14       		.uleb128 0x14
 1611 00ee 26       		.uleb128 0x26
 1612 00ef 00       		.byte	0
 1613 00f0 49       		.uleb128 0x49
 1614 00f1 13       		.uleb128 0x13
 1615 00f2 00       		.byte	0
 1616 00f3 00       		.byte	0
 1617 00f4 15       		.uleb128 0x15
 1618 00f5 2E       		.uleb128 0x2e
 1619 00f6 01       		.byte	0x1
 1620 00f7 3F       		.uleb128 0x3f
 1621 00f8 19       		.uleb128 0x19
 1622 00f9 03       		.uleb128 0x3
 1623 00fa 0E       		.uleb128 0xe
 1624 00fb 3A       		.uleb128 0x3a
 1625 00fc 0B       		.uleb128 0xb
 1626 00fd 3B       		.uleb128 0x3b
 1627 00fe 0B       		.uleb128 0xb
 1628 00ff 27       		.uleb128 0x27
 1629 0100 19       		.uleb128 0x19
 1630 0101 49       		.uleb128 0x49
 1631 0102 13       		.uleb128 0x13
 1632 0103 11       		.uleb128 0x11
 1633 0104 01       		.uleb128 0x1
 1634 0105 12       		.uleb128 0x12
 1635 0106 06       		.uleb128 0x6
 1636 0107 40       		.uleb128 0x40
 1637 0108 18       		.uleb128 0x18
 1638 0109 9742     		.uleb128 0x2117
 1639 010b 19       		.uleb128 0x19
 1640 010c 01       		.uleb128 0x1
 1641 010d 13       		.uleb128 0x13
 1642 010e 00       		.byte	0
 1643 010f 00       		.byte	0
 1644 0110 16       		.uleb128 0x16
 1645 0111 05       		.uleb128 0x5
 1646 0112 00       		.byte	0
 1647 0113 03       		.uleb128 0x3
 1648 0114 08       		.uleb128 0x8
 1649 0115 3A       		.uleb128 0x3a
 1650 0116 0B       		.uleb128 0xb
 1651 0117 3B       		.uleb128 0x3b
ARM GAS  /tmp/ccb4cBgo.s 			page 30


 1652 0118 0B       		.uleb128 0xb
 1653 0119 49       		.uleb128 0x49
 1654 011a 13       		.uleb128 0x13
 1655 011b 02       		.uleb128 0x2
 1656 011c 18       		.uleb128 0x18
 1657 011d 00       		.byte	0
 1658 011e 00       		.byte	0
 1659 011f 17       		.uleb128 0x17
 1660 0120 0B       		.uleb128 0xb
 1661 0121 01       		.byte	0x1
 1662 0122 11       		.uleb128 0x11
 1663 0123 01       		.uleb128 0x1
 1664 0124 12       		.uleb128 0x12
 1665 0125 06       		.uleb128 0x6
 1666 0126 01       		.uleb128 0x1
 1667 0127 13       		.uleb128 0x13
 1668 0128 00       		.byte	0
 1669 0129 00       		.byte	0
 1670 012a 18       		.uleb128 0x18
 1671 012b 34       		.uleb128 0x34
 1672 012c 00       		.byte	0
 1673 012d 03       		.uleb128 0x3
 1674 012e 08       		.uleb128 0x8
 1675 012f 3A       		.uleb128 0x3a
 1676 0130 0B       		.uleb128 0xb
 1677 0131 3B       		.uleb128 0x3b
 1678 0132 0B       		.uleb128 0xb
 1679 0133 49       		.uleb128 0x49
 1680 0134 13       		.uleb128 0x13
 1681 0135 02       		.uleb128 0x2
 1682 0136 18       		.uleb128 0x18
 1683 0137 00       		.byte	0
 1684 0138 00       		.byte	0
 1685 0139 19       		.uleb128 0x19
 1686 013a 0B       		.uleb128 0xb
 1687 013b 01       		.byte	0x1
 1688 013c 55       		.uleb128 0x55
 1689 013d 17       		.uleb128 0x17
 1690 013e 00       		.byte	0
 1691 013f 00       		.byte	0
 1692 0140 1A       		.uleb128 0x1a
 1693 0141 2E       		.uleb128 0x2e
 1694 0142 01       		.byte	0x1
 1695 0143 3F       		.uleb128 0x3f
 1696 0144 19       		.uleb128 0x19
 1697 0145 03       		.uleb128 0x3
 1698 0146 0E       		.uleb128 0xe
 1699 0147 3A       		.uleb128 0x3a
 1700 0148 0B       		.uleb128 0xb
 1701 0149 3B       		.uleb128 0x3b
 1702 014a 0B       		.uleb128 0xb
 1703 014b 27       		.uleb128 0x27
 1704 014c 19       		.uleb128 0x19
 1705 014d 11       		.uleb128 0x11
 1706 014e 01       		.uleb128 0x1
 1707 014f 12       		.uleb128 0x12
 1708 0150 06       		.uleb128 0x6
ARM GAS  /tmp/ccb4cBgo.s 			page 31


 1709 0151 40       		.uleb128 0x40
 1710 0152 18       		.uleb128 0x18
 1711 0153 9742     		.uleb128 0x2117
 1712 0155 19       		.uleb128 0x19
 1713 0156 01       		.uleb128 0x1
 1714 0157 13       		.uleb128 0x13
 1715 0158 00       		.byte	0
 1716 0159 00       		.byte	0
 1717 015a 1B       		.uleb128 0x1b
 1718 015b 05       		.uleb128 0x5
 1719 015c 00       		.byte	0
 1720 015d 03       		.uleb128 0x3
 1721 015e 08       		.uleb128 0x8
 1722 015f 3A       		.uleb128 0x3a
 1723 0160 0B       		.uleb128 0xb
 1724 0161 3B       		.uleb128 0x3b
 1725 0162 0B       		.uleb128 0xb
 1726 0163 49       		.uleb128 0x49
 1727 0164 13       		.uleb128 0x13
 1728 0165 02       		.uleb128 0x2
 1729 0166 17       		.uleb128 0x17
 1730 0167 00       		.byte	0
 1731 0168 00       		.byte	0
 1732 0169 1C       		.uleb128 0x1c
 1733 016a 34       		.uleb128 0x34
 1734 016b 00       		.byte	0
 1735 016c 03       		.uleb128 0x3
 1736 016d 0E       		.uleb128 0xe
 1737 016e 3A       		.uleb128 0x3a
 1738 016f 0B       		.uleb128 0xb
 1739 0170 3B       		.uleb128 0x3b
 1740 0171 0B       		.uleb128 0xb
 1741 0172 49       		.uleb128 0x49
 1742 0173 13       		.uleb128 0x13
 1743 0174 02       		.uleb128 0x2
 1744 0175 17       		.uleb128 0x17
 1745 0176 00       		.byte	0
 1746 0177 00       		.byte	0
 1747 0178 1D       		.uleb128 0x1d
 1748 0179 0B       		.uleb128 0xb
 1749 017a 01       		.byte	0x1
 1750 017b 55       		.uleb128 0x55
 1751 017c 17       		.uleb128 0x17
 1752 017d 01       		.uleb128 0x1
 1753 017e 13       		.uleb128 0x13
 1754 017f 00       		.byte	0
 1755 0180 00       		.byte	0
 1756 0181 1E       		.uleb128 0x1e
 1757 0182 898201   		.uleb128 0x4109
 1758 0185 01       		.byte	0x1
 1759 0186 11       		.uleb128 0x11
 1760 0187 01       		.uleb128 0x1
 1761 0188 9542     		.uleb128 0x2115
 1762 018a 19       		.uleb128 0x19
 1763 018b 31       		.uleb128 0x31
 1764 018c 13       		.uleb128 0x13
 1765 018d 01       		.uleb128 0x1
ARM GAS  /tmp/ccb4cBgo.s 			page 32


 1766 018e 13       		.uleb128 0x13
 1767 018f 00       		.byte	0
 1768 0190 00       		.byte	0
 1769 0191 1F       		.uleb128 0x1f
 1770 0192 8A8201   		.uleb128 0x410a
 1771 0195 00       		.byte	0
 1772 0196 02       		.uleb128 0x2
 1773 0197 18       		.uleb128 0x18
 1774 0198 9142     		.uleb128 0x2111
 1775 019a 18       		.uleb128 0x18
 1776 019b 00       		.byte	0
 1777 019c 00       		.byte	0
 1778 019d 20       		.uleb128 0x20
 1779 019e 898201   		.uleb128 0x4109
 1780 01a1 01       		.byte	0x1
 1781 01a2 11       		.uleb128 0x11
 1782 01a3 01       		.uleb128 0x1
 1783 01a4 9542     		.uleb128 0x2115
 1784 01a6 19       		.uleb128 0x19
 1785 01a7 31       		.uleb128 0x31
 1786 01a8 13       		.uleb128 0x13
 1787 01a9 00       		.byte	0
 1788 01aa 00       		.byte	0
 1789 01ab 21       		.uleb128 0x21
 1790 01ac 05       		.uleb128 0x5
 1791 01ad 00       		.byte	0
 1792 01ae 03       		.uleb128 0x3
 1793 01af 0E       		.uleb128 0xe
 1794 01b0 3A       		.uleb128 0x3a
 1795 01b1 0B       		.uleb128 0xb
 1796 01b2 3B       		.uleb128 0x3b
 1797 01b3 0B       		.uleb128 0xb
 1798 01b4 49       		.uleb128 0x49
 1799 01b5 13       		.uleb128 0x13
 1800 01b6 02       		.uleb128 0x2
 1801 01b7 17       		.uleb128 0x17
 1802 01b8 00       		.byte	0
 1803 01b9 00       		.byte	0
 1804 01ba 22       		.uleb128 0x22
 1805 01bb 34       		.uleb128 0x34
 1806 01bc 00       		.byte	0
 1807 01bd 03       		.uleb128 0x3
 1808 01be 08       		.uleb128 0x8
 1809 01bf 3A       		.uleb128 0x3a
 1810 01c0 0B       		.uleb128 0xb
 1811 01c1 3B       		.uleb128 0x3b
 1812 01c2 0B       		.uleb128 0xb
 1813 01c3 49       		.uleb128 0x49
 1814 01c4 13       		.uleb128 0x13
 1815 01c5 02       		.uleb128 0x2
 1816 01c6 17       		.uleb128 0x17
 1817 01c7 00       		.byte	0
 1818 01c8 00       		.byte	0
 1819 01c9 23       		.uleb128 0x23
 1820 01ca 898201   		.uleb128 0x4109
 1821 01cd 01       		.byte	0x1
 1822 01ce 11       		.uleb128 0x11
ARM GAS  /tmp/ccb4cBgo.s 			page 33


 1823 01cf 01       		.uleb128 0x1
 1824 01d0 31       		.uleb128 0x31
 1825 01d1 13       		.uleb128 0x13
 1826 01d2 01       		.uleb128 0x1
 1827 01d3 13       		.uleb128 0x13
 1828 01d4 00       		.byte	0
 1829 01d5 00       		.byte	0
 1830 01d6 24       		.uleb128 0x24
 1831 01d7 898201   		.uleb128 0x4109
 1832 01da 01       		.byte	0x1
 1833 01db 11       		.uleb128 0x11
 1834 01dc 01       		.uleb128 0x1
 1835 01dd 31       		.uleb128 0x31
 1836 01de 13       		.uleb128 0x13
 1837 01df 00       		.byte	0
 1838 01e0 00       		.byte	0
 1839 01e1 25       		.uleb128 0x25
 1840 01e2 2E       		.uleb128 0x2e
 1841 01e3 01       		.byte	0x1
 1842 01e4 3F       		.uleb128 0x3f
 1843 01e5 19       		.uleb128 0x19
 1844 01e6 03       		.uleb128 0x3
 1845 01e7 0E       		.uleb128 0xe
 1846 01e8 3A       		.uleb128 0x3a
 1847 01e9 0B       		.uleb128 0xb
 1848 01ea 3B       		.uleb128 0x3b
 1849 01eb 0B       		.uleb128 0xb
 1850 01ec 27       		.uleb128 0x27
 1851 01ed 19       		.uleb128 0x19
 1852 01ee 3C       		.uleb128 0x3c
 1853 01ef 19       		.uleb128 0x19
 1854 01f0 01       		.uleb128 0x1
 1855 01f1 13       		.uleb128 0x13
 1856 01f2 00       		.byte	0
 1857 01f3 00       		.byte	0
 1858 01f4 26       		.uleb128 0x26
 1859 01f5 2E       		.uleb128 0x2e
 1860 01f6 01       		.byte	0x1
 1861 01f7 3F       		.uleb128 0x3f
 1862 01f8 19       		.uleb128 0x19
 1863 01f9 03       		.uleb128 0x3
 1864 01fa 0E       		.uleb128 0xe
 1865 01fb 3A       		.uleb128 0x3a
 1866 01fc 0B       		.uleb128 0xb
 1867 01fd 3B       		.uleb128 0x3b
 1868 01fe 0B       		.uleb128 0xb
 1869 01ff 27       		.uleb128 0x27
 1870 0200 19       		.uleb128 0x19
 1871 0201 49       		.uleb128 0x49
 1872 0202 13       		.uleb128 0x13
 1873 0203 3C       		.uleb128 0x3c
 1874 0204 19       		.uleb128 0x19
 1875 0205 01       		.uleb128 0x1
 1876 0206 13       		.uleb128 0x13
 1877 0207 00       		.byte	0
 1878 0208 00       		.byte	0
 1879 0209 27       		.uleb128 0x27
ARM GAS  /tmp/ccb4cBgo.s 			page 34


 1880 020a 2E       		.uleb128 0x2e
 1881 020b 01       		.byte	0x1
 1882 020c 3F       		.uleb128 0x3f
 1883 020d 19       		.uleb128 0x19
 1884 020e 03       		.uleb128 0x3
 1885 020f 0E       		.uleb128 0xe
 1886 0210 3A       		.uleb128 0x3a
 1887 0211 0B       		.uleb128 0xb
 1888 0212 3B       		.uleb128 0x3b
 1889 0213 05       		.uleb128 0x5
 1890 0214 27       		.uleb128 0x27
 1891 0215 19       		.uleb128 0x19
 1892 0216 49       		.uleb128 0x49
 1893 0217 13       		.uleb128 0x13
 1894 0218 3C       		.uleb128 0x3c
 1895 0219 19       		.uleb128 0x19
 1896 021a 01       		.uleb128 0x1
 1897 021b 13       		.uleb128 0x13
 1898 021c 00       		.byte	0
 1899 021d 00       		.byte	0
 1900 021e 28       		.uleb128 0x28
 1901 021f 2E       		.uleb128 0x2e
 1902 0220 01       		.byte	0x1
 1903 0221 3F       		.uleb128 0x3f
 1904 0222 19       		.uleb128 0x19
 1905 0223 03       		.uleb128 0x3
 1906 0224 0E       		.uleb128 0xe
 1907 0225 3A       		.uleb128 0x3a
 1908 0226 0B       		.uleb128 0xb
 1909 0227 3B       		.uleb128 0x3b
 1910 0228 0B       		.uleb128 0xb
 1911 0229 27       		.uleb128 0x27
 1912 022a 19       		.uleb128 0x19
 1913 022b 49       		.uleb128 0x49
 1914 022c 13       		.uleb128 0x13
 1915 022d 3C       		.uleb128 0x3c
 1916 022e 19       		.uleb128 0x19
 1917 022f 00       		.byte	0
 1918 0230 00       		.byte	0
 1919 0231 00       		.byte	0
 1920              		.section	.debug_loc,"",%progbits
 1921              	.Ldebug_loc0:
 1922              	.LLST0:
 1923 0000 00000000 		.4byte	.LVL1
 1924 0004 3D000000 		.4byte	.LVL4-1
 1925 0008 0100     		.2byte	0x1
 1926 000a 50       		.byte	0x50
 1927 000b 3D000000 		.4byte	.LVL4-1
 1928 000f 3E000000 		.4byte	.LVL4
 1929 0013 0400     		.2byte	0x4
 1930 0015 F3       		.byte	0xf3
 1931 0016 01       		.uleb128 0x1
 1932 0017 50       		.byte	0x50
 1933 0018 9F       		.byte	0x9f
 1934 0019 3E000000 		.4byte	.LVL4
 1935 001d 44000000 		.4byte	.LVL6
 1936 0021 0100     		.2byte	0x1
ARM GAS  /tmp/ccb4cBgo.s 			page 35


 1937 0023 50       		.byte	0x50
 1938 0024 44000000 		.4byte	.LVL6
 1939 0028 4D000000 		.4byte	.LVL7-1
 1940 002c 0100     		.2byte	0x1
 1941 002e 51       		.byte	0x51
 1942 002f 4D000000 		.4byte	.LVL7-1
 1943 0033 4E000000 		.4byte	.LFE8
 1944 0037 0400     		.2byte	0x4
 1945 0039 F3       		.byte	0xf3
 1946 003a 01       		.uleb128 0x1
 1947 003b 50       		.byte	0x50
 1948 003c 9F       		.byte	0x9f
 1949 003d 00000000 		.4byte	0
 1950 0041 00000000 		.4byte	0
 1951              	.LLST1:
 1952 0045 12000000 		.4byte	.LVL2
 1953 0049 32000000 		.4byte	.LVL3
 1954 004d 0100     		.2byte	0x1
 1955 004f 52       		.byte	0x52
 1956 0050 3E000000 		.4byte	.LVL4
 1957 0054 40000000 		.4byte	.LVL5
 1958 0058 0100     		.2byte	0x1
 1959 005a 52       		.byte	0x52
 1960 005b 00000000 		.4byte	0
 1961 005f 00000000 		.4byte	0
 1962              	.LLST2:
 1963 0063 00000000 		.4byte	.LVL8
 1964 0067 0D000000 		.4byte	.LVL9-1
 1965 006b 0100     		.2byte	0x1
 1966 006d 50       		.byte	0x50
 1967 006e 0D000000 		.4byte	.LVL9-1
 1968 0072 3C000000 		.4byte	.LFE9
 1969 0076 0400     		.2byte	0x4
 1970 0078 F3       		.byte	0xf3
 1971 0079 01       		.uleb128 0x1
 1972 007a 50       		.byte	0x50
 1973 007b 9F       		.byte	0x9f
 1974 007c 00000000 		.4byte	0
 1975 0080 00000000 		.4byte	0
 1976              	.LLST3:
 1977 0084 00000000 		.4byte	.LVL8
 1978 0088 0D000000 		.4byte	.LVL9-1
 1979 008c 0100     		.2byte	0x1
 1980 008e 51       		.byte	0x51
 1981 008f 0D000000 		.4byte	.LVL9-1
 1982 0093 3C000000 		.4byte	.LFE9
 1983 0097 0100     		.2byte	0x1
 1984 0099 55       		.byte	0x55
 1985 009a 00000000 		.4byte	0
 1986 009e 00000000 		.4byte	0
 1987              	.LLST4:
 1988 00a2 00000000 		.4byte	.LVL8
 1989 00a6 0D000000 		.4byte	.LVL9-1
 1990 00aa 0100     		.2byte	0x1
 1991 00ac 52       		.byte	0x52
 1992 00ad 0D000000 		.4byte	.LVL9-1
 1993 00b1 3C000000 		.4byte	.LFE9
ARM GAS  /tmp/ccb4cBgo.s 			page 36


 1994 00b5 0100     		.2byte	0x1
 1995 00b7 56       		.byte	0x56
 1996 00b8 00000000 		.4byte	0
 1997 00bc 00000000 		.4byte	0
 1998              	.LLST5:
 1999 00c0 00000000 		.4byte	.LVL8
 2000 00c4 0D000000 		.4byte	.LVL9-1
 2001 00c8 0100     		.2byte	0x1
 2002 00ca 53       		.byte	0x53
 2003 00cb 0D000000 		.4byte	.LVL9-1
 2004 00cf 2C000000 		.4byte	.LVL11
 2005 00d3 0100     		.2byte	0x1
 2006 00d5 54       		.byte	0x54
 2007 00d6 2C000000 		.4byte	.LVL11
 2008 00da 3C000000 		.4byte	.LFE9
 2009 00de 0400     		.2byte	0x4
 2010 00e0 F3       		.byte	0xf3
 2011 00e1 01       		.uleb128 0x1
 2012 00e2 53       		.byte	0x53
 2013 00e3 9F       		.byte	0x9f
 2014 00e4 00000000 		.4byte	0
 2015 00e8 00000000 		.4byte	0
 2016              	.LLST6:
 2017 00ec 0E000000 		.4byte	.LVL9
 2018 00f0 23000000 		.4byte	.LVL10-1
 2019 00f4 0100     		.2byte	0x1
 2020 00f6 50       		.byte	0x50
 2021 00f7 00000000 		.4byte	0
 2022 00fb 00000000 		.4byte	0
 2023              	.LLST7:
 2024 00ff 2C000000 		.4byte	.LVL11
 2025 0103 2F000000 		.4byte	.LVL12-1
 2026 0107 0100     		.2byte	0x1
 2027 0109 50       		.byte	0x50
 2028 010a 2F000000 		.4byte	.LVL12-1
 2029 010e 38000000 		.4byte	.LVL13
 2030 0112 0100     		.2byte	0x1
 2031 0114 54       		.byte	0x54
 2032 0115 00000000 		.4byte	0
 2033 0119 00000000 		.4byte	0
 2034              	.LLST8:
 2035 011d 00000000 		.4byte	.LVL14
 2036 0121 0F000000 		.4byte	.LVL15-1
 2037 0125 0100     		.2byte	0x1
 2038 0127 50       		.byte	0x50
 2039 0128 0F000000 		.4byte	.LVL15-1
 2040 012c 3E000000 		.4byte	.LFE10
 2041 0130 0100     		.2byte	0x1
 2042 0132 55       		.byte	0x55
 2043 0133 00000000 		.4byte	0
 2044 0137 00000000 		.4byte	0
 2045              	.LLST9:
 2046 013b 00000000 		.4byte	.LVL14
 2047 013f 0F000000 		.4byte	.LVL15-1
 2048 0143 0100     		.2byte	0x1
 2049 0145 51       		.byte	0x51
 2050 0146 0F000000 		.4byte	.LVL15-1
ARM GAS  /tmp/ccb4cBgo.s 			page 37


 2051 014a 3E000000 		.4byte	.LFE10
 2052 014e 0100     		.2byte	0x1
 2053 0150 57       		.byte	0x57
 2054 0151 00000000 		.4byte	0
 2055 0155 00000000 		.4byte	0
 2056              	.LLST10:
 2057 0159 00000000 		.4byte	.LVL14
 2058 015d 0F000000 		.4byte	.LVL15-1
 2059 0161 0100     		.2byte	0x1
 2060 0163 52       		.byte	0x52
 2061 0164 0F000000 		.4byte	.LVL15-1
 2062 0168 2E000000 		.4byte	.LVL17
 2063 016c 0100     		.2byte	0x1
 2064 016e 54       		.byte	0x54
 2065 016f 2E000000 		.4byte	.LVL17
 2066 0173 3E000000 		.4byte	.LFE10
 2067 0177 0400     		.2byte	0x4
 2068 0179 F3       		.byte	0xf3
 2069 017a 01       		.uleb128 0x1
 2070 017b 52       		.byte	0x52
 2071 017c 9F       		.byte	0x9f
 2072 017d 00000000 		.4byte	0
 2073 0181 00000000 		.4byte	0
 2074              	.LLST11:
 2075 0185 00000000 		.4byte	.LVL14
 2076 0189 0F000000 		.4byte	.LVL15-1
 2077 018d 0100     		.2byte	0x1
 2078 018f 53       		.byte	0x53
 2079 0190 0F000000 		.4byte	.LVL15-1
 2080 0194 3E000000 		.4byte	.LFE10
 2081 0198 0100     		.2byte	0x1
 2082 019a 56       		.byte	0x56
 2083 019b 00000000 		.4byte	0
 2084 019f 00000000 		.4byte	0
 2085              	.LLST12:
 2086 01a3 10000000 		.4byte	.LVL15
 2087 01a7 23000000 		.4byte	.LVL16-1
 2088 01ab 0100     		.2byte	0x1
 2089 01ad 50       		.byte	0x50
 2090 01ae 00000000 		.4byte	0
 2091 01b2 00000000 		.4byte	0
 2092              	.LLST13:
 2093 01b6 2E000000 		.4byte	.LVL17
 2094 01ba 31000000 		.4byte	.LVL18-1
 2095 01be 0100     		.2byte	0x1
 2096 01c0 50       		.byte	0x50
 2097 01c1 31000000 		.4byte	.LVL18-1
 2098 01c5 3A000000 		.4byte	.LVL19
 2099 01c9 0100     		.2byte	0x1
 2100 01cb 54       		.byte	0x54
 2101 01cc 00000000 		.4byte	0
 2102 01d0 00000000 		.4byte	0
 2103              		.section	.debug_aranges,"",%progbits
 2104 0000 34000000 		.4byte	0x34
 2105 0004 0200     		.2byte	0x2
 2106 0006 00000000 		.4byte	.Ldebug_info0
 2107 000a 04       		.byte	0x4
ARM GAS  /tmp/ccb4cBgo.s 			page 38


 2108 000b 00       		.byte	0
 2109 000c 0000     		.2byte	0
 2110 000e 0000     		.2byte	0
 2111 0010 00000000 		.4byte	.LFB7
 2112 0014 14000000 		.4byte	.LFE7-.LFB7
 2113 0018 00000000 		.4byte	.LFB8
 2114 001c 4E000000 		.4byte	.LFE8-.LFB8
 2115 0020 00000000 		.4byte	.LFB9
 2116 0024 3C000000 		.4byte	.LFE9-.LFB9
 2117 0028 00000000 		.4byte	.LFB10
 2118 002c 3E000000 		.4byte	.LFE10-.LFB10
 2119 0030 00000000 		.4byte	0
 2120 0034 00000000 		.4byte	0
 2121              		.section	.debug_ranges,"",%progbits
 2122              	.Ldebug_ranges0:
 2123 0000 08000000 		.4byte	.LBB3
 2124 0004 0A000000 		.4byte	.LBE3
 2125 0008 0E000000 		.4byte	.LBB4
 2126 000c 12000000 		.4byte	.LBE4
 2127 0010 00000000 		.4byte	0
 2128 0014 00000000 		.4byte	0
 2129 0018 0A000000 		.4byte	.LBB6
 2130 001c 0C000000 		.4byte	.LBE6
 2131 0020 12000000 		.4byte	.LBB7
 2132 0024 16000000 		.4byte	.LBE7
 2133 0028 00000000 		.4byte	0
 2134 002c 00000000 		.4byte	0
 2135 0030 00000000 		.4byte	.LFB7
 2136 0034 14000000 		.4byte	.LFE7
 2137 0038 00000000 		.4byte	.LFB8
 2138 003c 4E000000 		.4byte	.LFE8
 2139 0040 00000000 		.4byte	.LFB9
 2140 0044 3C000000 		.4byte	.LFE9
 2141 0048 00000000 		.4byte	.LFB10
 2142 004c 3E000000 		.4byte	.LFE10
 2143 0050 00000000 		.4byte	0
 2144 0054 00000000 		.4byte	0
 2145              		.section	.debug_line,"",%progbits
 2146              	.Ldebug_line0:
 2147 0000 15020000 		.section	.debug_str,"MS",%progbits,1
 2147      02009801 
 2147      00000201 
 2147      FB0E0D00 
 2147      01010101 
 2148              	.LASF72:
 2149 0000 7466756E 		.ascii	"tfunc_t\000"
 2149      635F7400 
 2150              	.LASF40:
 2151 0008 54687265 		.ascii	"ThreadsQueue\000"
 2151      61647351 
 2151      75657565 
 2151      00
 2152              	.LASF35:
 2153 0015 705F6D73 		.ascii	"p_msg\000"
 2153      6700
 2154              	.LASF2:
 2155 001b 73697A65 		.ascii	"size_t\000"
ARM GAS  /tmp/ccb4cBgo.s 			page 39


 2155      5F7400
 2156              	.LASF67:
 2157 0022 7264796D 		.ascii	"rdymsg\000"
 2157      736700
 2158              	.LASF12:
 2159 0029 75696E74 		.ascii	"uint64_t\000"
 2159      36345F74 
 2159      00
 2160              	.LASF86:
 2161 0032 2E2E2F74 		.ascii	"../third_party/ChibiOS/os/kernel/src/chdynamic.c\000"
 2161      68697264 
 2161      5F706172 
 2161      74792F43 
 2161      68696269 
 2162              	.LASF66:
 2163 0063 4D656D6F 		.ascii	"MemoryPool\000"
 2163      7279506F 
 2163      6F6C00
 2164              	.LASF85:
 2165 006e 474E5520 		.ascii	"GNU C 4.8.1 -mcpu=cortex-m3 -mno-thumb-interwork -m"
 2165      4320342E 
 2165      382E3120 
 2165      2D6D6370 
 2165      753D636F 
 2166 00a1 7468756D 		.ascii	"thumb -ggdb -O2 -std=gnu99 -fomit-frame-pointer -fa"
 2166      62202D67 
 2166      67646220 
 2166      2D4F3220 
 2166      2D737464 
 2167 00d4 6C69676E 		.ascii	"lign-functions=16 -ffunction-sections -fdata-sectio"
 2167      2D66756E 
 2167      6374696F 
 2167      6E733D31 
 2167      36202D66 
 2168 0107 6E73202D 		.ascii	"ns -fno-common\000"
 2168      666E6F2D 
 2168      636F6D6D 
 2168      6F6E00
 2169              	.LASF51:
 2170 0116 6D656D67 		.ascii	"memgetfunc_t\000"
 2170      65746675 
 2170      6E635F74 
 2170      00
 2171              	.LASF13:
 2172 0123 6C6F6E67 		.ascii	"long long unsigned int\000"
 2172      206C6F6E 
 2172      6720756E 
 2172      7369676E 
 2172      65642069 
 2173              	.LASF68:
 2174 013a 65786974 		.ascii	"exitcode\000"
 2174      636F6465 
 2174      00
 2175              	.LASF55:
 2176 0143 685F6672 		.ascii	"h_free\000"
 2176      656500
 2177              	.LASF76:
ARM GAS  /tmp/ccb4cBgo.s 			page 40


 2178 014a 68656170 		.ascii	"heapp\000"
 2178      7000
 2179              	.LASF57:
 2180 0150 6E657874 		.ascii	"next\000"
 2180      00
 2181              	.LASF24:
 2182 0155 705F7072 		.ascii	"p_prio\000"
 2182      696F00
 2183              	.LASF11:
 2184 015c 6C6F6E67 		.ascii	"long long int\000"
 2184      206C6F6E 
 2184      6720696E 
 2184      7400
 2185              	.LASF1:
 2186 016a 7369676E 		.ascii	"signed char\000"
 2186      65642063 
 2186      68617200 
 2187              	.LASF56:
 2188 0176 685F6D74 		.ascii	"h_mtx\000"
 2188      7800
 2189              	.LASF39:
 2190 017c 705F6D70 		.ascii	"p_mpool\000"
 2190      6F6F6C00 
 2191              	.LASF48:
 2192 0184 6D5F7175 		.ascii	"m_queue\000"
 2192      65756500 
 2193              	.LASF79:
 2194 018c 63684865 		.ascii	"chHeapFree\000"
 2194      61704672 
 2194      656500
 2195              	.LASF82:
 2196 0197 63685468 		.ascii	"chThdCreateI\000"
 2196      64437265 
 2196      61746549 
 2196      00
 2197              	.LASF8:
 2198 01a4 6C6F6E67 		.ascii	"long int\000"
 2198      20696E74 
 2198      00
 2199              	.LASF75:
 2200 01ad 63685468 		.ascii	"chThdCreateFromHeap\000"
 2200      64437265 
 2200      61746546 
 2200      726F6D48 
 2200      65617000 
 2201              	.LASF15:
 2202 01c1 74737461 		.ascii	"tstate_t\000"
 2202      74655F74 
 2202      00
 2203              	.LASF63:
 2204 01ca 6D705F6E 		.ascii	"mp_next\000"
 2204      65787400 
 2205              	.LASF26:
 2206 01d2 705F6E65 		.ascii	"p_newer\000"
 2206      77657200 
 2207              	.LASF78:
 2208 01da 63685468 		.ascii	"chThdCreateFromMemoryPool\000"
ARM GAS  /tmp/ccb4cBgo.s 			page 41


 2208      64437265 
 2208      61746546 
 2208      726F6D4D 
 2208      656D6F72 
 2209              	.LASF65:
 2210 01f4 6D705F70 		.ascii	"mp_provider\000"
 2210      726F7669 
 2210      64657200 
 2211              	.LASF42:
 2212 0200 72656761 		.ascii	"regarm_t\000"
 2212      726D5F74 
 2212      00
 2213              	.LASF59:
 2214 0209 616C6967 		.ascii	"align\000"
 2214      6E00
 2215              	.LASF0:
 2216 020f 756E7369 		.ascii	"unsigned int\000"
 2216      676E6564 
 2216      20696E74 
 2216      00
 2217              	.LASF10:
 2218 021c 6C6F6E67 		.ascii	"long unsigned int\000"
 2218      20756E73 
 2218      69676E65 
 2218      6420696E 
 2218      7400
 2219              	.LASF45:
 2220 022e 636F6E74 		.ascii	"context\000"
 2220      65787400 
 2221              	.LASF60:
 2222 0236 73697A65 		.ascii	"size\000"
 2222      00
 2223              	.LASF6:
 2224 023b 73686F72 		.ascii	"short unsigned int\000"
 2224      7420756E 
 2224      7369676E 
 2224      65642069 
 2224      6E7400
 2225              	.LASF18:
 2226 024e 6D73675F 		.ascii	"msg_t\000"
 2226      7400
 2227              	.LASF14:
 2228 0254 746D6F64 		.ascii	"tmode_t\000"
 2228      655F7400 
 2229              	.LASF41:
 2230 025c 54687265 		.ascii	"ThreadsList\000"
 2230      6164734C 
 2230      69737400 
 2231              	.LASF19:
 2232 0268 6576656E 		.ascii	"eventmask_t\000"
 2232      746D6173 
 2232      6B5F7400 
 2233              	.LASF47:
 2234 0274 4D757465 		.ascii	"Mutex\000"
 2234      7800
 2235              	.LASF74:
 2236 027a 63685468 		.ascii	"chThdAddRef\000"
ARM GAS  /tmp/ccb4cBgo.s 			page 42


 2236      64416464 
 2236      52656600 
 2237              	.LASF43:
 2238 0286 73746B61 		.ascii	"stkalign_t\000"
 2238      6C69676E 
 2238      5F7400
 2239              	.LASF46:
 2240 0291 73697A65 		.ascii	"sizetype\000"
 2240      74797065 
 2240      00
 2241              	.LASF27:
 2242 029a 705F6F6C 		.ascii	"p_older\000"
 2242      64657200 
 2243              	.LASF87:
 2244 02a2 2F686F6D 		.ascii	"/home/santi/Documentos/ProyectoDron_2018/MCU/creato"
 2244      652F7361 
 2244      6E74692F 
 2244      446F6375 
 2244      6D656E74 
 2245 02d5 7200     		.ascii	"r\000"
 2246              	.LASF64:
 2247 02d7 6D705F6F 		.ascii	"mp_object_size\000"
 2247      626A6563 
 2247      745F7369 
 2247      7A6500
 2248              	.LASF77:
 2249 02e6 7072696F 		.ascii	"prio\000"
 2249      00
 2250              	.LASF52:
 2251 02eb 4D656D6F 		.ascii	"MemoryHeap\000"
 2251      72794865 
 2251      617000
 2252              	.LASF62:
 2253 02f6 70685F6E 		.ascii	"ph_next\000"
 2253      65787400 
 2254              	.LASF16:
 2255 02fe 74726566 		.ascii	"trefs_t\000"
 2255      735F7400 
 2256              	.LASF73:
 2257 0306 72656673 		.ascii	"refs\000"
 2257      00
 2258              	.LASF23:
 2259 030b 705F7072 		.ascii	"p_prev\000"
 2259      657600
 2260              	.LASF17:
 2261 0312 74707269 		.ascii	"tprio_t\000"
 2261      6F5F7400 
 2262              	.LASF7:
 2263 031a 696E7433 		.ascii	"int32_t\000"
 2263      325F7400 
 2264              	.LASF4:
 2265 0322 756E7369 		.ascii	"unsigned char\000"
 2265      676E6564 
 2265      20636861 
 2265      7200
 2266              	.LASF54:
 2267 0330 685F7072 		.ascii	"h_provider\000"
ARM GAS  /tmp/ccb4cBgo.s 			page 43


 2267      6F766964 
 2267      657200
 2268              	.LASF37:
 2269 033b 705F6D74 		.ascii	"p_mtxlist\000"
 2269      786C6973 
 2269      7400
 2270              	.LASF5:
 2271 0345 73686F72 		.ascii	"short int\000"
 2271      7420696E 
 2271      7400
 2272              	.LASF29:
 2273 034f 705F7374 		.ascii	"p_state\000"
 2273      61746500 
 2274              	.LASF88:
 2275 0357 68656170 		.ascii	"heap_header\000"
 2275      5F686561 
 2275      64657200 
 2276              	.LASF70:
 2277 0363 65776D61 		.ascii	"ewmask\000"
 2277      736B00
 2278              	.LASF22:
 2279 036a 705F6E65 		.ascii	"p_next\000"
 2279      787400
 2280              	.LASF30:
 2281 0371 705F666C 		.ascii	"p_flags\000"
 2281      61677300 
 2282              	.LASF89:
 2283 0379 63685468 		.ascii	"chThdRelease\000"
 2283      6452656C 
 2283      65617365 
 2283      00
 2284              	.LASF21:
 2285 0386 54687265 		.ascii	"Thread\000"
 2285      616400
 2286              	.LASF81:
 2287 038d 63684865 		.ascii	"chHeapAlloc\000"
 2287      6170416C 
 2287      6C6F6300 
 2288              	.LASF36:
 2289 0399 705F6570 		.ascii	"p_epending\000"
 2289      656E6469 
 2289      6E6700
 2290              	.LASF9:
 2291 03a4 75696E74 		.ascii	"uint32_t\000"
 2291      33325F74 
 2291      00
 2292              	.LASF58:
 2293 03ad 68656170 		.ascii	"heap\000"
 2293      00
 2294              	.LASF71:
 2295 03b2 63686172 		.ascii	"char\000"
 2295      00
 2296              	.LASF50:
 2297 03b7 6D5F6E65 		.ascii	"m_next\000"
 2297      787400
 2298              	.LASF20:
 2299 03be 73797374 		.ascii	"systime_t\000"
ARM GAS  /tmp/ccb4cBgo.s 			page 44


 2299      696D655F 
 2299      7400
 2300              	.LASF38:
 2301 03c8 705F7265 		.ascii	"p_realprio\000"
 2301      616C7072 
 2301      696F00
 2302              	.LASF32:
 2303 03d3 705F7469 		.ascii	"p_time\000"
 2303      6D6500
 2304              	.LASF44:
 2305 03da 696E7463 		.ascii	"intctx\000"
 2305      747800
 2306              	.LASF34:
 2307 03e1 705F6D73 		.ascii	"p_msgqueue\000"
 2307      67717565 
 2307      756500
 2308              	.LASF83:
 2309 03ec 63685363 		.ascii	"chSchWakeupS\000"
 2309      6857616B 
 2309      65757053 
 2309      00
 2310              	.LASF61:
 2311 03f9 706F6F6C 		.ascii	"pool_header\000"
 2311      5F686561 
 2311      64657200 
 2312              	.LASF31:
 2313 0405 705F7265 		.ascii	"p_refs\000"
 2313      667300
 2314              	.LASF3:
 2315 040c 75696E74 		.ascii	"uint8_t\000"
 2315      385F7400 
 2316              	.LASF84:
 2317 0414 6368506F 		.ascii	"chPoolAlloc\000"
 2317      6F6C416C 
 2317      6C6F6300 
 2318              	.LASF80:
 2319 0420 6368506F 		.ascii	"chPoolFree\000"
 2319      6F6C4672 
 2319      656500
 2320              	.LASF69:
 2321 042b 77746F62 		.ascii	"wtobjp\000"
 2321      6A7000
 2322              	.LASF28:
 2323 0432 705F6E61 		.ascii	"p_name\000"
 2323      6D6500
 2324              	.LASF49:
 2325 0439 6D5F6F77 		.ascii	"m_owner\000"
 2325      6E657200 
 2326              	.LASF25:
 2327 0441 705F6374 		.ascii	"p_ctx\000"
 2327      7800
 2328              	.LASF33:
 2329 0447 705F7761 		.ascii	"p_waiting\000"
 2329      6974696E 
 2329      6700
 2330              	.LASF53:
 2331 0451 6D656D6F 		.ascii	"memory_heap\000"
ARM GAS  /tmp/ccb4cBgo.s 			page 45


 2331      72795F68 
 2331      65617000 
 2332              		.ident	"GCC: (Sourcery CodeBench Lite 2013.11-24) 4.8.1"
ARM GAS  /tmp/ccb4cBgo.s 			page 46


DEFINED SYMBOLS
                            *ABS*:00000000 chdynamic.c
     /tmp/ccb4cBgo.s:19     .text.chThdAddRef:00000000 $t
     /tmp/ccb4cBgo.s:25     .text.chThdAddRef:00000000 chThdAddRef
     /tmp/ccb4cBgo.s:64     .text.chThdRelease:00000000 $t
     /tmp/ccb4cBgo.s:70     .text.chThdRelease:00000000 chThdRelease
     /tmp/ccb4cBgo.s:153    .text.chThdCreateFromHeap:00000000 $t
     /tmp/ccb4cBgo.s:159    .text.chThdCreateFromHeap:00000000 chThdCreateFromHeap
     /tmp/ccb4cBgo.s:230    .text.chThdCreateFromMemoryPool:00000000 $t
     /tmp/ccb4cBgo.s:236    .text.chThdCreateFromMemoryPool:00000000 chThdCreateFromMemoryPool
                     .debug_frame:00000010 $d

UNDEFINED SYMBOLS
chHeapFree
chPoolFree
chHeapAlloc
chThdCreateI
chSchWakeupS
chPoolAlloc
