ARM GAS  /tmp/ccrt6Zci.s 			page 1


   1              		.syntax unified
   2              		.cpu cortex-m3
   3              		.fpu softvfp
   4              		.eabi_attribute 20, 1
   5              		.eabi_attribute 21, 1
   6              		.eabi_attribute 23, 3
   7              		.eabi_attribute 24, 1
   8              		.eabi_attribute 25, 1
   9              		.eabi_attribute 26, 1
  10              		.eabi_attribute 30, 2
  11              		.eabi_attribute 34, 1
  12              		.eabi_attribute 18, 4
  13              		.thumb
  14              		.file	"chevents.c"
  15              		.text
  16              	.Ltext0:
  17              		.cfi_sections	.debug_frame
  18              		.section	.text.chEvtRegisterMask,"ax",%progbits
  19              		.align	2
  20              		.p2align 4,,15
  21              		.global	chEvtRegisterMask
  22              		.thumb
  23              		.thumb_func
  24              		.type	chEvtRegisterMask, %function
  25              	chEvtRegisterMask:
  26              	.LFB7:
  27              		.file 1 "../third_party/ChibiOS/os/kernel/src/chevents.c"
  28              		.loc 1 82 0
  29              		.cfi_startproc
  30              		@ args = 0, pretend = 0, frame = 0
  31              		@ frame_needed = 0, uses_anonymous_args = 0
  32              		@ link register save eliminated.
  33              	.LVL0:
  34 0000 30B4     		push	{r4, r5}
  35              		.cfi_def_cfa_offset 8
  36              		.cfi_offset 4, -8
  37              		.cfi_offset 5, -4
  38              	.LBB2:
  39              		.loc 1 86 0
  40 0002 2023     		movs	r3, #32
  41              	@ 86 "../third_party/ChibiOS/os/kernel/src/chevents.c" 1
  42 0004 83F31188 		msr     BASEPRI, r3
  43              	@ 0 "" 2
  44              		.thumb
  45              	.LBE2:
  46              		.loc 1 89 0
  47 0008 40F20003 		movw	r3, #:lower16:rlist
  48 000c C0F20003 		movt	r3, #:upper16:rlist
  49 0010 DD69     		ldr	r5, [r3, #28]
  50              		.loc 1 87 0
  51 0012 0468     		ldr	r4, [r0]
  52              	.LBB3:
  53              		.loc 1 91 0
  54 0014 0023     		movs	r3, #0
  55              	.LBE3:
  56              		.loc 1 87 0
  57 0016 0C60     		str	r4, [r1]
ARM GAS  /tmp/ccrt6Zci.s 			page 2


  58              		.loc 1 88 0
  59 0018 0160     		str	r1, [r0]
  60              		.loc 1 89 0
  61 001a 4D60     		str	r5, [r1, #4]
  62              		.loc 1 90 0
  63 001c 8A60     		str	r2, [r1, #8]
  64              	.LBB4:
  65              		.loc 1 91 0
  66              	@ 91 "../third_party/ChibiOS/os/kernel/src/chevents.c" 1
  67 001e 83F31188 		msr     BASEPRI, r3
  68              	@ 0 "" 2
  69              		.thumb
  70              	.LBE4:
  71              		.loc 1 92 0
  72 0022 30BC     		pop	{r4, r5}
  73 0024 7047     		bx	lr
  74              		.cfi_endproc
  75              	.LFE7:
  76              		.size	chEvtRegisterMask, .-chEvtRegisterMask
  77 0026 00BFAFF3 		.section	.text.chEvtUnregister,"ax",%progbits
  77      0080AFF3 
  77      0080
  78              		.align	2
  79              		.p2align 4,,15
  80              		.global	chEvtUnregister
  81              		.thumb
  82              		.thumb_func
  83              		.type	chEvtUnregister, %function
  84              	chEvtUnregister:
  85              	.LFB8:
  86              		.loc 1 107 0
  87              		.cfi_startproc
  88              		@ args = 0, pretend = 0, frame = 0
  89              		@ frame_needed = 0, uses_anonymous_args = 0
  90              		@ link register save eliminated.
  91              	.LVL1:
  92              	.LBB5:
  93              		.loc 1 113 0
  94 0000 2023     		movs	r3, #32
  95              	@ 113 "../third_party/ChibiOS/os/kernel/src/chevents.c" 1
  96 0002 83F31188 		msr     BASEPRI, r3
  97              	@ 0 "" 2
  98              		.thumb
  99              	.LBE5:
 100              		.loc 1 112 0
 101 0006 0246     		mov	r2, r0
 102              		.loc 1 114 0
 103 0008 02E0     		b	.L3
 104              	.LVL2:
 105              	.L6:
 106              		.loc 1 115 0
 107 000a 9942     		cmp	r1, r3
 108 000c 07D0     		beq	.L8
 109 000e 1A46     		mov	r2, r3
 110              	.LVL3:
 111              	.L3:
 112              		.loc 1 114 0 discriminator 1
ARM GAS  /tmp/ccrt6Zci.s 			page 3


 113 0010 1368     		ldr	r3, [r2]
 114 0012 8342     		cmp	r3, r0
 115 0014 F9D1     		bne	.L6
 116              	.LBB6:
 117              		.loc 1 121 0
 118 0016 0023     		movs	r3, #0
 119              	@ 121 "../third_party/ChibiOS/os/kernel/src/chevents.c" 1
 120 0018 83F31188 		msr     BASEPRI, r3
 121              	@ 0 "" 2
 122              		.thumb
 123 001c 7047     		bx	lr
 124              	.L8:
 125              	.LBE6:
 126              		.loc 1 116 0
 127 001e 0B68     		ldr	r3, [r1]
 128 0020 1360     		str	r3, [r2]
 129              	.LBB7:
 130              		.loc 1 121 0
 131 0022 0023     		movs	r3, #0
 132              	@ 121 "../third_party/ChibiOS/os/kernel/src/chevents.c" 1
 133 0024 83F31188 		msr     BASEPRI, r3
 134              	@ 0 "" 2
 135              		.thumb
 136 0028 7047     		bx	lr
 137              	.LBE7:
 138              		.cfi_endproc
 139              	.LFE8:
 140              		.size	chEvtUnregister, .-chEvtUnregister
 141 002a 00BFAFF3 		.section	.text.chEvtClearFlags,"ax",%progbits
 141      0080
 142              		.align	2
 143              		.p2align 4,,15
 144              		.global	chEvtClearFlags
 145              		.thumb
 146              		.thumb_func
 147              		.type	chEvtClearFlags, %function
 148              	chEvtClearFlags:
 149              	.LFB9:
 150              		.loc 1 132 0
 151              		.cfi_startproc
 152              		@ args = 0, pretend = 0, frame = 0
 153              		@ frame_needed = 0, uses_anonymous_args = 0
 154              		@ link register save eliminated.
 155              	.LVL4:
 156 0000 10B4     		push	{r4}
 157              		.cfi_def_cfa_offset 4
 158              		.cfi_offset 4, -4
 159              	.LBB8:
 160              		.loc 1 135 0
 161 0002 2023     		movs	r3, #32
 162              	@ 135 "../third_party/ChibiOS/os/kernel/src/chevents.c" 1
 163 0004 83F31188 		msr     BASEPRI, r3
 164              	@ 0 "" 2
 165              		.thumb
 166              	.LBE8:
 167              		.loc 1 137 0
 168 0008 40F20003 		movw	r3, #:lower16:rlist
ARM GAS  /tmp/ccrt6Zci.s 			page 4


 169 000c C0F20003 		movt	r3, #:upper16:rlist
 170 0010 D969     		ldr	r1, [r3, #28]
 171              	.LBB9:
 172              		.loc 1 140 0
 173 0012 0023     		movs	r3, #0
 174              	.LBE9:
 175              		.loc 1 137 0
 176 0014 8A6B     		ldr	r2, [r1, #56]
 177              	.LVL5:
 178              		.loc 1 138 0
 179 0016 22EA0004 		bic	r4, r2, r0
 180 001a 8C63     		str	r4, [r1, #56]
 181              	.LBB10:
 182              		.loc 1 140 0
 183              	@ 140 "../third_party/ChibiOS/os/kernel/src/chevents.c" 1
 184 001c 83F31188 		msr     BASEPRI, r3
 185              	@ 0 "" 2
 186              		.thumb
 187              	.LBE10:
 188              		.loc 1 142 0
 189 0020 1040     		ands	r0, r0, r2
 190              	.LVL6:
 191 0022 5DF8044B 		ldr	r4, [sp], #4
 192 0026 7047     		bx	lr
 193              		.cfi_endproc
 194              	.LFE9:
 195              		.size	chEvtClearFlags, .-chEvtClearFlags
 196 0028 AFF30080 		.section	.text.chEvtAddFlags,"ax",%progbits
 196      AFF30080 
 197              		.align	2
 198              		.p2align 4,,15
 199              		.global	chEvtAddFlags
 200              		.thumb
 201              		.thumb_func
 202              		.type	chEvtAddFlags, %function
 203              	chEvtAddFlags:
 204              	.LFB10:
 205              		.loc 1 153 0
 206              		.cfi_startproc
 207              		@ args = 0, pretend = 0, frame = 0
 208              		@ frame_needed = 0, uses_anonymous_args = 0
 209              		@ link register save eliminated.
 210              	.LVL7:
 211              	.LBB11:
 212              		.loc 1 155 0
 213 0000 2023     		movs	r3, #32
 214              	@ 155 "../third_party/ChibiOS/os/kernel/src/chevents.c" 1
 215 0002 83F31188 		msr     BASEPRI, r3
 216              	@ 0 "" 2
 217              		.thumb
 218              	.LBE11:
 219              		.loc 1 157 0
 220 0006 40F20003 		movw	r3, #:lower16:rlist
 221 000a C0F20003 		movt	r3, #:upper16:rlist
 222 000e DA69     		ldr	r2, [r3, #28]
 223              	.LBB12:
 224              		.loc 1 159 0
ARM GAS  /tmp/ccrt6Zci.s 			page 5


 225 0010 0023     		movs	r3, #0
 226              	.LBE12:
 227              		.loc 1 157 0
 228 0012 916B     		ldr	r1, [r2, #56]
 229 0014 0843     		orrs	r0, r0, r1
 230              	.LVL8:
 231 0016 9063     		str	r0, [r2, #56]
 232              	.LVL9:
 233              	.LBB13:
 234              		.loc 1 159 0
 235              	@ 159 "../third_party/ChibiOS/os/kernel/src/chevents.c" 1
 236 0018 83F31188 		msr     BASEPRI, r3
 237              	@ 0 "" 2
 238              		.thumb
 239              	.LBE13:
 240              		.loc 1 161 0
 241 001c 7047     		bx	lr
 242              		.cfi_endproc
 243              	.LFE10:
 244              		.size	chEvtAddFlags, .-chEvtAddFlags
 245 001e 00BF     		.section	.text.chEvtSignalFlagsI,"ax",%progbits
 246              		.align	2
 247              		.p2align 4,,15
 248              		.global	chEvtSignalFlagsI
 249              		.thumb
 250              		.thumb_func
 251              		.type	chEvtSignalFlagsI, %function
 252              	chEvtSignalFlagsI:
 253              	.LFB12:
 254              		.loc 1 193 0
 255              		.cfi_startproc
 256              		@ args = 0, pretend = 0, frame = 0
 257              		@ frame_needed = 0, uses_anonymous_args = 0
 258              	.LVL10:
 259 0000 08B5     		push	{r3, lr}
 260              		.cfi_def_cfa_offset 8
 261              		.cfi_offset 3, -8
 262              		.cfi_offset 14, -4
 263              		.loc 1 198 0
 264 0002 826B     		ldr	r2, [r0, #56]
 265              		.loc 1 200 0
 266 0004 037F     		ldrb	r3, [r0, #28]	@ zero_extendqisi2
 267              		.loc 1 198 0
 268 0006 1143     		orrs	r1, r1, r2
 269              	.LVL11:
 270              		.loc 1 200 0
 271 0008 082B     		cmp	r3, #8
 272              		.loc 1 198 0
 273 000a 8163     		str	r1, [r0, #56]
 274              		.loc 1 200 0
 275 000c 0BD0     		beq	.L15
 276              		.loc 1 201 0
 277 000e 092B     		cmp	r3, #9
 278 0010 00D0     		beq	.L16
 279              	.L11:
 280 0012 08BD     		pop	{r3, pc}
 281              	.L16:
ARM GAS  /tmp/ccrt6Zci.s 			page 6


 282              		.loc 1 203 0
 283 0014 436A     		ldr	r3, [r0, #36]
 284 0016 1940     		ands	r1, r1, r3
 285              		.loc 1 202 0
 286 0018 8B42     		cmp	r3, r1
 287 001a FAD1     		bne	.L11
 288              	.L13:
 289              	.LVL12:
 290              	.LBB16:
 291              	.LBB17:
 292              		.loc 1 204 0
 293 001c FFF7FEFF 		bl	chSchReadyI
 294              	.LVL13:
 295 0020 0023     		movs	r3, #0
 296 0022 4362     		str	r3, [r0, #36]
 297 0024 08BD     		pop	{r3, pc}
 298              	.LVL14:
 299              	.L15:
 300              	.LBE17:
 301              	.LBE16:
 302              		.loc 1 201 0 discriminator 1
 303 0026 436A     		ldr	r3, [r0, #36]
 304              		.loc 1 200 0 discriminator 1
 305 0028 1942     		tst	r1, r3
 306 002a F7D1     		bne	.L13
 307 002c 08BD     		pop	{r3, pc}
 308              		.cfi_endproc
 309              	.LFE12:
 310              		.size	chEvtSignalFlagsI, .-chEvtSignalFlagsI
 311 002e 00BF     		.section	.text.chEvtSignalFlags,"ax",%progbits
 312              		.align	2
 313              		.p2align 4,,15
 314              		.global	chEvtSignalFlags
 315              		.thumb
 316              		.thumb_func
 317              		.type	chEvtSignalFlags, %function
 318              	chEvtSignalFlags:
 319              	.LFB11:
 320              		.loc 1 171 0
 321              		.cfi_startproc
 322              		@ args = 0, pretend = 0, frame = 0
 323              		@ frame_needed = 0, uses_anonymous_args = 0
 324              	.LVL15:
 325 0000 08B5     		push	{r3, lr}
 326              		.cfi_def_cfa_offset 8
 327              		.cfi_offset 3, -8
 328              		.cfi_offset 14, -4
 329              	.LBB18:
 330              		.loc 1 175 0
 331 0002 2023     		movs	r3, #32
 332              	@ 175 "../third_party/ChibiOS/os/kernel/src/chevents.c" 1
 333 0004 83F31188 		msr     BASEPRI, r3
 334              	@ 0 "" 2
 335              		.thumb
 336              	.LBE18:
 337              		.loc 1 176 0
 338 0008 FFF7FEFF 		bl	chEvtSignalFlagsI
ARM GAS  /tmp/ccrt6Zci.s 			page 7


 339              	.LVL16:
 340              		.loc 1 177 0
 341 000c FFF7FEFF 		bl	chSchRescheduleS
 342              	.LVL17:
 343              	.LBB19:
 344              		.loc 1 178 0
 345 0010 0023     		movs	r3, #0
 346              	@ 178 "../third_party/ChibiOS/os/kernel/src/chevents.c" 1
 347 0012 83F31188 		msr     BASEPRI, r3
 348              	@ 0 "" 2
 349              		.thumb
 350 0016 08BD     		pop	{r3, pc}
 351              	.LBE19:
 352              		.cfi_endproc
 353              	.LFE11:
 354              		.size	chEvtSignalFlags, .-chEvtSignalFlags
 355 0018 AFF30080 		.section	.text.chEvtBroadcastFlagsI,"ax",%progbits
 355      AFF30080 
 356              		.align	2
 357              		.p2align 4,,15
 358              		.global	chEvtBroadcastFlagsI
 359              		.thumb
 360              		.thumb_func
 361              		.type	chEvtBroadcastFlagsI, %function
 362              	chEvtBroadcastFlagsI:
 363              	.LFB14:
 364              		.loc 1 245 0
 365              		.cfi_startproc
 366              		@ args = 0, pretend = 0, frame = 0
 367              		@ frame_needed = 0, uses_anonymous_args = 0
 368              	.LVL18:
 369 0000 70B5     		push	{r4, r5, r6, lr}
 370              		.cfi_def_cfa_offset 16
 371              		.cfi_offset 4, -16
 372              		.cfi_offset 5, -12
 373              		.cfi_offset 6, -8
 374              		.cfi_offset 14, -4
 375              		.loc 1 251 0
 376 0002 0468     		ldr	r4, [r0]
 377              	.LVL19:
 378              		.loc 1 245 0
 379 0004 0546     		mov	r5, r0
 380              		.loc 1 252 0
 381 0006 A042     		cmp	r0, r4
 382              		.loc 1 245 0
 383 0008 0E46     		mov	r6, r1
 384              		.loc 1 252 0
 385 000a 07D0     		beq	.L18
 386              	.LVL20:
 387              	.L21:
 388              		.loc 1 253 0
 389 000c A168     		ldr	r1, [r4, #8]
 390 000e 6068     		ldr	r0, [r4, #4]
 391 0010 3143     		orrs	r1, r1, r6
 392 0012 FFF7FEFF 		bl	chEvtSignalFlagsI
 393              	.LVL21:
 394              		.loc 1 254 0
ARM GAS  /tmp/ccrt6Zci.s 			page 8


 395 0016 2468     		ldr	r4, [r4]
 396              	.LVL22:
 397              		.loc 1 252 0
 398 0018 A542     		cmp	r5, r4
 399 001a F7D1     		bne	.L21
 400              	.L18:
 401 001c 70BD     		pop	{r4, r5, r6, pc}
 402              		.cfi_endproc
 403              	.LFE14:
 404              		.size	chEvtBroadcastFlagsI, .-chEvtBroadcastFlagsI
 405 001e 00BF     		.section	.text.chEvtBroadcastFlags,"ax",%progbits
 406              		.align	2
 407              		.p2align 4,,15
 408              		.global	chEvtBroadcastFlags
 409              		.thumb
 410              		.thumb_func
 411              		.type	chEvtBroadcastFlags, %function
 412              	chEvtBroadcastFlags:
 413              	.LFB13:
 414              		.loc 1 220 0
 415              		.cfi_startproc
 416              		@ args = 0, pretend = 0, frame = 0
 417              		@ frame_needed = 0, uses_anonymous_args = 0
 418              	.LVL23:
 419 0000 08B5     		push	{r3, lr}
 420              		.cfi_def_cfa_offset 8
 421              		.cfi_offset 3, -8
 422              		.cfi_offset 14, -4
 423              	.LBB20:
 424              		.loc 1 222 0
 425 0002 2023     		movs	r3, #32
 426              	@ 222 "../third_party/ChibiOS/os/kernel/src/chevents.c" 1
 427 0004 83F31188 		msr     BASEPRI, r3
 428              	@ 0 "" 2
 429              		.thumb
 430              	.LBE20:
 431              		.loc 1 223 0
 432 0008 FFF7FEFF 		bl	chEvtBroadcastFlagsI
 433              	.LVL24:
 434              		.loc 1 224 0
 435 000c FFF7FEFF 		bl	chSchRescheduleS
 436              	.LVL25:
 437              	.LBB21:
 438              		.loc 1 225 0
 439 0010 0023     		movs	r3, #0
 440              	@ 225 "../third_party/ChibiOS/os/kernel/src/chevents.c" 1
 441 0012 83F31188 		msr     BASEPRI, r3
 442              	@ 0 "" 2
 443              		.thumb
 444 0016 08BD     		pop	{r3, pc}
 445              	.LBE21:
 446              		.cfi_endproc
 447              	.LFE13:
 448              		.size	chEvtBroadcastFlags, .-chEvtBroadcastFlags
 449 0018 AFF30080 		.section	.text.chEvtDispatch,"ax",%progbits
 449      AFF30080 
 450              		.align	2
ARM GAS  /tmp/ccrt6Zci.s 			page 9


 451              		.p2align 4,,15
 452              		.global	chEvtDispatch
 453              		.thumb
 454              		.thumb_func
 455              		.type	chEvtDispatch, %function
 456              	chEvtDispatch:
 457              	.LFB15:
 458              		.loc 1 267 0
 459              		.cfi_startproc
 460              		@ args = 0, pretend = 0, frame = 0
 461              		@ frame_needed = 0, uses_anonymous_args = 0
 462              	.LVL26:
 463 0000 F8B5     		push	{r3, r4, r5, r6, r7, lr}
 464              		.cfi_def_cfa_offset 24
 465              		.cfi_offset 3, -24
 466              		.cfi_offset 4, -20
 467              		.cfi_offset 5, -16
 468              		.cfi_offset 6, -12
 469              		.cfi_offset 7, -8
 470              		.cfi_offset 14, -4
 471              		.loc 1 273 0
 472 0002 0D46     		mov	r5, r1
 473              		.loc 1 267 0
 474 0004 0746     		mov	r7, r0
 475              		.loc 1 273 0
 476 0006 89B1     		cbz	r1, .L23
 477              		.loc 1 272 0
 478 0008 0024     		movs	r4, #0
 479              		.loc 1 274 0
 480 000a 0126     		movs	r6, #1
 481 000c 01E0     		b	.L27
 482              	.LVL27:
 483              	.L25:
 484              		.loc 1 281 0
 485 000e 0134     		adds	r4, r4, #1
 486              	.LVL28:
 487              		.loc 1 273 0
 488 0010 65B1     		cbz	r5, .L23
 489              	.LVL29:
 490              	.L27:
 491              		.loc 1 274 0
 492 0012 06FA04F3 		lsl	r3, r6, r4
 493 0016 2B42     		tst	r3, r5
 494 0018 F9D0     		beq	.L25
 495              		.loc 1 279 0
 496 001a 57F82420 		ldr	r2, [r7, r4, lsl #2]
 497 001e 2046     		mov	r0, r4
 498              		.loc 1 278 0
 499 0020 25EA0305 		bic	r5, r5, r3
 500              	.LVL30:
 501              		.loc 1 281 0
 502 0024 0134     		adds	r4, r4, #1
 503              	.LVL31:
 504              		.loc 1 279 0
 505 0026 9047     		blx	r2
 506              	.LVL32:
 507              		.loc 1 273 0
ARM GAS  /tmp/ccrt6Zci.s 			page 10


 508 0028 002D     		cmp	r5, #0
 509 002a F2D1     		bne	.L27
 510              	.LVL33:
 511              	.L23:
 512 002c F8BD     		pop	{r3, r4, r5, r6, r7, pc}
 513              		.cfi_endproc
 514              	.LFE15:
 515              		.size	chEvtDispatch, .-chEvtDispatch
 516 002e 00BF     		.section	.text.chEvtWaitOne,"ax",%progbits
 517              		.align	2
 518              		.p2align 4,,15
 519              		.global	chEvtWaitOne
 520              		.thumb
 521              		.thumb_func
 522              		.type	chEvtWaitOne, %function
 523              	chEvtWaitOne:
 524              	.LFB16:
 525              		.loc 1 302 0
 526              		.cfi_startproc
 527              		@ args = 0, pretend = 0, frame = 0
 528              		@ frame_needed = 0, uses_anonymous_args = 0
 529              	.LVL34:
 530 0000 38B5     		push	{r3, r4, r5, lr}
 531              		.cfi_def_cfa_offset 16
 532              		.cfi_offset 3, -16
 533              		.cfi_offset 4, -12
 534              		.cfi_offset 5, -8
 535              		.cfi_offset 14, -4
 536              		.loc 1 303 0
 537 0002 40F20003 		movw	r3, #:lower16:rlist
 538 0006 C0F20003 		movt	r3, #:upper16:rlist
 539 000a DC69     		ldr	r4, [r3, #28]
 540              	.LVL35:
 541              		.loc 1 302 0
 542 000c 0546     		mov	r5, r0
 543              	.LBB22:
 544              		.loc 1 306 0
 545 000e 2023     		movs	r3, #32
 546              	@ 306 "../third_party/ChibiOS/os/kernel/src/chevents.c" 1
 547 0010 83F31188 		msr     BASEPRI, r3
 548              	@ 0 "" 2
 549              		.thumb
 550              	.LBE22:
 551              		.loc 1 308 0
 552 0014 A36B     		ldr	r3, [r4, #56]
 553              	.LVL36:
 554 0016 10EA0302 		ands	r2, r0, r3
 555              	.LVL37:
 556 001a 06D1     		bne	.L35
 557              		.loc 1 309 0
 558 001c 6062     		str	r0, [r4, #36]
 559              		.loc 1 310 0
 560 001e 0820     		movs	r0, #8
 561              	.LVL38:
 562 0020 FFF7FEFF 		bl	chSchGoSleepS
 563              	.LVL39:
 564              		.loc 1 311 0
ARM GAS  /tmp/ccrt6Zci.s 			page 11


 565 0024 A36B     		ldr	r3, [r4, #56]
 566 0026 05EA0302 		and	r2, r5, r3
 567              	.LVL40:
 568              	.L35:
 569              		.loc 1 313 0
 570 002a 5042     		negs	r0, r2
 571 002c 1040     		ands	r0, r0, r2
 572              	.LVL41:
 573              		.loc 1 314 0
 574 002e 23EA0003 		bic	r3, r3, r0
 575 0032 A363     		str	r3, [r4, #56]
 576              	.LBB23:
 577              		.loc 1 316 0
 578 0034 0023     		movs	r3, #0
 579              	@ 316 "../third_party/ChibiOS/os/kernel/src/chevents.c" 1
 580 0036 83F31188 		msr     BASEPRI, r3
 581              	@ 0 "" 2
 582              		.thumb
 583              	.LBE23:
 584              		.loc 1 318 0
 585 003a 38BD     		pop	{r3, r4, r5, pc}
 586              		.cfi_endproc
 587              	.LFE16:
 588              		.size	chEvtWaitOne, .-chEvtWaitOne
 589 003c AFF30080 		.section	.text.chEvtWaitAny,"ax",%progbits
 590              		.align	2
 591              		.p2align 4,,15
 592              		.global	chEvtWaitAny
 593              		.thumb
 594              		.thumb_func
 595              		.type	chEvtWaitAny, %function
 596              	chEvtWaitAny:
 597              	.LFB17:
 598              		.loc 1 331 0
 599              		.cfi_startproc
 600              		@ args = 0, pretend = 0, frame = 0
 601              		@ frame_needed = 0, uses_anonymous_args = 0
 602              	.LVL42:
 603 0000 38B5     		push	{r3, r4, r5, lr}
 604              		.cfi_def_cfa_offset 16
 605              		.cfi_offset 3, -16
 606              		.cfi_offset 4, -12
 607              		.cfi_offset 5, -8
 608              		.cfi_offset 14, -4
 609              		.loc 1 332 0
 610 0002 40F20003 		movw	r3, #:lower16:rlist
 611 0006 C0F20003 		movt	r3, #:upper16:rlist
 612 000a DC69     		ldr	r4, [r3, #28]
 613              	.LVL43:
 614              		.loc 1 331 0
 615 000c 0546     		mov	r5, r0
 616              	.LBB24:
 617              		.loc 1 335 0
 618 000e 2023     		movs	r3, #32
 619              	@ 335 "../third_party/ChibiOS/os/kernel/src/chevents.c" 1
 620 0010 83F31188 		msr     BASEPRI, r3
 621              	@ 0 "" 2
ARM GAS  /tmp/ccrt6Zci.s 			page 12


 622              		.thumb
 623              	.LBE24:
 624              		.loc 1 337 0
 625 0014 A36B     		ldr	r3, [r4, #56]
 626              	.LVL44:
 627 0016 1840     		ands	r0, r0, r3
 628              	.LVL45:
 629 0018 06D1     		bne	.L38
 630              		.loc 1 339 0
 631 001a 0820     		movs	r0, #8
 632              	.LVL46:
 633              		.loc 1 338 0
 634 001c 6562     		str	r5, [r4, #36]
 635              		.loc 1 339 0
 636 001e FFF7FEFF 		bl	chSchGoSleepS
 637              	.LVL47:
 638              		.loc 1 340 0
 639 0022 A36B     		ldr	r3, [r4, #56]
 640 0024 05EA0300 		and	r0, r5, r3
 641              	.LVL48:
 642              	.L38:
 643              		.loc 1 342 0
 644 0028 23EA0003 		bic	r3, r3, r0
 645 002c A363     		str	r3, [r4, #56]
 646              	.LBB25:
 647              		.loc 1 344 0
 648 002e 0023     		movs	r3, #0
 649              	@ 344 "../third_party/ChibiOS/os/kernel/src/chevents.c" 1
 650 0030 83F31188 		msr     BASEPRI, r3
 651              	@ 0 "" 2
 652              		.thumb
 653              	.LBE25:
 654              		.loc 1 346 0
 655 0034 38BD     		pop	{r3, r4, r5, pc}
 656              		.cfi_endproc
 657              	.LFE17:
 658              		.size	chEvtWaitAny, .-chEvtWaitAny
 659 0036 00BFAFF3 		.section	.text.chEvtWaitAll,"ax",%progbits
 659      0080AFF3 
 659      0080
 660              		.align	2
 661              		.p2align 4,,15
 662              		.global	chEvtWaitAll
 663              		.thumb
 664              		.thumb_func
 665              		.type	chEvtWaitAll, %function
 666              	chEvtWaitAll:
 667              	.LFB18:
 668              		.loc 1 359 0
 669              		.cfi_startproc
 670              		@ args = 0, pretend = 0, frame = 0
 671              		@ frame_needed = 0, uses_anonymous_args = 0
 672              	.LVL49:
 673 0000 38B5     		push	{r3, r4, r5, lr}
 674              		.cfi_def_cfa_offset 16
 675              		.cfi_offset 3, -16
 676              		.cfi_offset 4, -12
ARM GAS  /tmp/ccrt6Zci.s 			page 13


 677              		.cfi_offset 5, -8
 678              		.cfi_offset 14, -4
 679              		.loc 1 360 0
 680 0002 40F20003 		movw	r3, #:lower16:rlist
 681 0006 C0F20003 		movt	r3, #:upper16:rlist
 682 000a DD69     		ldr	r5, [r3, #28]
 683              	.LVL50:
 684              		.loc 1 359 0
 685 000c 0446     		mov	r4, r0
 686              	.LBB26:
 687              		.loc 1 362 0
 688 000e 2023     		movs	r3, #32
 689              	@ 362 "../third_party/ChibiOS/os/kernel/src/chevents.c" 1
 690 0010 83F31188 		msr     BASEPRI, r3
 691              	@ 0 "" 2
 692              		.thumb
 693              	.LBE26:
 694              		.loc 1 364 0
 695 0014 AB6B     		ldr	r3, [r5, #56]
 696 0016 00EA0302 		and	r2, r0, r3
 697 001a 8242     		cmp	r2, r0
 698 001c 04D0     		beq	.L41
 699              		.loc 1 365 0
 700 001e 6862     		str	r0, [r5, #36]
 701              		.loc 1 366 0
 702 0020 0920     		movs	r0, #9
 703              	.LVL51:
 704 0022 FFF7FEFF 		bl	chSchGoSleepS
 705              	.LVL52:
 706 0026 AB6B     		ldr	r3, [r5, #56]
 707              	.L41:
 708              		.loc 1 368 0
 709 0028 23EA0403 		bic	r3, r3, r4
 710 002c AB63     		str	r3, [r5, #56]
 711              	.LBB27:
 712              		.loc 1 370 0
 713 002e 0023     		movs	r3, #0
 714              	@ 370 "../third_party/ChibiOS/os/kernel/src/chevents.c" 1
 715 0030 83F31188 		msr     BASEPRI, r3
 716              	@ 0 "" 2
 717              		.thumb
 718              	.LBE27:
 719              		.loc 1 372 0
 720 0034 2046     		mov	r0, r4
 721 0036 38BD     		pop	{r3, r4, r5, pc}
 722              		.cfi_endproc
 723              	.LFE18:
 724              		.size	chEvtWaitAll, .-chEvtWaitAll
 725 0038 AFF30080 		.section	.text.chEvtWaitOneTimeout,"ax",%progbits
 725      AFF30080 
 726              		.align	2
 727              		.p2align 4,,15
 728              		.global	chEvtWaitOneTimeout
 729              		.thumb
 730              		.thumb_func
 731              		.type	chEvtWaitOneTimeout, %function
 732              	chEvtWaitOneTimeout:
ARM GAS  /tmp/ccrt6Zci.s 			page 14


 733              	.LFB19:
 734              		.loc 1 398 0
 735              		.cfi_startproc
 736              		@ args = 0, pretend = 0, frame = 0
 737              		@ frame_needed = 0, uses_anonymous_args = 0
 738              	.LVL53:
 739              		.loc 1 399 0
 740 0000 40F20002 		movw	r2, #:lower16:rlist
 741 0004 C0F20002 		movt	r2, #:upper16:rlist
 742              		.loc 1 398 0
 743 0008 70B5     		push	{r4, r5, r6, lr}
 744              		.cfi_def_cfa_offset 16
 745              		.cfi_offset 4, -16
 746              		.cfi_offset 5, -12
 747              		.cfi_offset 6, -8
 748              		.cfi_offset 14, -4
 749              	.LBB28:
 750              		.loc 1 402 0
 751 000a 2023     		movs	r3, #32
 752              	.LBE28:
 753              		.loc 1 398 0
 754 000c 0446     		mov	r4, r0
 755              		.loc 1 399 0
 756 000e D569     		ldr	r5, [r2, #28]
 757              	.LVL54:
 758              	.LBB29:
 759              		.loc 1 402 0
 760              	@ 402 "../third_party/ChibiOS/os/kernel/src/chevents.c" 1
 761 0010 83F31188 		msr     BASEPRI, r3
 762              	@ 0 "" 2
 763              		.thumb
 764              	.LBE29:
 765              		.loc 1 404 0
 766 0014 AA6B     		ldr	r2, [r5, #56]
 767              	.LVL55:
 768 0016 10EA0206 		ands	r6, r0, r2
 769              	.LVL56:
 770 001a 0ED1     		bne	.L44
 771              		.loc 1 405 0
 772 001c 21B9     		cbnz	r1, .L45
 773              	.LBB30:
 774              		.loc 1 406 0
 775 001e 0B46     		mov	r3, r1
 776              	@ 406 "../third_party/ChibiOS/os/kernel/src/chevents.c" 1
 777 0020 83F31188 		msr     BASEPRI, r3
 778              	@ 0 "" 2
 779              		.thumb
 780              	.LBE30:
 781              		.loc 1 407 0
 782 0024 0020     		movs	r0, #0
 783              	.LVL57:
 784 0026 70BD     		pop	{r4, r5, r6, pc}
 785              	.LVL58:
 786              	.L45:
 787              		.loc 1 409 0
 788 0028 6862     		str	r0, [r5, #36]
 789              		.loc 1 410 0
ARM GAS  /tmp/ccrt6Zci.s 			page 15


 790 002a 0820     		movs	r0, #8
 791              	.LVL59:
 792 002c FFF7FEFF 		bl	chSchGoSleepTimeoutS
 793              	.LVL60:
 794 0030 0028     		cmp	r0, #0
 795 0032 0BDB     		blt	.L49
 796              		.loc 1 414 0
 797 0034 AA6B     		ldr	r2, [r5, #56]
 798 0036 04EA0206 		and	r6, r4, r2
 799              	.LVL61:
 800              	.L44:
 801              		.loc 1 416 0
 802 003a 7042     		negs	r0, r6
 803 003c 3040     		ands	r0, r0, r6
 804              	.LVL62:
 805              		.loc 1 417 0
 806 003e 22EA0002 		bic	r2, r2, r0
 807 0042 AA63     		str	r2, [r5, #56]
 808              	.LBB31:
 809              		.loc 1 419 0
 810 0044 0023     		movs	r3, #0
 811              	@ 419 "../third_party/ChibiOS/os/kernel/src/chevents.c" 1
 812 0046 83F31188 		msr     BASEPRI, r3
 813              	@ 0 "" 2
 814              		.thumb
 815              	.LBE31:
 816              		.loc 1 421 0
 817 004a 70BD     		pop	{r4, r5, r6, pc}
 818              	.LVL63:
 819              	.L49:
 820              	.LBB32:
 821              		.loc 1 411 0
 822 004c 3346     		mov	r3, r6
 823              	@ 411 "../third_party/ChibiOS/os/kernel/src/chevents.c" 1
 824 004e 83F31188 		msr     BASEPRI, r3
 825              	@ 0 "" 2
 826              		.thumb
 827              	.LBE32:
 828              		.loc 1 412 0
 829 0052 0020     		movs	r0, #0
 830 0054 70BD     		pop	{r4, r5, r6, pc}
 831              		.cfi_endproc
 832              	.LFE19:
 833              		.size	chEvtWaitOneTimeout, .-chEvtWaitOneTimeout
 834 0056 00BFAFF3 		.section	.text.chEvtWaitAnyTimeout,"ax",%progbits
 834      0080AFF3 
 834      0080
 835              		.align	2
 836              		.p2align 4,,15
 837              		.global	chEvtWaitAnyTimeout
 838              		.thumb
 839              		.thumb_func
 840              		.type	chEvtWaitAnyTimeout, %function
 841              	chEvtWaitAnyTimeout:
 842              	.LFB20:
 843              		.loc 1 441 0
 844              		.cfi_startproc
ARM GAS  /tmp/ccrt6Zci.s 			page 16


 845              		@ args = 0, pretend = 0, frame = 0
 846              		@ frame_needed = 0, uses_anonymous_args = 0
 847              	.LVL64:
 848              		.loc 1 442 0
 849 0000 40F20002 		movw	r2, #:lower16:rlist
 850 0004 C0F20002 		movt	r2, #:upper16:rlist
 851              		.loc 1 441 0
 852 0008 70B5     		push	{r4, r5, r6, lr}
 853              		.cfi_def_cfa_offset 16
 854              		.cfi_offset 4, -16
 855              		.cfi_offset 5, -12
 856              		.cfi_offset 6, -8
 857              		.cfi_offset 14, -4
 858              	.LBB33:
 859              		.loc 1 445 0
 860 000a 2023     		movs	r3, #32
 861              	.LBE33:
 862              		.loc 1 441 0
 863 000c 0446     		mov	r4, r0
 864              		.loc 1 442 0
 865 000e D569     		ldr	r5, [r2, #28]
 866              	.LVL65:
 867              	.LBB34:
 868              		.loc 1 445 0
 869              	@ 445 "../third_party/ChibiOS/os/kernel/src/chevents.c" 1
 870 0010 83F31188 		msr     BASEPRI, r3
 871              	@ 0 "" 2
 872              		.thumb
 873              	.LBE34:
 874              		.loc 1 447 0
 875 0014 AA6B     		ldr	r2, [r5, #56]
 876              	.LVL66:
 877 0016 10EA0206 		ands	r6, r0, r2
 878              	.LVL67:
 879 001a 0ED1     		bne	.L51
 880              		.loc 1 448 0
 881 001c 21B9     		cbnz	r1, .L52
 882              	.LBB35:
 883              		.loc 1 449 0
 884 001e 0B46     		mov	r3, r1
 885              	@ 449 "../third_party/ChibiOS/os/kernel/src/chevents.c" 1
 886 0020 83F31188 		msr     BASEPRI, r3
 887              	@ 0 "" 2
 888              		.thumb
 889              	.LBE35:
 890              		.loc 1 450 0
 891 0024 0020     		movs	r0, #0
 892              	.LVL68:
 893 0026 70BD     		pop	{r4, r5, r6, pc}
 894              	.LVL69:
 895              	.L52:
 896              		.loc 1 452 0
 897 0028 6862     		str	r0, [r5, #36]
 898              		.loc 1 453 0
 899 002a 0820     		movs	r0, #8
 900              	.LVL70:
 901 002c FFF7FEFF 		bl	chSchGoSleepTimeoutS
ARM GAS  /tmp/ccrt6Zci.s 			page 17


 902              	.LVL71:
 903 0030 0028     		cmp	r0, #0
 904 0032 0ADB     		blt	.L56
 905              		.loc 1 457 0
 906 0034 AA6B     		ldr	r2, [r5, #56]
 907 0036 04EA0206 		and	r6, r4, r2
 908              	.LVL72:
 909              	.L51:
 910              		.loc 1 459 0
 911 003a 22EA0602 		bic	r2, r2, r6
 912 003e AA63     		str	r2, [r5, #56]
 913              	.LBB36:
 914              		.loc 1 461 0
 915 0040 0023     		movs	r3, #0
 916              	@ 461 "../third_party/ChibiOS/os/kernel/src/chevents.c" 1
 917 0042 83F31188 		msr     BASEPRI, r3
 918              	@ 0 "" 2
 919              		.thumb
 920              	.LBE36:
 921              		.loc 1 462 0
 922 0046 3046     		mov	r0, r6
 923              		.loc 1 463 0
 924 0048 70BD     		pop	{r4, r5, r6, pc}
 925              	.LVL73:
 926              	.L56:
 927              	.LBB37:
 928              		.loc 1 454 0
 929 004a 3346     		mov	r3, r6
 930              	@ 454 "../third_party/ChibiOS/os/kernel/src/chevents.c" 1
 931 004c 83F31188 		msr     BASEPRI, r3
 932              	@ 0 "" 2
 933              		.thumb
 934              	.LBE37:
 935              		.loc 1 455 0
 936 0050 0020     		movs	r0, #0
 937 0052 70BD     		pop	{r4, r5, r6, pc}
 938              		.cfi_endproc
 939              	.LFE20:
 940              		.size	chEvtWaitAnyTimeout, .-chEvtWaitAnyTimeout
 941 0054 AFF30080 		.section	.text.chEvtWaitAllTimeout,"ax",%progbits
 941      AFF30080 
 941      AFF30080 
 942              		.align	2
 943              		.p2align 4,,15
 944              		.global	chEvtWaitAllTimeout
 945              		.thumb
 946              		.thumb_func
 947              		.type	chEvtWaitAllTimeout, %function
 948              	chEvtWaitAllTimeout:
 949              	.LFB21:
 950              		.loc 1 482 0
 951              		.cfi_startproc
 952              		@ args = 0, pretend = 0, frame = 0
 953              		@ frame_needed = 0, uses_anonymous_args = 0
 954              	.LVL74:
 955              		.loc 1 483 0
 956 0000 40F20002 		movw	r2, #:lower16:rlist
ARM GAS  /tmp/ccrt6Zci.s 			page 18


 957 0004 C0F20002 		movt	r2, #:upper16:rlist
 958              		.loc 1 482 0
 959 0008 38B5     		push	{r3, r4, r5, lr}
 960              		.cfi_def_cfa_offset 16
 961              		.cfi_offset 3, -16
 962              		.cfi_offset 4, -12
 963              		.cfi_offset 5, -8
 964              		.cfi_offset 14, -4
 965              		.loc 1 482 0
 966 000a 0446     		mov	r4, r0
 967              		.loc 1 483 0
 968 000c D569     		ldr	r5, [r2, #28]
 969              	.LVL75:
 970              	.LBB38:
 971              		.loc 1 485 0
 972 000e 2023     		movs	r3, #32
 973              	@ 485 "../third_party/ChibiOS/os/kernel/src/chevents.c" 1
 974 0010 83F31188 		msr     BASEPRI, r3
 975              	@ 0 "" 2
 976              		.thumb
 977              	.LBE38:
 978              		.loc 1 487 0
 979 0014 AB6B     		ldr	r3, [r5, #56]
 980 0016 00EA0302 		and	r2, r0, r3
 981 001a 8242     		cmp	r2, r0
 982 001c 0CD0     		beq	.L58
 983              		.loc 1 488 0
 984 001e 21B9     		cbnz	r1, .L59
 985              	.LBB39:
 986              		.loc 1 489 0
 987 0020 0B46     		mov	r3, r1
 988              	@ 489 "../third_party/ChibiOS/os/kernel/src/chevents.c" 1
 989 0022 83F31188 		msr     BASEPRI, r3
 990              	@ 0 "" 2
 991              		.thumb
 992              	.LBE39:
 993              		.loc 1 490 0
 994 0026 0020     		movs	r0, #0
 995              	.LVL76:
 996 0028 38BD     		pop	{r3, r4, r5, pc}
 997              	.LVL77:
 998              	.L59:
 999              		.loc 1 492 0
 1000 002a 6862     		str	r0, [r5, #36]
 1001              		.loc 1 493 0
 1002 002c 0920     		movs	r0, #9
 1003              	.LVL78:
 1004 002e FFF7FEFF 		bl	chSchGoSleepTimeoutS
 1005              	.LVL79:
 1006 0032 0028     		cmp	r0, #0
 1007 0034 08DB     		blt	.L61
 1008 0036 AB6B     		ldr	r3, [r5, #56]
 1009              	.L58:
 1010              		.loc 1 498 0
 1011 0038 23EA0403 		bic	r3, r3, r4
 1012 003c AB63     		str	r3, [r5, #56]
 1013              	.LBB40:
ARM GAS  /tmp/ccrt6Zci.s 			page 19


 1014              		.loc 1 500 0
 1015 003e 0023     		movs	r3, #0
 1016              	@ 500 "../third_party/ChibiOS/os/kernel/src/chevents.c" 1
 1017 0040 83F31188 		msr     BASEPRI, r3
 1018              	@ 0 "" 2
 1019              		.thumb
 1020              	.LBE40:
 1021              		.loc 1 501 0
 1022 0044 2046     		mov	r0, r4
 1023              		.loc 1 502 0
 1024 0046 38BD     		pop	{r3, r4, r5, pc}
 1025              	.LVL80:
 1026              	.L61:
 1027              	.LBB41:
 1028              		.loc 1 494 0
 1029 0048 0023     		movs	r3, #0
 1030              	@ 494 "../third_party/ChibiOS/os/kernel/src/chevents.c" 1
 1031 004a 83F31188 		msr     BASEPRI, r3
 1032              	@ 0 "" 2
 1033              		.thumb
 1034              	.LBE41:
 1035              		.loc 1 495 0
 1036 004e 0020     		movs	r0, #0
 1037 0050 38BD     		pop	{r3, r4, r5, pc}
 1038              		.cfi_endproc
 1039              	.LFE21:
 1040              		.size	chEvtWaitAllTimeout, .-chEvtWaitAllTimeout
 1041 0052 00BFAFF3 		.text
 1041      0080AFF3 
 1041      0080AFF3 
 1041      0080
 1042              	.Letext0:
 1043              		.file 2 "/home/santi/arm-2013.11/arm-none-eabi/include/stdint.h"
 1044              		.file 3 "../third_party/ChibiOS/os/ports/GCC/ARMCMx/chtypes.h"
 1045              		.file 4 "../third_party/ChibiOS/os/kernel/include/chlists.h"
 1046              		.file 5 "../third_party/ChibiOS/os/kernel/include/chthreads.h"
 1047              		.file 6 "../third_party/ChibiOS/os/ports/GCC/ARMCMx/chcore_v7m.h"
 1048              		.file 7 "../third_party/ChibiOS/os/kernel/include/chschd.h"
 1049              		.file 8 "../third_party/ChibiOS/os/kernel/include/chmtx.h"
 1050              		.file 9 "../third_party/ChibiOS/os/kernel/include/chevents.h"