ARM GAS  /tmp/ccfrkxW6.s 			page 1


   1              		.syntax unified
   2              		.cpu cortex-m3
   3              		.fpu softvfp
   4              		.eabi_attribute 20, 1
   5              		.eabi_attribute 21, 1
   6              		.eabi_attribute 23, 3
   7              		.eabi_attribute 24, 1
   8              		.eabi_attribute 25, 1
   9              		.eabi_attribute 26, 1
  10              		.eabi_attribute 30, 2
  11              		.eabi_attribute 34, 1
  12              		.eabi_attribute 18, 4
  13              		.thumb
  14              		.file	"chmtx.c"
  15              		.text
  16              	.Ltext0:
  17              		.cfi_sections	.debug_frame
  18              		.section	.text.chMtxInit,"ax",%progbits
  19              		.align	2
  20              		.p2align 4,,15
  21              		.global	chMtxInit
  22              		.thumb
  23              		.thumb_func
  24              		.type	chMtxInit, %function
  25              	chMtxInit:
  26              	.LFB7:
  27              		.file 1 "../third_party/ChibiOS/os/kernel/src/chmtx.c"
  28              		.loc 1 86 0
  29              		.cfi_startproc
  30              		@ args = 0, pretend = 0, frame = 0
  31              		@ frame_needed = 0, uses_anonymous_args = 0
  32              		@ link register save eliminated.
  33              	.LVL0:
  34              		.loc 1 91 0
  35 0000 0023     		movs	r3, #0
  36              		.loc 1 90 0
  37 0002 4060     		str	r0, [r0, #4]
  38 0004 0060     		str	r0, [r0]
  39              		.loc 1 91 0
  40 0006 8360     		str	r3, [r0, #8]
  41 0008 7047     		bx	lr
  42              		.cfi_endproc
  43              	.LFE7:
  44              		.size	chMtxInit, .-chMtxInit
  45 000a 00BFAFF3 		.section	.text.chMtxLockS,"ax",%progbits
  45      0080
  46              		.align	2
  47              		.p2align 4,,15
  48              		.global	chMtxLockS
  49              		.thumb
  50              		.thumb_func
  51              		.type	chMtxLockS, %function
  52              	chMtxLockS:
  53              	.LFB9:
  54              		.loc 1 121 0
  55              		.cfi_startproc
  56              		@ args = 0, pretend = 0, frame = 0
ARM GAS  /tmp/ccfrkxW6.s 			page 2


  57              		@ frame_needed = 0, uses_anonymous_args = 0
  58              	.LVL1:
  59 0000 F8B5     		push	{r3, r4, r5, r6, r7, lr}
  60              		.cfi_def_cfa_offset 24
  61              		.cfi_offset 3, -24
  62              		.cfi_offset 4, -20
  63              		.cfi_offset 5, -16
  64              		.cfi_offset 6, -12
  65              		.cfi_offset 7, -8
  66              		.cfi_offset 14, -4
  67              		.loc 1 128 0
  68 0002 8268     		ldr	r2, [r0, #8]
  69              		.loc 1 122 0
  70 0004 40F20003 		movw	r3, #:lower16:rlist
  71 0008 C0F20003 		movt	r3, #:upper16:rlist
  72              		.loc 1 121 0
  73 000c 0546     		mov	r5, r0
  74              		.loc 1 122 0
  75 000e DC69     		ldr	r4, [r3, #28]
  76              	.LVL2:
  77              		.loc 1 128 0
  78 0010 002A     		cmp	r2, #0
  79 0012 54D0     		beq	.L3
  80              	.LVL3:
  81              	.LBB33:
  82              		.loc 1 135 0 discriminator 1
  83 0014 A168     		ldr	r1, [r4, #8]
  84 0016 9368     		ldr	r3, [r2, #8]
  85 0018 9942     		cmp	r1, r3
  86 001a 06D9     		bls	.L5
  87              	.LVL4:
  88              	.L14:
  89              		.loc 1 139 0
  90 001c 137F     		ldrb	r3, [r2, #28]	@ zero_extendqisi2
  91              		.loc 1 137 0
  92 001e 9160     		str	r1, [r2, #8]
  93              		.loc 1 139 0
  94 0020 042B     		cmp	r3, #4
  95 0022 33D0     		beq	.L6
  96 0024 052B     		cmp	r3, #5
  97 0026 1DD0     		beq	.L7
  98 0028 9BB1     		cbz	r3, .L22
  99              	.LVL5:
 100              	.L5:
 101              	.LBB34:
 102              	.LBB35:
 103              		.file 2 "../third_party/ChibiOS/os/kernel/include/chinline.h"
 104              		.loc 2 43 0
 105 002a 2B46     		mov	r3, r5
 106 002c 03E0     		b	.L20
 107              	.LVL6:
 108              	.L18:
 109              		.loc 2 46 0
 110 002e 9968     		ldr	r1, [r3, #8]
 111 0030 A268     		ldr	r2, [r4, #8]
 112 0032 9142     		cmp	r1, r2
 113 0034 02D3     		bcc	.L19
ARM GAS  /tmp/ccfrkxW6.s 			page 3


 114              	.L20:
 115              		.loc 2 45 0
 116 0036 1B68     		ldr	r3, [r3]
 117              	.LVL7:
 118              		.loc 2 46 0
 119 0038 9D42     		cmp	r5, r3
 120 003a F8D1     		bne	.L18
 121              	.L19:
 122              		.loc 2 48 0
 123 003c 5A68     		ldr	r2, [r3, #4]
 124              		.loc 2 47 0
 125 003e 2360     		str	r3, [r4]
 126              		.loc 2 48 0
 127 0040 6260     		str	r2, [r4, #4]
 128              		.loc 2 49 0
 129 0042 5C60     		str	r4, [r3, #4]
 130 0044 1460     		str	r4, [r2]
 131              	.LBE35:
 132              	.LBE34:
 133              		.loc 1 174 0
 134 0046 6562     		str	r5, [r4, #36]
 135              		.loc 1 175 0
 136 0048 0420     		movs	r0, #4
 137              	.LBE33:
 138              		.loc 1 187 0
 139 004a BDE8F840 		pop	{r3, r4, r5, r6, r7, lr}
 140              	.LVL8:
 141              	.LBB58:
 142              		.loc 1 175 0
 143 004e FFF7FEBF 		b	chSchGoSleepS
 144              	.LVL9:
 145              	.L22:
 146              	.LBB36:
 147              	.LBB37:
 148              		.loc 2 75 0
 149 0052 92E80A00 		ldmia	r2, {r1, r3}
 150 0056 1960     		str	r1, [r3]
 151              	.LBE37:
 152              	.LBE36:
 153              		.loc 1 167 0
 154 0058 1046     		mov	r0, r2
 155              	.LBB39:
 156              	.LBB38:
 157              		.loc 2 76 0
 158 005a 1268     		ldr	r2, [r2]
 159              	.LVL10:
 160 005c 5360     		str	r3, [r2, #4]
 161              	.LBE38:
 162              	.LBE39:
 163              		.loc 1 167 0
 164 005e FFF7FEFF 		bl	chSchReadyI
 165              	.LVL11:
 166              		.loc 1 168 0
 167 0062 E2E7     		b	.L5
 168              	.LVL12:
 169              	.L7:
 170              	.LBB40:
ARM GAS  /tmp/ccfrkxW6.s 			page 4


 171              	.LBB41:
 172              		.loc 2 75 0
 173 0064 1368     		ldr	r3, [r2]
 174 0066 5068     		ldr	r0, [r2, #4]
 175              	.LBE41:
 176              	.LBE40:
 177              		.loc 1 158 0
 178 0068 566A     		ldr	r6, [r2, #36]
 179              	.LVL13:
 180              	.LBB44:
 181              	.LBB42:
 182              		.loc 2 75 0
 183 006a 0360     		str	r3, [r0]
 184              		.loc 2 76 0
 185 006c 1768     		ldr	r7, [r2]
 186              	.LBE42:
 187              	.LBE44:
 188              	.LBB45:
 189              	.LBB46:
 190              		.loc 2 43 0
 191 006e 3346     		mov	r3, r6
 192              	.LBE46:
 193              	.LBE45:
 194              	.LBB48:
 195              	.LBB43:
 196              		.loc 2 76 0
 197 0070 7860     		str	r0, [r7, #4]
 198 0072 02E0     		b	.L17
 199              	.LVL14:
 200              	.L15:
 201              	.LBE43:
 202              	.LBE48:
 203              	.LBB49:
 204              	.LBB47:
 205              		.loc 2 46 0
 206 0074 9868     		ldr	r0, [r3, #8]
 207 0076 8842     		cmp	r0, r1
 208 0078 02D3     		bcc	.L16
 209              	.L17:
 210              		.loc 2 45 0
 211 007a 1B68     		ldr	r3, [r3]
 212              	.LVL15:
 213              		.loc 2 46 0
 214 007c 9E42     		cmp	r6, r3
 215 007e F9D1     		bne	.L15
 216              	.L16:
 217              		.loc 2 48 0
 218 0080 5968     		ldr	r1, [r3, #4]
 219              		.loc 2 47 0
 220 0082 1360     		str	r3, [r2]
 221              		.loc 2 48 0
 222 0084 5160     		str	r1, [r2, #4]
 223              		.loc 2 49 0
 224 0086 5A60     		str	r2, [r3, #4]
 225 0088 0A60     		str	r2, [r1]
 226 008a CEE7     		b	.L5
 227              	.LVL16:
ARM GAS  /tmp/ccfrkxW6.s 			page 5


 228              	.L6:
 229              	.LBE47:
 230              	.LBE49:
 231              	.LBB50:
 232              	.LBB51:
 233              		.loc 2 75 0
 234 008c 1368     		ldr	r3, [r2]
 235 008e 5068     		ldr	r0, [r2, #4]
 236              	.LBE51:
 237              	.LBE50:
 238              		.loc 1 142 0
 239 0090 566A     		ldr	r6, [r2, #36]
 240              	.LVL17:
 241              	.LBB54:
 242              	.LBB52:
 243              		.loc 2 75 0
 244 0092 0360     		str	r3, [r0]
 245              		.loc 2 76 0
 246 0094 1768     		ldr	r7, [r2]
 247              	.LBE52:
 248              	.LBE54:
 249              		.loc 1 142 0
 250 0096 3346     		mov	r3, r6
 251              	.LBB55:
 252              	.LBB53:
 253              		.loc 2 76 0
 254 0098 7860     		str	r0, [r7, #4]
 255 009a 02E0     		b	.L13
 256              	.LVL18:
 257              	.L9:
 258              	.LBE53:
 259              	.LBE55:
 260              	.LBB56:
 261              	.LBB57:
 262              		.loc 2 46 0
 263 009c 9868     		ldr	r0, [r3, #8]
 264 009e 8842     		cmp	r0, r1
 265 00a0 02D3     		bcc	.L12
 266              	.L13:
 267              		.loc 2 45 0
 268 00a2 1B68     		ldr	r3, [r3]
 269              	.LVL19:
 270              		.loc 2 46 0
 271 00a4 9E42     		cmp	r6, r3
 272 00a6 F9D1     		bne	.L9
 273              	.L12:
 274              		.loc 2 48 0
 275 00a8 5968     		ldr	r1, [r3, #4]
 276              		.loc 2 47 0
 277 00aa 1360     		str	r3, [r2]
 278              		.loc 2 48 0
 279 00ac 5160     		str	r1, [r2, #4]
 280              		.loc 2 49 0
 281 00ae 5A60     		str	r2, [r3, #4]
 282 00b0 0A60     		str	r2, [r1]
 283              	.LBE57:
 284              	.LBE56:
ARM GAS  /tmp/ccfrkxW6.s 			page 6


 285              		.loc 1 143 0
 286 00b2 B268     		ldr	r2, [r6, #8]
 287              	.LVL20:
 288              		.loc 1 135 0
 289 00b4 A168     		ldr	r1, [r4, #8]
 290 00b6 9368     		ldr	r3, [r2, #8]
 291              	.LVL21:
 292 00b8 8B42     		cmp	r3, r1
 293 00ba AFD3     		bcc	.L14
 294 00bc B5E7     		b	.L5
 295              	.LVL22:
 296              	.L3:
 297              	.LBE58:
 298              		.loc 1 184 0
 299 00be E36B     		ldr	r3, [r4, #60]
 300              		.loc 1 183 0
 301 00c0 8460     		str	r4, [r0, #8]
 302              		.loc 1 184 0
 303 00c2 C360     		str	r3, [r0, #12]
 304              		.loc 1 185 0
 305 00c4 E063     		str	r0, [r4, #60]
 306 00c6 F8BD     		pop	{r3, r4, r5, r6, r7, pc}
 307              		.cfi_endproc
 308              	.LFE9:
 309              		.size	chMtxLockS, .-chMtxLockS
 310 00c8 AFF30080 		.section	.text.chMtxLock,"ax",%progbits
 310      AFF30080 
 311              		.align	2
 312              		.p2align 4,,15
 313              		.global	chMtxLock
 314              		.thumb
 315              		.thumb_func
 316              		.type	chMtxLock, %function
 317              	chMtxLock:
 318              	.LFB8:
 319              		.loc 1 103 0
 320              		.cfi_startproc
 321              		@ args = 0, pretend = 0, frame = 0
 322              		@ frame_needed = 0, uses_anonymous_args = 0
 323              	.LVL23:
 324 0000 08B5     		push	{r3, lr}
 325              		.cfi_def_cfa_offset 8
 326              		.cfi_offset 3, -8
 327              		.cfi_offset 14, -4
 328              	.LBB59:
 329              		.loc 1 105 0
 330 0002 2023     		movs	r3, #32
 331              	@ 105 "../third_party/ChibiOS/os/kernel/src/chmtx.c" 1
 332 0004 83F31188 		msr     BASEPRI, r3
 333              	@ 0 "" 2
 334              		.thumb
 335              	.LBE59:
 336              		.loc 1 107 0
 337 0008 FFF7FEFF 		bl	chMtxLockS
 338              	.LVL24:
 339              	.LBB60:
 340              		.loc 1 109 0
ARM GAS  /tmp/ccfrkxW6.s 			page 7


 341 000c 0023     		movs	r3, #0
 342              	@ 109 "../third_party/ChibiOS/os/kernel/src/chmtx.c" 1
 343 000e 83F31188 		msr     BASEPRI, r3
 344              	@ 0 "" 2
 345              		.thumb
 346 0012 08BD     		pop	{r3, pc}
 347              	.LBE60:
 348              		.cfi_endproc
 349              	.LFE8:
 350              		.size	chMtxLock, .-chMtxLock
 351 0014 AFF30080 		.section	.text.chMtxTryLock,"ax",%progbits
 351      AFF30080 
 351      AFF30080 
 352              		.align	2
 353              		.p2align 4,,15
 354              		.global	chMtxTryLock
 355              		.thumb
 356              		.thumb_func
 357              		.type	chMtxTryLock, %function
 358              	chMtxTryLock:
 359              	.LFB10:
 360              		.loc 1 206 0
 361              		.cfi_startproc
 362              		@ args = 0, pretend = 0, frame = 0
 363              		@ frame_needed = 0, uses_anonymous_args = 0
 364              		@ link register save eliminated.
 365              	.LVL25:
 366              		.loc 1 206 0
 367 0000 0246     		mov	r2, r0
 368              	.LBB61:
 369              		.loc 1 209 0
 370 0002 2023     		movs	r3, #32
 371              	@ 209 "../third_party/ChibiOS/os/kernel/src/chmtx.c" 1
 372 0004 83F31188 		msr     BASEPRI, r3
 373              	@ 0 "" 2
 374              	.LVL26:
 375              		.thumb
 376              	.LBE61:
 377              	.LBB62:
 378              	.LBB63:
 379              		.loc 1 239 0
 380 0008 8368     		ldr	r3, [r0, #8]
 381              		.loc 1 240 0
 382 000a 0020     		movs	r0, #0
 383              	.LVL27:
 384              		.loc 1 239 0
 385 000c 1BB1     		cbz	r3, .L27
 386              	.LBE63:
 387              	.LBE62:
 388              	.LBB65:
 389              		.loc 1 213 0
 390 000e 0023     		movs	r3, #0
 391              	@ 213 "../third_party/ChibiOS/os/kernel/src/chmtx.c" 1
 392 0010 83F31188 		msr     BASEPRI, r3
 393              	@ 0 "" 2
 394              		.thumb
 395              	.LBE65:
ARM GAS  /tmp/ccfrkxW6.s 			page 8


 396              		.loc 1 215 0
 397 0014 7047     		bx	lr
 398              	.L27:
 399              	.LBB66:
 400              	.LBB64:
 401              		.loc 1 241 0
 402 0016 40F20003 		movw	r3, #:lower16:rlist
 403 001a C0F20003 		movt	r3, #:upper16:rlist
 404 001e DB69     		ldr	r3, [r3, #28]
 405              		.loc 1 244 0
 406 0020 0120     		movs	r0, #1
 407              		.loc 1 242 0
 408 0022 D96B     		ldr	r1, [r3, #60]
 409              		.loc 1 241 0
 410 0024 9360     		str	r3, [r2, #8]
 411              		.loc 1 242 0
 412 0026 D160     		str	r1, [r2, #12]
 413              		.loc 1 243 0
 414 0028 DA63     		str	r2, [r3, #60]
 415              	.LBE64:
 416              	.LBE66:
 417              	.LBB67:
 418              		.loc 1 213 0
 419 002a 0023     		movs	r3, #0
 420              	@ 213 "../third_party/ChibiOS/os/kernel/src/chmtx.c" 1
 421 002c 83F31188 		msr     BASEPRI, r3
 422              	@ 0 "" 2
 423              		.thumb
 424              	.LBE67:
 425              		.loc 1 215 0
 426 0030 7047     		bx	lr
 427              		.cfi_endproc
 428              	.LFE10:
 429              		.size	chMtxTryLock, .-chMtxTryLock
 430 0032 00BFAFF3 		.section	.text.chMtxTryLockS,"ax",%progbits
 430      0080AFF3 
 430      0080AFF3 
 430      0080
 431              		.align	2
 432              		.p2align 4,,15
 433              		.global	chMtxTryLockS
 434              		.thumb
 435              		.thumb_func
 436              		.type	chMtxTryLockS, %function
 437              	chMtxTryLockS:
 438              	.LFB11:
 439              		.loc 1 234 0
 440              		.cfi_startproc
 441              		@ args = 0, pretend = 0, frame = 0
 442              		@ frame_needed = 0, uses_anonymous_args = 0
 443              		@ link register save eliminated.
 444              	.LVL28:
 445              		.loc 1 239 0
 446 0000 8268     		ldr	r2, [r0, #8]
 447              		.loc 1 234 0
 448 0002 0346     		mov	r3, r0
 449              		.loc 1 239 0
ARM GAS  /tmp/ccfrkxW6.s 			page 9


 450 0004 0AB1     		cbz	r2, .L31
 451              		.loc 1 240 0
 452 0006 0020     		movs	r0, #0
 453              	.LVL29:
 454              		.loc 1 245 0
 455 0008 7047     		bx	lr
 456              	.LVL30:
 457              	.L31:
 458              		.loc 1 241 0
 459 000a 40F20002 		movw	r2, #:lower16:rlist
 460 000e C0F20002 		movt	r2, #:upper16:rlist
 461 0012 D269     		ldr	r2, [r2, #28]
 462              		.loc 1 244 0
 463 0014 0120     		movs	r0, #1
 464              	.LVL31:
 465              		.loc 1 242 0
 466 0016 D16B     		ldr	r1, [r2, #60]
 467              		.loc 1 241 0
 468 0018 9A60     		str	r2, [r3, #8]
 469              		.loc 1 242 0
 470 001a D960     		str	r1, [r3, #12]
 471              		.loc 1 243 0
 472 001c D363     		str	r3, [r2, #60]
 473              		.loc 1 244 0
 474 001e 7047     		bx	lr
 475              		.cfi_endproc
 476              	.LFE11:
 477              		.size	chMtxTryLockS, .-chMtxTryLockS
 478              		.section	.text.chMtxUnlock,"ax",%progbits
 479              		.align	2
 480              		.p2align 4,,15
 481              		.global	chMtxUnlock
 482              		.thumb
 483              		.thumb_func
 484              		.type	chMtxUnlock, %function
 485              	chMtxUnlock:
 486              	.LFB12:
 487              		.loc 1 257 0
 488              		.cfi_startproc
 489              		@ args = 0, pretend = 0, frame = 0
 490              		@ frame_needed = 0, uses_anonymous_args = 0
 491 0000 38B5     		push	{r3, r4, r5, lr}
 492              		.cfi_def_cfa_offset 16
 493              		.cfi_offset 3, -16
 494              		.cfi_offset 4, -12
 495              		.cfi_offset 5, -8
 496              		.cfi_offset 14, -4
 497              		.loc 1 258 0
 498 0002 40F20003 		movw	r3, #:lower16:rlist
 499 0006 C0F20003 		movt	r3, #:upper16:rlist
 500 000a D869     		ldr	r0, [r3, #28]
 501              	.LVL32:
 502              	.LBB68:
 503              		.loc 1 261 0
 504 000c 2023     		movs	r3, #32
 505              	@ 261 "../third_party/ChibiOS/os/kernel/src/chmtx.c" 1
 506 000e 83F31188 		msr     BASEPRI, r3
ARM GAS  /tmp/ccfrkxW6.s 			page 10


 507              	@ 0 "" 2
 508              		.thumb
 509              	.LBE68:
 510              		.loc 1 270 0
 511 0012 C46B     		ldr	r4, [r0, #60]
 512              	.LVL33:
 513              		.loc 1 273 0
 514 0014 2568     		ldr	r5, [r4]
 515              		.loc 1 271 0
 516 0016 E368     		ldr	r3, [r4, #12]
 517              		.loc 1 273 0
 518 0018 A542     		cmp	r5, r4
 519              		.loc 1 271 0
 520 001a C363     		str	r3, [r0, #60]
 521              		.loc 1 273 0
 522 001c 1CD0     		beq	.L33
 523              	.LBB69:
 524              		.loc 1 278 0
 525 001e 016C     		ldr	r1, [r0, #64]
 526              	.LVL34:
 527              		.loc 1 280 0
 528 0020 4BB1     		cbz	r3, .L34
 529              	.L36:
 530              		.loc 1 284 0
 531 0022 1A68     		ldr	r2, [r3]
 532 0024 9A42     		cmp	r2, r3
 533 0026 03D0     		beq	.L35
 534              		.loc 1 284 0 is_stmt 0 discriminator 1
 535 0028 9268     		ldr	r2, [r2, #8]
 536 002a 9142     		cmp	r1, r2
 537 002c 38BF     		it	cc
 538 002e 1146     		movcc	r1, r2
 539              	.LVL35:
 540              	.L35:
 541              		.loc 1 286 0 is_stmt 1
 542 0030 DB68     		ldr	r3, [r3, #12]
 543              	.LVL36:
 544              		.loc 1 280 0
 545 0032 002B     		cmp	r3, #0
 546 0034 F5D1     		bne	.L36
 547              	.L34:
 548              	.LBB70:
 549              	.LBB71:
 550              		.loc 2 62 0
 551 0036 2B68     		ldr	r3, [r5]
 552              	.LVL37:
 553              	.LBE71:
 554              	.LBE70:
 555              		.loc 1 295 0
 556 0038 EA6B     		ldr	r2, [r5, #60]
 557              		.loc 1 290 0
 558 003a 8160     		str	r1, [r0, #8]
 559              	.LVL38:
 560              	.LBB74:
 561              	.LBB72:
 562              		.loc 2 62 0
 563 003c 2360     		str	r3, [r4]
ARM GAS  /tmp/ccfrkxW6.s 			page 11


 564              	.LBE72:
 565              	.LBE74:
 566              		.loc 1 297 0
 567 003e 2846     		mov	r0, r5
 568              	.LVL39:
 569              	.LBB75:
 570              	.LBB73:
 571              		.loc 2 62 0
 572 0040 5C60     		str	r4, [r3, #4]
 573              	.LBE73:
 574              	.LBE75:
 575              		.loc 1 297 0
 576 0042 0021     		movs	r1, #0
 577              	.LVL40:
 578              		.loc 1 294 0
 579 0044 A560     		str	r5, [r4, #8]
 580              		.loc 1 295 0
 581 0046 E260     		str	r2, [r4, #12]
 582              		.loc 1 296 0
 583 0048 EC63     		str	r4, [r5, #60]
 584              		.loc 1 297 0
 585 004a FFF7FEFF 		bl	chSchWakeupS
 586              	.LVL41:
 587              	.LBE69:
 588              	.LBB76:
 589              		.loc 1 301 0
 590 004e 0023     		movs	r3, #0
 591              	@ 301 "../third_party/ChibiOS/os/kernel/src/chmtx.c" 1
 592 0050 83F31188 		msr     BASEPRI, r3
 593              	@ 0 "" 2
 594              		.thumb
 595              	.LBE76:
 596              		.loc 1 303 0
 597 0054 2046     		mov	r0, r4
 598 0056 38BD     		pop	{r3, r4, r5, pc}
 599              	.LVL42:
 600              	.L33:
 601              		.loc 1 300 0
 602 0058 0023     		movs	r3, #0
 603 005a A360     		str	r3, [r4, #8]
 604              	.LBB77:
 605              		.loc 1 301 0
 606 005c 0023     		movs	r3, #0
 607              	@ 301 "../third_party/ChibiOS/os/kernel/src/chmtx.c" 1
 608 005e 83F31188 		msr     BASEPRI, r3
 609              	@ 0 "" 2
 610              		.thumb
 611              	.LBE77:
 612              		.loc 1 303 0
 613 0062 2046     		mov	r0, r4
 614              	.LVL43:
 615 0064 38BD     		pop	{r3, r4, r5, pc}
 616              		.cfi_endproc
 617              	.LFE12:
 618              		.size	chMtxUnlock, .-chMtxUnlock
 619 0066 00BFAFF3 		.section	.text.chMtxUnlockS,"ax",%progbits
 619      0080AFF3 
ARM GAS  /tmp/ccfrkxW6.s 			page 12


 619      0080
 620              		.align	2
 621              		.p2align 4,,15
 622              		.global	chMtxUnlockS
 623              		.thumb
 624              		.thumb_func
 625              		.type	chMtxUnlockS, %function
 626              	chMtxUnlockS:
 627              	.LFB13:
 628              		.loc 1 317 0
 629              		.cfi_startproc
 630              		@ args = 0, pretend = 0, frame = 0
 631              		@ frame_needed = 0, uses_anonymous_args = 0
 632 0000 38B5     		push	{r3, r4, r5, lr}
 633              		.cfi_def_cfa_offset 16
 634              		.cfi_offset 3, -16
 635              		.cfi_offset 4, -12
 636              		.cfi_offset 5, -8
 637              		.cfi_offset 14, -4
 638              		.loc 1 318 0
 639 0002 40F20003 		movw	r3, #:lower16:rlist
 640 0006 C0F20003 		movt	r3, #:upper16:rlist
 641 000a D869     		ldr	r0, [r3, #28]
 642              	.LVL44:
 643              		.loc 1 331 0
 644 000c C46B     		ldr	r4, [r0, #60]
 645              	.LVL45:
 646              		.loc 1 334 0
 647 000e 2568     		ldr	r5, [r4]
 648              		.loc 1 332 0
 649 0010 E368     		ldr	r3, [r4, #12]
 650              		.loc 1 334 0
 651 0012 A542     		cmp	r5, r4
 652              		.loc 1 332 0
 653 0014 C363     		str	r3, [r0, #60]
 654              		.loc 1 334 0
 655 0016 18D0     		beq	.L45
 656              	.LBB78:
 657              		.loc 1 339 0
 658 0018 016C     		ldr	r1, [r0, #64]
 659              	.LVL46:
 660              		.loc 1 341 0
 661 001a 4BB1     		cbz	r3, .L46
 662              	.L48:
 663              		.loc 1 345 0
 664 001c 1A68     		ldr	r2, [r3]
 665 001e 9A42     		cmp	r2, r3
 666 0020 03D0     		beq	.L47
 667              		.loc 1 345 0 is_stmt 0 discriminator 1
 668 0022 9268     		ldr	r2, [r2, #8]
 669 0024 9142     		cmp	r1, r2
 670 0026 38BF     		it	cc
 671 0028 1146     		movcc	r1, r2
 672              	.LVL47:
 673              	.L47:
 674              		.loc 1 347 0 is_stmt 1
 675 002a DB68     		ldr	r3, [r3, #12]
ARM GAS  /tmp/ccfrkxW6.s 			page 13


 676              	.LVL48:
 677              		.loc 1 341 0
 678 002c 002B     		cmp	r3, #0
 679 002e F5D1     		bne	.L48
 680              	.L46:
 681              		.loc 1 354 0
 682 0030 EA6B     		ldr	r2, [r5, #60]
 683              	.LBB79:
 684              	.LBB80:
 685              		.loc 2 62 0
 686 0032 2B68     		ldr	r3, [r5]
 687              	.LVL49:
 688              	.LBE80:
 689              	.LBE79:
 690              		.loc 1 349 0
 691 0034 8160     		str	r1, [r0, #8]
 692              	.LVL50:
 693              	.LBB83:
 694              	.LBB81:
 695              		.loc 2 62 0
 696 0036 2360     		str	r3, [r4]
 697              	.LBE81:
 698              	.LBE83:
 699              		.loc 1 356 0
 700 0038 2846     		mov	r0, r5
 701              	.LVL51:
 702              	.LBB84:
 703              	.LBB82:
 704              		.loc 2 62 0
 705 003a 5C60     		str	r4, [r3, #4]
 706              	.LBE82:
 707              	.LBE84:
 708              		.loc 1 353 0
 709 003c A560     		str	r5, [r4, #8]
 710              		.loc 1 354 0
 711 003e E260     		str	r2, [r4, #12]
 712              		.loc 1 355 0
 713 0040 EC63     		str	r4, [r5, #60]
 714              		.loc 1 356 0
 715 0042 FFF7FEFF 		bl	chSchReadyI
 716              	.LVL52:
 717              	.LBE78:
 718              		.loc 1 361 0
 719 0046 2046     		mov	r0, r4
 720 0048 38BD     		pop	{r3, r4, r5, pc}
 721              	.LVL53:
 722              	.L45:
 723              		.loc 1 359 0
 724 004a 0023     		movs	r3, #0
 725 004c A360     		str	r3, [r4, #8]
 726              		.loc 1 361 0
 727 004e 2046     		mov	r0, r4
 728              	.LVL54:
 729 0050 38BD     		pop	{r3, r4, r5, pc}
 730              		.cfi_endproc
 731              	.LFE13:
 732              		.size	chMtxUnlockS, .-chMtxUnlockS
ARM GAS  /tmp/ccfrkxW6.s 			page 14


 733 0052 00BFAFF3 		.section	.text.chMtxUnlockAll,"ax",%progbits
 733      0080AFF3 
 733      0080AFF3 
 733      0080
 734              		.align	2
 735              		.p2align 4,,15
 736              		.global	chMtxUnlockAll
 737              		.thumb
 738              		.thumb_func
 739              		.type	chMtxUnlockAll, %function
 740              	chMtxUnlockAll:
 741              	.LFB14:
 742              		.loc 1 374 0
 743              		.cfi_startproc
 744              		@ args = 0, pretend = 0, frame = 0
 745              		@ frame_needed = 0, uses_anonymous_args = 0
 746              		.loc 1 375 0
 747 0000 40F20003 		movw	r3, #:lower16:rlist
 748 0004 C0F20003 		movt	r3, #:upper16:rlist
 749              		.loc 1 374 0
 750 0008 70B5     		push	{r4, r5, r6, lr}
 751              		.cfi_def_cfa_offset 16
 752              		.cfi_offset 4, -16
 753              		.cfi_offset 5, -12
 754              		.cfi_offset 6, -8
 755              		.cfi_offset 14, -4
 756              		.loc 1 375 0
 757 000a DC69     		ldr	r4, [r3, #28]
 758              	.LVL55:
 759              	.LBB85:
 760              		.loc 1 377 0
 761 000c 2023     		movs	r3, #32
 762              	@ 377 "../third_party/ChibiOS/os/kernel/src/chmtx.c" 1
 763 000e 83F31188 		msr     BASEPRI, r3
 764              	@ 0 "" 2
 765              		.thumb
 766              	.LBE85:
 767              		.loc 1 378 0
 768 0012 E36B     		ldr	r3, [r4, #60]
 769 0014 C3B1     		cbz	r3, .L57
 770              	.LBB86:
 771              		.loc 1 390 0
 772 0016 0026     		movs	r6, #0
 773              	.L61:
 774              	.LVL56:
 775              		.loc 1 382 0
 776 0018 1A68     		ldr	r2, [r3]
 777              	.LVL57:
 778              		.loc 1 381 0
 779 001a D968     		ldr	r1, [r3, #12]
 780              		.loc 1 382 0
 781 001c 9A42     		cmp	r2, r3
 782              		.loc 1 381 0
 783 001e E163     		str	r1, [r4, #60]
 784              		.loc 1 390 0
 785 0020 08BF     		it	eq
 786 0022 9E60     		streq	r6, [r3, #8]
ARM GAS  /tmp/ccfrkxW6.s 			page 15


 787              		.loc 1 382 0
 788 0024 09D0     		beq	.L59
 789              	.LBB87:
 790              		.loc 1 385 0
 791 0026 D56B     		ldr	r5, [r2, #60]
 792              	.LBB88:
 793              	.LBB89:
 794              		.loc 2 62 0
 795 0028 1168     		ldr	r1, [r2]
 796              	.LBE89:
 797              	.LBE88:
 798              		.loc 1 387 0
 799 002a 1046     		mov	r0, r2
 800              	.LBB91:
 801              	.LBB90:
 802              		.loc 2 62 0
 803 002c 1960     		str	r1, [r3]
 804 002e 4B60     		str	r3, [r1, #4]
 805              	.LBE90:
 806              	.LBE91:
 807              		.loc 1 384 0
 808 0030 9A60     		str	r2, [r3, #8]
 809              		.loc 1 385 0
 810 0032 DD60     		str	r5, [r3, #12]
 811              		.loc 1 386 0
 812 0034 D363     		str	r3, [r2, #60]
 813              		.loc 1 387 0
 814 0036 FFF7FEFF 		bl	chSchReadyI
 815              	.LVL58:
 816              	.L59:
 817              	.LBE87:
 818              	.LBE86:
 819              		.loc 1 391 0
 820 003a E36B     		ldr	r3, [r4, #60]
 821 003c 002B     		cmp	r3, #0
 822 003e EBD1     		bne	.L61
 823              		.loc 1 392 0
 824 0040 236C     		ldr	r3, [r4, #64]
 825 0042 A360     		str	r3, [r4, #8]
 826              		.loc 1 393 0
 827 0044 FFF7FEFF 		bl	chSchRescheduleS
 828              	.LVL59:
 829              	.L57:
 830              	.LBB92:
 831              		.loc 1 395 0
 832 0048 0023     		movs	r3, #0
 833              	@ 395 "../third_party/ChibiOS/os/kernel/src/chmtx.c" 1
 834 004a 83F31188 		msr     BASEPRI, r3
 835              	@ 0 "" 2
 836              		.thumb
 837 004e 70BD     		pop	{r4, r5, r6, pc}
 838              	.LBE92:
 839              		.cfi_endproc
 840              	.LFE14:
 841              		.size	chMtxUnlockAll, .-chMtxUnlockAll
 842              		.text
 843              	.Letext0:
ARM GAS  /tmp/ccfrkxW6.s 			page 16


 844              		.file 3 "/home/santi/arm-2013.11/arm-none-eabi/include/stdint.h"
 845              		.file 4 "../third_party/ChibiOS/os/ports/GCC/ARMCMx/chtypes.h"
 846              		.file 5 "../third_party/ChibiOS/os/kernel/include/chlists.h"
 847              		.file 6 "../third_party/ChibiOS/os/kernel/include/chthreads.h"
 848              		.file 7 "../third_party/ChibiOS/os/ports/GCC/ARMCMx/chcore_v7m.h"
 849              		.file 8 "../third_party/ChibiOS/os/kernel/include/chschd.h"
 850              		.file 9 "../third_party/ChibiOS/os/kernel/include/chmtx.h"
 851              		.section	.debug_info,"",%progbits
 852              	.Ldebug_info0:
 853 0000 A5090000 		.4byte	0x9a5
 854 0004 0400     		.2byte	0x4
 855 0006 00000000 		.4byte	.Ldebug_abbrev0
 856 000a 04       		.byte	0x4
 857 000b 01       		.uleb128 0x1
 858 000c 1A000000 		.4byte	.LASF77
 859 0010 01       		.byte	0x1
 860 0011 AD010000 		.4byte	.LASF78
 861 0015 72020000 		.4byte	.LASF79
 862 0019 28010000 		.4byte	.Ldebug_ranges0+0x128
 863 001d 00000000 		.4byte	0
 864 0021 00000000 		.4byte	.Ldebug_line0
 865 0025 02       		.uleb128 0x2
 866 0026 04       		.byte	0x4
 867 0027 05       		.byte	0x5
 868 0028 696E7400 		.ascii	"int\000"
 869 002c 03       		.uleb128 0x3
 870 002d 04       		.byte	0x4
 871 002e 07       		.byte	0x7
 872 002f 8E010000 		.4byte	.LASF0
 873 0033 03       		.uleb128 0x3
 874 0034 01       		.byte	0x1
 875 0035 06       		.byte	0x6
 876 0036 03010000 		.4byte	.LASF1
 877 003a 04       		.uleb128 0x4
 878 003b D8030000 		.4byte	.LASF5
 879 003f 03       		.byte	0x3
 880 0040 2A       		.byte	0x2a
 881 0041 45000000 		.4byte	0x45
 882 0045 03       		.uleb128 0x3
 883 0046 01       		.byte	0x1
 884 0047 08       		.byte	0x8
 885 0048 E0020000 		.4byte	.LASF2
 886 004c 03       		.uleb128 0x3
 887 004d 02       		.byte	0x2
 888 004e 05       		.byte	0x5
 889 004f F8020000 		.4byte	.LASF3
 890 0053 03       		.uleb128 0x3
 891 0054 02       		.byte	0x2
 892 0055 07       		.byte	0x7
 893 0056 E2010000 		.4byte	.LASF4
 894 005a 04       		.uleb128 0x4
 895 005b D8020000 		.4byte	.LASF6
 896 005f 03       		.byte	0x3
 897 0060 4F       		.byte	0x4f
 898 0061 65000000 		.4byte	0x65
 899 0065 03       		.uleb128 0x3
 900 0066 04       		.byte	0x4
ARM GAS  /tmp/ccfrkxW6.s 			page 17


 901 0067 05       		.byte	0x5
 902 0068 26010000 		.4byte	.LASF7
 903 006c 04       		.uleb128 0x4
 904 006d 47030000 		.4byte	.LASF8
 905 0071 03       		.byte	0x3
 906 0072 50       		.byte	0x50
 907 0073 77000000 		.4byte	0x77
 908 0077 03       		.uleb128 0x3
 909 0078 04       		.byte	0x4
 910 0079 07       		.byte	0x7
 911 007a 9B010000 		.4byte	.LASF9
 912 007e 03       		.uleb128 0x3
 913 007f 08       		.byte	0x8
 914 0080 05       		.byte	0x5
 915 0081 F5000000 		.4byte	.LASF10
 916 0085 03       		.uleb128 0x3
 917 0086 08       		.byte	0x8
 918 0087 07       		.byte	0x7
 919 0088 C2000000 		.4byte	.LASF11
 920 008c 04       		.uleb128 0x4
 921 008d 17010000 		.4byte	.LASF12
 922 0091 04       		.byte	0x4
 923 0092 2E       		.byte	0x2e
 924 0093 5A000000 		.4byte	0x5a
 925 0097 04       		.uleb128 0x4
 926 0098 1E020000 		.4byte	.LASF13
 927 009c 04       		.byte	0x4
 928 009d 2F       		.byte	0x2f
 929 009e 3A000000 		.4byte	0x3a
 930 00a2 04       		.uleb128 0x4
 931 00a3 2F010000 		.4byte	.LASF14
 932 00a7 04       		.byte	0x4
 933 00a8 30       		.byte	0x30
 934 00a9 3A000000 		.4byte	0x3a
 935 00ad 04       		.uleb128 0x4
 936 00ae C1020000 		.4byte	.LASF15
 937 00b2 04       		.byte	0x4
 938 00b3 31       		.byte	0x31
 939 00b4 3A000000 		.4byte	0x3a
 940 00b8 04       		.uleb128 0x4
 941 00b9 D0020000 		.4byte	.LASF16
 942 00bd 04       		.byte	0x4
 943 00be 32       		.byte	0x32
 944 00bf 6C000000 		.4byte	0x6c
 945 00c3 04       		.uleb128 0x4
 946 00c4 F5010000 		.4byte	.LASF17
 947 00c8 04       		.byte	0x4
 948 00c9 33       		.byte	0x33
 949 00ca 5A000000 		.4byte	0x5a
 950 00ce 04       		.uleb128 0x4
 951 00cf 32020000 		.4byte	.LASF18
 952 00d3 04       		.byte	0x4
 953 00d4 35       		.byte	0x35
 954 00d5 6C000000 		.4byte	0x6c
 955 00d9 04       		.uleb128 0x4
 956 00da 7C030000 		.4byte	.LASF19
 957 00de 04       		.byte	0x4
ARM GAS  /tmp/ccfrkxW6.s 			page 18


 958 00df 36       		.byte	0x36
 959 00e0 6C000000 		.4byte	0x6c
 960 00e4 04       		.uleb128 0x4
 961 00e5 7B010000 		.4byte	.LASF20
 962 00e9 04       		.byte	0x4
 963 00ea 37       		.byte	0x37
 964 00eb 5A000000 		.4byte	0x5a
 965 00ef 04       		.uleb128 0x4
 966 00f0 27030000 		.4byte	.LASF21
 967 00f4 05       		.byte	0x5
 968 00f5 2A       		.byte	0x2a
 969 00f6 FA000000 		.4byte	0xfa
 970 00fa 05       		.uleb128 0x5
 971 00fb 27030000 		.4byte	.LASF21
 972 00ff 48       		.byte	0x48
 973 0100 06       		.byte	0x6
 974 0101 5E       		.byte	0x5e
 975 0102 EB010000 		.4byte	0x1eb
 976 0106 06       		.uleb128 0x6
 977 0107 18030000 		.4byte	.LASF22
 978 010b 06       		.byte	0x6
 979 010c 5F       		.byte	0x5f
 980 010d 0C020000 		.4byte	0x20c
 981 0111 00       		.byte	0
 982 0112 06       		.uleb128 0x6
 983 0113 C9020000 		.4byte	.LASF23
 984 0117 06       		.byte	0x6
 985 0118 61       		.byte	0x61
 986 0119 0C020000 		.4byte	0x20c
 987 011d 04       		.byte	0x4
 988 011e 06       		.uleb128 0x6
 989 011f EE000000 		.4byte	.LASF24
 990 0123 06       		.byte	0x6
 991 0124 63       		.byte	0x63
 992 0125 B8000000 		.4byte	0xb8
 993 0129 08       		.byte	0x8
 994 012a 06       		.uleb128 0x6
 995 012b 00040000 		.4byte	.LASF25
 996 012f 06       		.byte	0x6
 997 0130 64       		.byte	0x64
 998 0131 C5020000 		.4byte	0x2c5
 999 0135 0C       		.byte	0xc
 1000 0136 06       		.uleb128 0x6
 1001 0137 51010000 		.4byte	.LASF26
 1002 013b 06       		.byte	0x6
 1003 013c 66       		.byte	0x66
 1004 013d 0C020000 		.4byte	0x20c
 1005 0141 10       		.byte	0x10
 1006 0142 06       		.uleb128 0x6
 1007 0143 64020000 		.4byte	.LASF27
 1008 0147 06       		.byte	0x6
 1009 0148 67       		.byte	0x67
 1010 0149 0C020000 		.4byte	0x20c
 1011 014d 14       		.byte	0x14
 1012 014e 06       		.uleb128 0x6
 1013 014f E7030000 		.4byte	.LASF28
 1014 0153 06       		.byte	0x6
ARM GAS  /tmp/ccfrkxW6.s 			page 19


 1015 0154 6E       		.byte	0x6e
 1016 0155 D1030000 		.4byte	0x3d1
 1017 0159 18       		.byte	0x18
 1018 015a 06       		.uleb128 0x6
 1019 015b 02030000 		.4byte	.LASF29
 1020 015f 06       		.byte	0x6
 1021 0160 79       		.byte	0x79
 1022 0161 A2000000 		.4byte	0xa2
 1023 0165 1C       		.byte	0x1c
 1024 0166 06       		.uleb128 0x6
 1025 0167 1F030000 		.4byte	.LASF30
 1026 016b 06       		.byte	0x6
 1027 016c 7D       		.byte	0x7d
 1028 016d 97000000 		.4byte	0x97
 1029 0171 1D       		.byte	0x1d
 1030 0172 06       		.uleb128 0x6
 1031 0173 C1030000 		.4byte	.LASF31
 1032 0177 06       		.byte	0x6
 1033 0178 82       		.byte	0x82
 1034 0179 AD000000 		.4byte	0xad
 1035 017d 1E       		.byte	0x1e
 1036 017e 06       		.uleb128 0x6
 1037 017f 91030000 		.4byte	.LASF32
 1038 0183 06       		.byte	0x6
 1039 0184 89       		.byte	0x89
 1040 0185 ED020000 		.4byte	0x2ed
 1041 0189 20       		.byte	0x20
 1042 018a 07       		.uleb128 0x7
 1043 018b 705F7500 		.ascii	"p_u\000"
 1044 018f 06       		.byte	0x6
 1045 0190 AE       		.byte	0xae
 1046 0191 9C030000 		.4byte	0x39c
 1047 0195 24       		.byte	0x24
 1048 0196 06       		.uleb128 0x6
 1049 0197 06040000 		.4byte	.LASF33
 1050 019b 06       		.byte	0x6
 1051 019c B3       		.byte	0xb3
 1052 019d 32020000 		.4byte	0x232
 1053 01a1 28       		.byte	0x28
 1054 01a2 06       		.uleb128 0x6
 1055 01a3 9F030000 		.4byte	.LASF34
 1056 01a7 06       		.byte	0x6
 1057 01a8 B9       		.byte	0xb9
 1058 01a9 12020000 		.4byte	0x212
 1059 01ad 2C       		.byte	0x2c
 1060 01ae 06       		.uleb128 0x6
 1061 01af 0D000000 		.4byte	.LASF35
 1062 01b3 06       		.byte	0x6
 1063 01b4 BD       		.byte	0xbd
 1064 01b5 C3000000 		.4byte	0xc3
 1065 01b9 34       		.byte	0x34
 1066 01ba 06       		.uleb128 0x6
 1067 01bb 3C030000 		.4byte	.LASF36
 1068 01bf 06       		.byte	0x6
 1069 01c0 C3       		.byte	0xc3
 1070 01c1 CE000000 		.4byte	0xce
 1071 01c5 38       		.byte	0x38
ARM GAS  /tmp/ccfrkxW6.s 			page 20


 1072 01c6 06       		.uleb128 0x6
 1073 01c7 EE020000 		.4byte	.LASF37
 1074 01cb 06       		.byte	0x6
 1075 01cc CA       		.byte	0xca
 1076 01cd E3030000 		.4byte	0x3e3
 1077 01d1 3C       		.byte	0x3c
 1078 01d2 06       		.uleb128 0x6
 1079 01d3 86030000 		.4byte	.LASF38
 1080 01d7 06       		.byte	0x6
 1081 01d8 CE       		.byte	0xce
 1082 01d9 B8000000 		.4byte	0xb8
 1083 01dd 40       		.byte	0x40
 1084 01de 06       		.uleb128 0x6
 1085 01df 0F010000 		.4byte	.LASF39
 1086 01e3 06       		.byte	0x6
 1087 01e4 D4       		.byte	0xd4
 1088 01e5 48020000 		.4byte	0x248
 1089 01e9 44       		.byte	0x44
 1090 01ea 00       		.byte	0
 1091 01eb 08       		.uleb128 0x8
 1092 01ec 08       		.byte	0x8
 1093 01ed 05       		.byte	0x5
 1094 01ee 61       		.byte	0x61
 1095 01ef 0C020000 		.4byte	0x20c
 1096 01f3 06       		.uleb128 0x6
 1097 01f4 18030000 		.4byte	.LASF22
 1098 01f8 05       		.byte	0x5
 1099 01f9 62       		.byte	0x62
 1100 01fa 0C020000 		.4byte	0x20c
 1101 01fe 00       		.byte	0
 1102 01ff 06       		.uleb128 0x6
 1103 0200 C9020000 		.4byte	.LASF23
 1104 0204 05       		.byte	0x5
 1105 0205 64       		.byte	0x64
 1106 0206 0C020000 		.4byte	0x20c
 1107 020a 04       		.byte	0x4
 1108 020b 00       		.byte	0
 1109 020c 09       		.uleb128 0x9
 1110 020d 04       		.byte	0x4
 1111 020e EF000000 		.4byte	0xef
 1112 0212 04       		.uleb128 0x4
 1113 0213 00000000 		.4byte	.LASF40
 1114 0217 05       		.byte	0x5
 1115 0218 66       		.byte	0x66
 1116 0219 EB010000 		.4byte	0x1eb
 1117 021d 08       		.uleb128 0x8
 1118 021e 04       		.byte	0x4
 1119 021f 05       		.byte	0x5
 1120 0220 6B       		.byte	0x6b
 1121 0221 32020000 		.4byte	0x232
 1122 0225 06       		.uleb128 0x6
 1123 0226 18030000 		.4byte	.LASF22
 1124 022a 05       		.byte	0x5
 1125 022b 6D       		.byte	0x6d
 1126 022c 0C020000 		.4byte	0x20c
 1127 0230 00       		.byte	0
 1128 0231 00       		.byte	0
ARM GAS  /tmp/ccfrkxW6.s 			page 21


 1129 0232 04       		.uleb128 0x4
 1130 0233 26020000 		.4byte	.LASF41
 1131 0237 05       		.byte	0x5
 1132 0238 70       		.byte	0x70
 1133 0239 1D020000 		.4byte	0x21d
 1134 023d 04       		.uleb128 0x4
 1135 023e 72010000 		.4byte	.LASF42
 1136 0242 07       		.byte	0x7
 1137 0243 D7       		.byte	0xd7
 1138 0244 48020000 		.4byte	0x248
 1139 0248 0A       		.uleb128 0xa
 1140 0249 04       		.byte	0x4
 1141 024a 05       		.uleb128 0x5
 1142 024b 98030000 		.4byte	.LASF43
 1143 024f 24       		.byte	0x24
 1144 0250 07       		.byte	0x7
 1145 0251 FE       		.byte	0xfe
 1146 0252 C5020000 		.4byte	0x2c5
 1147 0256 0B       		.uleb128 0xb
 1148 0257 723400   		.ascii	"r4\000"
 1149 025a 07       		.byte	0x7
 1150 025b 1101     		.2byte	0x111
 1151 025d 3D020000 		.4byte	0x23d
 1152 0261 00       		.byte	0
 1153 0262 0B       		.uleb128 0xb
 1154 0263 723500   		.ascii	"r5\000"
 1155 0266 07       		.byte	0x7
 1156 0267 1201     		.2byte	0x112
 1157 0269 3D020000 		.4byte	0x23d
 1158 026d 04       		.byte	0x4
 1159 026e 0B       		.uleb128 0xb
 1160 026f 723600   		.ascii	"r6\000"
 1161 0272 07       		.byte	0x7
 1162 0273 1301     		.2byte	0x113
 1163 0275 3D020000 		.4byte	0x23d
 1164 0279 08       		.byte	0x8
 1165 027a 0B       		.uleb128 0xb
 1166 027b 723700   		.ascii	"r7\000"
 1167 027e 07       		.byte	0x7
 1168 027f 1401     		.2byte	0x114
 1169 0281 3D020000 		.4byte	0x23d
 1170 0285 0C       		.byte	0xc
 1171 0286 0B       		.uleb128 0xb
 1172 0287 723800   		.ascii	"r8\000"
 1173 028a 07       		.byte	0x7
 1174 028b 1501     		.2byte	0x115
 1175 028d 3D020000 		.4byte	0x23d
 1176 0291 10       		.byte	0x10
 1177 0292 0B       		.uleb128 0xb
 1178 0293 723900   		.ascii	"r9\000"
 1179 0296 07       		.byte	0x7
 1180 0297 1601     		.2byte	0x116
 1181 0299 3D020000 		.4byte	0x23d
 1182 029d 14       		.byte	0x14
 1183 029e 0B       		.uleb128 0xb
 1184 029f 72313000 		.ascii	"r10\000"
 1185 02a3 07       		.byte	0x7
ARM GAS  /tmp/ccfrkxW6.s 			page 22


 1186 02a4 1701     		.2byte	0x117
 1187 02a6 3D020000 		.4byte	0x23d
 1188 02aa 18       		.byte	0x18
 1189 02ab 0B       		.uleb128 0xb
 1190 02ac 72313100 		.ascii	"r11\000"
 1191 02b0 07       		.byte	0x7
 1192 02b1 1801     		.2byte	0x118
 1193 02b3 3D020000 		.4byte	0x23d
 1194 02b7 1C       		.byte	0x1c
 1195 02b8 0B       		.uleb128 0xb
 1196 02b9 6C7200   		.ascii	"lr\000"
 1197 02bc 07       		.byte	0x7
 1198 02bd 1901     		.2byte	0x119
 1199 02bf 3D020000 		.4byte	0x23d
 1200 02c3 20       		.byte	0x20
 1201 02c4 00       		.byte	0
 1202 02c5 0C       		.uleb128 0xc
 1203 02c6 DA010000 		.4byte	.LASF44
 1204 02ca 04       		.byte	0x4
 1205 02cb 07       		.byte	0x7
 1206 02cc 2301     		.2byte	0x123
 1207 02ce E0020000 		.4byte	0x2e0
 1208 02d2 0B       		.uleb128 0xb
 1209 02d3 72313300 		.ascii	"r13\000"
 1210 02d7 07       		.byte	0x7
 1211 02d8 2401     		.2byte	0x124
 1212 02da E0020000 		.4byte	0x2e0
 1213 02de 00       		.byte	0
 1214 02df 00       		.byte	0
 1215 02e0 09       		.uleb128 0x9
 1216 02e1 04       		.byte	0x4
 1217 02e2 4A020000 		.4byte	0x24a
 1218 02e6 03       		.uleb128 0x3
 1219 02e7 04       		.byte	0x4
 1220 02e8 07       		.byte	0x7
 1221 02e9 51020000 		.4byte	.LASF45
 1222 02ed 0D       		.uleb128 0xd
 1223 02ee D9000000 		.4byte	0xd9
 1224 02f2 08       		.uleb128 0x8
 1225 02f3 20       		.byte	0x20
 1226 02f4 08       		.byte	0x8
 1227 02f5 5E       		.byte	0x5e
 1228 02f6 4F030000 		.4byte	0x34f
 1229 02fa 06       		.uleb128 0x6
 1230 02fb 50030000 		.4byte	.LASF46
 1231 02ff 08       		.byte	0x8
 1232 0300 5F       		.byte	0x5f
 1233 0301 12020000 		.4byte	0x212
 1234 0305 00       		.byte	0
 1235 0306 06       		.uleb128 0x6
 1236 0307 0A030000 		.4byte	.LASF47
 1237 030b 08       		.byte	0x8
 1238 030c 60       		.byte	0x60
 1239 030d B8000000 		.4byte	0xb8
 1240 0311 08       		.byte	0x8
 1241 0312 06       		.uleb128 0x6
 1242 0313 6C020000 		.4byte	.LASF48
ARM GAS  /tmp/ccfrkxW6.s 			page 23


 1243 0317 08       		.byte	0x8
 1244 0318 62       		.byte	0x62
 1245 0319 C5020000 		.4byte	0x2c5
 1246 031d 0C       		.byte	0xc
 1247 031e 06       		.uleb128 0x6
 1248 031f 6A010000 		.4byte	.LASF49
 1249 0323 08       		.byte	0x8
 1250 0324 65       		.byte	0x65
 1251 0325 0C020000 		.4byte	0x20c
 1252 0329 10       		.byte	0x10
 1253 032a 06       		.uleb128 0x6
 1254 032b B9020000 		.4byte	.LASF50
 1255 032f 08       		.byte	0x8
 1256 0330 66       		.byte	0x66
 1257 0331 0C020000 		.4byte	0x20c
 1258 0335 14       		.byte	0x14
 1259 0336 06       		.uleb128 0x6
 1260 0337 EE030000 		.4byte	.LASF51
 1261 033b 08       		.byte	0x8
 1262 033c 6A       		.byte	0x6a
 1263 033d E4000000 		.4byte	0xe4
 1264 0341 18       		.byte	0x18
 1265 0342 06       		.uleb128 0x6
 1266 0343 AF020000 		.4byte	.LASF52
 1267 0347 08       		.byte	0x8
 1268 0348 6C       		.byte	0x6c
 1269 0349 0C020000 		.4byte	0x20c
 1270 034d 1C       		.byte	0x1c
 1271 034e 00       		.byte	0
 1272 034f 04       		.uleb128 0x4
 1273 0350 C8030000 		.4byte	.LASF53
 1274 0354 08       		.byte	0x8
 1275 0355 6E       		.byte	0x6e
 1276 0356 F2020000 		.4byte	0x2f2
 1277 035a 05       		.uleb128 0x5
 1278 035b 4B020000 		.4byte	.LASF54
 1279 035f 10       		.byte	0x10
 1280 0360 09       		.byte	0x9
 1281 0361 2C       		.byte	0x2c
 1282 0362 8B030000 		.4byte	0x38b
 1283 0366 06       		.uleb128 0x6
 1284 0367 1E010000 		.4byte	.LASF55
 1285 036b 09       		.byte	0x9
 1286 036c 2D       		.byte	0x2d
 1287 036d 12020000 		.4byte	0x212
 1288 0371 00       		.byte	0
 1289 0372 06       		.uleb128 0x6
 1290 0373 F8030000 		.4byte	.LASF56
 1291 0377 09       		.byte	0x9
 1292 0378 2F       		.byte	0x2f
 1293 0379 0C020000 		.4byte	0x20c
 1294 037d 08       		.byte	0x8
 1295 037e 06       		.uleb128 0x6
 1296 037f 75030000 		.4byte	.LASF57
 1297 0383 09       		.byte	0x9
 1298 0384 31       		.byte	0x31
 1299 0385 8B030000 		.4byte	0x38b
ARM GAS  /tmp/ccfrkxW6.s 			page 24


 1300 0389 0C       		.byte	0xc
 1301 038a 00       		.byte	0
 1302 038b 09       		.uleb128 0x9
 1303 038c 04       		.byte	0x4
 1304 038d 5A030000 		.4byte	0x35a
 1305 0391 04       		.uleb128 0x4
 1306 0392 4B020000 		.4byte	.LASF54
 1307 0396 09       		.byte	0x9
 1308 0397 33       		.byte	0x33
 1309 0398 5A030000 		.4byte	0x35a
 1310 039c 0E       		.uleb128 0xe
 1311 039d 04       		.byte	0x4
 1312 039e 06       		.byte	0x6
 1313 039f 90       		.byte	0x90
 1314 03a0 D1030000 		.4byte	0x3d1
 1315 03a4 0F       		.uleb128 0xf
 1316 03a5 13000000 		.4byte	.LASF58
 1317 03a9 06       		.byte	0x6
 1318 03aa 97       		.byte	0x97
 1319 03ab C3000000 		.4byte	0xc3
 1320 03af 0F       		.uleb128 0xf
 1321 03b0 D9000000 		.4byte	.LASF59
 1322 03b4 06       		.byte	0x6
 1323 03b5 9E       		.byte	0x9e
 1324 03b6 C3000000 		.4byte	0xc3
 1325 03ba 0F       		.uleb128 0xf
 1326 03bb E0030000 		.4byte	.LASF60
 1327 03bf 06       		.byte	0x6
 1328 03c0 A5       		.byte	0xa5
 1329 03c1 48020000 		.4byte	0x248
 1330 03c5 0F       		.uleb128 0xf
 1331 03c6 11030000 		.4byte	.LASF61
 1332 03ca 06       		.byte	0x6
 1333 03cb AC       		.byte	0xac
 1334 03cc CE000000 		.4byte	0xce
 1335 03d0 00       		.byte	0
 1336 03d1 09       		.uleb128 0x9
 1337 03d2 04       		.byte	0x4
 1338 03d3 D7030000 		.4byte	0x3d7
 1339 03d7 10       		.uleb128 0x10
 1340 03d8 DC030000 		.4byte	0x3dc
 1341 03dc 03       		.uleb128 0x3
 1342 03dd 01       		.byte	0x1
 1343 03de 08       		.byte	0x8
 1344 03df 64030000 		.4byte	.LASF62
 1345 03e3 09       		.uleb128 0x9
 1346 03e4 04       		.byte	0x4
 1347 03e5 91030000 		.4byte	0x391
 1348 03e9 11       		.uleb128 0x11
 1349 03ea A7020000 		.4byte	.LASF63
 1350 03ee 02       		.byte	0x2
 1351 03ef 49       		.byte	0x49
 1352 03f0 0C020000 		.4byte	0x20c
 1353 03f4 03       		.byte	0x3
 1354 03f5 04040000 		.4byte	0x404
 1355 03f9 12       		.uleb128 0x12
 1356 03fa 747000   		.ascii	"tp\000"
ARM GAS  /tmp/ccfrkxW6.s 			page 25


 1357 03fd 02       		.byte	0x2
 1358 03fe 49       		.byte	0x49
 1359 03ff 0C020000 		.4byte	0x20c
 1360 0403 00       		.byte	0
 1361 0404 13       		.uleb128 0x13
 1362 0405 FB010000 		.4byte	.LASF80
 1363 0409 02       		.byte	0x2
 1364 040a 29       		.byte	0x29
 1365 040b 03       		.byte	0x3
 1366 040c 30040000 		.4byte	0x430
 1367 0410 12       		.uleb128 0x12
 1368 0411 747000   		.ascii	"tp\000"
 1369 0414 02       		.byte	0x2
 1370 0415 29       		.byte	0x29
 1371 0416 0C020000 		.4byte	0x20c
 1372 041a 12       		.uleb128 0x12
 1373 041b 74717000 		.ascii	"tqp\000"
 1374 041f 02       		.byte	0x2
 1375 0420 29       		.byte	0x29
 1376 0421 30040000 		.4byte	0x430
 1377 0425 14       		.uleb128 0x14
 1378 0426 637000   		.ascii	"cp\000"
 1379 0429 02       		.byte	0x2
 1380 042a 2B       		.byte	0x2b
 1381 042b 0C020000 		.4byte	0x20c
 1382 042f 00       		.byte	0
 1383 0430 09       		.uleb128 0x9
 1384 0431 04       		.byte	0x4
 1385 0432 12020000 		.4byte	0x212
 1386 0436 15       		.uleb128 0x15
 1387 0437 43010000 		.4byte	.LASF73
 1388 043b 01       		.byte	0x1
 1389 043c EA       		.byte	0xea
 1390 043d 8C000000 		.4byte	0x8c
 1391 0441 01       		.byte	0x1
 1392 0442 51040000 		.4byte	0x451
 1393 0446 12       		.uleb128 0x12
 1394 0447 6D7000   		.ascii	"mp\000"
 1395 044a 01       		.byte	0x1
 1396 044b EA       		.byte	0xea
 1397 044c E3030000 		.4byte	0x3e3
 1398 0450 00       		.byte	0
 1399 0451 11       		.uleb128 0x11
 1400 0452 69030000 		.4byte	.LASF64
 1401 0456 02       		.byte	0x2
 1402 0457 3B       		.byte	0x3b
 1403 0458 0C020000 		.4byte	0x20c
 1404 045c 03       		.byte	0x3
 1405 045d 77040000 		.4byte	0x477
 1406 0461 12       		.uleb128 0x12
 1407 0462 74717000 		.ascii	"tqp\000"
 1408 0466 02       		.byte	0x2
 1409 0467 3B       		.byte	0x3b
 1410 0468 30040000 		.4byte	0x430
 1411 046c 14       		.uleb128 0x14
 1412 046d 747000   		.ascii	"tp\000"
 1413 0470 02       		.byte	0x2
ARM GAS  /tmp/ccfrkxW6.s 			page 26


 1414 0471 3C       		.byte	0x3c
 1415 0472 0C020000 		.4byte	0x20c
 1416 0476 00       		.byte	0
 1417 0477 16       		.uleb128 0x16
 1418 0478 B7030000 		.4byte	.LASF65
 1419 047c 01       		.byte	0x1
 1420 047d 56       		.byte	0x56
 1421 047e 00000000 		.4byte	.LFB7
 1422 0482 0A000000 		.4byte	.LFE7-.LFB7
 1423 0486 01       		.uleb128 0x1
 1424 0487 9C       		.byte	0x9c
 1425 0488 99040000 		.4byte	0x499
 1426 048c 17       		.uleb128 0x17
 1427 048d 6D7000   		.ascii	"mp\000"
 1428 0490 01       		.byte	0x1
 1429 0491 56       		.byte	0x56
 1430 0492 E3030000 		.4byte	0x3e3
 1431 0496 01       		.uleb128 0x1
 1432 0497 50       		.byte	0x50
 1433 0498 00       		.byte	0
 1434 0499 16       		.uleb128 0x16
 1435 049a 38010000 		.4byte	.LASF66
 1436 049e 01       		.byte	0x1
 1437 049f 79       		.byte	0x79
 1438 04a0 00000000 		.4byte	.LFB9
 1439 04a4 C8000000 		.4byte	.LFE9-.LFB9
 1440 04a8 01       		.uleb128 0x1
 1441 04a9 9C       		.byte	0x9c
 1442 04aa FA050000 		.4byte	0x5fa
 1443 04ae 18       		.uleb128 0x18
 1444 04af 6D7000   		.ascii	"mp\000"
 1445 04b2 01       		.byte	0x1
 1446 04b3 79       		.byte	0x79
 1447 04b4 E3030000 		.4byte	0x3e3
 1448 04b8 00000000 		.4byte	.LLST0
 1449 04bc 19       		.uleb128 0x19
 1450 04bd 63747000 		.ascii	"ctp\000"
 1451 04c1 01       		.byte	0x1
 1452 04c2 7A       		.byte	0x7a
 1453 04c3 0C020000 		.4byte	0x20c
 1454 04c7 51000000 		.4byte	.LLST1
 1455 04cb 1A       		.uleb128 0x1a
 1456 04cc 00000000 		.4byte	.Ldebug_ranges0+0
 1457 04d0 19       		.uleb128 0x19
 1458 04d1 747000   		.ascii	"tp\000"
 1459 04d4 01       		.byte	0x1
 1460 04d5 84       		.byte	0x84
 1461 04d6 0C020000 		.4byte	0x20c
 1462 04da 7B000000 		.4byte	.LLST2
 1463 04de 1B       		.uleb128 0x1b
 1464 04df 04040000 		.4byte	0x404
 1465 04e3 2A000000 		.4byte	.LBB34
 1466 04e7 1C000000 		.4byte	.LBE34-.LBB34
 1467 04eb 01       		.byte	0x1
 1468 04ec AD       		.byte	0xad
 1469 04ed 17050000 		.4byte	0x517
 1470 04f1 1C       		.uleb128 0x1c
ARM GAS  /tmp/ccfrkxW6.s 			page 27


 1471 04f2 1A040000 		.4byte	0x41a
 1472 04f6 AF000000 		.4byte	.LLST3
 1473 04fa 1C       		.uleb128 0x1c
 1474 04fb 10040000 		.4byte	0x410
 1475 04ff DF000000 		.4byte	.LLST4
 1476 0503 1D       		.uleb128 0x1d
 1477 0504 2A000000 		.4byte	.LBB35
 1478 0508 1C000000 		.4byte	.LBE35-.LBB35
 1479 050c 1E       		.uleb128 0x1e
 1480 050d 25040000 		.4byte	0x425
 1481 0511 FE000000 		.4byte	.LLST5
 1482 0515 00       		.byte	0
 1483 0516 00       		.byte	0
 1484 0517 1F       		.uleb128 0x1f
 1485 0518 E9030000 		.4byte	0x3e9
 1486 051c 52000000 		.4byte	.LBB36
 1487 0520 18000000 		.4byte	.Ldebug_ranges0+0x18
 1488 0524 01       		.byte	0x1
 1489 0525 A7       		.byte	0xa7
 1490 0526 34050000 		.4byte	0x534
 1491 052a 1C       		.uleb128 0x1c
 1492 052b F9030000 		.4byte	0x3f9
 1493 052f 1C010000 		.4byte	.LLST6
 1494 0533 00       		.byte	0
 1495 0534 1F       		.uleb128 0x1f
 1496 0535 E9030000 		.4byte	0x3e9
 1497 0539 64000000 		.4byte	.LBB40
 1498 053d 30000000 		.4byte	.Ldebug_ranges0+0x30
 1499 0541 01       		.byte	0x1
 1500 0542 9E       		.byte	0x9e
 1501 0543 51050000 		.4byte	0x551
 1502 0547 1C       		.uleb128 0x1c
 1503 0548 F9030000 		.4byte	0x3f9
 1504 054c 3A010000 		.4byte	.LLST7
 1505 0550 00       		.byte	0
 1506 0551 1F       		.uleb128 0x1f
 1507 0552 04040000 		.4byte	0x404
 1508 0556 6E000000 		.4byte	.LBB45
 1509 055a 50000000 		.4byte	.Ldebug_ranges0+0x50
 1510 055e 01       		.byte	0x1
 1511 055f 9E       		.byte	0x9e
 1512 0560 86050000 		.4byte	0x586
 1513 0564 1C       		.uleb128 0x1c
 1514 0565 1A040000 		.4byte	0x41a
 1515 0569 4D010000 		.4byte	.LLST8
 1516 056d 1C       		.uleb128 0x1c
 1517 056e 10040000 		.4byte	0x410
 1518 0572 60010000 		.4byte	.LLST9
 1519 0576 1A       		.uleb128 0x1a
 1520 0577 50000000 		.4byte	.Ldebug_ranges0+0x50
 1521 057b 1E       		.uleb128 0x1e
 1522 057c 25040000 		.4byte	0x425
 1523 0580 73010000 		.4byte	.LLST10
 1524 0584 00       		.byte	0
 1525 0585 00       		.byte	0
 1526 0586 1F       		.uleb128 0x1f
 1527 0587 E9030000 		.4byte	0x3e9
ARM GAS  /tmp/ccfrkxW6.s 			page 28


 1528 058b 8C000000 		.4byte	.LBB50
 1529 058f 68000000 		.4byte	.Ldebug_ranges0+0x68
 1530 0593 01       		.byte	0x1
 1531 0594 8E       		.byte	0x8e
 1532 0595 A3050000 		.4byte	0x5a3
 1533 0599 1C       		.uleb128 0x1c
 1534 059a F9030000 		.4byte	0x3f9
 1535 059e 91010000 		.4byte	.LLST11
 1536 05a2 00       		.byte	0
 1537 05a3 1B       		.uleb128 0x1b
 1538 05a4 04040000 		.4byte	0x404
 1539 05a8 9C000000 		.4byte	.LBB56
 1540 05ac 16000000 		.4byte	.LBE56-.LBB56
 1541 05b0 01       		.byte	0x1
 1542 05b1 8E       		.byte	0x8e
 1543 05b2 DC050000 		.4byte	0x5dc
 1544 05b6 1C       		.uleb128 0x1c
 1545 05b7 1A040000 		.4byte	0x41a
 1546 05bb B0010000 		.4byte	.LLST12
 1547 05bf 1C       		.uleb128 0x1c
 1548 05c0 10040000 		.4byte	0x410
 1549 05c4 C3010000 		.4byte	.LLST13
 1550 05c8 1D       		.uleb128 0x1d
 1551 05c9 9C000000 		.4byte	.LBB57
 1552 05cd 16000000 		.4byte	.LBE57-.LBB57
 1553 05d1 1E       		.uleb128 0x1e
 1554 05d2 25040000 		.4byte	0x425
 1555 05d6 E2010000 		.4byte	.LLST14
 1556 05da 00       		.byte	0
 1557 05db 00       		.byte	0
 1558 05dc 20       		.uleb128 0x20
 1559 05dd 52000000 		.4byte	.LVL9
 1560 05e1 65090000 		.4byte	0x965
 1561 05e5 EF050000 		.4byte	0x5ef
 1562 05e9 21       		.uleb128 0x21
 1563 05ea 01       		.uleb128 0x1
 1564 05eb 50       		.byte	0x50
 1565 05ec 01       		.uleb128 0x1
 1566 05ed 34       		.byte	0x34
 1567 05ee 00       		.byte	0
 1568 05ef 22       		.uleb128 0x22
 1569 05f0 62000000 		.4byte	.LVL11
 1570 05f4 76090000 		.4byte	0x976
 1571 05f8 00       		.byte	0
 1572 05f9 00       		.byte	0
 1573 05fa 16       		.uleb128 0x16
 1574 05fb 5A020000 		.4byte	.LASF67
 1575 05ff 01       		.byte	0x1
 1576 0600 67       		.byte	0x67
 1577 0601 00000000 		.4byte	.LFB8
 1578 0605 14000000 		.4byte	.LFE8-.LFB8
 1579 0609 01       		.uleb128 0x1
 1580 060a 9C       		.byte	0x9c
 1581 060b 65060000 		.4byte	0x665
 1582 060f 18       		.uleb128 0x18
 1583 0610 6D7000   		.ascii	"mp\000"
 1584 0613 01       		.byte	0x1
ARM GAS  /tmp/ccfrkxW6.s 			page 29


 1585 0614 67       		.byte	0x67
 1586 0615 E3030000 		.4byte	0x3e3
 1587 0619 00020000 		.4byte	.LLST15
 1588 061d 23       		.uleb128 0x23
 1589 061e 02000000 		.4byte	.LBB59
 1590 0622 06000000 		.4byte	.LBE59-.LBB59
 1591 0626 38060000 		.4byte	0x638
 1592 062a 24       		.uleb128 0x24
 1593 062b 746D7000 		.ascii	"tmp\000"
 1594 062f 01       		.byte	0x1
 1595 0630 69       		.byte	0x69
 1596 0631 6C000000 		.4byte	0x6c
 1597 0635 01       		.uleb128 0x1
 1598 0636 53       		.byte	0x53
 1599 0637 00       		.byte	0
 1600 0638 23       		.uleb128 0x23
 1601 0639 0C000000 		.4byte	.LBB60
 1602 063d 08000000 		.4byte	.LBE60-.LBB60
 1603 0641 53060000 		.4byte	0x653
 1604 0645 24       		.uleb128 0x24
 1605 0646 746D7000 		.ascii	"tmp\000"
 1606 064a 01       		.byte	0x1
 1607 064b 6D       		.byte	0x6d
 1608 064c 6C000000 		.4byte	0x6c
 1609 0650 01       		.uleb128 0x1
 1610 0651 53       		.byte	0x53
 1611 0652 00       		.byte	0
 1612 0653 25       		.uleb128 0x25
 1613 0654 0C000000 		.4byte	.LVL24
 1614 0658 99040000 		.4byte	0x499
 1615 065c 21       		.uleb128 0x21
 1616 065d 01       		.uleb128 0x1
 1617 065e 50       		.byte	0x50
 1618 065f 03       		.uleb128 0x3
 1619 0660 F3       		.byte	0xf3
 1620 0661 01       		.uleb128 0x1
 1621 0662 50       		.byte	0x50
 1622 0663 00       		.byte	0
 1623 0664 00       		.byte	0
 1624 0665 26       		.uleb128 0x26
 1625 0666 3E020000 		.4byte	.LASF68
 1626 066a 01       		.byte	0x1
 1627 066b CE       		.byte	0xce
 1628 066c 8C000000 		.4byte	0x8c
 1629 0670 00000000 		.4byte	.LFB10
 1630 0674 32000000 		.4byte	.LFE10-.LFB10
 1631 0678 01       		.uleb128 0x1
 1632 0679 9C       		.byte	0x9c
 1633 067a E1060000 		.4byte	0x6e1
 1634 067e 18       		.uleb128 0x18
 1635 067f 6D7000   		.ascii	"mp\000"
 1636 0682 01       		.byte	0x1
 1637 0683 CE       		.byte	0xce
 1638 0684 E3030000 		.4byte	0x3e3
 1639 0688 21020000 		.4byte	.LLST16
 1640 068c 14       		.uleb128 0x14
 1641 068d 6200     		.ascii	"b\000"
ARM GAS  /tmp/ccfrkxW6.s 			page 30


 1642 068f 01       		.byte	0x1
 1643 0690 CF       		.byte	0xcf
 1644 0691 8C000000 		.4byte	0x8c
 1645 0695 23       		.uleb128 0x23
 1646 0696 02000000 		.4byte	.LBB61
 1647 069a 06000000 		.4byte	.LBE61-.LBB61
 1648 069e B0060000 		.4byte	0x6b0
 1649 06a2 24       		.uleb128 0x24
 1650 06a3 746D7000 		.ascii	"tmp\000"
 1651 06a7 01       		.byte	0x1
 1652 06a8 D1       		.byte	0xd1
 1653 06a9 6C000000 		.4byte	0x6c
 1654 06ad 01       		.uleb128 0x1
 1655 06ae 53       		.byte	0x53
 1656 06af 00       		.byte	0
 1657 06b0 1F       		.uleb128 0x1f
 1658 06b1 36040000 		.4byte	0x436
 1659 06b5 08000000 		.4byte	.LBB62
 1660 06b9 88000000 		.4byte	.Ldebug_ranges0+0x88
 1661 06bd 01       		.byte	0x1
 1662 06be D3       		.byte	0xd3
 1663 06bf CD060000 		.4byte	0x6cd
 1664 06c3 1C       		.uleb128 0x1c
 1665 06c4 46040000 		.4byte	0x446
 1666 06c8 3F020000 		.4byte	.LLST17
 1667 06cc 00       		.byte	0
 1668 06cd 1A       		.uleb128 0x1a
 1669 06ce A0000000 		.4byte	.Ldebug_ranges0+0xa0
 1670 06d2 24       		.uleb128 0x24
 1671 06d3 746D7000 		.ascii	"tmp\000"
 1672 06d7 01       		.byte	0x1
 1673 06d8 D5       		.byte	0xd5
 1674 06d9 6C000000 		.4byte	0x6c
 1675 06dd 01       		.uleb128 0x1
 1676 06de 53       		.byte	0x53
 1677 06df 00       		.byte	0
 1678 06e0 00       		.byte	0
 1679 06e1 27       		.uleb128 0x27
 1680 06e2 36040000 		.4byte	0x436
 1681 06e6 00000000 		.4byte	.LFB11
 1682 06ea 20000000 		.4byte	.LFE11-.LFB11
 1683 06ee 01       		.uleb128 0x1
 1684 06ef 9C       		.byte	0x9c
 1685 06f0 FE060000 		.4byte	0x6fe
 1686 06f4 1C       		.uleb128 0x1c
 1687 06f5 46040000 		.4byte	0x446
 1688 06f9 5D020000 		.4byte	.LLST18
 1689 06fd 00       		.byte	0
 1690 06fe 28       		.uleb128 0x28
 1691 06ff E2000000 		.4byte	.LASF69
 1692 0703 01       		.byte	0x1
 1693 0704 0101     		.2byte	0x101
 1694 0706 E3030000 		.4byte	0x3e3
 1695 070a 00000000 		.4byte	.LFB12
 1696 070e 66000000 		.4byte	.LFE12-.LFB12
 1697 0712 01       		.uleb128 0x1
 1698 0713 9C       		.byte	0x9c
ARM GAS  /tmp/ccfrkxW6.s 			page 31


 1699 0714 E1070000 		.4byte	0x7e1
 1700 0718 29       		.uleb128 0x29
 1701 0719 63747000 		.ascii	"ctp\000"
 1702 071d 01       		.byte	0x1
 1703 071e 0201     		.2byte	0x102
 1704 0720 0C020000 		.4byte	0x20c
 1705 0724 91020000 		.4byte	.LLST19
 1706 0728 2A       		.uleb128 0x2a
 1707 0729 756D7000 		.ascii	"ump\000"
 1708 072d 01       		.byte	0x1
 1709 072e 0301     		.2byte	0x103
 1710 0730 E3030000 		.4byte	0x3e3
 1711 0734 01       		.uleb128 0x1
 1712 0735 54       		.byte	0x54
 1713 0736 29       		.uleb128 0x29
 1714 0737 6D7000   		.ascii	"mp\000"
 1715 073a 01       		.byte	0x1
 1716 073b 0301     		.2byte	0x103
 1717 073d E3030000 		.4byte	0x3e3
 1718 0741 AF020000 		.4byte	.LLST20
 1719 0745 23       		.uleb128 0x23
 1720 0746 0C000000 		.4byte	.LBB68
 1721 074a 06000000 		.4byte	.LBE68-.LBB68
 1722 074e 61070000 		.4byte	0x761
 1723 0752 2A       		.uleb128 0x2a
 1724 0753 746D7000 		.ascii	"tmp\000"
 1725 0757 01       		.byte	0x1
 1726 0758 0501     		.2byte	0x105
 1727 075a 6C000000 		.4byte	0x6c
 1728 075e 01       		.uleb128 0x1
 1729 075f 53       		.byte	0x53
 1730 0760 00       		.byte	0
 1731 0761 23       		.uleb128 0x23
 1732 0762 1E000000 		.4byte	.LBB69
 1733 0766 30000000 		.4byte	.LBE69-.LBB69
 1734 076a CC070000 		.4byte	0x7cc
 1735 076e 2B       		.uleb128 0x2b
 1736 076f 747000   		.ascii	"tp\000"
 1737 0772 01       		.byte	0x1
 1738 0773 1201     		.2byte	0x112
 1739 0775 0C020000 		.4byte	0x20c
 1740 0779 2C       		.uleb128 0x2c
 1741 077a 16020000 		.4byte	.LASF70
 1742 077e 01       		.byte	0x1
 1743 077f 1601     		.2byte	0x116
 1744 0781 B8000000 		.4byte	0xb8
 1745 0785 C2020000 		.4byte	.LLST21
 1746 0789 2D       		.uleb128 0x2d
 1747 078a 51040000 		.4byte	0x451
 1748 078e 36000000 		.4byte	.LBB70
 1749 0792 B8000000 		.4byte	.Ldebug_ranges0+0xb8
 1750 0796 01       		.byte	0x1
 1751 0797 2501     		.2byte	0x125
 1752 0799 B6070000 		.4byte	0x7b6
 1753 079d 1C       		.uleb128 0x1c
 1754 079e 61040000 		.4byte	0x461
 1755 07a2 D5020000 		.4byte	.LLST22
ARM GAS  /tmp/ccfrkxW6.s 			page 32


 1756 07a6 1A       		.uleb128 0x1a
 1757 07a7 B8000000 		.4byte	.Ldebug_ranges0+0xb8
 1758 07ab 1E       		.uleb128 0x1e
 1759 07ac 6C040000 		.4byte	0x46c
 1760 07b0 E8020000 		.4byte	.LLST23
 1761 07b4 00       		.byte	0
 1762 07b5 00       		.byte	0
 1763 07b6 25       		.uleb128 0x25
 1764 07b7 4E000000 		.4byte	.LVL41
 1765 07bb 8B090000 		.4byte	0x98b
 1766 07bf 21       		.uleb128 0x21
 1767 07c0 01       		.uleb128 0x1
 1768 07c1 51       		.byte	0x51
 1769 07c2 01       		.uleb128 0x1
 1770 07c3 30       		.byte	0x30
 1771 07c4 21       		.uleb128 0x21
 1772 07c5 01       		.uleb128 0x1
 1773 07c6 50       		.byte	0x50
 1774 07c7 02       		.uleb128 0x2
 1775 07c8 75       		.byte	0x75
 1776 07c9 00       		.sleb128 0
 1777 07ca 00       		.byte	0
 1778 07cb 00       		.byte	0
 1779 07cc 1A       		.uleb128 0x1a
 1780 07cd D8000000 		.4byte	.Ldebug_ranges0+0xd8
 1781 07d1 2A       		.uleb128 0x2a
 1782 07d2 746D7000 		.ascii	"tmp\000"
 1783 07d6 01       		.byte	0x1
 1784 07d7 2D01     		.2byte	0x12d
 1785 07d9 6C000000 		.4byte	0x6c
 1786 07dd 01       		.uleb128 0x1
 1787 07de 53       		.byte	0x53
 1788 07df 00       		.byte	0
 1789 07e0 00       		.byte	0
 1790 07e1 28       		.uleb128 0x28
 1791 07e2 81010000 		.4byte	.LASF71
 1792 07e6 01       		.byte	0x1
 1793 07e7 3D01     		.2byte	0x13d
 1794 07e9 E3030000 		.4byte	0x3e3
 1795 07ed 00000000 		.4byte	.LFB13
 1796 07f1 52000000 		.4byte	.LFE13-.LFB13
 1797 07f5 01       		.uleb128 0x1
 1798 07f6 9C       		.byte	0x9c
 1799 07f7 8B080000 		.4byte	0x88b
 1800 07fb 29       		.uleb128 0x29
 1801 07fc 63747000 		.ascii	"ctp\000"
 1802 0800 01       		.byte	0x1
 1803 0801 3E01     		.2byte	0x13e
 1804 0803 0C020000 		.4byte	0x20c
 1805 0807 FB020000 		.4byte	.LLST24
 1806 080b 2A       		.uleb128 0x2a
 1807 080c 756D7000 		.ascii	"ump\000"
 1808 0810 01       		.byte	0x1
 1809 0811 3F01     		.2byte	0x13f
 1810 0813 E3030000 		.4byte	0x3e3
 1811 0817 01       		.uleb128 0x1
 1812 0818 54       		.byte	0x54
ARM GAS  /tmp/ccfrkxW6.s 			page 33


 1813 0819 29       		.uleb128 0x29
 1814 081a 6D7000   		.ascii	"mp\000"
 1815 081d 01       		.byte	0x1
 1816 081e 3F01     		.2byte	0x13f
 1817 0820 E3030000 		.4byte	0x3e3
 1818 0824 19030000 		.4byte	.LLST25
 1819 0828 1D       		.uleb128 0x1d
 1820 0829 18000000 		.4byte	.LBB78
 1821 082d 2E000000 		.4byte	.LBE78-.LBB78
 1822 0831 2B       		.uleb128 0x2b
 1823 0832 747000   		.ascii	"tp\000"
 1824 0835 01       		.byte	0x1
 1825 0836 4F01     		.2byte	0x14f
 1826 0838 0C020000 		.4byte	0x20c
 1827 083c 2C       		.uleb128 0x2c
 1828 083d 16020000 		.4byte	.LASF70
 1829 0841 01       		.byte	0x1
 1830 0842 5301     		.2byte	0x153
 1831 0844 B8000000 		.4byte	0xb8
 1832 0848 2C030000 		.4byte	.LLST26
 1833 084c 2D       		.uleb128 0x2d
 1834 084d 51040000 		.4byte	0x451
 1835 0851 32000000 		.4byte	.LBB79
 1836 0855 F0000000 		.4byte	.Ldebug_ranges0+0xf0
 1837 0859 01       		.byte	0x1
 1838 085a 6001     		.2byte	0x160
 1839 085c 79080000 		.4byte	0x879
 1840 0860 1C       		.uleb128 0x1c
 1841 0861 61040000 		.4byte	0x461
 1842 0865 3F030000 		.4byte	.LLST27
 1843 0869 1A       		.uleb128 0x1a
 1844 086a F0000000 		.4byte	.Ldebug_ranges0+0xf0
 1845 086e 1E       		.uleb128 0x1e
 1846 086f 6C040000 		.4byte	0x46c
 1847 0873 52030000 		.4byte	.LLST28
 1848 0877 00       		.byte	0
 1849 0878 00       		.byte	0
 1850 0879 25       		.uleb128 0x25
 1851 087a 46000000 		.4byte	.LVL52
 1852 087e 76090000 		.4byte	0x976
 1853 0882 21       		.uleb128 0x21
 1854 0883 01       		.uleb128 0x1
 1855 0884 50       		.byte	0x50
 1856 0885 02       		.uleb128 0x2
 1857 0886 75       		.byte	0x75
 1858 0887 00       		.sleb128 0
 1859 0888 00       		.byte	0
 1860 0889 00       		.byte	0
 1861 088a 00       		.byte	0
 1862 088b 2E       		.uleb128 0x2e
 1863 088c 07020000 		.4byte	.LASF72
 1864 0890 01       		.byte	0x1
 1865 0891 7601     		.2byte	0x176
 1866 0893 00000000 		.4byte	.LFB14
 1867 0897 50000000 		.4byte	.LFE14-.LFB14
 1868 089b 01       		.uleb128 0x1
 1869 089c 9C       		.byte	0x9c
ARM GAS  /tmp/ccfrkxW6.s 			page 34


 1870 089d 5A090000 		.4byte	0x95a
 1871 08a1 2A       		.uleb128 0x2a
 1872 08a2 63747000 		.ascii	"ctp\000"
 1873 08a6 01       		.byte	0x1
 1874 08a7 7701     		.2byte	0x177
 1875 08a9 0C020000 		.4byte	0x20c
 1876 08ad 01       		.uleb128 0x1
 1877 08ae 54       		.byte	0x54
 1878 08af 23       		.uleb128 0x23
 1879 08b0 0C000000 		.4byte	.LBB85
 1880 08b4 06000000 		.4byte	.LBE85-.LBB85
 1881 08b8 CB080000 		.4byte	0x8cb
 1882 08bc 2A       		.uleb128 0x2a
 1883 08bd 746D7000 		.ascii	"tmp\000"
 1884 08c1 01       		.byte	0x1
 1885 08c2 7901     		.2byte	0x179
 1886 08c4 6C000000 		.4byte	0x6c
 1887 08c8 01       		.uleb128 0x1
 1888 08c9 53       		.byte	0x53
 1889 08ca 00       		.byte	0
 1890 08cb 23       		.uleb128 0x23
 1891 08cc 16000000 		.4byte	.LBB86
 1892 08d0 24000000 		.4byte	.LBE86-.LBB86
 1893 08d4 34090000 		.4byte	0x934
 1894 08d8 29       		.uleb128 0x29
 1895 08d9 756D7000 		.ascii	"ump\000"
 1896 08dd 01       		.byte	0x1
 1897 08de 7C01     		.2byte	0x17c
 1898 08e0 E3030000 		.4byte	0x3e3
 1899 08e4 65030000 		.4byte	.LLST29
 1900 08e8 1D       		.uleb128 0x1d
 1901 08e9 26000000 		.4byte	.LBB87
 1902 08ed 14000000 		.4byte	.LBE87-.LBB87
 1903 08f1 2B       		.uleb128 0x2b
 1904 08f2 747000   		.ascii	"tp\000"
 1905 08f5 01       		.byte	0x1
 1906 08f6 7F01     		.2byte	0x17f
 1907 08f8 0C020000 		.4byte	0x20c
 1908 08fc 2D       		.uleb128 0x2d
 1909 08fd 51040000 		.4byte	0x451
 1910 0901 28000000 		.4byte	.LBB88
 1911 0905 10010000 		.4byte	.Ldebug_ranges0+0x110
 1912 0909 01       		.byte	0x1
 1913 090a 7F01     		.2byte	0x17f
 1914 090c 29090000 		.4byte	0x929
 1915 0910 1C       		.uleb128 0x1c
 1916 0911 61040000 		.4byte	0x461
 1917 0915 65030000 		.4byte	.LLST29
 1918 0919 1A       		.uleb128 0x1a
 1919 091a 10010000 		.4byte	.Ldebug_ranges0+0x110
 1920 091e 1E       		.uleb128 0x1e
 1921 091f 6C040000 		.4byte	0x46c
 1922 0923 78030000 		.4byte	.LLST31
 1923 0927 00       		.byte	0
 1924 0928 00       		.byte	0
 1925 0929 22       		.uleb128 0x22
 1926 092a 3A000000 		.4byte	.LVL58
ARM GAS  /tmp/ccfrkxW6.s 			page 35


 1927 092e 76090000 		.4byte	0x976
 1928 0932 00       		.byte	0
 1929 0933 00       		.byte	0
 1930 0934 23       		.uleb128 0x23
 1931 0935 48000000 		.4byte	.LBB92
 1932 0939 08000000 		.4byte	.LBE92-.LBB92
 1933 093d 50090000 		.4byte	0x950
 1934 0941 2A       		.uleb128 0x2a
 1935 0942 746D7000 		.ascii	"tmp\000"
 1936 0946 01       		.byte	0x1
 1937 0947 8B01     		.2byte	0x18b
 1938 0949 6C000000 		.4byte	0x6c
 1939 094d 01       		.uleb128 0x1
 1940 094e 53       		.byte	0x53
 1941 094f 00       		.byte	0
 1942 0950 22       		.uleb128 0x22
 1943 0951 48000000 		.4byte	.LVL59
 1944 0955 A1090000 		.4byte	0x9a1
 1945 0959 00       		.byte	0
 1946 095a 2F       		.uleb128 0x2f
 1947 095b D2030000 		.4byte	.LASF81
 1948 095f 08       		.byte	0x8
 1949 0960 72       		.byte	0x72
 1950 0961 4F030000 		.4byte	0x34f
 1951 0965 30       		.uleb128 0x30
 1952 0966 2E030000 		.4byte	.LASF75
 1953 096a 08       		.byte	0x8
 1954 096b 96       		.byte	0x96
 1955 096c 76090000 		.4byte	0x976
 1956 0970 31       		.uleb128 0x31
 1957 0971 A2000000 		.4byte	0xa2
 1958 0975 00       		.byte	0
 1959 0976 32       		.uleb128 0x32
 1960 0977 58030000 		.4byte	.LASF74
 1961 097b 08       		.byte	0x8
 1962 097c 93       		.byte	0x93
 1963 097d 0C020000 		.4byte	0x20c
 1964 0981 8B090000 		.4byte	0x98b
 1965 0985 31       		.uleb128 0x31
 1966 0986 0C020000 		.4byte	0x20c
 1967 098a 00       		.byte	0
 1968 098b 30       		.uleb128 0x30
 1969 098c AA030000 		.4byte	.LASF76
 1970 0990 08       		.byte	0x8
 1971 0991 9C       		.byte	0x9c
 1972 0992 A1090000 		.4byte	0x9a1
 1973 0996 31       		.uleb128 0x31
 1974 0997 0C020000 		.4byte	0x20c
 1975 099b 31       		.uleb128 0x31
 1976 099c C3000000 		.4byte	0xc3
 1977 09a0 00       		.byte	0
 1978 09a1 33       		.uleb128 0x33
 1979 09a2 59010000 		.4byte	.LASF82
 1980 09a6 08       		.byte	0x8
 1981 09a7 9F       		.byte	0x9f
 1982 09a8 00       		.byte	0
 1983              		.section	.debug_abbrev,"",%progbits
ARM GAS  /tmp/ccfrkxW6.s 			page 36


 1984              	.Ldebug_abbrev0:
 1985 0000 01       		.uleb128 0x1
 1986 0001 11       		.uleb128 0x11
 1987 0002 01       		.byte	0x1
 1988 0003 25       		.uleb128 0x25
 1989 0004 0E       		.uleb128 0xe
 1990 0005 13       		.uleb128 0x13
 1991 0006 0B       		.uleb128 0xb
 1992 0007 03       		.uleb128 0x3
 1993 0008 0E       		.uleb128 0xe
 1994 0009 1B       		.uleb128 0x1b
 1995 000a 0E       		.uleb128 0xe
 1996 000b 55       		.uleb128 0x55
 1997 000c 17       		.uleb128 0x17
 1998 000d 11       		.uleb128 0x11
 1999 000e 01       		.uleb128 0x1
 2000 000f 10       		.uleb128 0x10
 2001 0010 17       		.uleb128 0x17
 2002 0011 00       		.byte	0
 2003 0012 00       		.byte	0
 2004 0013 02       		.uleb128 0x2
 2005 0014 24       		.uleb128 0x24
 2006 0015 00       		.byte	0
 2007 0016 0B       		.uleb128 0xb
 2008 0017 0B       		.uleb128 0xb
 2009 0018 3E       		.uleb128 0x3e
 2010 0019 0B       		.uleb128 0xb
 2011 001a 03       		.uleb128 0x3
 2012 001b 08       		.uleb128 0x8
 2013 001c 00       		.byte	0
 2014 001d 00       		.byte	0
 2015 001e 03       		.uleb128 0x3
 2016 001f 24       		.uleb128 0x24
 2017 0020 00       		.byte	0
 2018 0021 0B       		.uleb128 0xb
 2019 0022 0B       		.uleb128 0xb
 2020 0023 3E       		.uleb128 0x3e
 2021 0024 0B       		.uleb128 0xb
 2022 0025 03       		.uleb128 0x3
 2023 0026 0E       		.uleb128 0xe
 2024 0027 00       		.byte	0
 2025 0028 00       		.byte	0
 2026 0029 04       		.uleb128 0x4
 2027 002a 16       		.uleb128 0x16
 2028 002b 00       		.byte	0
 2029 002c 03       		.uleb128 0x3
 2030 002d 0E       		.uleb128 0xe
 2031 002e 3A       		.uleb128 0x3a
 2032 002f 0B       		.uleb128 0xb
 2033 0030 3B       		.uleb128 0x3b
 2034 0031 0B       		.uleb128 0xb
 2035 0032 49       		.uleb128 0x49
 2036 0033 13       		.uleb128 0x13
 2037 0034 00       		.byte	0
 2038 0035 00       		.byte	0
 2039 0036 05       		.uleb128 0x5
 2040 0037 13       		.uleb128 0x13
ARM GAS  /tmp/ccfrkxW6.s 			page 37


 2041 0038 01       		.byte	0x1
 2042 0039 03       		.uleb128 0x3
 2043 003a 0E       		.uleb128 0xe
 2044 003b 0B       		.uleb128 0xb
 2045 003c 0B       		.uleb128 0xb
 2046 003d 3A       		.uleb128 0x3a
 2047 003e 0B       		.uleb128 0xb
 2048 003f 3B       		.uleb128 0x3b
 2049 0040 0B       		.uleb128 0xb
 2050 0041 01       		.uleb128 0x1
 2051 0042 13       		.uleb128 0x13
 2052 0043 00       		.byte	0
 2053 0044 00       		.byte	0
 2054 0045 06       		.uleb128 0x6
 2055 0046 0D       		.uleb128 0xd
 2056 0047 00       		.byte	0
 2057 0048 03       		.uleb128 0x3
 2058 0049 0E       		.uleb128 0xe
 2059 004a 3A       		.uleb128 0x3a
 2060 004b 0B       		.uleb128 0xb
 2061 004c 3B       		.uleb128 0x3b
 2062 004d 0B       		.uleb128 0xb
 2063 004e 49       		.uleb128 0x49
 2064 004f 13       		.uleb128 0x13
 2065 0050 38       		.uleb128 0x38
 2066 0051 0B       		.uleb128 0xb
 2067 0052 00       		.byte	0
 2068 0053 00       		.byte	0
 2069 0054 07       		.uleb128 0x7
 2070 0055 0D       		.uleb128 0xd
 2071 0056 00       		.byte	0
 2072 0057 03       		.uleb128 0x3
 2073 0058 08       		.uleb128 0x8
 2074 0059 3A       		.uleb128 0x3a
 2075 005a 0B       		.uleb128 0xb
 2076 005b 3B       		.uleb128 0x3b
 2077 005c 0B       		.uleb128 0xb
 2078 005d 49       		.uleb128 0x49
 2079 005e 13       		.uleb128 0x13
 2080 005f 38       		.uleb128 0x38
 2081 0060 0B       		.uleb128 0xb
 2082 0061 00       		.byte	0
 2083 0062 00       		.byte	0
 2084 0063 08       		.uleb128 0x8
 2085 0064 13       		.uleb128 0x13
 2086 0065 01       		.byte	0x1
 2087 0066 0B       		.uleb128 0xb
 2088 0067 0B       		.uleb128 0xb
 2089 0068 3A       		.uleb128 0x3a
 2090 0069 0B       		.uleb128 0xb
 2091 006a 3B       		.uleb128 0x3b
 2092 006b 0B       		.uleb128 0xb
 2093 006c 01       		.uleb128 0x1
 2094 006d 13       		.uleb128 0x13
 2095 006e 00       		.byte	0
 2096 006f 00       		.byte	0
 2097 0070 09       		.uleb128 0x9
ARM GAS  /tmp/ccfrkxW6.s 			page 38


 2098 0071 0F       		.uleb128 0xf
 2099 0072 00       		.byte	0
 2100 0073 0B       		.uleb128 0xb
 2101 0074 0B       		.uleb128 0xb
 2102 0075 49       		.uleb128 0x49
 2103 0076 13       		.uleb128 0x13
 2104 0077 00       		.byte	0
 2105 0078 00       		.byte	0
 2106 0079 0A       		.uleb128 0xa
 2107 007a 0F       		.uleb128 0xf
 2108 007b 00       		.byte	0
 2109 007c 0B       		.uleb128 0xb
 2110 007d 0B       		.uleb128 0xb
 2111 007e 00       		.byte	0
 2112 007f 00       		.byte	0
 2113 0080 0B       		.uleb128 0xb
 2114 0081 0D       		.uleb128 0xd
 2115 0082 00       		.byte	0
 2116 0083 03       		.uleb128 0x3
 2117 0084 08       		.uleb128 0x8
 2118 0085 3A       		.uleb128 0x3a
 2119 0086 0B       		.uleb128 0xb
 2120 0087 3B       		.uleb128 0x3b
 2121 0088 05       		.uleb128 0x5
 2122 0089 49       		.uleb128 0x49
 2123 008a 13       		.uleb128 0x13
 2124 008b 38       		.uleb128 0x38
 2125 008c 0B       		.uleb128 0xb
 2126 008d 00       		.byte	0
 2127 008e 00       		.byte	0
 2128 008f 0C       		.uleb128 0xc
 2129 0090 13       		.uleb128 0x13
 2130 0091 01       		.byte	0x1
 2131 0092 03       		.uleb128 0x3
 2132 0093 0E       		.uleb128 0xe
 2133 0094 0B       		.uleb128 0xb
 2134 0095 0B       		.uleb128 0xb
 2135 0096 3A       		.uleb128 0x3a
 2136 0097 0B       		.uleb128 0xb
 2137 0098 3B       		.uleb128 0x3b
 2138 0099 05       		.uleb128 0x5
 2139 009a 01       		.uleb128 0x1
 2140 009b 13       		.uleb128 0x13
 2141 009c 00       		.byte	0
 2142 009d 00       		.byte	0
 2143 009e 0D       		.uleb128 0xd
 2144 009f 35       		.uleb128 0x35
 2145 00a0 00       		.byte	0
 2146 00a1 49       		.uleb128 0x49
 2147 00a2 13       		.uleb128 0x13
 2148 00a3 00       		.byte	0
 2149 00a4 00       		.byte	0
 2150 00a5 0E       		.uleb128 0xe
 2151 00a6 17       		.uleb128 0x17
 2152 00a7 01       		.byte	0x1
 2153 00a8 0B       		.uleb128 0xb
 2154 00a9 0B       		.uleb128 0xb
ARM GAS  /tmp/ccfrkxW6.s 			page 39


 2155 00aa 3A       		.uleb128 0x3a
 2156 00ab 0B       		.uleb128 0xb
 2157 00ac 3B       		.uleb128 0x3b
 2158 00ad 0B       		.uleb128 0xb
 2159 00ae 01       		.uleb128 0x1
 2160 00af 13       		.uleb128 0x13
 2161 00b0 00       		.byte	0
 2162 00b1 00       		.byte	0
 2163 00b2 0F       		.uleb128 0xf
 2164 00b3 0D       		.uleb128 0xd
 2165 00b4 00       		.byte	0
 2166 00b5 03       		.uleb128 0x3
 2167 00b6 0E       		.uleb128 0xe
 2168 00b7 3A       		.uleb128 0x3a
 2169 00b8 0B       		.uleb128 0xb
 2170 00b9 3B       		.uleb128 0x3b
 2171 00ba 0B       		.uleb128 0xb
 2172 00bb 49       		.uleb128 0x49
 2173 00bc 13       		.uleb128 0x13
 2174 00bd 00       		.byte	0
 2175 00be 00       		.byte	0
 2176 00bf 10       		.uleb128 0x10
 2177 00c0 26       		.uleb128 0x26
 2178 00c1 00       		.byte	0
 2179 00c2 49       		.uleb128 0x49
 2180 00c3 13       		.uleb128 0x13
 2181 00c4 00       		.byte	0
 2182 00c5 00       		.byte	0
 2183 00c6 11       		.uleb128 0x11
 2184 00c7 2E       		.uleb128 0x2e
 2185 00c8 01       		.byte	0x1
 2186 00c9 03       		.uleb128 0x3
 2187 00ca 0E       		.uleb128 0xe
 2188 00cb 3A       		.uleb128 0x3a
 2189 00cc 0B       		.uleb128 0xb
 2190 00cd 3B       		.uleb128 0x3b
 2191 00ce 0B       		.uleb128 0xb
 2192 00cf 27       		.uleb128 0x27
 2193 00d0 19       		.uleb128 0x19
 2194 00d1 49       		.uleb128 0x49
 2195 00d2 13       		.uleb128 0x13
 2196 00d3 20       		.uleb128 0x20
 2197 00d4 0B       		.uleb128 0xb
 2198 00d5 01       		.uleb128 0x1
 2199 00d6 13       		.uleb128 0x13
 2200 00d7 00       		.byte	0
 2201 00d8 00       		.byte	0
 2202 00d9 12       		.uleb128 0x12
 2203 00da 05       		.uleb128 0x5
 2204 00db 00       		.byte	0
 2205 00dc 03       		.uleb128 0x3
 2206 00dd 08       		.uleb128 0x8
 2207 00de 3A       		.uleb128 0x3a
 2208 00df 0B       		.uleb128 0xb
 2209 00e0 3B       		.uleb128 0x3b
 2210 00e1 0B       		.uleb128 0xb
 2211 00e2 49       		.uleb128 0x49
ARM GAS  /tmp/ccfrkxW6.s 			page 40


 2212 00e3 13       		.uleb128 0x13
 2213 00e4 00       		.byte	0
 2214 00e5 00       		.byte	0
 2215 00e6 13       		.uleb128 0x13
 2216 00e7 2E       		.uleb128 0x2e
 2217 00e8 01       		.byte	0x1
 2218 00e9 03       		.uleb128 0x3
 2219 00ea 0E       		.uleb128 0xe
 2220 00eb 3A       		.uleb128 0x3a
 2221 00ec 0B       		.uleb128 0xb
 2222 00ed 3B       		.uleb128 0x3b
 2223 00ee 0B       		.uleb128 0xb
 2224 00ef 27       		.uleb128 0x27
 2225 00f0 19       		.uleb128 0x19
 2226 00f1 20       		.uleb128 0x20
 2227 00f2 0B       		.uleb128 0xb
 2228 00f3 01       		.uleb128 0x1
 2229 00f4 13       		.uleb128 0x13
 2230 00f5 00       		.byte	0
 2231 00f6 00       		.byte	0
 2232 00f7 14       		.uleb128 0x14
 2233 00f8 34       		.uleb128 0x34
 2234 00f9 00       		.byte	0
 2235 00fa 03       		.uleb128 0x3
 2236 00fb 08       		.uleb128 0x8
 2237 00fc 3A       		.uleb128 0x3a
 2238 00fd 0B       		.uleb128 0xb
 2239 00fe 3B       		.uleb128 0x3b
 2240 00ff 0B       		.uleb128 0xb
 2241 0100 49       		.uleb128 0x49
 2242 0101 13       		.uleb128 0x13
 2243 0102 00       		.byte	0
 2244 0103 00       		.byte	0
 2245 0104 15       		.uleb128 0x15
 2246 0105 2E       		.uleb128 0x2e
 2247 0106 01       		.byte	0x1
 2248 0107 3F       		.uleb128 0x3f
 2249 0108 19       		.uleb128 0x19
 2250 0109 03       		.uleb128 0x3
 2251 010a 0E       		.uleb128 0xe
 2252 010b 3A       		.uleb128 0x3a
 2253 010c 0B       		.uleb128 0xb
 2254 010d 3B       		.uleb128 0x3b
 2255 010e 0B       		.uleb128 0xb
 2256 010f 27       		.uleb128 0x27
 2257 0110 19       		.uleb128 0x19
 2258 0111 49       		.uleb128 0x49
 2259 0112 13       		.uleb128 0x13
 2260 0113 20       		.uleb128 0x20
 2261 0114 0B       		.uleb128 0xb
 2262 0115 01       		.uleb128 0x1
 2263 0116 13       		.uleb128 0x13
 2264 0117 00       		.byte	0
 2265 0118 00       		.byte	0
 2266 0119 16       		.uleb128 0x16
 2267 011a 2E       		.uleb128 0x2e
 2268 011b 01       		.byte	0x1
ARM GAS  /tmp/ccfrkxW6.s 			page 41


 2269 011c 3F       		.uleb128 0x3f
 2270 011d 19       		.uleb128 0x19
 2271 011e 03       		.uleb128 0x3
 2272 011f 0E       		.uleb128 0xe
 2273 0120 3A       		.uleb128 0x3a
 2274 0121 0B       		.uleb128 0xb
 2275 0122 3B       		.uleb128 0x3b
 2276 0123 0B       		.uleb128 0xb
 2277 0124 27       		.uleb128 0x27
 2278 0125 19       		.uleb128 0x19
 2279 0126 11       		.uleb128 0x11
 2280 0127 01       		.uleb128 0x1
 2281 0128 12       		.uleb128 0x12
 2282 0129 06       		.uleb128 0x6
 2283 012a 40       		.uleb128 0x40
 2284 012b 18       		.uleb128 0x18
 2285 012c 9742     		.uleb128 0x2117
 2286 012e 19       		.uleb128 0x19
 2287 012f 01       		.uleb128 0x1
 2288 0130 13       		.uleb128 0x13
 2289 0131 00       		.byte	0
 2290 0132 00       		.byte	0
 2291 0133 17       		.uleb128 0x17
 2292 0134 05       		.uleb128 0x5
 2293 0135 00       		.byte	0
 2294 0136 03       		.uleb128 0x3
 2295 0137 08       		.uleb128 0x8
 2296 0138 3A       		.uleb128 0x3a
 2297 0139 0B       		.uleb128 0xb
 2298 013a 3B       		.uleb128 0x3b
 2299 013b 0B       		.uleb128 0xb
 2300 013c 49       		.uleb128 0x49
 2301 013d 13       		.uleb128 0x13
 2302 013e 02       		.uleb128 0x2
 2303 013f 18       		.uleb128 0x18
 2304 0140 00       		.byte	0
 2305 0141 00       		.byte	0
 2306 0142 18       		.uleb128 0x18
 2307 0143 05       		.uleb128 0x5
 2308 0144 00       		.byte	0
 2309 0145 03       		.uleb128 0x3
 2310 0146 08       		.uleb128 0x8
 2311 0147 3A       		.uleb128 0x3a
 2312 0148 0B       		.uleb128 0xb
 2313 0149 3B       		.uleb128 0x3b
 2314 014a 0B       		.uleb128 0xb
 2315 014b 49       		.uleb128 0x49
 2316 014c 13       		.uleb128 0x13
 2317 014d 02       		.uleb128 0x2
 2318 014e 17       		.uleb128 0x17
 2319 014f 00       		.byte	0
 2320 0150 00       		.byte	0
 2321 0151 19       		.uleb128 0x19
 2322 0152 34       		.uleb128 0x34
 2323 0153 00       		.byte	0
 2324 0154 03       		.uleb128 0x3
 2325 0155 08       		.uleb128 0x8
ARM GAS  /tmp/ccfrkxW6.s 			page 42


 2326 0156 3A       		.uleb128 0x3a
 2327 0157 0B       		.uleb128 0xb
 2328 0158 3B       		.uleb128 0x3b
 2329 0159 0B       		.uleb128 0xb
 2330 015a 49       		.uleb128 0x49
 2331 015b 13       		.uleb128 0x13
 2332 015c 02       		.uleb128 0x2
 2333 015d 17       		.uleb128 0x17
 2334 015e 00       		.byte	0
 2335 015f 00       		.byte	0
 2336 0160 1A       		.uleb128 0x1a
 2337 0161 0B       		.uleb128 0xb
 2338 0162 01       		.byte	0x1
 2339 0163 55       		.uleb128 0x55
 2340 0164 17       		.uleb128 0x17
 2341 0165 00       		.byte	0
 2342 0166 00       		.byte	0
 2343 0167 1B       		.uleb128 0x1b
 2344 0168 1D       		.uleb128 0x1d
 2345 0169 01       		.byte	0x1
 2346 016a 31       		.uleb128 0x31
 2347 016b 13       		.uleb128 0x13
 2348 016c 11       		.uleb128 0x11
 2349 016d 01       		.uleb128 0x1
 2350 016e 12       		.uleb128 0x12
 2351 016f 06       		.uleb128 0x6
 2352 0170 58       		.uleb128 0x58
 2353 0171 0B       		.uleb128 0xb
 2354 0172 59       		.uleb128 0x59
 2355 0173 0B       		.uleb128 0xb
 2356 0174 01       		.uleb128 0x1
 2357 0175 13       		.uleb128 0x13
 2358 0176 00       		.byte	0
 2359 0177 00       		.byte	0
 2360 0178 1C       		.uleb128 0x1c
 2361 0179 05       		.uleb128 0x5
 2362 017a 00       		.byte	0
 2363 017b 31       		.uleb128 0x31
 2364 017c 13       		.uleb128 0x13
 2365 017d 02       		.uleb128 0x2
 2366 017e 17       		.uleb128 0x17
 2367 017f 00       		.byte	0
 2368 0180 00       		.byte	0
 2369 0181 1D       		.uleb128 0x1d
 2370 0182 0B       		.uleb128 0xb
 2371 0183 01       		.byte	0x1
 2372 0184 11       		.uleb128 0x11
 2373 0185 01       		.uleb128 0x1
 2374 0186 12       		.uleb128 0x12
 2375 0187 06       		.uleb128 0x6
 2376 0188 00       		.byte	0
 2377 0189 00       		.byte	0
 2378 018a 1E       		.uleb128 0x1e
 2379 018b 34       		.uleb128 0x34
 2380 018c 00       		.byte	0
 2381 018d 31       		.uleb128 0x31
 2382 018e 13       		.uleb128 0x13
ARM GAS  /tmp/ccfrkxW6.s 			page 43


 2383 018f 02       		.uleb128 0x2
 2384 0190 17       		.uleb128 0x17
 2385 0191 00       		.byte	0
 2386 0192 00       		.byte	0
 2387 0193 1F       		.uleb128 0x1f
 2388 0194 1D       		.uleb128 0x1d
 2389 0195 01       		.byte	0x1
 2390 0196 31       		.uleb128 0x31
 2391 0197 13       		.uleb128 0x13
 2392 0198 52       		.uleb128 0x52
 2393 0199 01       		.uleb128 0x1
 2394 019a 55       		.uleb128 0x55
 2395 019b 17       		.uleb128 0x17
 2396 019c 58       		.uleb128 0x58
 2397 019d 0B       		.uleb128 0xb
 2398 019e 59       		.uleb128 0x59
 2399 019f 0B       		.uleb128 0xb
 2400 01a0 01       		.uleb128 0x1
 2401 01a1 13       		.uleb128 0x13
 2402 01a2 00       		.byte	0
 2403 01a3 00       		.byte	0
 2404 01a4 20       		.uleb128 0x20
 2405 01a5 898201   		.uleb128 0x4109
 2406 01a8 01       		.byte	0x1
 2407 01a9 11       		.uleb128 0x11
 2408 01aa 01       		.uleb128 0x1
 2409 01ab 9542     		.uleb128 0x2115
 2410 01ad 19       		.uleb128 0x19
 2411 01ae 31       		.uleb128 0x31
 2412 01af 13       		.uleb128 0x13
 2413 01b0 01       		.uleb128 0x1
 2414 01b1 13       		.uleb128 0x13
 2415 01b2 00       		.byte	0
 2416 01b3 00       		.byte	0
 2417 01b4 21       		.uleb128 0x21
 2418 01b5 8A8201   		.uleb128 0x410a
 2419 01b8 00       		.byte	0
 2420 01b9 02       		.uleb128 0x2
 2421 01ba 18       		.uleb128 0x18
 2422 01bb 9142     		.uleb128 0x2111
 2423 01bd 18       		.uleb128 0x18
 2424 01be 00       		.byte	0
 2425 01bf 00       		.byte	0
 2426 01c0 22       		.uleb128 0x22
 2427 01c1 898201   		.uleb128 0x4109
 2428 01c4 00       		.byte	0
 2429 01c5 11       		.uleb128 0x11
 2430 01c6 01       		.uleb128 0x1
 2431 01c7 31       		.uleb128 0x31
 2432 01c8 13       		.uleb128 0x13
 2433 01c9 00       		.byte	0
 2434 01ca 00       		.byte	0
 2435 01cb 23       		.uleb128 0x23
 2436 01cc 0B       		.uleb128 0xb
 2437 01cd 01       		.byte	0x1
 2438 01ce 11       		.uleb128 0x11
 2439 01cf 01       		.uleb128 0x1
ARM GAS  /tmp/ccfrkxW6.s 			page 44


 2440 01d0 12       		.uleb128 0x12
 2441 01d1 06       		.uleb128 0x6
 2442 01d2 01       		.uleb128 0x1
 2443 01d3 13       		.uleb128 0x13
 2444 01d4 00       		.byte	0
 2445 01d5 00       		.byte	0
 2446 01d6 24       		.uleb128 0x24
 2447 01d7 34       		.uleb128 0x34
 2448 01d8 00       		.byte	0
 2449 01d9 03       		.uleb128 0x3
 2450 01da 08       		.uleb128 0x8
 2451 01db 3A       		.uleb128 0x3a
 2452 01dc 0B       		.uleb128 0xb
 2453 01dd 3B       		.uleb128 0x3b
 2454 01de 0B       		.uleb128 0xb
 2455 01df 49       		.uleb128 0x49
 2456 01e0 13       		.uleb128 0x13
 2457 01e1 02       		.uleb128 0x2
 2458 01e2 18       		.uleb128 0x18
 2459 01e3 00       		.byte	0
 2460 01e4 00       		.byte	0
 2461 01e5 25       		.uleb128 0x25
 2462 01e6 898201   		.uleb128 0x4109
 2463 01e9 01       		.byte	0x1
 2464 01ea 11       		.uleb128 0x11
 2465 01eb 01       		.uleb128 0x1
 2466 01ec 31       		.uleb128 0x31
 2467 01ed 13       		.uleb128 0x13
 2468 01ee 00       		.byte	0
 2469 01ef 00       		.byte	0
 2470 01f0 26       		.uleb128 0x26
 2471 01f1 2E       		.uleb128 0x2e
 2472 01f2 01       		.byte	0x1
 2473 01f3 3F       		.uleb128 0x3f
 2474 01f4 19       		.uleb128 0x19
 2475 01f5 03       		.uleb128 0x3
 2476 01f6 0E       		.uleb128 0xe
 2477 01f7 3A       		.uleb128 0x3a
 2478 01f8 0B       		.uleb128 0xb
 2479 01f9 3B       		.uleb128 0x3b
 2480 01fa 0B       		.uleb128 0xb
 2481 01fb 27       		.uleb128 0x27
 2482 01fc 19       		.uleb128 0x19
 2483 01fd 49       		.uleb128 0x49
 2484 01fe 13       		.uleb128 0x13
 2485 01ff 11       		.uleb128 0x11
 2486 0200 01       		.uleb128 0x1
 2487 0201 12       		.uleb128 0x12
 2488 0202 06       		.uleb128 0x6
 2489 0203 40       		.uleb128 0x40
 2490 0204 18       		.uleb128 0x18
 2491 0205 9742     		.uleb128 0x2117
 2492 0207 19       		.uleb128 0x19
 2493 0208 01       		.uleb128 0x1
 2494 0209 13       		.uleb128 0x13
 2495 020a 00       		.byte	0
 2496 020b 00       		.byte	0
ARM GAS  /tmp/ccfrkxW6.s 			page 45


 2497 020c 27       		.uleb128 0x27
 2498 020d 2E       		.uleb128 0x2e
 2499 020e 01       		.byte	0x1
 2500 020f 31       		.uleb128 0x31
 2501 0210 13       		.uleb128 0x13
 2502 0211 11       		.uleb128 0x11
 2503 0212 01       		.uleb128 0x1
 2504 0213 12       		.uleb128 0x12
 2505 0214 06       		.uleb128 0x6
 2506 0215 40       		.uleb128 0x40
 2507 0216 18       		.uleb128 0x18
 2508 0217 9742     		.uleb128 0x2117
 2509 0219 19       		.uleb128 0x19
 2510 021a 01       		.uleb128 0x1
 2511 021b 13       		.uleb128 0x13
 2512 021c 00       		.byte	0
 2513 021d 00       		.byte	0
 2514 021e 28       		.uleb128 0x28
 2515 021f 2E       		.uleb128 0x2e
 2516 0220 01       		.byte	0x1
 2517 0221 3F       		.uleb128 0x3f
 2518 0222 19       		.uleb128 0x19
 2519 0223 03       		.uleb128 0x3
 2520 0224 0E       		.uleb128 0xe
 2521 0225 3A       		.uleb128 0x3a
 2522 0226 0B       		.uleb128 0xb
 2523 0227 3B       		.uleb128 0x3b
 2524 0228 05       		.uleb128 0x5
 2525 0229 27       		.uleb128 0x27
 2526 022a 19       		.uleb128 0x19
 2527 022b 49       		.uleb128 0x49
 2528 022c 13       		.uleb128 0x13
 2529 022d 11       		.uleb128 0x11
 2530 022e 01       		.uleb128 0x1
 2531 022f 12       		.uleb128 0x12
 2532 0230 06       		.uleb128 0x6
 2533 0231 40       		.uleb128 0x40
 2534 0232 18       		.uleb128 0x18
 2535 0233 9742     		.uleb128 0x2117
 2536 0235 19       		.uleb128 0x19
 2537 0236 01       		.uleb128 0x1
 2538 0237 13       		.uleb128 0x13
 2539 0238 00       		.byte	0
 2540 0239 00       		.byte	0
 2541 023a 29       		.uleb128 0x29
 2542 023b 34       		.uleb128 0x34
 2543 023c 00       		.byte	0
 2544 023d 03       		.uleb128 0x3
 2545 023e 08       		.uleb128 0x8
 2546 023f 3A       		.uleb128 0x3a
 2547 0240 0B       		.uleb128 0xb
 2548 0241 3B       		.uleb128 0x3b
 2549 0242 05       		.uleb128 0x5
 2550 0243 49       		.uleb128 0x49
 2551 0244 13       		.uleb128 0x13
 2552 0245 02       		.uleb128 0x2
 2553 0246 17       		.uleb128 0x17
ARM GAS  /tmp/ccfrkxW6.s 			page 46


 2554 0247 00       		.byte	0
 2555 0248 00       		.byte	0
 2556 0249 2A       		.uleb128 0x2a
 2557 024a 34       		.uleb128 0x34
 2558 024b 00       		.byte	0
 2559 024c 03       		.uleb128 0x3
 2560 024d 08       		.uleb128 0x8
 2561 024e 3A       		.uleb128 0x3a
 2562 024f 0B       		.uleb128 0xb
 2563 0250 3B       		.uleb128 0x3b
 2564 0251 05       		.uleb128 0x5
 2565 0252 49       		.uleb128 0x49
 2566 0253 13       		.uleb128 0x13
 2567 0254 02       		.uleb128 0x2
 2568 0255 18       		.uleb128 0x18
 2569 0256 00       		.byte	0
 2570 0257 00       		.byte	0
 2571 0258 2B       		.uleb128 0x2b
 2572 0259 34       		.uleb128 0x34
 2573 025a 00       		.byte	0
 2574 025b 03       		.uleb128 0x3
 2575 025c 08       		.uleb128 0x8
 2576 025d 3A       		.uleb128 0x3a
 2577 025e 0B       		.uleb128 0xb
 2578 025f 3B       		.uleb128 0x3b
 2579 0260 05       		.uleb128 0x5
 2580 0261 49       		.uleb128 0x49
 2581 0262 13       		.uleb128 0x13
 2582 0263 00       		.byte	0
 2583 0264 00       		.byte	0
 2584 0265 2C       		.uleb128 0x2c
 2585 0266 34       		.uleb128 0x34
 2586 0267 00       		.byte	0
 2587 0268 03       		.uleb128 0x3
 2588 0269 0E       		.uleb128 0xe
 2589 026a 3A       		.uleb128 0x3a
 2590 026b 0B       		.uleb128 0xb
 2591 026c 3B       		.uleb128 0x3b
 2592 026d 05       		.uleb128 0x5
 2593 026e 49       		.uleb128 0x49
 2594 026f 13       		.uleb128 0x13
 2595 0270 02       		.uleb128 0x2
 2596 0271 17       		.uleb128 0x17
 2597 0272 00       		.byte	0
 2598 0273 00       		.byte	0
 2599 0274 2D       		.uleb128 0x2d
 2600 0275 1D       		.uleb128 0x1d
 2601 0276 01       		.byte	0x1
 2602 0277 31       		.uleb128 0x31
 2603 0278 13       		.uleb128 0x13
 2604 0279 52       		.uleb128 0x52
 2605 027a 01       		.uleb128 0x1
 2606 027b 55       		.uleb128 0x55
 2607 027c 17       		.uleb128 0x17
 2608 027d 58       		.uleb128 0x58
 2609 027e 0B       		.uleb128 0xb
 2610 027f 59       		.uleb128 0x59
ARM GAS  /tmp/ccfrkxW6.s 			page 47


 2611 0280 05       		.uleb128 0x5
 2612 0281 01       		.uleb128 0x1
 2613 0282 13       		.uleb128 0x13
 2614 0283 00       		.byte	0
 2615 0284 00       		.byte	0
 2616 0285 2E       		.uleb128 0x2e
 2617 0286 2E       		.uleb128 0x2e
 2618 0287 01       		.byte	0x1
 2619 0288 3F       		.uleb128 0x3f
 2620 0289 19       		.uleb128 0x19
 2621 028a 03       		.uleb128 0x3
 2622 028b 0E       		.uleb128 0xe
 2623 028c 3A       		.uleb128 0x3a
 2624 028d 0B       		.uleb128 0xb
 2625 028e 3B       		.uleb128 0x3b
 2626 028f 05       		.uleb128 0x5
 2627 0290 27       		.uleb128 0x27
 2628 0291 19       		.uleb128 0x19
 2629 0292 11       		.uleb128 0x11
 2630 0293 01       		.uleb128 0x1
 2631 0294 12       		.uleb128 0x12
 2632 0295 06       		.uleb128 0x6
 2633 0296 40       		.uleb128 0x40
 2634 0297 18       		.uleb128 0x18
 2635 0298 9742     		.uleb128 0x2117
 2636 029a 19       		.uleb128 0x19
 2637 029b 01       		.uleb128 0x1
 2638 029c 13       		.uleb128 0x13
 2639 029d 00       		.byte	0
 2640 029e 00       		.byte	0
 2641 029f 2F       		.uleb128 0x2f
 2642 02a0 34       		.uleb128 0x34
 2643 02a1 00       		.byte	0
 2644 02a2 03       		.uleb128 0x3
 2645 02a3 0E       		.uleb128 0xe
 2646 02a4 3A       		.uleb128 0x3a
 2647 02a5 0B       		.uleb128 0xb
 2648 02a6 3B       		.uleb128 0x3b
 2649 02a7 0B       		.uleb128 0xb
 2650 02a8 49       		.uleb128 0x49
 2651 02a9 13       		.uleb128 0x13
 2652 02aa 3F       		.uleb128 0x3f
 2653 02ab 19       		.uleb128 0x19
 2654 02ac 3C       		.uleb128 0x3c
 2655 02ad 19       		.uleb128 0x19
 2656 02ae 00       		.byte	0
 2657 02af 00       		.byte	0
 2658 02b0 30       		.uleb128 0x30
 2659 02b1 2E       		.uleb128 0x2e
 2660 02b2 01       		.byte	0x1
 2661 02b3 3F       		.uleb128 0x3f
 2662 02b4 19       		.uleb128 0x19
 2663 02b5 03       		.uleb128 0x3
 2664 02b6 0E       		.uleb128 0xe
 2665 02b7 3A       		.uleb128 0x3a
 2666 02b8 0B       		.uleb128 0xb
 2667 02b9 3B       		.uleb128 0x3b
ARM GAS  /tmp/ccfrkxW6.s 			page 48


 2668 02ba 0B       		.uleb128 0xb
 2669 02bb 27       		.uleb128 0x27
 2670 02bc 19       		.uleb128 0x19
 2671 02bd 3C       		.uleb128 0x3c
 2672 02be 19       		.uleb128 0x19
 2673 02bf 01       		.uleb128 0x1
 2674 02c0 13       		.uleb128 0x13
 2675 02c1 00       		.byte	0
 2676 02c2 00       		.byte	0
 2677 02c3 31       		.uleb128 0x31
 2678 02c4 05       		.uleb128 0x5
 2679 02c5 00       		.byte	0
 2680 02c6 49       		.uleb128 0x49
 2681 02c7 13       		.uleb128 0x13
 2682 02c8 00       		.byte	0
 2683 02c9 00       		.byte	0
 2684 02ca 32       		.uleb128 0x32
 2685 02cb 2E       		.uleb128 0x2e
 2686 02cc 01       		.byte	0x1
 2687 02cd 3F       		.uleb128 0x3f
 2688 02ce 19       		.uleb128 0x19
 2689 02cf 03       		.uleb128 0x3
 2690 02d0 0E       		.uleb128 0xe
 2691 02d1 3A       		.uleb128 0x3a
 2692 02d2 0B       		.uleb128 0xb
 2693 02d3 3B       		.uleb128 0x3b
 2694 02d4 0B       		.uleb128 0xb
 2695 02d5 27       		.uleb128 0x27
 2696 02d6 19       		.uleb128 0x19
 2697 02d7 49       		.uleb128 0x49
 2698 02d8 13       		.uleb128 0x13
 2699 02d9 3C       		.uleb128 0x3c
 2700 02da 19       		.uleb128 0x19
 2701 02db 01       		.uleb128 0x1
 2702 02dc 13       		.uleb128 0x13
 2703 02dd 00       		.byte	0
 2704 02de 00       		.byte	0
 2705 02df 33       		.uleb128 0x33
 2706 02e0 2E       		.uleb128 0x2e
 2707 02e1 00       		.byte	0
 2708 02e2 3F       		.uleb128 0x3f
 2709 02e3 19       		.uleb128 0x19
 2710 02e4 03       		.uleb128 0x3
 2711 02e5 0E       		.uleb128 0xe
 2712 02e6 3A       		.uleb128 0x3a
 2713 02e7 0B       		.uleb128 0xb
 2714 02e8 3B       		.uleb128 0x3b
 2715 02e9 0B       		.uleb128 0xb
 2716 02ea 27       		.uleb128 0x27
 2717 02eb 19       		.uleb128 0x19
 2718 02ec 3C       		.uleb128 0x3c
 2719 02ed 19       		.uleb128 0x19
 2720 02ee 00       		.byte	0
 2721 02ef 00       		.byte	0
 2722 02f0 00       		.byte	0
 2723              		.section	.debug_loc,"",%progbits
 2724              	.Ldebug_loc0:
ARM GAS  /tmp/ccfrkxW6.s 			page 49


 2725              	.LLST0:
 2726 0000 00000000 		.4byte	.LVL1
 2727 0004 1C000000 		.4byte	.LVL4
 2728 0008 0100     		.2byte	0x1
 2729 000a 50       		.byte	0x50
 2730 000b 1C000000 		.4byte	.LVL4
 2731 000f 4E000000 		.4byte	.LVL8
 2732 0013 0100     		.2byte	0x1
 2733 0015 55       		.byte	0x55
 2734 0016 4E000000 		.4byte	.LVL8
 2735 001a 51000000 		.4byte	.LVL9-1
 2736 001e 0500     		.2byte	0x5
 2737 0020 72       		.byte	0x72
 2738 0021 00       		.sleb128 0
 2739 0022 06       		.byte	0x6
 2740 0023 23       		.byte	0x23
 2741 0024 24       		.uleb128 0x24
 2742 0025 51000000 		.4byte	.LVL9-1
 2743 0029 52000000 		.4byte	.LVL9
 2744 002d 0400     		.2byte	0x4
 2745 002f F3       		.byte	0xf3
 2746 0030 01       		.uleb128 0x1
 2747 0031 50       		.byte	0x50
 2748 0032 9F       		.byte	0x9f
 2749 0033 52000000 		.4byte	.LVL9
 2750 0037 BE000000 		.4byte	.LVL22
 2751 003b 0100     		.2byte	0x1
 2752 003d 55       		.byte	0x55
 2753 003e BE000000 		.4byte	.LVL22
 2754 0042 C8000000 		.4byte	.LFE9
 2755 0046 0100     		.2byte	0x1
 2756 0048 50       		.byte	0x50
 2757 0049 00000000 		.4byte	0
 2758 004d 00000000 		.4byte	0
 2759              	.LLST1:
 2760 0051 10000000 		.4byte	.LVL2
 2761 0055 4E000000 		.4byte	.LVL8
 2762 0059 0100     		.2byte	0x1
 2763 005b 54       		.byte	0x54
 2764 005c 4E000000 		.4byte	.LVL8
 2765 0060 51000000 		.4byte	.LVL9-1
 2766 0064 0200     		.2byte	0x2
 2767 0066 72       		.byte	0x72
 2768 0067 00       		.sleb128 0
 2769 0068 52000000 		.4byte	.LVL9
 2770 006c C8000000 		.4byte	.LFE9
 2771 0070 0100     		.2byte	0x1
 2772 0072 54       		.byte	0x54
 2773 0073 00000000 		.4byte	0
 2774 0077 00000000 		.4byte	0
 2775              	.LLST2:
 2776 007b 14000000 		.4byte	.LVL3
 2777 007f 2A000000 		.4byte	.LVL5
 2778 0083 0100     		.2byte	0x1
 2779 0085 52       		.byte	0x52
 2780 0086 52000000 		.4byte	.LVL9
 2781 008a 5C000000 		.4byte	.LVL10
ARM GAS  /tmp/ccfrkxW6.s 			page 50


 2782 008e 0100     		.2byte	0x1
 2783 0090 52       		.byte	0x52
 2784 0091 5C000000 		.4byte	.LVL10
 2785 0095 61000000 		.4byte	.LVL11-1
 2786 0099 0100     		.2byte	0x1
 2787 009b 50       		.byte	0x50
 2788 009c 64000000 		.4byte	.LVL12
 2789 00a0 BE000000 		.4byte	.LVL22
 2790 00a4 0100     		.2byte	0x1
 2791 00a6 52       		.byte	0x52
 2792 00a7 00000000 		.4byte	0
 2793 00ab 00000000 		.4byte	0
 2794              	.LLST3:
 2795 00af 2A000000 		.4byte	.LVL5
 2796 00b3 4E000000 		.4byte	.LVL8
 2797 00b7 0100     		.2byte	0x1
 2798 00b9 55       		.byte	0x55
 2799 00ba 4E000000 		.4byte	.LVL8
 2800 00be 51000000 		.4byte	.LVL9-1
 2801 00c2 0500     		.2byte	0x5
 2802 00c4 72       		.byte	0x72
 2803 00c5 00       		.sleb128 0
 2804 00c6 06       		.byte	0x6
 2805 00c7 23       		.byte	0x23
 2806 00c8 24       		.uleb128 0x24
 2807 00c9 51000000 		.4byte	.LVL9-1
 2808 00cd 52000000 		.4byte	.LVL9
 2809 00d1 0400     		.2byte	0x4
 2810 00d3 F3       		.byte	0xf3
 2811 00d4 01       		.uleb128 0x1
 2812 00d5 50       		.byte	0x50
 2813 00d6 9F       		.byte	0x9f
 2814 00d7 00000000 		.4byte	0
 2815 00db 00000000 		.4byte	0
 2816              	.LLST4:
 2817 00df 2A000000 		.4byte	.LVL5
 2818 00e3 4E000000 		.4byte	.LVL8
 2819 00e7 0100     		.2byte	0x1
 2820 00e9 54       		.byte	0x54
 2821 00ea 4E000000 		.4byte	.LVL8
 2822 00ee 51000000 		.4byte	.LVL9-1
 2823 00f2 0200     		.2byte	0x2
 2824 00f4 72       		.byte	0x72
 2825 00f5 00       		.sleb128 0
 2826 00f6 00000000 		.4byte	0
 2827 00fa 00000000 		.4byte	0
 2828              	.LLST5:
 2829 00fe 2A000000 		.4byte	.LVL5
 2830 0102 2E000000 		.4byte	.LVL6
 2831 0106 0100     		.2byte	0x1
 2832 0108 55       		.byte	0x55
 2833 0109 2E000000 		.4byte	.LVL6
 2834 010d 4E000000 		.4byte	.LVL8
 2835 0111 0100     		.2byte	0x1
 2836 0113 53       		.byte	0x53
 2837 0114 00000000 		.4byte	0
 2838 0118 00000000 		.4byte	0
ARM GAS  /tmp/ccfrkxW6.s 			page 51


 2839              	.LLST6:
 2840 011c 52000000 		.4byte	.LVL9
 2841 0120 5C000000 		.4byte	.LVL10
 2842 0124 0100     		.2byte	0x1
 2843 0126 52       		.byte	0x52
 2844 0127 5C000000 		.4byte	.LVL10
 2845 012b 61000000 		.4byte	.LVL11-1
 2846 012f 0100     		.2byte	0x1
 2847 0131 50       		.byte	0x50
 2848 0132 00000000 		.4byte	0
 2849 0136 00000000 		.4byte	0
 2850              	.LLST7:
 2851 013a 64000000 		.4byte	.LVL12
 2852 013e 8C000000 		.4byte	.LVL16
 2853 0142 0100     		.2byte	0x1
 2854 0144 52       		.byte	0x52
 2855 0145 00000000 		.4byte	0
 2856 0149 00000000 		.4byte	0
 2857              	.LLST8:
 2858 014d 6A000000 		.4byte	.LVL13
 2859 0151 8C000000 		.4byte	.LVL16
 2860 0155 0100     		.2byte	0x1
 2861 0157 56       		.byte	0x56
 2862 0158 00000000 		.4byte	0
 2863 015c 00000000 		.4byte	0
 2864              	.LLST9:
 2865 0160 6A000000 		.4byte	.LVL13
 2866 0164 8C000000 		.4byte	.LVL16
 2867 0168 0100     		.2byte	0x1
 2868 016a 52       		.byte	0x52
 2869 016b 00000000 		.4byte	0
 2870 016f 00000000 		.4byte	0
 2871              	.LLST10:
 2872 0173 6A000000 		.4byte	.LVL13
 2873 0177 74000000 		.4byte	.LVL14
 2874 017b 0100     		.2byte	0x1
 2875 017d 56       		.byte	0x56
 2876 017e 74000000 		.4byte	.LVL14
 2877 0182 8C000000 		.4byte	.LVL16
 2878 0186 0100     		.2byte	0x1
 2879 0188 53       		.byte	0x53
 2880 0189 00000000 		.4byte	0
 2881 018d 00000000 		.4byte	0
 2882              	.LLST11:
 2883 0191 8C000000 		.4byte	.LVL16
 2884 0195 B4000000 		.4byte	.LVL20
 2885 0199 0100     		.2byte	0x1
 2886 019b 52       		.byte	0x52
 2887 019c B4000000 		.4byte	.LVL20
 2888 01a0 B8000000 		.4byte	.LVL21
 2889 01a4 0200     		.2byte	0x2
 2890 01a6 73       		.byte	0x73
 2891 01a7 04       		.sleb128 4
 2892 01a8 00000000 		.4byte	0
 2893 01ac 00000000 		.4byte	0
 2894              	.LLST12:
 2895 01b0 92000000 		.4byte	.LVL17
ARM GAS  /tmp/ccfrkxW6.s 			page 52


 2896 01b4 BE000000 		.4byte	.LVL22
 2897 01b8 0100     		.2byte	0x1
 2898 01ba 56       		.byte	0x56
 2899 01bb 00000000 		.4byte	0
 2900 01bf 00000000 		.4byte	0
 2901              	.LLST13:
 2902 01c3 92000000 		.4byte	.LVL17
 2903 01c7 B4000000 		.4byte	.LVL20
 2904 01cb 0100     		.2byte	0x1
 2905 01cd 52       		.byte	0x52
 2906 01ce B4000000 		.4byte	.LVL20
 2907 01d2 B8000000 		.4byte	.LVL21
 2908 01d6 0200     		.2byte	0x2
 2909 01d8 73       		.byte	0x73
 2910 01d9 04       		.sleb128 4
 2911 01da 00000000 		.4byte	0
 2912 01de 00000000 		.4byte	0
 2913              	.LLST14:
 2914 01e2 92000000 		.4byte	.LVL17
 2915 01e6 9C000000 		.4byte	.LVL18
 2916 01ea 0100     		.2byte	0x1
 2917 01ec 56       		.byte	0x56
 2918 01ed 9C000000 		.4byte	.LVL18
 2919 01f1 B8000000 		.4byte	.LVL21
 2920 01f5 0100     		.2byte	0x1
 2921 01f7 53       		.byte	0x53
 2922 01f8 00000000 		.4byte	0
 2923 01fc 00000000 		.4byte	0
 2924              	.LLST15:
 2925 0200 00000000 		.4byte	.LVL23
 2926 0204 0B000000 		.4byte	.LVL24-1
 2927 0208 0100     		.2byte	0x1
 2928 020a 50       		.byte	0x50
 2929 020b 0B000000 		.4byte	.LVL24-1
 2930 020f 14000000 		.4byte	.LFE8
 2931 0213 0400     		.2byte	0x4
 2932 0215 F3       		.byte	0xf3
 2933 0216 01       		.uleb128 0x1
 2934 0217 50       		.byte	0x50
 2935 0218 9F       		.byte	0x9f
 2936 0219 00000000 		.4byte	0
 2937 021d 00000000 		.4byte	0
 2938              	.LLST16:
 2939 0221 00000000 		.4byte	.LVL25
 2940 0225 0C000000 		.4byte	.LVL27
 2941 0229 0100     		.2byte	0x1
 2942 022b 50       		.byte	0x50
 2943 022c 0C000000 		.4byte	.LVL27
 2944 0230 32000000 		.4byte	.LFE10
 2945 0234 0100     		.2byte	0x1
 2946 0236 52       		.byte	0x52
 2947 0237 00000000 		.4byte	0
 2948 023b 00000000 		.4byte	0
 2949              	.LLST17:
 2950 023f 08000000 		.4byte	.LVL26
 2951 0243 0C000000 		.4byte	.LVL27
 2952 0247 0100     		.2byte	0x1
ARM GAS  /tmp/ccfrkxW6.s 			page 53


 2953 0249 50       		.byte	0x50
 2954 024a 0C000000 		.4byte	.LVL27
 2955 024e 32000000 		.4byte	.LFE10
 2956 0252 0100     		.2byte	0x1
 2957 0254 52       		.byte	0x52
 2958 0255 00000000 		.4byte	0
 2959 0259 00000000 		.4byte	0
 2960              	.LLST18:
 2961 025d 00000000 		.4byte	.LVL28
 2962 0261 08000000 		.4byte	.LVL29
 2963 0265 0100     		.2byte	0x1
 2964 0267 50       		.byte	0x50
 2965 0268 08000000 		.4byte	.LVL29
 2966 026c 0A000000 		.4byte	.LVL30
 2967 0270 0100     		.2byte	0x1
 2968 0272 53       		.byte	0x53
 2969 0273 0A000000 		.4byte	.LVL30
 2970 0277 16000000 		.4byte	.LVL31
 2971 027b 0100     		.2byte	0x1
 2972 027d 50       		.byte	0x50
 2973 027e 16000000 		.4byte	.LVL31
 2974 0282 20000000 		.4byte	.LFE11
 2975 0286 0100     		.2byte	0x1
 2976 0288 53       		.byte	0x53
 2977 0289 00000000 		.4byte	0
 2978 028d 00000000 		.4byte	0
 2979              	.LLST19:
 2980 0291 0C000000 		.4byte	.LVL32
 2981 0295 40000000 		.4byte	.LVL39
 2982 0299 0100     		.2byte	0x1
 2983 029b 50       		.byte	0x50
 2984 029c 58000000 		.4byte	.LVL42
 2985 02a0 64000000 		.4byte	.LVL43
 2986 02a4 0100     		.2byte	0x1
 2987 02a6 50       		.byte	0x50
 2988 02a7 00000000 		.4byte	0
 2989 02ab 00000000 		.4byte	0
 2990              	.LLST20:
 2991 02af 20000000 		.4byte	.LVL34
 2992 02b3 38000000 		.4byte	.LVL37
 2993 02b7 0100     		.2byte	0x1
 2994 02b9 53       		.byte	0x53
 2995 02ba 00000000 		.4byte	0
 2996 02be 00000000 		.4byte	0
 2997              	.LLST21:
 2998 02c2 20000000 		.4byte	.LVL34
 2999 02c6 44000000 		.4byte	.LVL40
 3000 02ca 0100     		.2byte	0x1
 3001 02cc 51       		.byte	0x51
 3002 02cd 00000000 		.4byte	0
 3003 02d1 00000000 		.4byte	0
 3004              	.LLST22:
 3005 02d5 3C000000 		.4byte	.LVL38
 3006 02d9 58000000 		.4byte	.LVL42
 3007 02dd 0100     		.2byte	0x1
 3008 02df 54       		.byte	0x54
 3009 02e0 00000000 		.4byte	0
ARM GAS  /tmp/ccfrkxW6.s 			page 54


 3010 02e4 00000000 		.4byte	0
 3011              	.LLST23:
 3012 02e8 3C000000 		.4byte	.LVL38
 3013 02ec 58000000 		.4byte	.LVL42
 3014 02f0 0100     		.2byte	0x1
 3015 02f2 55       		.byte	0x55
 3016 02f3 00000000 		.4byte	0
 3017 02f7 00000000 		.4byte	0
 3018              	.LLST24:
 3019 02fb 0C000000 		.4byte	.LVL44
 3020 02ff 3A000000 		.4byte	.LVL51
 3021 0303 0100     		.2byte	0x1
 3022 0305 50       		.byte	0x50
 3023 0306 4A000000 		.4byte	.LVL53
 3024 030a 50000000 		.4byte	.LVL54
 3025 030e 0100     		.2byte	0x1
 3026 0310 50       		.byte	0x50
 3027 0311 00000000 		.4byte	0
 3028 0315 00000000 		.4byte	0
 3029              	.LLST25:
 3030 0319 1A000000 		.4byte	.LVL46
 3031 031d 34000000 		.4byte	.LVL49
 3032 0321 0100     		.2byte	0x1
 3033 0323 53       		.byte	0x53
 3034 0324 00000000 		.4byte	0
 3035 0328 00000000 		.4byte	0
 3036              	.LLST26:
 3037 032c 1A000000 		.4byte	.LVL46
 3038 0330 45000000 		.4byte	.LVL52-1
 3039 0334 0100     		.2byte	0x1
 3040 0336 51       		.byte	0x51
 3041 0337 00000000 		.4byte	0
 3042 033b 00000000 		.4byte	0
 3043              	.LLST27:
 3044 033f 36000000 		.4byte	.LVL50
 3045 0343 4A000000 		.4byte	.LVL53
 3046 0347 0100     		.2byte	0x1
 3047 0349 54       		.byte	0x54
 3048 034a 00000000 		.4byte	0
 3049 034e 00000000 		.4byte	0
 3050              	.LLST28:
 3051 0352 36000000 		.4byte	.LVL50
 3052 0356 4A000000 		.4byte	.LVL53
 3053 035a 0100     		.2byte	0x1
 3054 035c 55       		.byte	0x55
 3055 035d 00000000 		.4byte	0
 3056 0361 00000000 		.4byte	0
 3057              	.LLST29:
 3058 0365 18000000 		.4byte	.LVL56
 3059 0369 39000000 		.4byte	.LVL58-1
 3060 036d 0100     		.2byte	0x1
 3061 036f 53       		.byte	0x53
 3062 0370 00000000 		.4byte	0
 3063 0374 00000000 		.4byte	0
 3064              	.LLST31:
 3065 0378 1A000000 		.4byte	.LVL57
 3066 037c 39000000 		.4byte	.LVL58-1
ARM GAS  /tmp/ccfrkxW6.s 			page 55


 3067 0380 0100     		.2byte	0x1
 3068 0382 52       		.byte	0x52
 3069 0383 00000000 		.4byte	0
 3070 0387 00000000 		.4byte	0
 3071              		.section	.debug_aranges,"",%progbits
 3072 0000 54000000 		.4byte	0x54
 3073 0004 0200     		.2byte	0x2
 3074 0006 00000000 		.4byte	.Ldebug_info0
 3075 000a 04       		.byte	0x4
 3076 000b 00       		.byte	0
 3077 000c 0000     		.2byte	0
 3078 000e 0000     		.2byte	0
 3079 0010 00000000 		.4byte	.LFB7
 3080 0014 0A000000 		.4byte	.LFE7-.LFB7
 3081 0018 00000000 		.4byte	.LFB9
 3082 001c C8000000 		.4byte	.LFE9-.LFB9
 3083 0020 00000000 		.4byte	.LFB8
 3084 0024 14000000 		.4byte	.LFE8-.LFB8
 3085 0028 00000000 		.4byte	.LFB10
 3086 002c 32000000 		.4byte	.LFE10-.LFB10
 3087 0030 00000000 		.4byte	.LFB11
 3088 0034 20000000 		.4byte	.LFE11-.LFB11
 3089 0038 00000000 		.4byte	.LFB12
 3090 003c 66000000 		.4byte	.LFE12-.LFB12
 3091 0040 00000000 		.4byte	.LFB13
 3092 0044 52000000 		.4byte	.LFE13-.LFB13
 3093 0048 00000000 		.4byte	.LFB14
 3094 004c 50000000 		.4byte	.LFE14-.LFB14
 3095 0050 00000000 		.4byte	0
 3096 0054 00000000 		.4byte	0
 3097              		.section	.debug_ranges,"",%progbits
 3098              	.Ldebug_ranges0:
 3099 0000 14000000 		.4byte	.LBB33
 3100 0004 4A000000 		.4byte	.LBE33
 3101 0008 4E000000 		.4byte	.LBB58
 3102 000c BE000000 		.4byte	.LBE58
 3103 0010 00000000 		.4byte	0
 3104 0014 00000000 		.4byte	0
 3105 0018 52000000 		.4byte	.LBB36
 3106 001c 58000000 		.4byte	.LBE36
 3107 0020 5A000000 		.4byte	.LBB39
 3108 0024 5E000000 		.4byte	.LBE39
 3109 0028 00000000 		.4byte	0
 3110 002c 00000000 		.4byte	0
 3111 0030 64000000 		.4byte	.LBB40
 3112 0034 68000000 		.4byte	.LBE40
 3113 0038 6A000000 		.4byte	.LBB44
 3114 003c 6E000000 		.4byte	.LBE44
 3115 0040 70000000 		.4byte	.LBB48
 3116 0044 74000000 		.4byte	.LBE48
 3117 0048 00000000 		.4byte	0
 3118 004c 00000000 		.4byte	0
 3119 0050 6E000000 		.4byte	.LBB45
 3120 0054 70000000 		.4byte	.LBE45
 3121 0058 74000000 		.4byte	.LBB49
 3122 005c 8C000000 		.4byte	.LBE49
 3123 0060 00000000 		.4byte	0
ARM GAS  /tmp/ccfrkxW6.s 			page 56


 3124 0064 00000000 		.4byte	0
 3125 0068 8C000000 		.4byte	.LBB50
 3126 006c 90000000 		.4byte	.LBE50
 3127 0070 92000000 		.4byte	.LBB54
 3128 0074 96000000 		.4byte	.LBE54
 3129 0078 98000000 		.4byte	.LBB55
 3130 007c 9C000000 		.4byte	.LBE55
 3131 0080 00000000 		.4byte	0
 3132 0084 00000000 		.4byte	0
 3133 0088 08000000 		.4byte	.LBB62
 3134 008c 0E000000 		.4byte	.LBE62
 3135 0090 16000000 		.4byte	.LBB66
 3136 0094 2A000000 		.4byte	.LBE66
 3137 0098 00000000 		.4byte	0
 3138 009c 00000000 		.4byte	0
 3139 00a0 0E000000 		.4byte	.LBB65
 3140 00a4 14000000 		.4byte	.LBE65
 3141 00a8 2A000000 		.4byte	.LBB67
 3142 00ac 30000000 		.4byte	.LBE67
 3143 00b0 00000000 		.4byte	0
 3144 00b4 00000000 		.4byte	0
 3145 00b8 36000000 		.4byte	.LBB70
 3146 00bc 38000000 		.4byte	.LBE70
 3147 00c0 3C000000 		.4byte	.LBB74
 3148 00c4 3E000000 		.4byte	.LBE74
 3149 00c8 40000000 		.4byte	.LBB75
 3150 00cc 42000000 		.4byte	.LBE75
 3151 00d0 00000000 		.4byte	0
 3152 00d4 00000000 		.4byte	0
 3153 00d8 4E000000 		.4byte	.LBB76
 3154 00dc 54000000 		.4byte	.LBE76
 3155 00e0 5C000000 		.4byte	.LBB77
 3156 00e4 62000000 		.4byte	.LBE77
 3157 00e8 00000000 		.4byte	0
 3158 00ec 00000000 		.4byte	0
 3159 00f0 32000000 		.4byte	.LBB79
 3160 00f4 34000000 		.4byte	.LBE79
 3161 00f8 36000000 		.4byte	.LBB83
 3162 00fc 38000000 		.4byte	.LBE83
 3163 0100 3A000000 		.4byte	.LBB84
 3164 0104 3C000000 		.4byte	.LBE84
 3165 0108 00000000 		.4byte	0
 3166 010c 00000000 		.4byte	0
 3167 0110 28000000 		.4byte	.LBB88
 3168 0114 2A000000 		.4byte	.LBE88
 3169 0118 2C000000 		.4byte	.LBB91
 3170 011c 30000000 		.4byte	.LBE91
 3171 0120 00000000 		.4byte	0
 3172 0124 00000000 		.4byte	0
 3173 0128 00000000 		.4byte	.LFB7
 3174 012c 0A000000 		.4byte	.LFE7
 3175 0130 00000000 		.4byte	.LFB9
 3176 0134 C8000000 		.4byte	.LFE9
 3177 0138 00000000 		.4byte	.LFB8
 3178 013c 14000000 		.4byte	.LFE8
 3179 0140 00000000 		.4byte	.LFB10
 3180 0144 32000000 		.4byte	.LFE10
ARM GAS  /tmp/ccfrkxW6.s 			page 57


 3181 0148 00000000 		.4byte	.LFB11
 3182 014c 20000000 		.4byte	.LFE11
 3183 0150 00000000 		.4byte	.LFB12
 3184 0154 66000000 		.4byte	.LFE12
 3185 0158 00000000 		.4byte	.LFB13
 3186 015c 52000000 		.4byte	.LFE13
 3187 0160 00000000 		.4byte	.LFB14
 3188 0164 50000000 		.4byte	.LFE14
 3189 0168 00000000 		.4byte	0
 3190 016c 00000000 		.4byte	0
 3191              		.section	.debug_line,"",%progbits
 3192              	.Ldebug_line0:
 3193 0000 34030000 		.section	.debug_str,"MS",%progbits,1
 3193      02002F01 
 3193      00000201 
 3193      FB0E0D00 
 3193      01010101 
 3194              	.LASF40:
 3195 0000 54687265 		.ascii	"ThreadsQueue\000"
 3195      61647351 
 3195      75657565 
 3195      00
 3196              	.LASF35:
 3197 000d 705F6D73 		.ascii	"p_msg\000"
 3197      6700
 3198              	.LASF58:
 3199 0013 7264796D 		.ascii	"rdymsg\000"
 3199      736700
 3200              	.LASF77:
 3201 001a 474E5520 		.ascii	"GNU C 4.8.1 -mcpu=cortex-m3 -mno-thumb-interwork -m"
 3201      4320342E 
 3201      382E3120 
 3201      2D6D6370 
 3201      753D636F 
 3202 004d 7468756D 		.ascii	"thumb -ggdb -O2 -std=gnu99 -fomit-frame-pointer -fa"
 3202      62202D67 
 3202      67646220 
 3202      2D4F3220 
 3202      2D737464 
 3203 0080 6C69676E 		.ascii	"lign-functions=16 -ffunction-sections -fdata-sectio"
 3203      2D66756E 
 3203      6374696F 
 3203      6E733D31 
 3203      36202D66 
 3204 00b3 6E73202D 		.ascii	"ns -fno-common\000"
 3204      666E6F2D 
 3204      636F6D6D 
 3204      6F6E00
 3205              	.LASF11:
 3206 00c2 6C6F6E67 		.ascii	"long long unsigned int\000"
 3206      206C6F6E 
 3206      6720756E 
 3206      7369676E 
 3206      65642069 
 3207              	.LASF59:
 3208 00d9 65786974 		.ascii	"exitcode\000"
 3208      636F6465 
ARM GAS  /tmp/ccfrkxW6.s 			page 58


 3208      00
 3209              	.LASF69:
 3210 00e2 63684D74 		.ascii	"chMtxUnlock\000"
 3210      78556E6C 
 3210      6F636B00 
 3211              	.LASF24:
 3212 00ee 705F7072 		.ascii	"p_prio\000"
 3212      696F00
 3213              	.LASF10:
 3214 00f5 6C6F6E67 		.ascii	"long long int\000"
 3214      206C6F6E 
 3214      6720696E 
 3214      7400
 3215              	.LASF1:
 3216 0103 7369676E 		.ascii	"signed char\000"
 3216      65642063 
 3216      68617200 
 3217              	.LASF39:
 3218 010f 705F6D70 		.ascii	"p_mpool\000"
 3218      6F6F6C00 
 3219              	.LASF12:
 3220 0117 626F6F6C 		.ascii	"bool_t\000"
 3220      5F7400
 3221              	.LASF55:
 3222 011e 6D5F7175 		.ascii	"m_queue\000"
 3222      65756500 
 3223              	.LASF7:
 3224 0126 6C6F6E67 		.ascii	"long int\000"
 3224      20696E74 
 3224      00
 3225              	.LASF14:
 3226 012f 74737461 		.ascii	"tstate_t\000"
 3226      74655F74 
 3226      00
 3227              	.LASF66:
 3228 0138 63684D74 		.ascii	"chMtxLockS\000"
 3228      784C6F63 
 3228      6B5300
 3229              	.LASF73:
 3230 0143 63684D74 		.ascii	"chMtxTryLockS\000"
 3230      78547279 
 3230      4C6F636B 
 3230      5300
 3231              	.LASF26:
 3232 0151 705F6E65 		.ascii	"p_newer\000"
 3232      77657200 
 3233              	.LASF82:
 3234 0159 63685363 		.ascii	"chSchRescheduleS\000"
 3234      68526573 
 3234      63686564 
 3234      756C6553 
 3234      00
 3235              	.LASF49:
 3236 016a 725F6E65 		.ascii	"r_newer\000"
 3236      77657200 
 3237              	.LASF42:
 3238 0172 72656761 		.ascii	"regarm_t\000"
ARM GAS  /tmp/ccfrkxW6.s 			page 59


 3238      726D5F74 
 3238      00
 3239              	.LASF20:
 3240 017b 636E745F 		.ascii	"cnt_t\000"
 3240      7400
 3241              	.LASF71:
 3242 0181 63684D74 		.ascii	"chMtxUnlockS\000"
 3242      78556E6C 
 3242      6F636B53 
 3242      00
 3243              	.LASF0:
 3244 018e 756E7369 		.ascii	"unsigned int\000"
 3244      676E6564 
 3244      20696E74 
 3244      00
 3245              	.LASF9:
 3246 019b 6C6F6E67 		.ascii	"long unsigned int\000"
 3246      20756E73 
 3246      69676E65 
 3246      6420696E 
 3246      7400
 3247              	.LASF78:
 3248 01ad 2E2E2F74 		.ascii	"../third_party/ChibiOS/os/kernel/src/chmtx.c\000"
 3248      68697264 
 3248      5F706172 
 3248      74792F43 
 3248      68696269 
 3249              	.LASF44:
 3250 01da 636F6E74 		.ascii	"context\000"
 3250      65787400 
 3251              	.LASF4:
 3252 01e2 73686F72 		.ascii	"short unsigned int\000"
 3252      7420756E 
 3252      7369676E 
 3252      65642069 
 3252      6E7400
 3253              	.LASF17:
 3254 01f5 6D73675F 		.ascii	"msg_t\000"
 3254      7400
 3255              	.LASF80:
 3256 01fb 7072696F 		.ascii	"prio_insert\000"
 3256      5F696E73 
 3256      65727400 
 3257              	.LASF72:
 3258 0207 63684D74 		.ascii	"chMtxUnlockAll\000"
 3258      78556E6C 
 3258      6F636B41 
 3258      6C6C00
 3259              	.LASF70:
 3260 0216 6E657770 		.ascii	"newprio\000"
 3260      72696F00 
 3261              	.LASF13:
 3262 021e 746D6F64 		.ascii	"tmode_t\000"
 3262      655F7400 
 3263              	.LASF41:
 3264 0226 54687265 		.ascii	"ThreadsList\000"
 3264      6164734C 
ARM GAS  /tmp/ccfrkxW6.s 			page 60


 3264      69737400 
 3265              	.LASF18:
 3266 0232 6576656E 		.ascii	"eventmask_t\000"
 3266      746D6173 
 3266      6B5F7400 
 3267              	.LASF68:
 3268 023e 63684D74 		.ascii	"chMtxTryLock\000"
 3268      78547279 
 3268      4C6F636B 
 3268      00
 3269              	.LASF54:
 3270 024b 4D757465 		.ascii	"Mutex\000"
 3270      7800
 3271              	.LASF45:
 3272 0251 73697A65 		.ascii	"sizetype\000"
 3272      74797065 
 3272      00
 3273              	.LASF67:
 3274 025a 63684D74 		.ascii	"chMtxLock\000"
 3274      784C6F63 
 3274      6B00
 3275              	.LASF27:
 3276 0264 705F6F6C 		.ascii	"p_older\000"
 3276      64657200 
 3277              	.LASF48:
 3278 026c 725F6374 		.ascii	"r_ctx\000"
 3278      7800
 3279              	.LASF79:
 3280 0272 2F686F6D 		.ascii	"/home/santi/Documentos/ProyectoDron_2018/MCU/creato"
 3280      652F7361 
 3280      6E74692F 
 3280      446F6375 
 3280      6D656E74 
 3281 02a5 7200     		.ascii	"r\000"
 3282              	.LASF63:
 3283 02a7 64657175 		.ascii	"dequeue\000"
 3283      65756500 
 3284              	.LASF52:
 3285 02af 725F6375 		.ascii	"r_current\000"
 3285      7272656E 
 3285      7400
 3286              	.LASF50:
 3287 02b9 725F6F6C 		.ascii	"r_older\000"
 3287      64657200 
 3288              	.LASF15:
 3289 02c1 74726566 		.ascii	"trefs_t\000"
 3289      735F7400 
 3290              	.LASF23:
 3291 02c9 705F7072 		.ascii	"p_prev\000"
 3291      657600
 3292              	.LASF16:
 3293 02d0 74707269 		.ascii	"tprio_t\000"
 3293      6F5F7400 
 3294              	.LASF6:
 3295 02d8 696E7433 		.ascii	"int32_t\000"
 3295      325F7400 
 3296              	.LASF2:
ARM GAS  /tmp/ccfrkxW6.s 			page 61


 3297 02e0 756E7369 		.ascii	"unsigned char\000"
 3297      676E6564 
 3297      20636861 
 3297      7200
 3298              	.LASF37:
 3299 02ee 705F6D74 		.ascii	"p_mtxlist\000"
 3299      786C6973 
 3299      7400
 3300              	.LASF3:
 3301 02f8 73686F72 		.ascii	"short int\000"
 3301      7420696E 
 3301      7400
 3302              	.LASF29:
 3303 0302 705F7374 		.ascii	"p_state\000"
 3303      61746500 
 3304              	.LASF47:
 3305 030a 725F7072 		.ascii	"r_prio\000"
 3305      696F00
 3306              	.LASF61:
 3307 0311 65776D61 		.ascii	"ewmask\000"
 3307      736B00
 3308              	.LASF22:
 3309 0318 705F6E65 		.ascii	"p_next\000"
 3309      787400
 3310              	.LASF30:
 3311 031f 705F666C 		.ascii	"p_flags\000"
 3311      61677300 
 3312              	.LASF21:
 3313 0327 54687265 		.ascii	"Thread\000"
 3313      616400
 3314              	.LASF75:
 3315 032e 63685363 		.ascii	"chSchGoSleepS\000"
 3315      68476F53 
 3315      6C656570 
 3315      5300
 3316              	.LASF36:
 3317 033c 705F6570 		.ascii	"p_epending\000"
 3317      656E6469 
 3317      6E6700
 3318              	.LASF8:
 3319 0347 75696E74 		.ascii	"uint32_t\000"
 3319      33325F74 
 3319      00
 3320              	.LASF46:
 3321 0350 725F7175 		.ascii	"r_queue\000"
 3321      65756500 
 3322              	.LASF74:
 3323 0358 63685363 		.ascii	"chSchReadyI\000"
 3323      68526561 
 3323      64794900 
 3324              	.LASF62:
 3325 0364 63686172 		.ascii	"char\000"
 3325      00
 3326              	.LASF64:
 3327 0369 6669666F 		.ascii	"fifo_remove\000"
 3327      5F72656D 
 3327      6F766500 
ARM GAS  /tmp/ccfrkxW6.s 			page 62


 3328              	.LASF57:
 3329 0375 6D5F6E65 		.ascii	"m_next\000"
 3329      787400
 3330              	.LASF19:
 3331 037c 73797374 		.ascii	"systime_t\000"
 3331      696D655F 
 3331      7400
 3332              	.LASF38:
 3333 0386 705F7265 		.ascii	"p_realprio\000"
 3333      616C7072 
 3333      696F00
 3334              	.LASF32:
 3335 0391 705F7469 		.ascii	"p_time\000"
 3335      6D6500
 3336              	.LASF43:
 3337 0398 696E7463 		.ascii	"intctx\000"
 3337      747800
 3338              	.LASF34:
 3339 039f 705F6D73 		.ascii	"p_msgqueue\000"
 3339      67717565 
 3339      756500
 3340              	.LASF76:
 3341 03aa 63685363 		.ascii	"chSchWakeupS\000"
 3341      6857616B 
 3341      65757053 
 3341      00
 3342              	.LASF65:
 3343 03b7 63684D74 		.ascii	"chMtxInit\000"
 3343      78496E69 
 3343      7400
 3344              	.LASF31:
 3345 03c1 705F7265 		.ascii	"p_refs\000"
 3345      667300
 3346              	.LASF53:
 3347 03c8 52656164 		.ascii	"ReadyList\000"
 3347      794C6973 
 3347      7400
 3348              	.LASF81:
 3349 03d2 726C6973 		.ascii	"rlist\000"
 3349      7400
 3350              	.LASF5:
 3351 03d8 75696E74 		.ascii	"uint8_t\000"
 3351      385F7400 
 3352              	.LASF60:
 3353 03e0 77746F62 		.ascii	"wtobjp\000"
 3353      6A7000
 3354              	.LASF28:
 3355 03e7 705F6E61 		.ascii	"p_name\000"
 3355      6D6500
 3356              	.LASF51:
 3357 03ee 725F7072 		.ascii	"r_preempt\000"
 3357      65656D70 
 3357      7400
 3358              	.LASF56:
 3359 03f8 6D5F6F77 		.ascii	"m_owner\000"
 3359      6E657200 
 3360              	.LASF25:
ARM GAS  /tmp/ccfrkxW6.s 			page 63


 3361 0400 705F6374 		.ascii	"p_ctx\000"
 3361      7800
 3362              	.LASF33:
 3363 0406 705F7761 		.ascii	"p_waiting\000"
 3363      6974696E 
 3363      6700
 3364              		.ident	"GCC: (Sourcery CodeBench Lite 2013.11-24) 4.8.1"
ARM GAS  /tmp/ccfrkxW6.s 			page 64


DEFINED SYMBOLS
                            *ABS*:00000000 chmtx.c
     /tmp/ccfrkxW6.s:19     .text.chMtxInit:00000000 $t
     /tmp/ccfrkxW6.s:25     .text.chMtxInit:00000000 chMtxInit
     /tmp/ccfrkxW6.s:46     .text.chMtxLockS:00000000 $t
     /tmp/ccfrkxW6.s:52     .text.chMtxLockS:00000000 chMtxLockS
     /tmp/ccfrkxW6.s:311    .text.chMtxLock:00000000 $t
     /tmp/ccfrkxW6.s:317    .text.chMtxLock:00000000 chMtxLock
     /tmp/ccfrkxW6.s:352    .text.chMtxTryLock:00000000 $t
     /tmp/ccfrkxW6.s:358    .text.chMtxTryLock:00000000 chMtxTryLock
     /tmp/ccfrkxW6.s:431    .text.chMtxTryLockS:00000000 $t
     /tmp/ccfrkxW6.s:437    .text.chMtxTryLockS:00000000 chMtxTryLockS
     /tmp/ccfrkxW6.s:479    .text.chMtxUnlock:00000000 $t
     /tmp/ccfrkxW6.s:485    .text.chMtxUnlock:00000000 chMtxUnlock
     /tmp/ccfrkxW6.s:620    .text.chMtxUnlockS:00000000 $t
     /tmp/ccfrkxW6.s:626    .text.chMtxUnlockS:00000000 chMtxUnlockS
     /tmp/ccfrkxW6.s:734    .text.chMtxUnlockAll:00000000 $t
     /tmp/ccfrkxW6.s:740    .text.chMtxUnlockAll:00000000 chMtxUnlockAll
                     .debug_frame:00000010 $d

UNDEFINED SYMBOLS
rlist
chSchGoSleepS
chSchReadyI
chSchWakeupS
chSchRescheduleS
