ARM GAS  /tmp/ccoetFCr.s 			page 1


   1              		.syntax unified
   2              		.cpu cortex-m3
   3              		.fpu softvfp
   4              		.eabi_attribute 20, 1
   5              		.eabi_attribute 21, 1
   6              		.eabi_attribute 23, 3
   7              		.eabi_attribute 24, 1
   8              		.eabi_attribute 25, 1
   9              		.eabi_attribute 26, 1
  10              		.eabi_attribute 30, 2
  11              		.eabi_attribute 34, 1
  12              		.eabi_attribute 18, 4
  13              		.thumb
  14              		.file	"chprintf.c"
  15              		.text
  16              	.Ltext0:
  17              		.cfi_sections	.debug_frame
  18              		.section	.text.ltoa,"ax",%progbits
  19              		.align	2
  20              		.p2align 4,,15
  21              		.thumb
  22              		.thumb_func
  23              		.type	ltoa, %function
  24              	ltoa:
  25              	.LFB7:
  26              		.file 1 "../third_party/ChibiOS/os/various/chprintf.c"
  27              		.loc 1 42 0
  28              		.cfi_startproc
  29              		@ args = 0, pretend = 0, frame = 0
  30              		@ frame_needed = 0, uses_anonymous_args = 0
  31              		@ link register save eliminated.
  32              	.LVL0:
  33 0000 70B4     		push	{r4, r5, r6}
  34              		.cfi_def_cfa_offset 12
  35              		.cfi_offset 4, -12
  36              		.cfi_offset 5, -8
  37              		.cfi_offset 6, -4
  38              		.loc 1 46 0
  39 0002 00F10B06 		add	r6, r0, #11
  40              	.LVL1:
  41 0006 00F10A04 		add	r4, r0, #10
  42              	.LVL2:
  43              	.L4:
  44              		.loc 1 48 0
  45 000a B1FBF2F5 		udiv	r5, r1, r2
  46 000e 02FB1511 		mls	r1, r2, r5, r1
  47              	.LVL3:
  48              		.loc 1 49 0
  49 0012 01F13003 		add	r3, r1, #48
  50              	.LVL4:
  51              		.loc 1 50 0
  52 0016 392B     		cmp	r3, #57
  53              		.loc 1 51 0
  54 0018 C8BF     		it	gt
  55 001a 01F13703 		addgt	r3, r1, #55
  56              	.LVL5:
  57              		.loc 1 52 0
ARM GAS  /tmp/ccoetFCr.s 			page 2


  58 001e DBB2     		uxtb	r3, r3
  59              	.LVL6:
  60              		.loc 1 53 0
  61 0020 2946     		mov	r1, r5
  62              	.LVL7:
  63              		.loc 1 52 0
  64 0022 2546     		mov	r5, r4
  65              	.LVL8:
  66 0024 04F80139 		strb	r3, [r4], #-1
  67              	.LVL9:
  68              		.loc 1 53 0
  69 0028 0029     		cmp	r1, #0
  70 002a EED1     		bne	.L4
  71              	.LVL10:
  72              		.loc 1 55 0
  73 002c 711B     		subs	r1, r6, r5
  74              	.LVL11:
  75 002e 2A46     		mov	r2, r5
  76              	.LVL12:
  77 0030 0144     		add	r1, r1, r0
  78 0032 01E0     		b	.L6
  79              	.LVL13:
  80              	.L9:
  81 0034 12F8013F 		ldrb	r3, [r2, #1]!	@ zero_extendqisi2
  82              	.LVL14:
  83              	.L6:
  84              		.loc 1 57 0 discriminator 1
  85 0038 00F8013B 		strb	r3, [r0], #1
  86              	.LVL15:
  87              		.loc 1 58 0 discriminator 1
  88 003c 8842     		cmp	r0, r1
  89 003e F9D1     		bne	.L9
  90              		.loc 1 61 0
  91 0040 70BC     		pop	{r4, r5, r6}
  92              	.LVL16:
  93 0042 7047     		bx	lr
  94              		.cfi_endproc
  95              	.LFE7:
  96              		.size	ltoa, .-ltoa
  97 0044 AFF30080 		.section	.text.chprintf,"ax",%progbits
  97      AFF30080 
  97      AFF30080 
  98              		.align	2
  99              		.p2align 4,,15
 100              		.global	chprintf
 101              		.thumb
 102              		.thumb_func
 103              		.type	chprintf, %function
 104              	chprintf:
 105              	.LFB8:
 106              		.loc 1 86 0
 107              		.cfi_startproc
 108              		@ args = 4, pretend = 12, frame = 24
 109              		@ frame_needed = 0, uses_anonymous_args = 1
 110              	.LVL17:
 111 0000 0EB4     		push	{r1, r2, r3}
 112              		.cfi_def_cfa_offset 12
ARM GAS  /tmp/ccoetFCr.s 			page 3


 113              		.cfi_offset 1, -12
 114              		.cfi_offset 2, -8
 115              		.cfi_offset 3, -4
 116 0002 2DE9F04F 		push	{r4, r5, r6, r7, r8, r9, r10, fp, lr}
 117              		.cfi_def_cfa_offset 48
 118              		.cfi_offset 4, -48
 119              		.cfi_offset 5, -44
 120              		.cfi_offset 6, -40
 121              		.cfi_offset 7, -36
 122              		.cfi_offset 8, -32
 123              		.cfi_offset 9, -28
 124              		.cfi_offset 10, -24
 125              		.cfi_offset 11, -20
 126              		.cfi_offset 14, -16
 127 0006 86B0     		sub	sp, sp, #24
 128              		.cfi_def_cfa_offset 72
 129 0008 0DF10D03 		add	r3, sp, #13
 130 000c 0093     		str	r3, [sp]
 131 000e 009B     		ldr	r3, [sp]
 132              		.loc 1 86 0
 133 0010 0FAA     		add	r2, sp, #60
 134 0012 0DF10C09 		add	r9, sp, #12
 135 0016 52F8044B 		ldr	r4, [r2], #4
 136 001a C9EB030B 		rsb	fp, r9, r3
 137              		.loc 1 160 0
 138 001e 40F20003 		movw	r3, #:lower16:.LC0
 139 0022 C0F20003 		movt	r3, #:upper16:.LC0
 140              		.loc 1 86 0
 141 0026 8246     		mov	r10, r0
 142              		.loc 1 94 0
 143 0028 0292     		str	r2, [sp, #8]
 144              		.loc 1 160 0
 145 002a 0193     		str	r3, [sp, #4]
 146              	.LVL18:
 147              	.L11:
 148              		.loc 1 96 0
 149 002c 2178     		ldrb	r1, [r4]	@ zero_extendqisi2
 150 002e 631C     		adds	r3, r4, #1
 151              	.LVL19:
 152              		.loc 1 97 0
 153 0030 69B1     		cbz	r1, .L68
 154              	.LVL20:
 155              	.L72:
 156              		.loc 1 101 0
 157 0032 2529     		cmp	r1, #37
 158 0034 10D0     		beq	.L13
 159              		.loc 1 102 0
 160 0036 DAF80020 		ldr	r2, [r10]
 161              		.loc 1 96 0
 162 003a 1C46     		mov	r4, r3
 163              		.loc 1 102 0
 164 003c 1569     		ldr	r5, [r2, #16]
 165 003e 5046     		mov	r0, r10
 166 0040 4FF0FF32 		mov	r2, #-1
 167 0044 A847     		blx	r5
 168              	.LVL21:
 169              		.loc 1 96 0
ARM GAS  /tmp/ccoetFCr.s 			page 4


 170 0046 2178     		ldrb	r1, [r4]	@ zero_extendqisi2
 171 0048 631C     		adds	r3, r4, #1
 172              	.LVL22:
 173              		.loc 1 97 0
 174 004a 0029     		cmp	r1, #0
 175 004c F1D1     		bne	.L72
 176              	.LVL23:
 177              	.L68:
 178              		.loc 1 222 0
 179 004e 06B0     		add	sp, sp, #24
 180              		@ sp needed
 181 0050 BDE8F04F 		pop	{r4, r5, r6, r7, r8, r9, r10, fp, lr}
 182              	.LVL24:
 183 0054 03B0     		add	sp, sp, #12
 184 0056 7047     		bx	lr
 185              	.LVL25:
 186              	.L13:
 187              		.loc 1 108 0
 188 0058 6278     		ldrb	r2, [r4, #1]	@ zero_extendqisi2
 189 005a 0299     		ldr	r1, [sp, #8]
 190 005c 2D2A     		cmp	r2, #45
 191 005e 03BF     		ittte	eq
 192 0060 A278     		ldrbeq	r2, [r4, #2]	@ zero_extendqisi2
 193              		.loc 1 109 0
 194 0062 A31C     		addeq	r3, r4, #2
 195              	.LVL26:
 196              		.loc 1 110 0
 197 0064 4FF0010C 		moveq	ip, #1
 198              		.loc 1 107 0
 199 0068 4FF0000C 		movne	ip, #0
 200              	.LVL27:
 201              		.loc 1 113 0
 202 006c 2E2A     		cmp	r2, #46
 203 006e 03BF     		ittte	eq
 204 0070 5A78     		ldrbeq	r2, [r3, #1]	@ zero_extendqisi2
 205              		.loc 1 114 0
 206 0072 0133     		addeq	r3, r3, #1
 207              	.LVL28:
 208              		.loc 1 115 0
 209 0074 3026     		moveq	r6, #48
 210              		.loc 1 112 0
 211 0076 2026     		movne	r6, #32
 212              	.LVL29:
 213              		.loc 1 115 0
 214 0078 1C46     		mov	r4, r3
 215              		.loc 1 117 0
 216 007a 0025     		movs	r5, #0
 217 007c 06E0     		b	.L19
 218              	.LVL30:
 219              	.L73:
 220              		.loc 1 123 0
 221 007e 0B78     		ldrb	r3, [r1]	@ zero_extendqisi2
 222              	.LVL31:
 223 0080 0431     		adds	r1, r1, #4
 224              	.LVL32:
 225              	.L17:
 226              		.loc 1 126 0
ARM GAS  /tmp/ccoetFCr.s 			page 5


 227 0082 05EB8505 		add	r5, r5, r5, lsl #2
 228              	.LVL33:
 229 0086 2278     		ldrb	r2, [r4]	@ zero_extendqisi2
 230 0088 03EB4505 		add	r5, r3, r5, lsl #1
 231              	.LVL34:
 232              	.L19:
 233              		.loc 1 120 0
 234 008c A2F13003 		sub	r3, r2, #48
 235 0090 DBB2     		uxtb	r3, r3
 236 0092 092B     		cmp	r3, #9
 237              		.loc 1 119 0
 238 0094 04F10104 		add	r4, r4, #1
 239              	.LVL35:
 240              		.loc 1 120 0
 241 0098 F3D9     		bls	.L17
 242              		.loc 1 122 0
 243 009a 2A2A     		cmp	r2, #42
 244 009c EFD0     		beq	.L73
 245              		.loc 1 129 0
 246 009e 2E2A     		cmp	r2, #46
 247 00a0 0291     		str	r1, [sp, #8]
 248              	.LVL36:
 249 00a2 4FF00000 		mov	r0, #0
 250 00a6 2DD0     		beq	.L23
 251              	.LVL37:
 252              	.L20:
 253              		.loc 1 143 0
 254 00a8 02F0DF03 		and	r3, r2, #223
 255 00ac 4C2B     		cmp	r3, #76
 256 00ae 03D1     		bne	.L24
 257              	.LVL38:
 258              		.loc 1 145 0
 259 00b0 2378     		ldrb	r3, [r4]	@ zero_extendqisi2
 260 00b2 0BB1     		cbz	r3, .L24
 261              		.loc 1 146 0
 262 00b4 0134     		adds	r4, r4, #1
 263              	.LVL39:
 264 00b6 1A46     		mov	r2, r3
 265              	.LVL40:
 266              	.L24:
 267              		.loc 1 152 0
 268 00b8 A2F14403 		sub	r3, r2, #68
 269 00bc 342B     		cmp	r3, #52
 270 00be 00F2B480 		bhi	.L25
 271 00c2 DFE803F0 		tbb	[pc, r3]
 272              	.L27:
 273 00c6 70       		.byte	(.L26-.L27)/2
 274 00c7 B2       		.byte	(.L25-.L27)/2
 275 00c8 B2       		.byte	(.L25-.L27)/2
 276 00c9 B2       		.byte	(.L25-.L27)/2
 277 00ca B2       		.byte	(.L25-.L27)/2
 278 00cb B2       		.byte	(.L25-.L27)/2
 279 00cc B2       		.byte	(.L25-.L27)/2
 280 00cd B2       		.byte	(.L25-.L27)/2
 281 00ce B2       		.byte	(.L25-.L27)/2
 282 00cf B2       		.byte	(.L25-.L27)/2
 283 00d0 B2       		.byte	(.L25-.L27)/2
ARM GAS  /tmp/ccoetFCr.s 			page 6


 284 00d1 6E       		.byte	(.L28-.L27)/2
 285 00d2 B2       		.byte	(.L25-.L27)/2
 286 00d3 B2       		.byte	(.L25-.L27)/2
 287 00d4 B2       		.byte	(.L25-.L27)/2
 288 00d5 B2       		.byte	(.L25-.L27)/2
 289 00d6 B2       		.byte	(.L25-.L27)/2
 290 00d7 2C       		.byte	(.L51-.L27)/2
 291 00d8 B2       		.byte	(.L25-.L27)/2
 292 00d9 B2       		.byte	(.L25-.L27)/2
 293 00da B0       		.byte	(.L30-.L27)/2
 294 00db B2       		.byte	(.L25-.L27)/2
 295 00dc B2       		.byte	(.L25-.L27)/2
 296 00dd B2       		.byte	(.L25-.L27)/2
 297 00de B2       		.byte	(.L25-.L27)/2
 298 00df B2       		.byte	(.L25-.L27)/2
 299 00e0 B2       		.byte	(.L25-.L27)/2
 300 00e1 B2       		.byte	(.L25-.L27)/2
 301 00e2 B2       		.byte	(.L25-.L27)/2
 302 00e3 B2       		.byte	(.L25-.L27)/2
 303 00e4 B2       		.byte	(.L25-.L27)/2
 304 00e5 87       		.byte	(.L31-.L27)/2
 305 00e6 70       		.byte	(.L26-.L27)/2
 306 00e7 B2       		.byte	(.L25-.L27)/2
 307 00e8 B2       		.byte	(.L25-.L27)/2
 308 00e9 B2       		.byte	(.L25-.L27)/2
 309 00ea B2       		.byte	(.L25-.L27)/2
 310 00eb B2       		.byte	(.L25-.L27)/2
 311 00ec B2       		.byte	(.L25-.L27)/2
 312 00ed B2       		.byte	(.L25-.L27)/2
 313 00ee B2       		.byte	(.L25-.L27)/2
 314 00ef B2       		.byte	(.L25-.L27)/2
 315 00f0 B2       		.byte	(.L25-.L27)/2
 316 00f1 6E       		.byte	(.L28-.L27)/2
 317 00f2 B2       		.byte	(.L25-.L27)/2
 318 00f3 B2       		.byte	(.L25-.L27)/2
 319 00f4 B2       		.byte	(.L25-.L27)/2
 320 00f5 93       		.byte	(.L32-.L27)/2
 321 00f6 B2       		.byte	(.L25-.L27)/2
 322 00f7 2C       		.byte	(.L51-.L27)/2
 323 00f8 B2       		.byte	(.L25-.L27)/2
 324 00f9 B2       		.byte	(.L25-.L27)/2
 325 00fa B0       		.byte	(.L30-.L27)/2
 326 00fb 00       		.align	1
 327              	.LVL41:
 328              	.L22:
 329              		.loc 1 135 0
 330 00fc 0B78     		ldrb	r3, [r1]	@ zero_extendqisi2
 331              	.LVL42:
 332 00fe 0431     		adds	r1, r1, #4
 333              	.LVL43:
 334              	.L21:
 335              		.loc 1 139 0
 336 0100 03EB4700 		add	r0, r3, r7, lsl #1
 337              	.LVL44:
 338              	.L23:
 339              		.loc 1 131 0
 340 0104 14F8012B 		ldrb	r2, [r4], #1	@ zero_extendqisi2
ARM GAS  /tmp/ccoetFCr.s 			page 7


 341              	.LVL45:
 342              		.loc 1 138 0
 343 0108 00EB8007 		add	r7, r0, r0, lsl #2
 344              		.loc 1 132 0
 345 010c A2F13003 		sub	r3, r2, #48
 346 0110 DBB2     		uxtb	r3, r3
 347 0112 092B     		cmp	r3, #9
 348 0114 F4D9     		bls	.L21
 349              		.loc 1 134 0
 350 0116 2A2A     		cmp	r2, #42
 351 0118 F0D0     		beq	.L22
 352 011a 0291     		str	r1, [sp, #8]
 353 011c C4E7     		b	.L20
 354              	.LVL46:
 355              	.L51:
 356              		.loc 1 152 0
 357 011e 0A22     		movs	r2, #10
 358              	.LVL47:
 359              	.L29:
 360              		.loc 1 191 0
 361 0120 029B     		ldr	r3, [sp, #8]
 362              		.loc 1 194 0
 363 0122 4846     		mov	r0, r9
 364              		.loc 1 191 0
 365 0124 1F1D     		adds	r7, r3, #4
 366              		.loc 1 194 0
 367 0126 1968     		ldr	r1, [r3]
 368              		.loc 1 191 0
 369 0128 0297     		str	r7, [sp, #8]
 370              	.LVL48:
 371              		.loc 1 194 0
 372 012a FFF7FEFF 		bl	ltoa
 373              	.LVL49:
 374 012e C9EB0000 		rsb	r0, r9, r0
 375              	.LVL50:
 376 0132 00F1FF38 		add	r8, r0, #-1
 377              		.loc 1 106 0
 378 0136 4F46     		mov	r7, r9
 379              	.LVL51:
 380              	.L33:
 381              		.loc 1 201 0
 382 0138 2D1A     		subs	r5, r5, r0
 383              	.LVL52:
 384 013a 25EAE575 		bic	r5, r5, r5, asr #31
 385              	.LVL53:
 386              		.loc 1 203 0
 387 013e BCF1000F 		cmp	ip, #0
 388 0142 0ED1     		bne	.L40
 389              		.loc 1 204 0
 390 0144 6D42     		negs	r5, r5
 391              	.LVL54:
 392              		.loc 1 205 0
 393 0146 65B1     		cbz	r5, .L40
 394              		.loc 1 206 0
 395 0148 3978     		ldrb	r1, [r7]	@ zero_extendqisi2
 396 014a 2D29     		cmp	r1, #45
 397 014c 74D0     		beq	.L74
ARM GAS  /tmp/ccoetFCr.s 			page 8


 398              	.LVL55:
 399              	.L42:
 400              		.loc 1 211 0 discriminator 1
 401 014e DAF80030 		ldr	r3, [r10]
 402 0152 5046     		mov	r0, r10
 403 0154 1B69     		ldr	r3, [r3, #16]
 404 0156 3146     		mov	r1, r6
 405 0158 4FF0FF32 		mov	r2, #-1
 406 015c 9847     		blx	r3
 407              	.LVL56:
 408              		.loc 1 212 0 discriminator 1
 409 015e 0135     		adds	r5, r5, #1
 410              	.LVL57:
 411 0160 F5D1     		bne	.L42
 412              	.L40:
 413              		.loc 1 214 0 discriminator 1
 414 0162 B8F1000F 		cmp	r8, #0
 415 0166 A4BF     		itt	ge
 416 0168 B844     		addge	r8, r8, r7
 417 016a 07F1FF37 		addge	r7, r7, #-1
 418 016e 0ADB     		blt	.L45
 419              	.LVL58:
 420              	.L46:
 421              		.loc 1 215 0
 422 0170 DAF80030 		ldr	r3, [r10]
 423 0174 17F8011F 		ldrb	r1, [r7, #1]!	@ zero_extendqisi2
 424              	.LVL59:
 425 0178 1B69     		ldr	r3, [r3, #16]
 426 017a 5046     		mov	r0, r10
 427 017c 4FF0FF32 		mov	r2, #-1
 428 0180 9847     		blx	r3
 429              	.LVL60:
 430              		.loc 1 214 0
 431 0182 4745     		cmp	r7, r8
 432 0184 F4D1     		bne	.L46
 433              	.LVL61:
 434              	.L45:
 435              		.loc 1 217 0
 436 0186 002D     		cmp	r5, #0
 437 0188 3FF450AF 		beq	.L11
 438              	.L47:
 439              		.loc 1 218 0
 440 018c DAF80030 		ldr	r3, [r10]
 441 0190 5046     		mov	r0, r10
 442 0192 1B69     		ldr	r3, [r3, #16]
 443 0194 3146     		mov	r1, r6
 444 0196 4FF0FF32 		mov	r2, #-1
 445 019a 9847     		blx	r3
 446              	.LVL62:
 447              		.loc 1 217 0
 448 019c 013D     		subs	r5, r5, #1
 449              	.LVL63:
 450 019e F5D1     		bne	.L47
 451 01a0 44E7     		b	.L11
 452              	.LVL64:
 453              	.L28:
 454 01a2 0822     		movs	r2, #8
ARM GAS  /tmp/ccoetFCr.s 			page 9


 455 01a4 BCE7     		b	.L29
 456              	.LVL65:
 457              	.L26:
 458              		.loc 1 169 0
 459 01a6 029B     		ldr	r3, [sp, #8]
 460              		.loc 1 176 0
 461 01a8 0A22     		movs	r2, #10
 462              	.LVL66:
 463              		.loc 1 169 0
 464 01aa 1968     		ldr	r1, [r3]
 465              	.LVL67:
 466 01ac 0433     		adds	r3, r3, #4
 467              		.loc 1 172 0
 468 01ae 0029     		cmp	r1, #0
 469              	.LVL68:
 470              		.loc 1 169 0
 471 01b0 0293     		str	r3, [sp, #8]
 472              		.loc 1 174 0
 473 01b2 BDBF     		ittte	lt
 474 01b4 4942     		rsblt	r1, r1, #0
 475              	.LVL69:
 476              		.loc 1 173 0
 477 01b6 2D23     		movlt	r3, #45
 478 01b8 0DF10D00 		addlt	r0, sp, #13
 479              		.loc 1 105 0
 480 01bc 4846     		movge	r0, r9
 481              	.LVL70:
 482              		.loc 1 173 0
 483 01be B8BF     		it	lt
 484 01c0 8DF80C30 		strblt	r3, [sp, #12]
 485              		.loc 1 176 0
 486 01c4 FFF7FEFF 		bl	ltoa
 487              	.LVL71:
 488 01c8 C9EB0000 		rsb	r0, r9, r0
 489              	.LVL72:
 490 01cc 00F1FF38 		add	r8, r0, #-1
 491              		.loc 1 106 0
 492 01d0 4F46     		mov	r7, r9
 493              		.loc 1 177 0
 494 01d2 B1E7     		b	.L33
 495              	.LVL73:
 496              	.L31:
 497              		.loc 1 155 0
 498 01d4 029B     		ldr	r3, [sp, #8]
 499 01d6 5846     		mov	r0, fp
 500 01d8 1A68     		ldr	r2, [r3]
 501              	.LVL74:
 502 01da 0433     		adds	r3, r3, #4
 503 01dc 8DF80C20 		strb	r2, [sp, #12]
 504 01e0 0293     		str	r3, [sp, #8]
 505 01e2 0BF1FF38 		add	r8, fp, #-1
 506              		.loc 1 154 0
 507 01e6 2026     		movs	r6, #32
 508              		.loc 1 106 0
 509 01e8 4F46     		mov	r7, r9
 510              		.loc 1 156 0
 511 01ea A5E7     		b	.L33
ARM GAS  /tmp/ccoetFCr.s 			page 10


 512              	.LVL75:
 513              	.L32:
 514              		.loc 1 159 0
 515 01ec 029B     		ldr	r3, [sp, #8]
 516              		.loc 1 160 0
 517 01ee 019A     		ldr	r2, [sp, #4]
 518              	.LVL76:
 519              		.loc 1 159 0
 520 01f0 1F68     		ldr	r7, [r3]
 521              		.loc 1 162 0
 522 01f2 47F6FF71 		movw	r1, #32767
 523              		.loc 1 160 0
 524 01f6 002F     		cmp	r7, #0
 525 01f8 08BF     		it	eq
 526 01fa 1746     		moveq	r7, r2
 527              		.loc 1 163 0
 528 01fc 3A78     		ldrb	r2, [r7]	@ zero_extendqisi2
 529              		.loc 1 159 0
 530 01fe 0433     		adds	r3, r3, #4
 531 0200 0293     		str	r3, [sp, #8]
 532              	.LVL77:
 533              		.loc 1 162 0
 534 0202 0028     		cmp	r0, #0
 535 0204 08BF     		it	eq
 536 0206 0846     		moveq	r0, r1
 537              	.LVL78:
 538              		.loc 1 163 0
 539 0208 42B3     		cbz	r2, .L54
 540 020a 3844     		add	r0, r0, r7
 541 020c 3B46     		mov	r3, r7
 542              	.LVL79:
 543 020e 01E0     		b	.L38
 544              	.LVL80:
 545              	.L36:
 546              		.loc 1 163 0 is_stmt 0 discriminator 2
 547 0210 9842     		cmp	r0, r3
 548 0212 1ED0     		beq	.L75
 549              	.LVL81:
 550              	.L38:
 551              		.loc 1 163 0 discriminator 1
 552 0214 5A78     		ldrb	r2, [r3, #1]	@ zero_extendqisi2
 553 0216 0133     		adds	r3, r3, #1
 554              	.LVL82:
 555 0218 002A     		cmp	r2, #0
 556 021a F9D1     		bne	.L36
 557 021c D81B     		subs	r0, r3, r7
 558 021e 00F1FF38 		add	r8, r0, #-1
 559              		.loc 1 158 0 is_stmt 1
 560 0222 2026     		movs	r6, #32
 561 0224 88E7     		b	.L33
 562              	.LVL83:
 563              	.L30:
 564              		.loc 1 152 0
 565 0226 1022     		movs	r2, #16
 566              	.LVL84:
 567 0228 7AE7     		b	.L29
 568              	.LVL85:
ARM GAS  /tmp/ccoetFCr.s 			page 11


 569              	.L25:
 570              		.loc 1 197 0
 571 022a 8DF80C20 		strb	r2, [sp, #12]
 572 022e 5846     		mov	r0, fp
 573 0230 0BF1FF38 		add	r8, fp, #-1
 574              		.loc 1 106 0
 575 0234 4F46     		mov	r7, r9
 576              		.loc 1 198 0
 577 0236 7FE7     		b	.L33
 578              	.LVL86:
 579              	.L74:
 580              		.loc 1 206 0 discriminator 1
 581 0238 302E     		cmp	r6, #48
 582 023a 88D1     		bne	.L42
 583              	.LVL87:
 584              		.loc 1 207 0
 585 023c DAF80030 		ldr	r3, [r10]
 586 0240 5046     		mov	r0, r10
 587              	.LVL88:
 588 0242 1B69     		ldr	r3, [r3, #16]
 589 0244 4FF0FF32 		mov	r2, #-1
 590 0248 9847     		blx	r3
 591              	.LVL89:
 592 024a 0137     		adds	r7, r7, #1
 593              	.LVL90:
 594 024c 08F1FF38 		add	r8, r8, #-1
 595              	.LVL91:
 596 0250 7DE7     		b	.L42
 597              	.LVL92:
 598              	.L75:
 599 0252 C01B     		subs	r0, r0, r7
 600 0254 00F1FF38 		add	r8, r0, #-1
 601              		.loc 1 158 0
 602 0258 2026     		movs	r6, #32
 603 025a 6DE7     		b	.L33
 604              	.LVL93:
 605              	.L54:
 606              		.loc 1 163 0
 607 025c 1046     		mov	r0, r2
 608 025e 4FF0FF38 		mov	r8, #-1
 609              		.loc 1 158 0
 610 0262 2026     		movs	r6, #32
 611 0264 68E7     		b	.L33
 612              		.cfi_endproc
 613              	.LFE8:
 614              		.size	chprintf, .-chprintf
 615 0266 00BFAFF3 		.section	.rodata.str1.4,"aMS",%progbits,1
 615      0080AFF3 
 615      0080
 616              		.align	2
 617              	.LC0:
 618 0000 286E756C 		.ascii	"(null)\000"
 618      6C2900
 619 0007 00       		.text
 620              	.Letext0:
 621              		.file 2 "/home/santi/arm-2013.11/lib/gcc/arm-none-eabi/4.8.1/include/stdarg.h"
 622              		.file 3 "/home/santi/arm-2013.11/lib/gcc/arm-none-eabi/4.8.1/include/stddef.h"
ARM GAS  /tmp/ccoetFCr.s 			page 12


 623              		.file 4 "/home/santi/arm-2013.11/arm-none-eabi/include/stdint.h"
 624              		.file 5 "../third_party/ChibiOS/os/ports/GCC/ARMCMx/chtypes.h"
 625              		.file 6 "<built-in>"
 626              		.file 7 "../third_party/ChibiOS/os/kernel/include/chioch.h"
 627              		.section	.debug_info,"",%progbits
 628              	.Ldebug_info0:
 629 0000 78040000 		.4byte	0x478
 630 0004 0400     		.2byte	0x4
 631 0006 00000000 		.4byte	.Ldebug_abbrev0
 632 000a 04       		.byte	0x4
 633 000b 01       		.uleb128 0x1
 634 000c 53010000 		.4byte	.LASF36
 635 0010 01       		.byte	0x1
 636 0011 4E000000 		.4byte	.LASF37
 637 0015 11000000 		.4byte	.LASF38
 638 0019 00000000 		.4byte	.Ldebug_ranges0+0
 639 001d 00000000 		.4byte	0
 640 0021 00000000 		.4byte	.Ldebug_line0
 641 0025 02       		.uleb128 0x2
 642 0026 F3000000 		.4byte	.LASF0
 643 002a 02       		.byte	0x2
 644 002b 28       		.byte	0x28
 645 002c 30000000 		.4byte	0x30
 646 0030 03       		.uleb128 0x3
 647 0031 22020000 		.4byte	.LASF20
 648 0035 04       		.byte	0x4
 649 0036 06       		.byte	0x6
 650 0037 00       		.byte	0
 651 0038 47000000 		.4byte	0x47
 652 003c 04       		.uleb128 0x4
 653 003d 3A010000 		.4byte	.LASF39
 654 0041 47000000 		.4byte	0x47
 655 0045 00       		.byte	0
 656 0046 00       		.byte	0
 657 0047 05       		.uleb128 0x5
 658 0048 04       		.byte	0x4
 659 0049 02       		.uleb128 0x2
 660 004a 8F000000 		.4byte	.LASF1
 661 004e 02       		.byte	0x2
 662 004f 62       		.byte	0x62
 663 0050 25000000 		.4byte	0x25
 664 0054 06       		.uleb128 0x6
 665 0055 04       		.byte	0x4
 666 0056 05       		.byte	0x5
 667 0057 696E7400 		.ascii	"int\000"
 668 005b 02       		.uleb128 0x2
 669 005c 00000000 		.4byte	.LASF2
 670 0060 03       		.byte	0x3
 671 0061 D4       		.byte	0xd4
 672 0062 66000000 		.4byte	0x66
 673 0066 07       		.uleb128 0x7
 674 0067 04       		.byte	0x4
 675 0068 07       		.byte	0x7
 676 0069 0E010000 		.4byte	.LASF3
 677 006d 07       		.uleb128 0x7
 678 006e 01       		.byte	0x1
 679 006f 06       		.byte	0x6
ARM GAS  /tmp/ccoetFCr.s 			page 13


 680 0070 80020000 		.4byte	.LASF4
 681 0074 02       		.uleb128 0x2
 682 0075 32010000 		.4byte	.LASF5
 683 0079 04       		.byte	0x4
 684 007a 2A       		.byte	0x2a
 685 007b 7F000000 		.4byte	0x7f
 686 007f 07       		.uleb128 0x7
 687 0080 01       		.byte	0x1
 688 0081 08       		.byte	0x8
 689 0082 97000000 		.4byte	.LASF6
 690 0086 07       		.uleb128 0x7
 691 0087 02       		.byte	0x2
 692 0088 05       		.byte	0x5
 693 0089 54020000 		.4byte	.LASF7
 694 008d 07       		.uleb128 0x7
 695 008e 02       		.byte	0x2
 696 008f 07       		.byte	0x7
 697 0090 BD000000 		.4byte	.LASF8
 698 0094 02       		.uleb128 0x2
 699 0095 0A020000 		.4byte	.LASF9
 700 0099 04       		.byte	0x4
 701 009a 4F       		.byte	0x4f
 702 009b 9F000000 		.4byte	0x9f
 703 009f 07       		.uleb128 0x7
 704 00a0 04       		.byte	0x4
 705 00a1 05       		.byte	0x5
 706 00a2 77020000 		.4byte	.LASF10
 707 00a6 02       		.uleb128 0x2
 708 00a7 6E020000 		.4byte	.LASF11
 709 00ab 04       		.byte	0x4
 710 00ac 50       		.byte	0x50
 711 00ad B1000000 		.4byte	0xb1
 712 00b1 07       		.uleb128 0x7
 713 00b2 04       		.byte	0x4
 714 00b3 07       		.byte	0x7
 715 00b4 AB000000 		.4byte	.LASF12
 716 00b8 07       		.uleb128 0x7
 717 00b9 08       		.byte	0x8
 718 00ba 05       		.byte	0x5
 719 00bb 2C020000 		.4byte	.LASF13
 720 00bf 07       		.uleb128 0x7
 721 00c0 08       		.byte	0x8
 722 00c1 07       		.byte	0x7
 723 00c2 1B010000 		.4byte	.LASF14
 724 00c6 02       		.uleb128 0x2
 725 00c7 81000000 		.4byte	.LASF15
 726 00cb 05       		.byte	0x5
 727 00cc 2E       		.byte	0x2e
 728 00cd 94000000 		.4byte	0x94
 729 00d1 02       		.uleb128 0x2
 730 00d2 4D010000 		.4byte	.LASF16
 731 00d6 05       		.byte	0x5
 732 00d7 33       		.byte	0x33
 733 00d8 94000000 		.4byte	0x94
 734 00dc 02       		.uleb128 0x2
 735 00dd 07000000 		.4byte	.LASF17
 736 00e1 05       		.byte	0x5
ARM GAS  /tmp/ccoetFCr.s 			page 14


 737 00e2 36       		.byte	0x36
 738 00e3 A6000000 		.4byte	0xa6
 739 00e7 07       		.uleb128 0x7
 740 00e8 04       		.byte	0x4
 741 00e9 07       		.byte	0x7
 742 00ea 12020000 		.4byte	.LASF18
 743 00ee 08       		.uleb128 0x8
 744 00ef 04       		.byte	0x4
 745 00f0 F4000000 		.4byte	0xf4
 746 00f4 09       		.uleb128 0x9
 747 00f5 F9000000 		.4byte	0xf9
 748 00f9 07       		.uleb128 0x7
 749 00fa 01       		.byte	0x1
 750 00fb 08       		.byte	0x8
 751 00fc 44020000 		.4byte	.LASF19
 752 0100 08       		.uleb128 0x8
 753 0101 04       		.byte	0x4
 754 0102 74000000 		.4byte	0x74
 755 0106 0A       		.uleb128 0xa
 756 0107 5B000000 		.4byte	0x5b
 757 010b 1F010000 		.4byte	0x11f
 758 010f 0B       		.uleb128 0xb
 759 0110 47000000 		.4byte	0x47
 760 0114 0B       		.uleb128 0xb
 761 0115 1F010000 		.4byte	0x11f
 762 0119 0B       		.uleb128 0xb
 763 011a 5B000000 		.4byte	0x5b
 764 011e 00       		.byte	0
 765 011f 08       		.uleb128 0x8
 766 0120 04       		.byte	0x4
 767 0121 25010000 		.4byte	0x125
 768 0125 09       		.uleb128 0x9
 769 0126 74000000 		.4byte	0x74
 770 012a 08       		.uleb128 0x8
 771 012b 04       		.byte	0x4
 772 012c 06010000 		.4byte	0x106
 773 0130 0A       		.uleb128 0xa
 774 0131 5B000000 		.4byte	0x5b
 775 0135 49010000 		.4byte	0x149
 776 0139 0B       		.uleb128 0xb
 777 013a 47000000 		.4byte	0x47
 778 013e 0B       		.uleb128 0xb
 779 013f 00010000 		.4byte	0x100
 780 0143 0B       		.uleb128 0xb
 781 0144 5B000000 		.4byte	0x5b
 782 0148 00       		.byte	0
 783 0149 08       		.uleb128 0x8
 784 014a 04       		.byte	0x4
 785 014b 30010000 		.4byte	0x130
 786 014f 03       		.uleb128 0x3
 787 0150 FB010000 		.4byte	.LASF21
 788 0154 20       		.byte	0x20
 789 0155 07       		.byte	0x7
 790 0156 51       		.byte	0x51
 791 0157 BC010000 		.4byte	0x1bc
 792 015b 0C       		.uleb128 0xc
 793 015c D0000000 		.4byte	.LASF22
ARM GAS  /tmp/ccoetFCr.s 			page 15


 794 0160 07       		.byte	0x7
 795 0161 52       		.byte	0x52
 796 0162 2A010000 		.4byte	0x12a
 797 0166 00       		.byte	0
 798 0167 0C       		.uleb128 0xc
 799 0168 02010000 		.4byte	.LASF23
 800 016c 07       		.byte	0x7
 801 016d 52       		.byte	0x52
 802 016e 49010000 		.4byte	0x149
 803 0172 04       		.byte	0x4
 804 0173 0C       		.uleb128 0xc
 805 0174 E5000000 		.4byte	.LASF24
 806 0178 07       		.byte	0x7
 807 0179 52       		.byte	0x52
 808 017a CB010000 		.4byte	0x1cb
 809 017e 08       		.byte	0x8
 810 017f 0C       		.uleb128 0xc
 811 0180 3F010000 		.4byte	.LASF25
 812 0184 07       		.byte	0x7
 813 0185 52       		.byte	0x52
 814 0186 CB010000 		.4byte	0x1cb
 815 018a 0C       		.byte	0xc
 816 018b 0D       		.uleb128 0xd
 817 018c 70757400 		.ascii	"put\000"
 818 0190 07       		.byte	0x7
 819 0191 52       		.byte	0x52
 820 0192 EA010000 		.4byte	0x1ea
 821 0196 10       		.byte	0x10
 822 0197 0D       		.uleb128 0xd
 823 0198 67657400 		.ascii	"get\000"
 824 019c 07       		.byte	0x7
 825 019d 52       		.byte	0x52
 826 019e 04020000 		.4byte	0x204
 827 01a2 14       		.byte	0x14
 828 01a3 0C       		.uleb128 0xc
 829 01a4 88000000 		.4byte	.LASF26
 830 01a8 07       		.byte	0x7
 831 01a9 52       		.byte	0x52
 832 01aa 28020000 		.4byte	0x228
 833 01ae 18       		.byte	0x18
 834 01af 0C       		.uleb128 0xc
 835 01b0 A5000000 		.4byte	.LASF27
 836 01b4 07       		.byte	0x7
 837 01b5 52       		.byte	0x52
 838 01b6 4C020000 		.4byte	0x24c
 839 01ba 1C       		.byte	0x1c
 840 01bb 00       		.byte	0
 841 01bc 0A       		.uleb128 0xa
 842 01bd C6000000 		.4byte	0xc6
 843 01c1 CB010000 		.4byte	0x1cb
 844 01c5 0B       		.uleb128 0xb
 845 01c6 47000000 		.4byte	0x47
 846 01ca 00       		.byte	0
 847 01cb 08       		.uleb128 0x8
 848 01cc 04       		.byte	0x4
 849 01cd BC010000 		.4byte	0x1bc
 850 01d1 0A       		.uleb128 0xa
ARM GAS  /tmp/ccoetFCr.s 			page 16


 851 01d2 D1000000 		.4byte	0xd1
 852 01d6 EA010000 		.4byte	0x1ea
 853 01da 0B       		.uleb128 0xb
 854 01db 47000000 		.4byte	0x47
 855 01df 0B       		.uleb128 0xb
 856 01e0 74000000 		.4byte	0x74
 857 01e4 0B       		.uleb128 0xb
 858 01e5 DC000000 		.4byte	0xdc
 859 01e9 00       		.byte	0
 860 01ea 08       		.uleb128 0x8
 861 01eb 04       		.byte	0x4
 862 01ec D1010000 		.4byte	0x1d1
 863 01f0 0A       		.uleb128 0xa
 864 01f1 D1000000 		.4byte	0xd1
 865 01f5 04020000 		.4byte	0x204
 866 01f9 0B       		.uleb128 0xb
 867 01fa 47000000 		.4byte	0x47
 868 01fe 0B       		.uleb128 0xb
 869 01ff DC000000 		.4byte	0xdc
 870 0203 00       		.byte	0
 871 0204 08       		.uleb128 0x8
 872 0205 04       		.byte	0x4
 873 0206 F0010000 		.4byte	0x1f0
 874 020a 0A       		.uleb128 0xa
 875 020b 5B000000 		.4byte	0x5b
 876 020f 28020000 		.4byte	0x228
 877 0213 0B       		.uleb128 0xb
 878 0214 47000000 		.4byte	0x47
 879 0218 0B       		.uleb128 0xb
 880 0219 1F010000 		.4byte	0x11f
 881 021d 0B       		.uleb128 0xb
 882 021e 5B000000 		.4byte	0x5b
 883 0222 0B       		.uleb128 0xb
 884 0223 DC000000 		.4byte	0xdc
 885 0227 00       		.byte	0
 886 0228 08       		.uleb128 0x8
 887 0229 04       		.byte	0x4
 888 022a 0A020000 		.4byte	0x20a
 889 022e 0A       		.uleb128 0xa
 890 022f 5B000000 		.4byte	0x5b
 891 0233 4C020000 		.4byte	0x24c
 892 0237 0B       		.uleb128 0xb
 893 0238 47000000 		.4byte	0x47
 894 023c 0B       		.uleb128 0xb
 895 023d 00010000 		.4byte	0x100
 896 0241 0B       		.uleb128 0xb
 897 0242 5B000000 		.4byte	0x5b
 898 0246 0B       		.uleb128 0xb
 899 0247 DC000000 		.4byte	0xdc
 900 024b 00       		.byte	0
 901 024c 08       		.uleb128 0x8
 902 024d 04       		.byte	0x4
 903 024e 2E020000 		.4byte	0x22e
 904 0252 0E       		.uleb128 0xe
 905 0253 04       		.byte	0x4
 906 0254 07       		.byte	0x7
 907 0255 5C       		.byte	0x5c
ARM GAS  /tmp/ccoetFCr.s 			page 17


 908 0256 67020000 		.4byte	0x267
 909 025a 0D       		.uleb128 0xd
 910 025b 766D7400 		.ascii	"vmt\000"
 911 025f 07       		.byte	0x7
 912 0260 5E       		.byte	0x5e
 913 0261 67020000 		.4byte	0x267
 914 0265 00       		.byte	0
 915 0266 00       		.byte	0
 916 0267 08       		.uleb128 0x8
 917 0268 04       		.byte	0x4
 918 0269 6D020000 		.4byte	0x26d
 919 026d 09       		.uleb128 0x9
 920 026e 4F010000 		.4byte	0x14f
 921 0272 02       		.uleb128 0x2
 922 0273 91020000 		.4byte	.LASF28
 923 0277 07       		.byte	0x7
 924 0278 60       		.byte	0x60
 925 0279 52020000 		.4byte	0x252
 926 027d 0F       		.uleb128 0xf
 927 027e 8C020000 		.4byte	.LASF40
 928 0282 01       		.byte	0x1
 929 0283 2A       		.byte	0x2a
 930 0284 DC020000 		.4byte	0x2dc
 931 0288 00000000 		.4byte	.LFB7
 932 028c 44000000 		.4byte	.LFE7-.LFB7
 933 0290 01       		.uleb128 0x1
 934 0291 9C       		.byte	0x9c
 935 0292 DC020000 		.4byte	0x2dc
 936 0296 10       		.uleb128 0x10
 937 0297 7000     		.ascii	"p\000"
 938 0299 01       		.byte	0x1
 939 029a 2A       		.byte	0x2a
 940 029b DC020000 		.4byte	0x2dc
 941 029f 00000000 		.4byte	.LLST0
 942 02a3 10       		.uleb128 0x10
 943 02a4 6E756D00 		.ascii	"num\000"
 944 02a8 01       		.byte	0x1
 945 02a9 2A       		.byte	0x2a
 946 02aa 9F000000 		.4byte	0x9f
 947 02ae 38000000 		.4byte	.LLST1
 948 02b2 11       		.uleb128 0x11
 949 02b3 7B000000 		.4byte	.LASF29
 950 02b7 01       		.byte	0x1
 951 02b8 2A       		.byte	0x2a
 952 02b9 66000000 		.4byte	0x66
 953 02bd 56000000 		.4byte	.LLST2
 954 02c1 12       		.uleb128 0x12
 955 02c2 6900     		.ascii	"i\000"
 956 02c4 01       		.byte	0x1
 957 02c5 2B       		.byte	0x2b
 958 02c6 54000000 		.4byte	0x54
 959 02ca 77000000 		.4byte	.LLST3
 960 02ce 12       		.uleb128 0x12
 961 02cf 7100     		.ascii	"q\000"
 962 02d1 01       		.byte	0x1
 963 02d2 2C       		.byte	0x2c
 964 02d3 DC020000 		.4byte	0x2dc
ARM GAS  /tmp/ccoetFCr.s 			page 18


 965 02d7 A5000000 		.4byte	.LLST4
 966 02db 00       		.byte	0
 967 02dc 08       		.uleb128 0x8
 968 02dd 04       		.byte	0x4
 969 02de F9000000 		.4byte	0xf9
 970 02e2 13       		.uleb128 0x13
 971 02e3 DC000000 		.4byte	.LASF41
 972 02e7 01       		.byte	0x1
 973 02e8 56       		.byte	0x56
 974 02e9 00000000 		.4byte	.LFB8
 975 02ed 66020000 		.4byte	.LFE8-.LFB8
 976 02f1 01       		.uleb128 0x1
 977 02f2 9C       		.byte	0x9c
 978 02f3 69040000 		.4byte	0x469
 979 02f7 10       		.uleb128 0x10
 980 02f8 63687000 		.ascii	"chp\000"
 981 02fc 01       		.byte	0x1
 982 02fd 56       		.byte	0x56
 983 02fe 69040000 		.4byte	0x469
 984 0302 DB000000 		.4byte	.LLST5
 985 0306 10       		.uleb128 0x10
 986 0307 666D7400 		.ascii	"fmt\000"
 987 030b 01       		.byte	0x1
 988 030c 56       		.byte	0x56
 989 030d EE000000 		.4byte	0xee
 990 0311 12010000 		.4byte	.LLST6
 991 0315 14       		.uleb128 0x14
 992 0316 15       		.uleb128 0x15
 993 0317 617000   		.ascii	"ap\000"
 994 031a 01       		.byte	0x1
 995 031b 57       		.byte	0x57
 996 031c 49000000 		.4byte	0x49
 997 0320 02       		.uleb128 0x2
 998 0321 91       		.byte	0x91
 999 0322 40       		.sleb128 -64
 1000 0323 16       		.uleb128 0x16
 1001 0324 1B020000 		.4byte	.LASF30
 1002 0328 01       		.byte	0x1
 1003 0329 58       		.byte	0x58
 1004 032a 6F040000 		.4byte	0x46f
 1005 032e 02       		.uleb128 0x2
 1006 032f 91       		.byte	0x91
 1007 0330 44       		.sleb128 -60
 1008 0331 12       		.uleb128 0x12
 1009 0332 7000     		.ascii	"p\000"
 1010 0334 01       		.byte	0x1
 1011 0335 59       		.byte	0x59
 1012 0336 DC020000 		.4byte	0x2dc
 1013 033a A5010000 		.4byte	.LLST7
 1014 033e 12       		.uleb128 0x12
 1015 033f 7300     		.ascii	"s\000"
 1016 0341 01       		.byte	0x1
 1017 0342 59       		.byte	0x59
 1018 0343 DC020000 		.4byte	0x2dc
 1019 0347 5C020000 		.4byte	.LLST8
 1020 034b 12       		.uleb128 0x12
 1021 034c 6300     		.ascii	"c\000"
ARM GAS  /tmp/ccoetFCr.s 			page 19


 1022 034e 01       		.byte	0x1
 1023 034f 59       		.byte	0x59
 1024 0350 F9000000 		.4byte	0xf9
 1025 0354 EF020000 		.4byte	.LLST9
 1026 0358 17       		.uleb128 0x17
 1027 0359 07010000 		.4byte	.LASF31
 1028 035d 01       		.byte	0x1
 1029 035e 59       		.byte	0x59
 1030 035f F9000000 		.4byte	0xf9
 1031 0363 DE030000 		.4byte	.LLST10
 1032 0367 12       		.uleb128 0x12
 1033 0368 6900     		.ascii	"i\000"
 1034 036a 01       		.byte	0x1
 1035 036b 5A       		.byte	0x5a
 1036 036c 54000000 		.4byte	0x54
 1037 0370 23040000 		.4byte	.LLST11
 1038 0374 17       		.uleb128 0x17
 1039 0375 3A020000 		.4byte	.LASF32
 1040 0379 01       		.byte	0x1
 1041 037a 5A       		.byte	0x5a
 1042 037b 54000000 		.4byte	0x54
 1043 037f 59040000 		.4byte	.LLST12
 1044 0383 17       		.uleb128 0x17
 1045 0384 D6000000 		.4byte	.LASF33
 1046 0388 01       		.byte	0x1
 1047 0389 5A       		.byte	0x5a
 1048 038a 54000000 		.4byte	0x54
 1049 038e 7C040000 		.4byte	.LLST13
 1050 0392 17       		.uleb128 0x17
 1051 0393 46000000 		.4byte	.LASF34
 1052 0397 01       		.byte	0x1
 1053 0398 5B       		.byte	0x5b
 1054 0399 C6000000 		.4byte	0xc6
 1055 039d E1040000 		.4byte	.LLST14
 1056 03a1 17       		.uleb128 0x17
 1057 03a2 49020000 		.4byte	.LASF35
 1058 03a6 01       		.byte	0x1
 1059 03a7 5B       		.byte	0x5b
 1060 03a8 C6000000 		.4byte	0xc6
 1061 03ac F5040000 		.4byte	.LLST15
 1062 03b0 12       		.uleb128 0x12
 1063 03b1 6C00     		.ascii	"l\000"
 1064 03b3 01       		.byte	0x1
 1065 03b4 5C       		.byte	0x5c
 1066 03b5 9F000000 		.4byte	0x9f
 1067 03b9 41050000 		.4byte	.LLST16
 1068 03bd 18       		.uleb128 0x18
 1069 03be 5E020000 		.4byte	.LASF42
 1070 03c2 01       		.byte	0x1
 1071 03c3 BD       		.byte	0xbd
 1072 03c4 20010000 		.4byte	.L29
 1073 03c8 19       		.uleb128 0x19
 1074 03c9 46000000 		.4byte	.LVL21
 1075 03cd 02       		.uleb128 0x2
 1076 03ce 75       		.byte	0x75
 1077 03cf 00       		.sleb128 0
 1078 03d0 E1030000 		.4byte	0x3e1
ARM GAS  /tmp/ccoetFCr.s 			page 20


 1079 03d4 1A       		.uleb128 0x1a
 1080 03d5 01       		.uleb128 0x1
 1081 03d6 52       		.byte	0x52
 1082 03d7 02       		.uleb128 0x2
 1083 03d8 09       		.byte	0x9
 1084 03d9 FF       		.byte	0xff
 1085 03da 1A       		.uleb128 0x1a
 1086 03db 01       		.uleb128 0x1
 1087 03dc 50       		.byte	0x50
 1088 03dd 02       		.uleb128 0x2
 1089 03de 7A       		.byte	0x7a
 1090 03df 00       		.sleb128 0
 1091 03e0 00       		.byte	0
 1092 03e1 1B       		.uleb128 0x1b
 1093 03e2 2E010000 		.4byte	.LVL49
 1094 03e6 7D020000 		.4byte	0x27d
 1095 03ea F5030000 		.4byte	0x3f5
 1096 03ee 1A       		.uleb128 0x1a
 1097 03ef 01       		.uleb128 0x1
 1098 03f0 50       		.byte	0x50
 1099 03f1 02       		.uleb128 0x2
 1100 03f2 79       		.byte	0x79
 1101 03f3 00       		.sleb128 0
 1102 03f4 00       		.byte	0
 1103 03f5 1C       		.uleb128 0x1c
 1104 03f6 5E010000 		.4byte	.LVL56
 1105 03fa 11040000 		.4byte	0x411
 1106 03fe 1A       		.uleb128 0x1a
 1107 03ff 01       		.uleb128 0x1
 1108 0400 52       		.byte	0x52
 1109 0401 02       		.uleb128 0x2
 1110 0402 09       		.byte	0x9
 1111 0403 FF       		.byte	0xff
 1112 0404 1A       		.uleb128 0x1a
 1113 0405 01       		.uleb128 0x1
 1114 0406 51       		.byte	0x51
 1115 0407 02       		.uleb128 0x2
 1116 0408 76       		.byte	0x76
 1117 0409 00       		.sleb128 0
 1118 040a 1A       		.uleb128 0x1a
 1119 040b 01       		.uleb128 0x1
 1120 040c 50       		.byte	0x50
 1121 040d 02       		.uleb128 0x2
 1122 040e 7A       		.byte	0x7a
 1123 040f 00       		.sleb128 0
 1124 0410 00       		.byte	0
 1125 0411 1C       		.uleb128 0x1c
 1126 0412 82010000 		.4byte	.LVL60
 1127 0416 27040000 		.4byte	0x427
 1128 041a 1A       		.uleb128 0x1a
 1129 041b 01       		.uleb128 0x1
 1130 041c 52       		.byte	0x52
 1131 041d 02       		.uleb128 0x2
 1132 041e 09       		.byte	0x9
 1133 041f FF       		.byte	0xff
 1134 0420 1A       		.uleb128 0x1a
 1135 0421 01       		.uleb128 0x1
ARM GAS  /tmp/ccoetFCr.s 			page 21


 1136 0422 50       		.byte	0x50
 1137 0423 02       		.uleb128 0x2
 1138 0424 7A       		.byte	0x7a
 1139 0425 00       		.sleb128 0
 1140 0426 00       		.byte	0
 1141 0427 1C       		.uleb128 0x1c
 1142 0428 9C010000 		.4byte	.LVL62
 1143 042c 43040000 		.4byte	0x443
 1144 0430 1A       		.uleb128 0x1a
 1145 0431 01       		.uleb128 0x1
 1146 0432 52       		.byte	0x52
 1147 0433 02       		.uleb128 0x2
 1148 0434 09       		.byte	0x9
 1149 0435 FF       		.byte	0xff
 1150 0436 1A       		.uleb128 0x1a
 1151 0437 01       		.uleb128 0x1
 1152 0438 51       		.byte	0x51
 1153 0439 02       		.uleb128 0x2
 1154 043a 76       		.byte	0x76
 1155 043b 00       		.sleb128 0
 1156 043c 1A       		.uleb128 0x1a
 1157 043d 01       		.uleb128 0x1
 1158 043e 50       		.byte	0x50
 1159 043f 02       		.uleb128 0x2
 1160 0440 7A       		.byte	0x7a
 1161 0441 00       		.sleb128 0
 1162 0442 00       		.byte	0
 1163 0443 1B       		.uleb128 0x1b
 1164 0444 C8010000 		.4byte	.LVL71
 1165 0448 7D020000 		.4byte	0x27d
 1166 044c 56040000 		.4byte	0x456
 1167 0450 1A       		.uleb128 0x1a
 1168 0451 01       		.uleb128 0x1
 1169 0452 52       		.byte	0x52
 1170 0453 01       		.uleb128 0x1
 1171 0454 3A       		.byte	0x3a
 1172 0455 00       		.byte	0
 1173 0456 1D       		.uleb128 0x1d
 1174 0457 4A020000 		.4byte	.LVL89
 1175 045b 1A       		.uleb128 0x1a
 1176 045c 01       		.uleb128 0x1
 1177 045d 52       		.byte	0x52
 1178 045e 02       		.uleb128 0x2
 1179 045f 09       		.byte	0x9
 1180 0460 FF       		.byte	0xff
 1181 0461 1A       		.uleb128 0x1a
 1182 0462 01       		.uleb128 0x1
 1183 0463 50       		.byte	0x50
 1184 0464 02       		.uleb128 0x2
 1185 0465 7A       		.byte	0x7a
 1186 0466 00       		.sleb128 0
 1187 0467 00       		.byte	0
 1188 0468 00       		.byte	0
 1189 0469 08       		.uleb128 0x8
 1190 046a 04       		.byte	0x4
 1191 046b 72020000 		.4byte	0x272
 1192 046f 1E       		.uleb128 0x1e
ARM GAS  /tmp/ccoetFCr.s 			page 22


 1193 0470 F9000000 		.4byte	0xf9
 1194 0474 1F       		.uleb128 0x1f
 1195 0475 E7000000 		.4byte	0xe7
 1196 0479 0B       		.byte	0xb
 1197 047a 00       		.byte	0
 1198 047b 00       		.byte	0
 1199              		.section	.debug_abbrev,"",%progbits
 1200              	.Ldebug_abbrev0:
 1201 0000 01       		.uleb128 0x1
 1202 0001 11       		.uleb128 0x11
 1203 0002 01       		.byte	0x1
 1204 0003 25       		.uleb128 0x25
 1205 0004 0E       		.uleb128 0xe
 1206 0005 13       		.uleb128 0x13
 1207 0006 0B       		.uleb128 0xb
 1208 0007 03       		.uleb128 0x3
 1209 0008 0E       		.uleb128 0xe
 1210 0009 1B       		.uleb128 0x1b
 1211 000a 0E       		.uleb128 0xe
 1212 000b 55       		.uleb128 0x55
 1213 000c 17       		.uleb128 0x17
 1214 000d 11       		.uleb128 0x11
 1215 000e 01       		.uleb128 0x1
 1216 000f 10       		.uleb128 0x10
 1217 0010 17       		.uleb128 0x17
 1218 0011 00       		.byte	0
 1219 0012 00       		.byte	0
 1220 0013 02       		.uleb128 0x2
 1221 0014 16       		.uleb128 0x16
 1222 0015 00       		.byte	0
 1223 0016 03       		.uleb128 0x3
 1224 0017 0E       		.uleb128 0xe
 1225 0018 3A       		.uleb128 0x3a
 1226 0019 0B       		.uleb128 0xb
 1227 001a 3B       		.uleb128 0x3b
 1228 001b 0B       		.uleb128 0xb
 1229 001c 49       		.uleb128 0x49
 1230 001d 13       		.uleb128 0x13
 1231 001e 00       		.byte	0
 1232 001f 00       		.byte	0
 1233 0020 03       		.uleb128 0x3
 1234 0021 13       		.uleb128 0x13
 1235 0022 01       		.byte	0x1
 1236 0023 03       		.uleb128 0x3
 1237 0024 0E       		.uleb128 0xe
 1238 0025 0B       		.uleb128 0xb
 1239 0026 0B       		.uleb128 0xb
 1240 0027 3A       		.uleb128 0x3a
 1241 0028 0B       		.uleb128 0xb
 1242 0029 3B       		.uleb128 0x3b
 1243 002a 0B       		.uleb128 0xb
 1244 002b 01       		.uleb128 0x1
 1245 002c 13       		.uleb128 0x13
 1246 002d 00       		.byte	0
 1247 002e 00       		.byte	0
 1248 002f 04       		.uleb128 0x4
 1249 0030 0D       		.uleb128 0xd
ARM GAS  /tmp/ccoetFCr.s 			page 23


 1250 0031 00       		.byte	0
 1251 0032 03       		.uleb128 0x3
 1252 0033 0E       		.uleb128 0xe
 1253 0034 49       		.uleb128 0x49
 1254 0035 13       		.uleb128 0x13
 1255 0036 38       		.uleb128 0x38
 1256 0037 0B       		.uleb128 0xb
 1257 0038 34       		.uleb128 0x34
 1258 0039 19       		.uleb128 0x19
 1259 003a 00       		.byte	0
 1260 003b 00       		.byte	0
 1261 003c 05       		.uleb128 0x5
 1262 003d 0F       		.uleb128 0xf
 1263 003e 00       		.byte	0
 1264 003f 0B       		.uleb128 0xb
 1265 0040 0B       		.uleb128 0xb
 1266 0041 00       		.byte	0
 1267 0042 00       		.byte	0
 1268 0043 06       		.uleb128 0x6
 1269 0044 24       		.uleb128 0x24
 1270 0045 00       		.byte	0
 1271 0046 0B       		.uleb128 0xb
 1272 0047 0B       		.uleb128 0xb
 1273 0048 3E       		.uleb128 0x3e
 1274 0049 0B       		.uleb128 0xb
 1275 004a 03       		.uleb128 0x3
 1276 004b 08       		.uleb128 0x8
 1277 004c 00       		.byte	0
 1278 004d 00       		.byte	0
 1279 004e 07       		.uleb128 0x7
 1280 004f 24       		.uleb128 0x24
 1281 0050 00       		.byte	0
 1282 0051 0B       		.uleb128 0xb
 1283 0052 0B       		.uleb128 0xb
 1284 0053 3E       		.uleb128 0x3e
 1285 0054 0B       		.uleb128 0xb
 1286 0055 03       		.uleb128 0x3
 1287 0056 0E       		.uleb128 0xe
 1288 0057 00       		.byte	0
 1289 0058 00       		.byte	0
 1290 0059 08       		.uleb128 0x8
 1291 005a 0F       		.uleb128 0xf
 1292 005b 00       		.byte	0
 1293 005c 0B       		.uleb128 0xb
 1294 005d 0B       		.uleb128 0xb
 1295 005e 49       		.uleb128 0x49
 1296 005f 13       		.uleb128 0x13
 1297 0060 00       		.byte	0
 1298 0061 00       		.byte	0
 1299 0062 09       		.uleb128 0x9
 1300 0063 26       		.uleb128 0x26
 1301 0064 00       		.byte	0
 1302 0065 49       		.uleb128 0x49
 1303 0066 13       		.uleb128 0x13
 1304 0067 00       		.byte	0
 1305 0068 00       		.byte	0
 1306 0069 0A       		.uleb128 0xa
ARM GAS  /tmp/ccoetFCr.s 			page 24


 1307 006a 15       		.uleb128 0x15
 1308 006b 01       		.byte	0x1
 1309 006c 27       		.uleb128 0x27
 1310 006d 19       		.uleb128 0x19
 1311 006e 49       		.uleb128 0x49
 1312 006f 13       		.uleb128 0x13
 1313 0070 01       		.uleb128 0x1
 1314 0071 13       		.uleb128 0x13
 1315 0072 00       		.byte	0
 1316 0073 00       		.byte	0
 1317 0074 0B       		.uleb128 0xb
 1318 0075 05       		.uleb128 0x5
 1319 0076 00       		.byte	0
 1320 0077 49       		.uleb128 0x49
 1321 0078 13       		.uleb128 0x13
 1322 0079 00       		.byte	0
 1323 007a 00       		.byte	0
 1324 007b 0C       		.uleb128 0xc
 1325 007c 0D       		.uleb128 0xd
 1326 007d 00       		.byte	0
 1327 007e 03       		.uleb128 0x3
 1328 007f 0E       		.uleb128 0xe
 1329 0080 3A       		.uleb128 0x3a
 1330 0081 0B       		.uleb128 0xb
 1331 0082 3B       		.uleb128 0x3b
 1332 0083 0B       		.uleb128 0xb
 1333 0084 49       		.uleb128 0x49
 1334 0085 13       		.uleb128 0x13
 1335 0086 38       		.uleb128 0x38
 1336 0087 0B       		.uleb128 0xb
 1337 0088 00       		.byte	0
 1338 0089 00       		.byte	0
 1339 008a 0D       		.uleb128 0xd
 1340 008b 0D       		.uleb128 0xd
 1341 008c 00       		.byte	0
 1342 008d 03       		.uleb128 0x3
 1343 008e 08       		.uleb128 0x8
 1344 008f 3A       		.uleb128 0x3a
 1345 0090 0B       		.uleb128 0xb
 1346 0091 3B       		.uleb128 0x3b
 1347 0092 0B       		.uleb128 0xb
 1348 0093 49       		.uleb128 0x49
 1349 0094 13       		.uleb128 0x13
 1350 0095 38       		.uleb128 0x38
 1351 0096 0B       		.uleb128 0xb
 1352 0097 00       		.byte	0
 1353 0098 00       		.byte	0
 1354 0099 0E       		.uleb128 0xe
 1355 009a 13       		.uleb128 0x13
 1356 009b 01       		.byte	0x1
 1357 009c 0B       		.uleb128 0xb
 1358 009d 0B       		.uleb128 0xb
 1359 009e 3A       		.uleb128 0x3a
 1360 009f 0B       		.uleb128 0xb
 1361 00a0 3B       		.uleb128 0x3b
 1362 00a1 0B       		.uleb128 0xb
 1363 00a2 01       		.uleb128 0x1
ARM GAS  /tmp/ccoetFCr.s 			page 25


 1364 00a3 13       		.uleb128 0x13
 1365 00a4 00       		.byte	0
 1366 00a5 00       		.byte	0
 1367 00a6 0F       		.uleb128 0xf
 1368 00a7 2E       		.uleb128 0x2e
 1369 00a8 01       		.byte	0x1
 1370 00a9 03       		.uleb128 0x3
 1371 00aa 0E       		.uleb128 0xe
 1372 00ab 3A       		.uleb128 0x3a
 1373 00ac 0B       		.uleb128 0xb
 1374 00ad 3B       		.uleb128 0x3b
 1375 00ae 0B       		.uleb128 0xb
 1376 00af 27       		.uleb128 0x27
 1377 00b0 19       		.uleb128 0x19
 1378 00b1 49       		.uleb128 0x49
 1379 00b2 13       		.uleb128 0x13
 1380 00b3 11       		.uleb128 0x11
 1381 00b4 01       		.uleb128 0x1
 1382 00b5 12       		.uleb128 0x12
 1383 00b6 06       		.uleb128 0x6
 1384 00b7 40       		.uleb128 0x40
 1385 00b8 18       		.uleb128 0x18
 1386 00b9 9742     		.uleb128 0x2117
 1387 00bb 19       		.uleb128 0x19
 1388 00bc 01       		.uleb128 0x1
 1389 00bd 13       		.uleb128 0x13
 1390 00be 00       		.byte	0
 1391 00bf 00       		.byte	0
 1392 00c0 10       		.uleb128 0x10
 1393 00c1 05       		.uleb128 0x5
 1394 00c2 00       		.byte	0
 1395 00c3 03       		.uleb128 0x3
 1396 00c4 08       		.uleb128 0x8
 1397 00c5 3A       		.uleb128 0x3a
 1398 00c6 0B       		.uleb128 0xb
 1399 00c7 3B       		.uleb128 0x3b
 1400 00c8 0B       		.uleb128 0xb
 1401 00c9 49       		.uleb128 0x49
 1402 00ca 13       		.uleb128 0x13
 1403 00cb 02       		.uleb128 0x2
 1404 00cc 17       		.uleb128 0x17
 1405 00cd 00       		.byte	0
 1406 00ce 00       		.byte	0
 1407 00cf 11       		.uleb128 0x11
 1408 00d0 05       		.uleb128 0x5
 1409 00d1 00       		.byte	0
 1410 00d2 03       		.uleb128 0x3
 1411 00d3 0E       		.uleb128 0xe
 1412 00d4 3A       		.uleb128 0x3a
 1413 00d5 0B       		.uleb128 0xb
 1414 00d6 3B       		.uleb128 0x3b
 1415 00d7 0B       		.uleb128 0xb
 1416 00d8 49       		.uleb128 0x49
 1417 00d9 13       		.uleb128 0x13
 1418 00da 02       		.uleb128 0x2
 1419 00db 17       		.uleb128 0x17
 1420 00dc 00       		.byte	0
ARM GAS  /tmp/ccoetFCr.s 			page 26


 1421 00dd 00       		.byte	0
 1422 00de 12       		.uleb128 0x12
 1423 00df 34       		.uleb128 0x34
 1424 00e0 00       		.byte	0
 1425 00e1 03       		.uleb128 0x3
 1426 00e2 08       		.uleb128 0x8
 1427 00e3 3A       		.uleb128 0x3a
 1428 00e4 0B       		.uleb128 0xb
 1429 00e5 3B       		.uleb128 0x3b
 1430 00e6 0B       		.uleb128 0xb
 1431 00e7 49       		.uleb128 0x49
 1432 00e8 13       		.uleb128 0x13
 1433 00e9 02       		.uleb128 0x2
 1434 00ea 17       		.uleb128 0x17
 1435 00eb 00       		.byte	0
 1436 00ec 00       		.byte	0
 1437 00ed 13       		.uleb128 0x13
 1438 00ee 2E       		.uleb128 0x2e
 1439 00ef 01       		.byte	0x1
 1440 00f0 3F       		.uleb128 0x3f
 1441 00f1 19       		.uleb128 0x19
 1442 00f2 03       		.uleb128 0x3
 1443 00f3 0E       		.uleb128 0xe
 1444 00f4 3A       		.uleb128 0x3a
 1445 00f5 0B       		.uleb128 0xb
 1446 00f6 3B       		.uleb128 0x3b
 1447 00f7 0B       		.uleb128 0xb
 1448 00f8 27       		.uleb128 0x27
 1449 00f9 19       		.uleb128 0x19
 1450 00fa 11       		.uleb128 0x11
 1451 00fb 01       		.uleb128 0x1
 1452 00fc 12       		.uleb128 0x12
 1453 00fd 06       		.uleb128 0x6
 1454 00fe 40       		.uleb128 0x40
 1455 00ff 18       		.uleb128 0x18
 1456 0100 9742     		.uleb128 0x2117
 1457 0102 19       		.uleb128 0x19
 1458 0103 01       		.uleb128 0x1
 1459 0104 13       		.uleb128 0x13
 1460 0105 00       		.byte	0
 1461 0106 00       		.byte	0
 1462 0107 14       		.uleb128 0x14
 1463 0108 18       		.uleb128 0x18
 1464 0109 00       		.byte	0
 1465 010a 00       		.byte	0
 1466 010b 00       		.byte	0
 1467 010c 15       		.uleb128 0x15
 1468 010d 34       		.uleb128 0x34
 1469 010e 00       		.byte	0
 1470 010f 03       		.uleb128 0x3
 1471 0110 08       		.uleb128 0x8
 1472 0111 3A       		.uleb128 0x3a
 1473 0112 0B       		.uleb128 0xb
 1474 0113 3B       		.uleb128 0x3b
 1475 0114 0B       		.uleb128 0xb
 1476 0115 49       		.uleb128 0x49
 1477 0116 13       		.uleb128 0x13
ARM GAS  /tmp/ccoetFCr.s 			page 27


 1478 0117 02       		.uleb128 0x2
 1479 0118 18       		.uleb128 0x18
 1480 0119 00       		.byte	0
 1481 011a 00       		.byte	0
 1482 011b 16       		.uleb128 0x16
 1483 011c 34       		.uleb128 0x34
 1484 011d 00       		.byte	0
 1485 011e 03       		.uleb128 0x3
 1486 011f 0E       		.uleb128 0xe
 1487 0120 3A       		.uleb128 0x3a
 1488 0121 0B       		.uleb128 0xb
 1489 0122 3B       		.uleb128 0x3b
 1490 0123 0B       		.uleb128 0xb
 1491 0124 49       		.uleb128 0x49
 1492 0125 13       		.uleb128 0x13
 1493 0126 02       		.uleb128 0x2
 1494 0127 18       		.uleb128 0x18
 1495 0128 00       		.byte	0
 1496 0129 00       		.byte	0
 1497 012a 17       		.uleb128 0x17
 1498 012b 34       		.uleb128 0x34
 1499 012c 00       		.byte	0
 1500 012d 03       		.uleb128 0x3
 1501 012e 0E       		.uleb128 0xe
 1502 012f 3A       		.uleb128 0x3a
 1503 0130 0B       		.uleb128 0xb
 1504 0131 3B       		.uleb128 0x3b
 1505 0132 0B       		.uleb128 0xb
 1506 0133 49       		.uleb128 0x49
 1507 0134 13       		.uleb128 0x13
 1508 0135 02       		.uleb128 0x2
 1509 0136 17       		.uleb128 0x17
 1510 0137 00       		.byte	0
 1511 0138 00       		.byte	0
 1512 0139 18       		.uleb128 0x18
 1513 013a 0A       		.uleb128 0xa
 1514 013b 00       		.byte	0
 1515 013c 03       		.uleb128 0x3
 1516 013d 0E       		.uleb128 0xe
 1517 013e 3A       		.uleb128 0x3a
 1518 013f 0B       		.uleb128 0xb
 1519 0140 3B       		.uleb128 0x3b
 1520 0141 0B       		.uleb128 0xb
 1521 0142 11       		.uleb128 0x11
 1522 0143 01       		.uleb128 0x1
 1523 0144 00       		.byte	0
 1524 0145 00       		.byte	0
 1525 0146 19       		.uleb128 0x19
 1526 0147 898201   		.uleb128 0x4109
 1527 014a 01       		.byte	0x1
 1528 014b 11       		.uleb128 0x11
 1529 014c 01       		.uleb128 0x1
 1530 014d 9342     		.uleb128 0x2113
 1531 014f 18       		.uleb128 0x18
 1532 0150 01       		.uleb128 0x1
 1533 0151 13       		.uleb128 0x13
 1534 0152 00       		.byte	0
ARM GAS  /tmp/ccoetFCr.s 			page 28


 1535 0153 00       		.byte	0
 1536 0154 1A       		.uleb128 0x1a
 1537 0155 8A8201   		.uleb128 0x410a
 1538 0158 00       		.byte	0
 1539 0159 02       		.uleb128 0x2
 1540 015a 18       		.uleb128 0x18
 1541 015b 9142     		.uleb128 0x2111
 1542 015d 18       		.uleb128 0x18
 1543 015e 00       		.byte	0
 1544 015f 00       		.byte	0
 1545 0160 1B       		.uleb128 0x1b
 1546 0161 898201   		.uleb128 0x4109
 1547 0164 01       		.byte	0x1
 1548 0165 11       		.uleb128 0x11
 1549 0166 01       		.uleb128 0x1
 1550 0167 31       		.uleb128 0x31
 1551 0168 13       		.uleb128 0x13
 1552 0169 01       		.uleb128 0x1
 1553 016a 13       		.uleb128 0x13
 1554 016b 00       		.byte	0
 1555 016c 00       		.byte	0
 1556 016d 1C       		.uleb128 0x1c
 1557 016e 898201   		.uleb128 0x4109
 1558 0171 01       		.byte	0x1
 1559 0172 11       		.uleb128 0x11
 1560 0173 01       		.uleb128 0x1
 1561 0174 01       		.uleb128 0x1
 1562 0175 13       		.uleb128 0x13
 1563 0176 00       		.byte	0
 1564 0177 00       		.byte	0
 1565 0178 1D       		.uleb128 0x1d
 1566 0179 898201   		.uleb128 0x4109
 1567 017c 01       		.byte	0x1
 1568 017d 11       		.uleb128 0x11
 1569 017e 01       		.uleb128 0x1
 1570 017f 00       		.byte	0
 1571 0180 00       		.byte	0
 1572 0181 1E       		.uleb128 0x1e
 1573 0182 01       		.uleb128 0x1
 1574 0183 01       		.byte	0x1
 1575 0184 49       		.uleb128 0x49
 1576 0185 13       		.uleb128 0x13
 1577 0186 00       		.byte	0
 1578 0187 00       		.byte	0
 1579 0188 1F       		.uleb128 0x1f
 1580 0189 21       		.uleb128 0x21
 1581 018a 00       		.byte	0
 1582 018b 49       		.uleb128 0x49
 1583 018c 13       		.uleb128 0x13
 1584 018d 2F       		.uleb128 0x2f
 1585 018e 0B       		.uleb128 0xb
 1586 018f 00       		.byte	0
 1587 0190 00       		.byte	0
 1588 0191 00       		.byte	0
 1589              		.section	.debug_loc,"",%progbits
 1590              	.Ldebug_loc0:
 1591              	.LLST0:
ARM GAS  /tmp/ccoetFCr.s 			page 29


 1592 0000 00000000 		.4byte	.LVL0
 1593 0004 34000000 		.4byte	.LVL13
 1594 0008 0100     		.2byte	0x1
 1595 000a 50       		.byte	0x50
 1596 000b 34000000 		.4byte	.LVL13
 1597 000f 38000000 		.4byte	.LVL14
 1598 0013 0300     		.2byte	0x3
 1599 0015 70       		.byte	0x70
 1600 0016 7F       		.sleb128 -1
 1601 0017 9F       		.byte	0x9f
 1602 0018 38000000 		.4byte	.LVL14
 1603 001c 3C000000 		.4byte	.LVL15
 1604 0020 0100     		.2byte	0x1
 1605 0022 50       		.byte	0x50
 1606 0023 3C000000 		.4byte	.LVL15
 1607 0027 44000000 		.4byte	.LFE7
 1608 002b 0300     		.2byte	0x3
 1609 002d 70       		.byte	0x70
 1610 002e 7F       		.sleb128 -1
 1611 002f 9F       		.byte	0x9f
 1612 0030 00000000 		.4byte	0
 1613 0034 00000000 		.4byte	0
 1614              	.LLST1:
 1615 0038 00000000 		.4byte	.LVL0
 1616 003c 12000000 		.4byte	.LVL3
 1617 0040 0100     		.2byte	0x1
 1618 0042 51       		.byte	0x51
 1619 0043 24000000 		.4byte	.LVL8
 1620 0047 2E000000 		.4byte	.LVL11
 1621 004b 0100     		.2byte	0x1
 1622 004d 51       		.byte	0x51
 1623 004e 00000000 		.4byte	0
 1624 0052 00000000 		.4byte	0
 1625              	.LLST2:
 1626 0056 00000000 		.4byte	.LVL0
 1627 005a 30000000 		.4byte	.LVL12
 1628 005e 0100     		.2byte	0x1
 1629 0060 52       		.byte	0x52
 1630 0061 30000000 		.4byte	.LVL12
 1631 0065 44000000 		.4byte	.LFE7
 1632 0069 0400     		.2byte	0x4
 1633 006b F3       		.byte	0xf3
 1634 006c 01       		.uleb128 0x1
 1635 006d 52       		.byte	0x52
 1636 006e 9F       		.byte	0x9f
 1637 006f 00000000 		.4byte	0
 1638 0073 00000000 		.4byte	0
 1639              	.LLST3:
 1640 0077 12000000 		.4byte	.LVL3
 1641 007b 16000000 		.4byte	.LVL4
 1642 007f 0100     		.2byte	0x1
 1643 0081 51       		.byte	0x51
 1644 0082 16000000 		.4byte	.LVL4
 1645 0086 20000000 		.4byte	.LVL6
 1646 008a 0100     		.2byte	0x1
 1647 008c 53       		.byte	0x53
 1648 008d 2C000000 		.4byte	.LVL10
ARM GAS  /tmp/ccoetFCr.s 			page 30


 1649 0091 42000000 		.4byte	.LVL16
 1650 0095 0600     		.2byte	0x6
 1651 0097 76       		.byte	0x76
 1652 0098 00       		.sleb128 0
 1653 0099 75       		.byte	0x75
 1654 009a 00       		.sleb128 0
 1655 009b 1C       		.byte	0x1c
 1656 009c 9F       		.byte	0x9f
 1657 009d 00000000 		.4byte	0
 1658 00a1 00000000 		.4byte	0
 1659              	.LLST4:
 1660 00a5 06000000 		.4byte	.LVL1
 1661 00a9 0A000000 		.4byte	.LVL2
 1662 00ad 0100     		.2byte	0x1
 1663 00af 56       		.byte	0x56
 1664 00b0 0A000000 		.4byte	.LVL2
 1665 00b4 24000000 		.4byte	.LVL8
 1666 00b8 0300     		.2byte	0x3
 1667 00ba 74       		.byte	0x74
 1668 00bb 01       		.sleb128 1
 1669 00bc 9F       		.byte	0x9f
 1670 00bd 24000000 		.4byte	.LVL8
 1671 00c1 28000000 		.4byte	.LVL9
 1672 00c5 0100     		.2byte	0x1
 1673 00c7 54       		.byte	0x54
 1674 00c8 28000000 		.4byte	.LVL9
 1675 00cc 42000000 		.4byte	.LVL16
 1676 00d0 0100     		.2byte	0x1
 1677 00d2 55       		.byte	0x55
 1678 00d3 00000000 		.4byte	0
 1679 00d7 00000000 		.4byte	0
 1680              	.LLST5:
 1681 00db 00000000 		.4byte	.LVL17
 1682 00df 2C000000 		.4byte	.LVL18
 1683 00e3 0100     		.2byte	0x1
 1684 00e5 50       		.byte	0x50
 1685 00e6 2C000000 		.4byte	.LVL18
 1686 00ea 54000000 		.4byte	.LVL24
 1687 00ee 0100     		.2byte	0x1
 1688 00f0 5A       		.byte	0x5a
 1689 00f1 54000000 		.4byte	.LVL24
 1690 00f5 58000000 		.4byte	.LVL25
 1691 00f9 0400     		.2byte	0x4
 1692 00fb F3       		.byte	0xf3
 1693 00fc 01       		.uleb128 0x1
 1694 00fd 50       		.byte	0x50
 1695 00fe 9F       		.byte	0x9f
 1696 00ff 58000000 		.4byte	.LVL25
 1697 0103 66020000 		.4byte	.LFE8
 1698 0107 0100     		.2byte	0x1
 1699 0109 5A       		.byte	0x5a
 1700 010a 00000000 		.4byte	0
 1701 010e 00000000 		.4byte	0
 1702              	.LLST6:
 1703 0112 00000000 		.4byte	.LVL17
 1704 0116 2C000000 		.4byte	.LVL18
 1705 011a 0200     		.2byte	0x2
ARM GAS  /tmp/ccoetFCr.s 			page 31


 1706 011c 91       		.byte	0x91
 1707 011d 74       		.sleb128 -12
 1708 011e 2C000000 		.4byte	.LVL18
 1709 0122 30000000 		.4byte	.LVL19
 1710 0126 0100     		.2byte	0x1
 1711 0128 54       		.byte	0x54
 1712 0129 30000000 		.4byte	.LVL19
 1713 012d 45000000 		.4byte	.LVL21-1
 1714 0131 0100     		.2byte	0x1
 1715 0133 53       		.byte	0x53
 1716 0134 45000000 		.4byte	.LVL21-1
 1717 0138 4A000000 		.4byte	.LVL22
 1718 013c 0100     		.2byte	0x1
 1719 013e 54       		.byte	0x54
 1720 013f 4A000000 		.4byte	.LVL22
 1721 0143 6C000000 		.4byte	.LVL27
 1722 0147 0100     		.2byte	0x1
 1723 0149 53       		.byte	0x53
 1724 014a 6C000000 		.4byte	.LVL27
 1725 014e 74000000 		.4byte	.LVL28
 1726 0152 0300     		.2byte	0x3
 1727 0154 73       		.byte	0x73
 1728 0155 01       		.sleb128 1
 1729 0156 9F       		.byte	0x9f
 1730 0157 78000000 		.4byte	.LVL29
 1731 015b 7E000000 		.4byte	.LVL30
 1732 015f 0100     		.2byte	0x1
 1733 0161 53       		.byte	0x53
 1734 0162 7E000000 		.4byte	.LVL30
 1735 0166 FC000000 		.4byte	.LVL41
 1736 016a 0100     		.2byte	0x1
 1737 016c 54       		.byte	0x54
 1738 016d FC000000 		.4byte	.LVL41
 1739 0171 04010000 		.4byte	.LVL44
 1740 0175 0300     		.2byte	0x3
 1741 0177 74       		.byte	0x74
 1742 0178 7F       		.sleb128 -1
 1743 0179 9F       		.byte	0x9f
 1744 017a 04010000 		.4byte	.LVL44
 1745 017e 08010000 		.4byte	.LVL45
 1746 0182 0100     		.2byte	0x1
 1747 0184 54       		.byte	0x54
 1748 0185 08010000 		.4byte	.LVL45
 1749 0189 1E010000 		.4byte	.LVL46
 1750 018d 0300     		.2byte	0x3
 1751 018f 74       		.byte	0x74
 1752 0190 7F       		.sleb128 -1
 1753 0191 9F       		.byte	0x9f
 1754 0192 1E010000 		.4byte	.LVL46
 1755 0196 66020000 		.4byte	.LFE8
 1756 019a 0100     		.2byte	0x1
 1757 019c 54       		.byte	0x54
 1758 019d 00000000 		.4byte	0
 1759 01a1 00000000 		.4byte	0
 1760              	.LLST7:
 1761 01a5 58000000 		.4byte	.LVL25
 1762 01a9 2E010000 		.4byte	.LVL49
ARM GAS  /tmp/ccoetFCr.s 			page 32


 1763 01ad 0100     		.2byte	0x1
 1764 01af 59       		.byte	0x59
 1765 01b0 2E010000 		.4byte	.LVL49
 1766 01b4 32010000 		.4byte	.LVL50
 1767 01b8 0100     		.2byte	0x1
 1768 01ba 50       		.byte	0x50
 1769 01bb A2010000 		.4byte	.LVL64
 1770 01bf B0010000 		.4byte	.LVL68
 1771 01c3 0100     		.2byte	0x1
 1772 01c5 59       		.byte	0x59
 1773 01c6 B0010000 		.4byte	.LVL68
 1774 01ca BE010000 		.4byte	.LVL70
 1775 01ce 0200     		.2byte	0x2
 1776 01d0 7D       		.byte	0x7d
 1777 01d1 00       		.sleb128 0
 1778 01d2 BE010000 		.4byte	.LVL70
 1779 01d6 C7010000 		.4byte	.LVL71-1
 1780 01da 0100     		.2byte	0x1
 1781 01dc 50       		.byte	0x50
 1782 01dd C8010000 		.4byte	.LVL71
 1783 01e1 CC010000 		.4byte	.LVL72
 1784 01e5 0100     		.2byte	0x1
 1785 01e7 50       		.byte	0x50
 1786 01e8 D4010000 		.4byte	.LVL73
 1787 01ec EC010000 		.4byte	.LVL75
 1788 01f0 0200     		.2byte	0x2
 1789 01f2 7D       		.byte	0x7d
 1790 01f3 00       		.sleb128 0
 1791 01f4 EC010000 		.4byte	.LVL75
 1792 01f8 08020000 		.4byte	.LVL78
 1793 01fc 0100     		.2byte	0x1
 1794 01fe 59       		.byte	0x59
 1795 01ff 08020000 		.4byte	.LVL78
 1796 0203 0E020000 		.4byte	.LVL79
 1797 0207 0200     		.2byte	0x2
 1798 0209 73       		.byte	0x73
 1799 020a 7C       		.sleb128 -4
 1800 020b 0E020000 		.4byte	.LVL79
 1801 020f 10020000 		.4byte	.LVL80
 1802 0213 0600     		.2byte	0x6
 1803 0215 91       		.byte	0x91
 1804 0216 A87F     		.sleb128 -88
 1805 0218 06       		.byte	0x6
 1806 0219 34       		.byte	0x34
 1807 021a 1C       		.byte	0x1c
 1808 021b 10020000 		.4byte	.LVL80
 1809 021f 26020000 		.4byte	.LVL83
 1810 0223 0100     		.2byte	0x1
 1811 0225 53       		.byte	0x53
 1812 0226 26020000 		.4byte	.LVL83
 1813 022a 2A020000 		.4byte	.LVL85
 1814 022e 0100     		.2byte	0x1
 1815 0230 59       		.byte	0x59
 1816 0231 2A020000 		.4byte	.LVL85
 1817 0235 38020000 		.4byte	.LVL86
 1818 0239 0200     		.2byte	0x2
 1819 023b 7D       		.byte	0x7d
ARM GAS  /tmp/ccoetFCr.s 			page 33


 1820 023c 00       		.sleb128 0
 1821 023d 52020000 		.4byte	.LVL92
 1822 0241 5C020000 		.4byte	.LVL93
 1823 0245 0100     		.2byte	0x1
 1824 0247 53       		.byte	0x53
 1825 0248 5C020000 		.4byte	.LVL93
 1826 024c 66020000 		.4byte	.LFE8
 1827 0250 0200     		.2byte	0x2
 1828 0252 73       		.byte	0x73
 1829 0253 7C       		.sleb128 -4
 1830 0254 00000000 		.4byte	0
 1831 0258 00000000 		.4byte	0
 1832              	.LLST8:
 1833 025c 58000000 		.4byte	.LVL25
 1834 0260 38010000 		.4byte	.LVL51
 1835 0264 0100     		.2byte	0x1
 1836 0266 59       		.byte	0x59
 1837 0267 70010000 		.4byte	.LVL58
 1838 026b 78010000 		.4byte	.LVL59
 1839 026f 0300     		.2byte	0x3
 1840 0271 77       		.byte	0x77
 1841 0272 02       		.sleb128 2
 1842 0273 9F       		.byte	0x9f
 1843 0274 78010000 		.4byte	.LVL59
 1844 0278 86010000 		.4byte	.LVL61
 1845 027c 0300     		.2byte	0x3
 1846 027e 77       		.byte	0x77
 1847 027f 01       		.sleb128 1
 1848 0280 9F       		.byte	0x9f
 1849 0281 A2010000 		.4byte	.LVL64
 1850 0285 02020000 		.4byte	.LVL77
 1851 0289 0100     		.2byte	0x1
 1852 028b 59       		.byte	0x59
 1853 028c 02020000 		.4byte	.LVL77
 1854 0290 0E020000 		.4byte	.LVL79
 1855 0294 0200     		.2byte	0x2
 1856 0296 73       		.byte	0x73
 1857 0297 7C       		.sleb128 -4
 1858 0298 0E020000 		.4byte	.LVL79
 1859 029c 26020000 		.4byte	.LVL83
 1860 02a0 0600     		.2byte	0x6
 1861 02a2 91       		.byte	0x91
 1862 02a3 A87F     		.sleb128 -88
 1863 02a5 06       		.byte	0x6
 1864 02a6 34       		.byte	0x34
 1865 02a7 1C       		.byte	0x1c
 1866 02a8 26020000 		.4byte	.LVL83
 1867 02ac 38020000 		.4byte	.LVL86
 1868 02b0 0100     		.2byte	0x1
 1869 02b2 59       		.byte	0x59
 1870 02b3 3C020000 		.4byte	.LVL87
 1871 02b7 4C020000 		.4byte	.LVL90
 1872 02bb 0300     		.2byte	0x3
 1873 02bd 77       		.byte	0x77
 1874 02be 01       		.sleb128 1
 1875 02bf 9F       		.byte	0x9f
 1876 02c0 4C020000 		.4byte	.LVL90
ARM GAS  /tmp/ccoetFCr.s 			page 34


 1877 02c4 52020000 		.4byte	.LVL92
 1878 02c8 0100     		.2byte	0x1
 1879 02ca 57       		.byte	0x57
 1880 02cb 52020000 		.4byte	.LVL92
 1881 02cf 5C020000 		.4byte	.LVL93
 1882 02d3 0600     		.2byte	0x6
 1883 02d5 91       		.byte	0x91
 1884 02d6 A87F     		.sleb128 -88
 1885 02d8 06       		.byte	0x6
 1886 02d9 34       		.byte	0x34
 1887 02da 1C       		.byte	0x1c
 1888 02db 5C020000 		.4byte	.LVL93
 1889 02df 66020000 		.4byte	.LFE8
 1890 02e3 0200     		.2byte	0x2
 1891 02e5 73       		.byte	0x73
 1892 02e6 7C       		.sleb128 -4
 1893 02e7 00000000 		.4byte	0
 1894 02eb 00000000 		.4byte	0
 1895              	.LLST9:
 1896 02ef 30000000 		.4byte	.LVL19
 1897 02f3 32000000 		.4byte	.LVL20
 1898 02f7 0200     		.2byte	0x2
 1899 02f9 74       		.byte	0x74
 1900 02fa 00       		.sleb128 0
 1901 02fb 4A000000 		.4byte	.LVL22
 1902 02ff 4E000000 		.4byte	.LVL23
 1903 0303 0200     		.2byte	0x2
 1904 0305 74       		.byte	0x74
 1905 0306 00       		.sleb128 0
 1906 0307 7E000000 		.4byte	.LVL30
 1907 030b 80000000 		.4byte	.LVL31
 1908 030f 0100     		.2byte	0x1
 1909 0311 52       		.byte	0x52
 1910 0312 80000000 		.4byte	.LVL31
 1911 0316 82000000 		.4byte	.LVL32
 1912 031a 0200     		.2byte	0x2
 1913 031c 71       		.byte	0x71
 1914 031d 00       		.sleb128 0
 1915 031e 82000000 		.4byte	.LVL32
 1916 0322 8C000000 		.4byte	.LVL34
 1917 0326 0100     		.2byte	0x1
 1918 0328 53       		.byte	0x53
 1919 0329 98000000 		.4byte	.LVL35
 1920 032d B6000000 		.4byte	.LVL39
 1921 0331 0100     		.2byte	0x1
 1922 0333 52       		.byte	0x52
 1923 0334 B6000000 		.4byte	.LVL39
 1924 0338 B8000000 		.4byte	.LVL40
 1925 033c 0200     		.2byte	0x2
 1926 033e 74       		.byte	0x74
 1927 033f 7F       		.sleb128 -1
 1928 0340 B8000000 		.4byte	.LVL40
 1929 0344 FC000000 		.4byte	.LVL41
 1930 0348 0100     		.2byte	0x1
 1931 034a 52       		.byte	0x52
 1932 034b FC000000 		.4byte	.LVL41
 1933 034f FE000000 		.4byte	.LVL42
ARM GAS  /tmp/ccoetFCr.s 			page 35


 1934 0353 0200     		.2byte	0x2
 1935 0355 74       		.byte	0x74
 1936 0356 7F       		.sleb128 -1
 1937 0357 FE000000 		.4byte	.LVL42
 1938 035b 00010000 		.4byte	.LVL43
 1939 035f 0200     		.2byte	0x2
 1940 0361 71       		.byte	0x71
 1941 0362 00       		.sleb128 0
 1942 0363 00010000 		.4byte	.LVL43
 1943 0367 04010000 		.4byte	.LVL44
 1944 036b 0100     		.2byte	0x1
 1945 036d 53       		.byte	0x53
 1946 036e 08010000 		.4byte	.LVL45
 1947 0372 1E010000 		.4byte	.LVL46
 1948 0376 0200     		.2byte	0x2
 1949 0378 74       		.byte	0x74
 1950 0379 7F       		.sleb128 -1
 1951 037a 1E010000 		.4byte	.LVL46
 1952 037e 20010000 		.4byte	.LVL47
 1953 0382 0100     		.2byte	0x1
 1954 0384 52       		.byte	0x52
 1955 0385 A2010000 		.4byte	.LVL64
 1956 0389 A6010000 		.4byte	.LVL65
 1957 038d 0200     		.2byte	0x2
 1958 038f 38       		.byte	0x38
 1959 0390 9F       		.byte	0x9f
 1960 0391 A6010000 		.4byte	.LVL65
 1961 0395 AA010000 		.4byte	.LVL66
 1962 0399 0100     		.2byte	0x1
 1963 039b 52       		.byte	0x52
 1964 039c D4010000 		.4byte	.LVL73
 1965 03a0 DA010000 		.4byte	.LVL74
 1966 03a4 0100     		.2byte	0x1
 1967 03a6 52       		.byte	0x52
 1968 03a7 EC010000 		.4byte	.LVL75
 1969 03ab F0010000 		.4byte	.LVL76
 1970 03af 0100     		.2byte	0x1
 1971 03b1 52       		.byte	0x52
 1972 03b2 26020000 		.4byte	.LVL83
 1973 03b6 28020000 		.4byte	.LVL84
 1974 03ba 0100     		.2byte	0x1
 1975 03bc 52       		.byte	0x52
 1976 03bd 28020000 		.4byte	.LVL84
 1977 03c1 2A020000 		.4byte	.LVL85
 1978 03c5 0400     		.2byte	0x4
 1979 03c7 73       		.byte	0x73
 1980 03c8 C400     		.sleb128 68
 1981 03ca 9F       		.byte	0x9f
 1982 03cb 2A020000 		.4byte	.LVL85
 1983 03cf 38020000 		.4byte	.LVL86
 1984 03d3 0100     		.2byte	0x1
 1985 03d5 52       		.byte	0x52
 1986 03d6 00000000 		.4byte	0
 1987 03da 00000000 		.4byte	0
 1988              	.LLST10:
 1989 03de 6C000000 		.4byte	.LVL27
 1990 03e2 78000000 		.4byte	.LVL29
ARM GAS  /tmp/ccoetFCr.s 			page 36


 1991 03e6 0300     		.2byte	0x3
 1992 03e8 08       		.byte	0x8
 1993 03e9 30       		.byte	0x30
 1994 03ea 9F       		.byte	0x9f
 1995 03eb 78000000 		.4byte	.LVL29
 1996 03ef D4010000 		.4byte	.LVL73
 1997 03f3 0100     		.2byte	0x1
 1998 03f5 56       		.byte	0x56
 1999 03f6 D4010000 		.4byte	.LVL73
 2000 03fa 26020000 		.4byte	.LVL83
 2001 03fe 0300     		.2byte	0x3
 2002 0400 08       		.byte	0x8
 2003 0401 20       		.byte	0x20
 2004 0402 9F       		.byte	0x9f
 2005 0403 26020000 		.4byte	.LVL83
 2006 0407 52020000 		.4byte	.LVL92
 2007 040b 0100     		.2byte	0x1
 2008 040d 56       		.byte	0x56
 2009 040e 52020000 		.4byte	.LVL92
 2010 0412 66020000 		.4byte	.LFE8
 2011 0416 0300     		.2byte	0x3
 2012 0418 08       		.byte	0x8
 2013 0419 20       		.byte	0x20
 2014 041a 9F       		.byte	0x9f
 2015 041b 00000000 		.4byte	0
 2016 041f 00000000 		.4byte	0
 2017              	.LLST11:
 2018 0423 38010000 		.4byte	.LVL51
 2019 0427 4E010000 		.4byte	.LVL55
 2020 042b 0100     		.2byte	0x1
 2021 042d 50       		.byte	0x50
 2022 042e 38020000 		.4byte	.LVL86
 2023 0432 42020000 		.4byte	.LVL88
 2024 0436 0100     		.2byte	0x1
 2025 0438 50       		.byte	0x50
 2026 0439 4C020000 		.4byte	.LVL90
 2027 043d 50020000 		.4byte	.LVL91
 2028 0441 0300     		.2byte	0x3
 2029 0443 78       		.byte	0x78
 2030 0444 7F       		.sleb128 -1
 2031 0445 9F       		.byte	0x9f
 2032 0446 50020000 		.4byte	.LVL91
 2033 044a 52020000 		.4byte	.LVL92
 2034 044e 0100     		.2byte	0x1
 2035 0450 58       		.byte	0x58
 2036 0451 00000000 		.4byte	0
 2037 0455 00000000 		.4byte	0
 2038              	.LLST12:
 2039 0459 A2000000 		.4byte	.LVL36
 2040 045d A8000000 		.4byte	.LVL37
 2041 0461 0200     		.2byte	0x2
 2042 0463 30       		.byte	0x30
 2043 0464 9F       		.byte	0x9f
 2044 0465 00010000 		.4byte	.LVL43
 2045 0469 04010000 		.4byte	.LVL44
 2046 046d 0500     		.2byte	0x5
 2047 046f 77       		.byte	0x77
ARM GAS  /tmp/ccoetFCr.s 			page 37


 2048 0470 00       		.sleb128 0
 2049 0471 31       		.byte	0x31
 2050 0472 24       		.byte	0x24
 2051 0473 9F       		.byte	0x9f
 2052 0474 00000000 		.4byte	0
 2053 0478 00000000 		.4byte	0
 2054              	.LLST13:
 2055 047c 78000000 		.4byte	.LVL29
 2056 0480 7E000000 		.4byte	.LVL30
 2057 0484 0200     		.2byte	0x2
 2058 0486 30       		.byte	0x30
 2059 0487 9F       		.byte	0x9f
 2060 0488 7E000000 		.4byte	.LVL30
 2061 048c 86000000 		.4byte	.LVL33
 2062 0490 0100     		.2byte	0x1
 2063 0492 55       		.byte	0x55
 2064 0493 8C000000 		.4byte	.LVL34
 2065 0497 5E010000 		.4byte	.LVL56
 2066 049b 0100     		.2byte	0x1
 2067 049d 55       		.byte	0x55
 2068 049e 5E010000 		.4byte	.LVL56
 2069 04a2 60010000 		.4byte	.LVL57
 2070 04a6 0300     		.2byte	0x3
 2071 04a8 75       		.byte	0x75
 2072 04a9 01       		.sleb128 1
 2073 04aa 9F       		.byte	0x9f
 2074 04ab 60010000 		.4byte	.LVL57
 2075 04af 70010000 		.4byte	.LVL58
 2076 04b3 0100     		.2byte	0x1
 2077 04b5 55       		.byte	0x55
 2078 04b6 86010000 		.4byte	.LVL61
 2079 04ba 9C010000 		.4byte	.LVL62
 2080 04be 0100     		.2byte	0x1
 2081 04c0 55       		.byte	0x55
 2082 04c1 9C010000 		.4byte	.LVL62
 2083 04c5 9E010000 		.4byte	.LVL63
 2084 04c9 0300     		.2byte	0x3
 2085 04cb 75       		.byte	0x75
 2086 04cc 7F       		.sleb128 -1
 2087 04cd 9F       		.byte	0x9f
 2088 04ce 9E010000 		.4byte	.LVL63
 2089 04d2 66020000 		.4byte	.LFE8
 2090 04d6 0100     		.2byte	0x1
 2091 04d8 55       		.byte	0x55
 2092 04d9 00000000 		.4byte	0
 2093 04dd 00000000 		.4byte	0
 2094              	.LLST14:
 2095 04e1 B0000000 		.4byte	.LVL38
 2096 04e5 B8000000 		.4byte	.LVL40
 2097 04e9 0200     		.2byte	0x2
 2098 04eb 31       		.byte	0x31
 2099 04ec 9F       		.byte	0x9f
 2100 04ed 00000000 		.4byte	0
 2101 04f1 00000000 		.4byte	0
 2102              	.LLST15:
 2103 04f5 58000000 		.4byte	.LVL25
 2104 04f9 64000000 		.4byte	.LVL26
ARM GAS  /tmp/ccoetFCr.s 			page 38


 2105 04fd 0200     		.2byte	0x2
 2106 04ff 30       		.byte	0x30
 2107 0500 9F       		.byte	0x9f
 2108 0501 64000000 		.4byte	.LVL26
 2109 0505 6C000000 		.4byte	.LVL27
 2110 0509 0200     		.2byte	0x2
 2111 050b 31       		.byte	0x31
 2112 050c 9F       		.byte	0x9f
 2113 050d 6C000000 		.4byte	.LVL27
 2114 0511 2D010000 		.4byte	.LVL49-1
 2115 0515 0100     		.2byte	0x1
 2116 0517 5C       		.byte	0x5c
 2117 0518 A2010000 		.4byte	.LVL64
 2118 051c C7010000 		.4byte	.LVL71-1
 2119 0520 0100     		.2byte	0x1
 2120 0522 5C       		.byte	0x5c
 2121 0523 D4010000 		.4byte	.LVL73
 2122 0527 38020000 		.4byte	.LVL86
 2123 052b 0100     		.2byte	0x1
 2124 052d 5C       		.byte	0x5c
 2125 052e 52020000 		.4byte	.LVL92
 2126 0532 66020000 		.4byte	.LFE8
 2127 0536 0100     		.2byte	0x1
 2128 0538 5C       		.byte	0x5c
 2129 0539 00000000 		.4byte	0
 2130 053d 00000000 		.4byte	0
 2131              	.LLST16:
 2132 0541 2A010000 		.4byte	.LVL48
 2133 0545 2D010000 		.4byte	.LVL49-1
 2134 0549 0200     		.2byte	0x2
 2135 054b 73       		.byte	0x73
 2136 054c 00       		.sleb128 0
 2137 054d AC010000 		.4byte	.LVL67
 2138 0551 C7010000 		.4byte	.LVL71-1
 2139 0555 0100     		.2byte	0x1
 2140 0557 51       		.byte	0x51
 2141 0558 00000000 		.4byte	0
 2142 055c 00000000 		.4byte	0
 2143              		.section	.debug_aranges,"",%progbits
 2144 0000 24000000 		.4byte	0x24
 2145 0004 0200     		.2byte	0x2
 2146 0006 00000000 		.4byte	.Ldebug_info0
 2147 000a 04       		.byte	0x4
 2148 000b 00       		.byte	0
 2149 000c 0000     		.2byte	0
 2150 000e 0000     		.2byte	0
 2151 0010 00000000 		.4byte	.LFB7
 2152 0014 44000000 		.4byte	.LFE7-.LFB7
 2153 0018 00000000 		.4byte	.LFB8
 2154 001c 66020000 		.4byte	.LFE8-.LFB8
 2155 0020 00000000 		.4byte	0
 2156 0024 00000000 		.4byte	0
 2157              		.section	.debug_ranges,"",%progbits
 2158              	.Ldebug_ranges0:
 2159 0000 00000000 		.4byte	.LFB7
 2160 0004 44000000 		.4byte	.LFE7
 2161 0008 00000000 		.4byte	.LFB8
ARM GAS  /tmp/ccoetFCr.s 			page 39


 2162 000c 66020000 		.4byte	.LFE8
 2163 0010 00000000 		.4byte	0
 2164 0014 00000000 		.4byte	0
 2165              		.section	.debug_line,"",%progbits
 2166              	.Ldebug_line0:
 2167 0000 50020000 		.section	.debug_str,"MS",%progbits,1
 2167      02004C01 
 2167      00000201 
 2167      FB0E0D00 
 2167      01010101 
 2168              	.LASF2:
 2169 0000 73697A65 		.ascii	"size_t\000"
 2169      5F7400
 2170              	.LASF17:
 2171 0007 73797374 		.ascii	"systime_t\000"
 2171      696D655F 
 2171      7400
 2172              	.LASF38:
 2173 0011 2F686F6D 		.ascii	"/home/santi/Documentos/ProyectoDron_2018/MCU/creato"
 2173      652F7361 
 2173      6E74692F 
 2173      446F6375 
 2173      6D656E74 
 2174 0044 7200     		.ascii	"r\000"
 2175              	.LASF34:
 2176 0046 69735F6C 		.ascii	"is_long\000"
 2176      6F6E6700 
 2177              	.LASF37:
 2178 004e 2E2E2F74 		.ascii	"../third_party/ChibiOS/os/various/chprintf.c\000"
 2178      68697264 
 2178      5F706172 
 2178      74792F43 
 2178      68696269 
 2179              	.LASF29:
 2180 007b 72616469 		.ascii	"radix\000"
 2180      7800
 2181              	.LASF15:
 2182 0081 626F6F6C 		.ascii	"bool_t\000"
 2182      5F7400
 2183              	.LASF26:
 2184 0088 77726974 		.ascii	"writet\000"
 2184      657400
 2185              	.LASF1:
 2186 008f 76615F6C 		.ascii	"va_list\000"
 2186      69737400 
 2187              	.LASF6:
 2188 0097 756E7369 		.ascii	"unsigned char\000"
 2188      676E6564 
 2188      20636861 
 2188      7200
 2189              	.LASF27:
 2190 00a5 72656164 		.ascii	"readt\000"
 2190      7400
 2191              	.LASF12:
 2192 00ab 6C6F6E67 		.ascii	"long unsigned int\000"
 2192      20756E73 
 2192      69676E65 
ARM GAS  /tmp/ccoetFCr.s 			page 40


 2192      6420696E 
 2192      7400
 2193              	.LASF8:
 2194 00bd 73686F72 		.ascii	"short unsigned int\000"
 2194      7420756E 
 2194      7369676E 
 2194      65642069 
 2194      6E7400
 2195              	.LASF22:
 2196 00d0 77726974 		.ascii	"write\000"
 2196      6500
 2197              	.LASF33:
 2198 00d6 77696474 		.ascii	"width\000"
 2198      6800
 2199              	.LASF41:
 2200 00dc 63687072 		.ascii	"chprintf\000"
 2200      696E7466 
 2200      00
 2201              	.LASF24:
 2202 00e5 70757477 		.ascii	"putwouldblock\000"
 2202      6F756C64 
 2202      626C6F63 
 2202      6B00
 2203              	.LASF0:
 2204 00f3 5F5F676E 		.ascii	"__gnuc_va_list\000"
 2204      75635F76 
 2204      615F6C69 
 2204      737400
 2205              	.LASF23:
 2206 0102 72656164 		.ascii	"read\000"
 2206      00
 2207              	.LASF31:
 2208 0107 66696C6C 		.ascii	"filler\000"
 2208      657200
 2209              	.LASF3:
 2210 010e 756E7369 		.ascii	"unsigned int\000"
 2210      676E6564 
 2210      20696E74 
 2210      00
 2211              	.LASF14:
 2212 011b 6C6F6E67 		.ascii	"long long unsigned int\000"
 2212      206C6F6E 
 2212      6720756E 
 2212      7369676E 
 2212      65642069 
 2213              	.LASF5:
 2214 0132 75696E74 		.ascii	"uint8_t\000"
 2214      385F7400 
 2215              	.LASF39:
 2216 013a 5F5F6170 		.ascii	"__ap\000"
 2216      00
 2217              	.LASF25:
 2218 013f 67657477 		.ascii	"getwouldblock\000"
 2218      6F756C64 
 2218      626C6F63 
 2218      6B00
 2219              	.LASF16:
ARM GAS  /tmp/ccoetFCr.s 			page 41


 2220 014d 6D73675F 		.ascii	"msg_t\000"
 2220      7400
 2221              	.LASF36:
 2222 0153 474E5520 		.ascii	"GNU C 4.8.1 -mcpu=cortex-m3 -mno-thumb-interwork -m"
 2222      4320342E 
 2222      382E3120 
 2222      2D6D6370 
 2222      753D636F 
 2223 0186 7468756D 		.ascii	"thumb -ggdb -O2 -std=gnu99 -fomit-frame-pointer -fa"
 2223      62202D67 
 2223      67646220 
 2223      2D4F3220 
 2223      2D737464 
 2224 01b9 6C69676E 		.ascii	"lign-functions=16 -ffunction-sections -fdata-sectio"
 2224      2D66756E 
 2224      6374696F 
 2224      6E733D31 
 2224      36202D66 
 2225 01ec 6E73202D 		.ascii	"ns -fno-common\000"
 2225      666E6F2D 
 2225      636F6D6D 
 2225      6F6E00
 2226              	.LASF21:
 2227 01fb 42617365 		.ascii	"BaseChannelVMT\000"
 2227      4368616E 
 2227      6E656C56 
 2227      4D5400
 2228              	.LASF9:
 2229 020a 696E7433 		.ascii	"int32_t\000"
 2229      325F7400 
 2230              	.LASF18:
 2231 0212 73697A65 		.ascii	"sizetype\000"
 2231      74797065 
 2231      00
 2232              	.LASF30:
 2233 021b 746D7062 		.ascii	"tmpbuf\000"
 2233      756600
 2234              	.LASF20:
 2235 0222 5F5F7661 		.ascii	"__va_list\000"
 2235      5F6C6973 
 2235      7400
 2236              	.LASF13:
 2237 022c 6C6F6E67 		.ascii	"long long int\000"
 2237      206C6F6E 
 2237      6720696E 
 2237      7400
 2238              	.LASF32:
 2239 023a 70726563 		.ascii	"precision\000"
 2239      6973696F 
 2239      6E00
 2240              	.LASF19:
 2241 0244 63686172 		.ascii	"char\000"
 2241      00
 2242              	.LASF35:
 2243 0249 6C656674 		.ascii	"left_align\000"
 2243      5F616C69 
 2243      676E00
ARM GAS  /tmp/ccoetFCr.s 			page 42


 2244              	.LASF7:
 2245 0254 73686F72 		.ascii	"short int\000"
 2245      7420696E 
 2245      7400
 2246              	.LASF42:
 2247 025e 756E7369 		.ascii	"unsigned_common\000"
 2247      676E6564 
 2247      5F636F6D 
 2247      6D6F6E00 
 2248              	.LASF11:
 2249 026e 75696E74 		.ascii	"uint32_t\000"
 2249      33325F74 
 2249      00
 2250              	.LASF10:
 2251 0277 6C6F6E67 		.ascii	"long int\000"
 2251      20696E74 
 2251      00
 2252              	.LASF4:
 2253 0280 7369676E 		.ascii	"signed char\000"
 2253      65642063 
 2253      68617200 
 2254              	.LASF40:
 2255 028c 6C746F61 		.ascii	"ltoa\000"
 2255      00
 2256              	.LASF28:
 2257 0291 42617365 		.ascii	"BaseChannel\000"
 2257      4368616E 
 2257      6E656C00 
 2258              		.ident	"GCC: (Sourcery CodeBench Lite 2013.11-24) 4.8.1"
ARM GAS  /tmp/ccoetFCr.s 			page 43


DEFINED SYMBOLS
                            *ABS*:00000000 chprintf.c
     /tmp/ccoetFCr.s:19     .text.ltoa:00000000 $t
     /tmp/ccoetFCr.s:24     .text.ltoa:00000000 ltoa
     /tmp/ccoetFCr.s:98     .text.chprintf:00000000 $t
     /tmp/ccoetFCr.s:104    .text.chprintf:00000000 chprintf
     /tmp/ccoetFCr.s:617    .rodata.str1.4:00000000 .LC0
     /tmp/ccoetFCr.s:273    .text.chprintf:000000c6 $d
     /tmp/ccoetFCr.s:616    .rodata.str1.4:00000000 $d
                     .debug_frame:00000010 $d
     /tmp/ccoetFCr.s:326    .text.chprintf:000000fb $d
     /tmp/ccoetFCr.s:326    .text.chprintf:000000fc $t

NO UNDEFINED SYMBOLS
