ARM GAS  /tmp/ccoetFCr.s 			page 1


   1              		.syntax unified
   2              		.cpu cortex-m3
   3              		.fpu softvfp
   4              		.eabi_attribute 20, 1
   5              		.eabi_attribute 21, 1
   6              		.eabi_attribute 23, 3
   7              		.eabi_attribute 24, 1
   8              		.eabi_attribute 25, 1
   9              		.eabi_attribute 26, 1
  10              		.eabi_attribute 30, 2
  11              		.eabi_attribute 34, 1
  12              		.eabi_attribute 18, 4
  13              		.thumb
  14              		.file	"chprintf.c"
  15              		.text
  16              	.Ltext0:
  17              		.cfi_sections	.debug_frame
  18              		.section	.text.ltoa,"ax",%progbits
  19              		.align	2
  20              		.p2align 4,,15
  21              		.thumb
  22              		.thumb_func
  23              		.type	ltoa, %function
  24              	ltoa:
  25              	.LFB7:
  26              		.file 1 "../third_party/ChibiOS/os/various/chprintf.c"
  27              		.loc 1 42 0
  28              		.cfi_startproc
  29              		@ args = 0, pretend = 0, frame = 0
  30              		@ frame_needed = 0, uses_anonymous_args = 0
  31              		@ link register save eliminated.
  32              	.LVL0:
  33 0000 70B4     		push	{r4, r5, r6}
  34              		.cfi_def_cfa_offset 12
  35              		.cfi_offset 4, -12
  36              		.cfi_offset 5, -8
  37              		.cfi_offset 6, -4
  38              		.loc 1 46 0
  39 0002 00F10B06 		add	r6, r0, #11
  40              	.LVL1:
  41 0006 00F10A04 		add	r4, r0, #10
  42              	.LVL2:
  43              	.L4:
  44              		.loc 1 48 0
  45 000a B1FBF2F5 		udiv	r5, r1, r2
  46 000e 02FB1511 		mls	r1, r2, r5, r1
  47              	.LVL3:
  48              		.loc 1 49 0
  49 0012 01F13003 		add	r3, r1, #48
  50              	.LVL4:
  51              		.loc 1 50 0
  52 0016 392B     		cmp	r3, #57
  53              		.loc 1 51 0
  54 0018 C8BF     		it	gt
  55 001a 01F13703 		addgt	r3, r1, #55
  56              	.LVL5:
  57              		.loc 1 52 0
ARM GAS  /tmp/ccoetFCr.s 			page 2


  58 001e DBB2     		uxtb	r3, r3
  59              	.LVL6:
  60              		.loc 1 53 0
  61 0020 2946     		mov	r1, r5
  62              	.LVL7:
  63              		.loc 1 52 0
  64 0022 2546     		mov	r5, r4
  65              	.LVL8:
  66 0024 04F80139 		strb	r3, [r4], #-1
  67              	.LVL9:
  68              		.loc 1 53 0
  69 0028 0029     		cmp	r1, #0
  70 002a EED1     		bne	.L4
  71              	.LVL10:
  72              		.loc 1 55 0
  73 002c 711B     		subs	r1, r6, r5
  74              	.LVL11:
  75 002e 2A46     		mov	r2, r5
  76              	.LVL12:
  77 0030 0144     		add	r1, r1, r0
  78 0032 01E0     		b	.L6
  79              	.LVL13:
  80              	.L9:
  81 0034 12F8013F 		ldrb	r3, [r2, #1]!	@ zero_extendqisi2
  82              	.LVL14:
  83              	.L6:
  84              		.loc 1 57 0 discriminator 1
  85 0038 00F8013B 		strb	r3, [r0], #1
  86              	.LVL15:
  87              		.loc 1 58 0 discriminator 1
  88 003c 8842     		cmp	r0, r1
  89 003e F9D1     		bne	.L9
  90              		.loc 1 61 0
  91 0040 70BC     		pop	{r4, r5, r6}
  92              	.LVL16:
  93 0042 7047     		bx	lr
  94              		.cfi_endproc
  95              	.LFE7:
  96              		.size	ltoa, .-ltoa
  97 0044 AFF30080 		.section	.text.chprintf,"ax",%progbits
  97      AFF30080 
  97      AFF30080 
  98              		.align	2
  99              		.p2align 4,,15
 100              		.global	chprintf
 101              		.thumb
 102              		.thumb_func
 103              		.type	chprintf, %function
 104              	chprintf:
 105              	.LFB8:
 106              		.loc 1 86 0
 107              		.cfi_startproc
 108              		@ args = 4, pretend = 12, frame = 24
 109              		@ frame_needed = 0, uses_anonymous_args = 1
 110              	.LVL17:
 111 0000 0EB4     		push	{r1, r2, r3}
 112              		.cfi_def_cfa_offset 12
ARM GAS  /tmp/ccoetFCr.s 			page 3


 113              		.cfi_offset 1, -12
 114              		.cfi_offset 2, -8
 115              		.cfi_offset 3, -4
 116 0002 2DE9F04F 		push	{r4, r5, r6, r7, r8, r9, r10, fp, lr}
 117              		.cfi_def_cfa_offset 48
 118              		.cfi_offset 4, -48
 119              		.cfi_offset 5, -44
 120              		.cfi_offset 6, -40
 121              		.cfi_offset 7, -36
 122              		.cfi_offset 8, -32
 123              		.cfi_offset 9, -28
 124              		.cfi_offset 10, -24
 125              		.cfi_offset 11, -20
 126              		.cfi_offset 14, -16
 127 0006 86B0     		sub	sp, sp, #24
 128              		.cfi_def_cfa_offset 72
 129 0008 0DF10D03 		add	r3, sp, #13
 130 000c 0093     		str	r3, [sp]
 131 000e 009B     		ldr	r3, [sp]
 132              		.loc 1 86 0
 133 0010 0FAA     		add	r2, sp, #60
 134 0012 0DF10C09 		add	r9, sp, #12
 135 0016 52F8044B 		ldr	r4, [r2], #4
 136 001a C9EB030B 		rsb	fp, r9, r3
 137              		.loc 1 160 0
 138 001e 40F20003 		movw	r3, #:lower16:.LC0
 139 0022 C0F20003 		movt	r3, #:upper16:.LC0
 140              		.loc 1 86 0
 141 0026 8246     		mov	r10, r0
 142              		.loc 1 94 0
 143 0028 0292     		str	r2, [sp, #8]
 144              		.loc 1 160 0
 145 002a 0193     		str	r3, [sp, #4]
 146              	.LVL18:
 147              	.L11:
 148              		.loc 1 96 0
 149 002c 2178     		ldrb	r1, [r4]	@ zero_extendqisi2
 150 002e 631C     		adds	r3, r4, #1
 151              	.LVL19:
 152              		.loc 1 97 0
 153 0030 69B1     		cbz	r1, .L68
 154              	.LVL20:
 155              	.L72:
 156              		.loc 1 101 0
 157 0032 2529     		cmp	r1, #37
 158 0034 10D0     		beq	.L13
 159              		.loc 1 102 0
 160 0036 DAF80020 		ldr	r2, [r10]
 161              		.loc 1 96 0
 162 003a 1C46     		mov	r4, r3
 163              		.loc 1 102 0
 164 003c 1569     		ldr	r5, [r2, #16]
 165 003e 5046     		mov	r0, r10
 166 0040 4FF0FF32 		mov	r2, #-1
 167 0044 A847     		blx	r5
 168              	.LVL21:
 169              		.loc 1 96 0
ARM GAS  /tmp/ccoetFCr.s 			page 4


 170 0046 2178     		ldrb	r1, [r4]	@ zero_extendqisi2
 171 0048 631C     		adds	r3, r4, #1
 172              	.LVL22:
 173              		.loc 1 97 0
 174 004a 0029     		cmp	r1, #0
 175 004c F1D1     		bne	.L72
 176              	.LVL23:
 177              	.L68:
 178              		.loc 1 222 0
 179 004e 06B0     		add	sp, sp, #24
 180              		@ sp needed
 181 0050 BDE8F04F 		pop	{r4, r5, r6, r7, r8, r9, r10, fp, lr}
 182              	.LVL24:
 183 0054 03B0     		add	sp, sp, #12
 184 0056 7047     		bx	lr
 185              	.LVL25:
 186              	.L13:
 187              		.loc 1 108 0
 188 0058 6278     		ldrb	r2, [r4, #1]	@ zero_extendqisi2
 189 005a 0299     		ldr	r1, [sp, #8]
 190 005c 2D2A     		cmp	r2, #45
 191 005e 03BF     		ittte	eq
 192 0060 A278     		ldrbeq	r2, [r4, #2]	@ zero_extendqisi2
 193              		.loc 1 109 0
 194 0062 A31C     		addeq	r3, r4, #2
 195              	.LVL26:
 196              		.loc 1 110 0
 197 0064 4FF0010C 		moveq	ip, #1
 198              		.loc 1 107 0
 199 0068 4FF0000C 		movne	ip, #0
 200              	.LVL27:
 201              		.loc 1 113 0
 202 006c 2E2A     		cmp	r2, #46
 203 006e 03BF     		ittte	eq
 204 0070 5A78     		ldrbeq	r2, [r3, #1]	@ zero_extendqisi2
 205              		.loc 1 114 0
 206 0072 0133     		addeq	r3, r3, #1
 207              	.LVL28:
 208              		.loc 1 115 0
 209 0074 3026     		moveq	r6, #48
 210              		.loc 1 112 0
 211 0076 2026     		movne	r6, #32
 212              	.LVL29:
 213              		.loc 1 115 0
 214 0078 1C46     		mov	r4, r3
 215              		.loc 1 117 0
 216 007a 0025     		movs	r5, #0
 217 007c 06E0     		b	.L19
 218              	.LVL30:
 219              	.L73:
 220              		.loc 1 123 0
 221 007e 0B78     		ldrb	r3, [r1]	@ zero_extendqisi2
 222              	.LVL31:
 223 0080 0431     		adds	r1, r1, #4
 224              	.LVL32:
 225              	.L17:
 226              		.loc 1 126 0
ARM GAS  /tmp/ccoetFCr.s 			page 5


 227 0082 05EB8505 		add	r5, r5, r5, lsl #2
 228              	.LVL33:
 229 0086 2278     		ldrb	r2, [r4]	@ zero_extendqisi2
 230 0088 03EB4505 		add	r5, r3, r5, lsl #1
 231              	.LVL34:
 232              	.L19:
 233              		.loc 1 120 0
 234 008c A2F13003 		sub	r3, r2, #48
 235 0090 DBB2     		uxtb	r3, r3
 236 0092 092B     		cmp	r3, #9
 237              		.loc 1 119 0
 238 0094 04F10104 		add	r4, r4, #1
 239              	.LVL35:
 240              		.loc 1 120 0
 241 0098 F3D9     		bls	.L17
 242              		.loc 1 122 0
 243 009a 2A2A     		cmp	r2, #42
 244 009c EFD0     		beq	.L73
 245              		.loc 1 129 0
 246 009e 2E2A     		cmp	r2, #46
 247 00a0 0291     		str	r1, [sp, #8]
 248              	.LVL36:
 249 00a2 4FF00000 		mov	r0, #0
 250 00a6 2DD0     		beq	.L23
 251              	.LVL37:
 252              	.L20:
 253              		.loc 1 143 0
 254 00a8 02F0DF03 		and	r3, r2, #223
 255 00ac 4C2B     		cmp	r3, #76
 256 00ae 03D1     		bne	.L24
 257              	.LVL38:
 258              		.loc 1 145 0
 259 00b0 2378     		ldrb	r3, [r4]	@ zero_extendqisi2
 260 00b2 0BB1     		cbz	r3, .L24
 261              		.loc 1 146 0
 262 00b4 0134     		adds	r4, r4, #1
 263              	.LVL39:
 264 00b6 1A46     		mov	r2, r3
 265              	.LVL40:
 266              	.L24:
 267              		.loc 1 152 0
 268 00b8 A2F14403 		sub	r3, r2, #68
 269 00bc 342B     		cmp	r3, #52
 270 00be 00F2B480 		bhi	.L25
 271 00c2 DFE803F0 		tbb	[pc, r3]
 272              	.L27:
 273 00c6 70       		.byte	(.L26-.L27)/2
 274 00c7 B2       		.byte	(.L25-.L27)/2
 275 00c8 B2       		.byte	(.L25-.L27)/2
 276 00c9 B2       		.byte	(.L25-.L27)/2
 277 00ca B2       		.byte	(.L25-.L27)/2
 278 00cb B2       		.byte	(.L25-.L27)/2
 279 00cc B2       		.byte	(.L25-.L27)/2
 280 00cd B2       		.byte	(.L25-.L27)/2
 281 00ce B2       		.byte	(.L25-.L27)/2
 282 00cf B2       		.byte	(.L25-.L27)/2
 283 00d0 B2       		.byte	(.L25-.L27)/2
ARM GAS  /tmp/ccoetFCr.s 			page 6


 284 00d1 6E       		.byte	(.L28-.L27)/2
 285 00d2 B2       		.byte	(.L25-.L27)/2
 286 00d3 B2       		.byte	(.L25-.L27)/2
 287 00d4 B2       		.byte	(.L25-.L27)/2
 288 00d5 B2       		.byte	(.L25-.L27)/2
 289 00d6 B2       		.byte	(.L25-.L27)/2
 290 00d7 2C       		.byte	(.L51-.L27)/2
 291 00d8 B2       		.byte	(.L25-.L27)/2
 292 00d9 B2       		.byte	(.L25-.L27)/2
 293 00da B0       		.byte	(.L30-.L27)/2
 294 00db B2       		.byte	(.L25-.L27)/2
 295 00dc B2       		.byte	(.L25-.L27)/2
 296 00dd B2       		.byte	(.L25-.L27)/2
 297 00de B2       		.byte	(.L25-.L27)/2
 298 00df B2       		.byte	(.L25-.L27)/2
 299 00e0 B2       		.byte	(.L25-.L27)/2
 300 00e1 B2       		.byte	(.L25-.L27)/2
 301 00e2 B2       		.byte	(.L25-.L27)/2
 302 00e3 B2       		.byte	(.L25-.L27)/2
 303 00e4 B2       		.byte	(.L25-.L27)/2
 304 00e5 87       		.byte	(.L31-.L27)/2
 305 00e6 70       		.byte	(.L26-.L27)/2
 306 00e7 B2       		.byte	(.L25-.L27)/2
 307 00e8 B2       		.byte	(.L25-.L27)/2
 308 00e9 B2       		.byte	(.L25-.L27)/2
 309 00ea B2       		.byte	(.L25-.L27)/2
 310 00eb B2       		.byte	(.L25-.L27)/2
 311 00ec B2       		.byte	(.L25-.L27)/2
 312 00ed B2       		.byte	(.L25-.L27)/2
 313 00ee B2       		.byte	(.L25-.L27)/2
 314 00ef B2       		.byte	(.L25-.L27)/2
 315 00f0 B2       		.byte	(.L25-.L27)/2
 316 00f1 6E       		.byte	(.L28-.L27)/2
 317 00f2 B2       		.byte	(.L25-.L27)/2
 318 00f3 B2       		.byte	(.L25-.L27)/2
 319 00f4 B2       		.byte	(.L25-.L27)/2
 320 00f5 93       		.byte	(.L32-.L27)/2
 321 00f6 B2       		.byte	(.L25-.L27)/2
 322 00f7 2C       		.byte	(.L51-.L27)/2
 323 00f8 B2       		.byte	(.L25-.L27)/2
 324 00f9 B2       		.byte	(.L25-.L27)/2
 325 00fa B0       		.byte	(.L30-.L27)/2
 326 00fb 00       		.align	1
 327              	.LVL41:
 328              	.L22:
 329              		.loc 1 135 0
 330 00fc 0B78     		ldrb	r3, [r1]	@ zero_extendqisi2
 331              	.LVL42:
 332 00fe 0431     		adds	r1, r1, #4
 333              	.LVL43:
 334              	.L21:
 335              		.loc 1 139 0
 336 0100 03EB4700 		add	r0, r3, r7, lsl #1
 337              	.LVL44:
 338              	.L23:
 339              		.loc 1 131 0
 340 0104 14F8012B 		ldrb	r2, [r4], #1	@ zero_extendqisi2
ARM GAS  /tmp/ccoetFCr.s 			page 7


 341              	.LVL45:
 342              		.loc 1 138 0
 343 0108 00EB8007 		add	r7, r0, r0, lsl #2
 344              		.loc 1 132 0
 345 010c A2F13003 		sub	r3, r2, #48
 346 0110 DBB2     		uxtb	r3, r3
 347 0112 092B     		cmp	r3, #9
 348 0114 F4D9     		bls	.L21
 349              		.loc 1 134 0
 350 0116 2A2A     		cmp	r2, #42
 351 0118 F0D0     		beq	.L22
 352 011a 0291     		str	r1, [sp, #8]
 353 011c C4E7     		b	.L20
 354              	.LVL46:
 355              	.L51:
 356              		.loc 1 152 0
 357 011e 0A22     		movs	r2, #10
 358              	.LVL47:
 359              	.L29:
 360              		.loc 1 191 0
 361 0120 029B     		ldr	r3, [sp, #8]
 362              		.loc 1 194 0
 363 0122 4846     		mov	r0, r9
 364              		.loc 1 191 0
 365 0124 1F1D     		adds	r7, r3, #4
 366              		.loc 1 194 0
 367 0126 1968     		ldr	r1, [r3]
 368              		.loc 1 191 0
 369 0128 0297     		str	r7, [sp, #8]
 370              	.LVL48:
 371              		.loc 1 194 0
 372 012a FFF7FEFF 		bl	ltoa
 373              	.LVL49:
 374 012e C9EB0000 		rsb	r0, r9, r0
 375              	.LVL50:
 376 0132 00F1FF38 		add	r8, r0, #-1
 377              		.loc 1 106 0
 378 0136 4F46     		mov	r7, r9
 379              	.LVL51:
 380              	.L33:
 381              		.loc 1 201 0
 382 0138 2D1A     		subs	r5, r5, r0
 383              	.LVL52:
 384 013a 25EAE575 		bic	r5, r5, r5, asr #31
 385              	.LVL53:
 386              		.loc 1 203 0
 387 013e BCF1000F 		cmp	ip, #0
 388 0142 0ED1     		bne	.L40
 389              		.loc 1 204 0
 390 0144 6D42     		negs	r5, r5
 391              	.LVL54:
 392              		.loc 1 205 0
 393 0146 65B1     		cbz	r5, .L40
 394              		.loc 1 206 0
 395 0148 3978     		ldrb	r1, [r7]	@ zero_extendqisi2
 396 014a 2D29     		cmp	r1, #45
 397 014c 74D0     		beq	.L74
ARM GAS  /tmp/ccoetFCr.s 			page 8


 398              	.LVL55:
 399              	.L42:
 400              		.loc 1 211 0 discriminator 1
 401 014e DAF80030 		ldr	r3, [r10]
 402 0152 5046     		mov	r0, r10
 403 0154 1B69     		ldr	r3, [r3, #16]
 404 0156 3146     		mov	r1, r6
 405 0158 4FF0FF32 		mov	r2, #-1
 406 015c 9847     		blx	r3
 407              	.LVL56:
 408              		.loc 1 212 0 discriminator 1
 409 015e 0135     		adds	r5, r5, #1
 410              	.LVL57:
 411 0160 F5D1     		bne	.L42
 412              	.L40:
 413              		.loc 1 214 0 discriminator 1
 414 0162 B8F1000F 		cmp	r8, #0
 415 0166 A4BF     		itt	ge
 416 0168 B844     		addge	r8, r8, r7
 417 016a 07F1FF37 		addge	r7, r7, #-1
 418 016e 0ADB     		blt	.L45
 419              	.LVL58:
 420              	.L46:
 421              		.loc 1 215 0
 422 0170 DAF80030 		ldr	r3, [r10]
 423 0174 17F8011F 		ldrb	r1, [r7, #1]!	@ zero_extendqisi2
 424              	.LVL59:
 425 0178 1B69     		ldr	r3, [r3, #16]
 426 017a 5046     		mov	r0, r10
 427 017c 4FF0FF32 		mov	r2, #-1
 428 0180 9847     		blx	r3
 429              	.LVL60:
 430              		.loc 1 214 0
 431 0182 4745     		cmp	r7, r8
 432 0184 F4D1     		bne	.L46
 433              	.LVL61:
 434              	.L45:
 435              		.loc 1 217 0
 436 0186 002D     		cmp	r5, #0
 437 0188 3FF450AF 		beq	.L11
 438              	.L47:
 439              		.loc 1 218 0
 440 018c DAF80030 		ldr	r3, [r10]
 441 0190 5046     		mov	r0, r10
 442 0192 1B69     		ldr	r3, [r3, #16]
 443 0194 3146     		mov	r1, r6
 444 0196 4FF0FF32 		mov	r2, #-1
 445 019a 9847     		blx	r3
 446              	.LVL62:
 447              		.loc 1 217 0
 448 019c 013D     		subs	r5, r5, #1
 449              	.LVL63:
 450 019e F5D1     		bne	.L47
 451 01a0 44E7     		b	.L11
 452              	.LVL64:
 453              	.L28:
 454 01a2 0822     		movs	r2, #8
ARM GAS  /tmp/ccoetFCr.s 			page 9


 455 01a4 BCE7     		b	.L29
 456              	.LVL65:
 457              	.L26:
 458              		.loc 1 169 0
 459 01a6 029B     		ldr	r3, [sp, #8]
 460              		.loc 1 176 0
 461 01a8 0A22     		movs	r2, #10
 462              	.LVL66:
 463              		.loc 1 169 0
 464 01aa 1968     		ldr	r1, [r3]
 465              	.LVL67:
 466 01ac 0433     		adds	r3, r3, #4
 467              		.loc 1 172 0
 468 01ae 0029     		cmp	r1, #0
 469              	.LVL68:
 470              		.loc 1 169 0
 471 01b0 0293     		str	r3, [sp, #8]
 472              		.loc 1 174 0
 473 01b2 BDBF     		ittte	lt
 474 01b4 4942     		rsblt	r1, r1, #0
 475              	.LVL69:
 476              		.loc 1 173 0
 477 01b6 2D23     		movlt	r3, #45
 478 01b8 0DF10D00 		addlt	r0, sp, #13
 479              		.loc 1 105 0
 480 01bc 4846     		movge	r0, r9
 481              	.LVL70:
 482              		.loc 1 173 0
 483 01be B8BF     		it	lt
 484 01c0 8DF80C30 		strblt	r3, [sp, #12]
 485              		.loc 1 176 0
 486 01c4 FFF7FEFF 		bl	ltoa
 487              	.LVL71:
 488 01c8 C9EB0000 		rsb	r0, r9, r0
 489              	.LVL72:
 490 01cc 00F1FF38 		add	r8, r0, #-1
 491              		.loc 1 106 0
 492 01d0 4F46     		mov	r7, r9
 493              		.loc 1 177 0
 494 01d2 B1E7     		b	.L33
 495              	.LVL73:
 496              	.L31:
 497              		.loc 1 155 0
 498 01d4 029B     		ldr	r3, [sp, #8]
 499 01d6 5846     		mov	r0, fp
 500 01d8 1A68     		ldr	r2, [r3]
 501              	.LVL74:
 502 01da 0433     		adds	r3, r3, #4
 503 01dc 8DF80C20 		strb	r2, [sp, #12]
 504 01e0 0293     		str	r3, [sp, #8]
 505 01e2 0BF1FF38 		add	r8, fp, #-1
 506              		.loc 1 154 0
 507 01e6 2026     		movs	r6, #32
 508              		.loc 1 106 0
 509 01e8 4F46     		mov	r7, r9
 510              		.loc 1 156 0
 511 01ea A5E7     		b	.L33
ARM GAS  /tmp/ccoetFCr.s 			page 10


 512              	.LVL75:
 513              	.L32:
 514              		.loc 1 159 0
 515 01ec 029B     		ldr	r3, [sp, #8]
 516              		.loc 1 160 0
 517 01ee 019A     		ldr	r2, [sp, #4]
 518              	.LVL76:
 519              		.loc 1 159 0
 520 01f0 1F68     		ldr	r7, [r3]
 521              		.loc 1 162 0
 522 01f2 47F6FF71 		movw	r1, #32767
 523              		.loc 1 160 0
 524 01f6 002F     		cmp	r7, #0
 525 01f8 08BF     		it	eq
 526 01fa 1746     		moveq	r7, r2
 527              		.loc 1 163 0
 528 01fc 3A78     		ldrb	r2, [r7]	@ zero_extendqisi2
 529              		.loc 1 159 0
 530 01fe 0433     		adds	r3, r3, #4
 531 0200 0293     		str	r3, [sp, #8]
 532              	.LVL77:
 533              		.loc 1 162 0
 534 0202 0028     		cmp	r0, #0
 535 0204 08BF     		it	eq
 536 0206 0846     		moveq	r0, r1
 537              	.LVL78:
 538              		.loc 1 163 0
 539 0208 42B3     		cbz	r2, .L54
 540 020a 3844     		add	r0, r0, r7
 541 020c 3B46     		mov	r3, r7
 542              	.LVL79:
 543 020e 01E0     		b	.L38
 544              	.LVL80:
 545              	.L36:
 546              		.loc 1 163 0 is_stmt 0 discriminator 2
 547 0210 9842     		cmp	r0, r3
 548 0212 1ED0     		beq	.L75
 549              	.LVL81:
 550              	.L38:
 551              		.loc 1 163 0 discriminator 1
 552 0214 5A78     		ldrb	r2, [r3, #1]	@ zero_extendqisi2
 553 0216 0133     		adds	r3, r3, #1
 554              	.LVL82:
 555 0218 002A     		cmp	r2, #0
 556 021a F9D1     		bne	.L36
 557 021c D81B     		subs	r0, r3, r7
 558 021e 00F1FF38 		add	r8, r0, #-1
 559              		.loc 1 158 0 is_stmt 1
 560 0222 2026     		movs	r6, #32
 561 0224 88E7     		b	.L33
 562              	.LVL83:
 563              	.L30:
 564              		.loc 1 152 0
 565 0226 1022     		movs	r2, #16
 566              	.LVL84:
 567 0228 7AE7     		b	.L29
 568              	.LVL85:
ARM GAS  /tmp/ccoetFCr.s 			page 11


 569              	.L25:
 570              		.loc 1 197 0
 571 022a 8DF80C20 		strb	r2, [sp, #12]
 572 022e 5846     		mov	r0, fp
 573 0230 0BF1FF38 		add	r8, fp, #-1
 574              		.loc 1 106 0
 575 0234 4F46     		mov	r7, r9
 576              		.loc 1 198 0
 577 0236 7FE7     		b	.L33
 578              	.LVL86:
 579              	.L74:
 580              		.loc 1 206 0 discriminator 1
 581 0238 302E     		cmp	r6, #48
 582 023a 88D1     		bne	.L42
 583              	.LVL87:
 584              		.loc 1 207 0
 585 023c DAF80030 		ldr	r3, [r10]
 586 0240 5046     		mov	r0, r10
 587              	.LVL88:
 588 0242 1B69     		ldr	r3, [r3, #16]
 589 0244 4FF0FF32 		mov	r2, #-1
 590 0248 9847     		blx	r3
 591              	.LVL89:
 592 024a 0137     		adds	r7, r7, #1
 593              	.LVL90:
 594 024c 08F1FF38 		add	r8, r8, #-1
 595              	.LVL91:
 596 0250 7DE7     		b	.L42
 597              	.LVL92:
 598              	.L75:
 599 0252 C01B     		subs	r0, r0, r7
 600 0254 00F1FF38 		add	r8, r0, #-1
 601              		.loc 1 158 0
 602 0258 2026     		movs	r6, #32
 603 025a 6DE7     		b	.L33
 604              	.LVL93:
 605              	.L54:
 606              		.loc 1 163 0
 607 025c 1046     		mov	r0, r2
 608 025e 4FF0FF38 		mov	r8, #-1
 609              		.loc 1 158 0
 610 0262 2026     		movs	r6, #32
 611 0264 68E7     		b	.L33
 612              		.cfi_endproc
 613              	.LFE8:
 614              		.size	chprintf, .-chprintf
 615 0266 00BFAFF3 		.section	.rodata.str1.4,"aMS",%progbits,1
 615      0080AFF3 
 615      0080
 616              		.align	2
 617              	.LC0:
 618 0000 286E756C 		.ascii	"(null)\000"
 618      6C2900
 619 0007 00       		.text
 620              	.Letext0:
 621              		.file 2 "/home/santi/arm-2013.11/lib/gcc/arm-none-eabi/4.8.1/include/stdarg.h"
 622              		.file 3 "/home/santi/arm-2013.11/lib/gcc/arm-none-eabi/4.8.1/include/stddef.h"
ARM GAS  /tmp/ccoetFCr.s 			page 12


 623              		.file 4 "/home/santi/arm-2013.11/arm-none-eabi/include/stdint.h"
 624              		.file 5 "../third_party/ChibiOS/os/ports/GCC/ARMCMx/chtypes.h"
 625              		.file 6 "<built-in>"
 626              		.file 7 "../third_party/ChibiOS/os/kernel/include/chioch.h"