ARM GAS  /tmp/ccZptTGt.s 			page 1


   1              		.syntax unified
   2              		.cpu cortex-m3
   3              		.fpu softvfp
   4              		.eabi_attribute 20, 1
   5              		.eabi_attribute 21, 1
   6              		.eabi_attribute 23, 3
   7              		.eabi_attribute 24, 1
   8              		.eabi_attribute 25, 1
   9              		.eabi_attribute 26, 1
  10              		.eabi_attribute 30, 2
  11              		.eabi_attribute 34, 1
  12              		.eabi_attribute 18, 4
  13              		.thumb
  14              		.file	"chsem.c"
  15              		.text
  16              	.Ltext0:
  17              		.cfi_sections	.debug_frame
  18              		.section	.text.chSemInit,"ax",%progbits
  19              		.align	2
  20              		.p2align 4,,15
  21              		.global	chSemInit
  22              		.thumb
  23              		.thumb_func
  24              		.type	chSemInit, %function
  25              	chSemInit:
  26              	.LFB7:
  27              		.file 1 "../third_party/ChibiOS/os/kernel/src/chsem.c"
  28              		.loc 1 86 0
  29              		.cfi_startproc
  30              		@ args = 0, pretend = 0, frame = 0
  31              		@ frame_needed = 0, uses_anonymous_args = 0
  32              		@ link register save eliminated.
  33              	.LVL0:
  34              		.loc 1 90 0
  35 0000 4060     		str	r0, [r0, #4]
  36 0002 0060     		str	r0, [r0]
  37              		.loc 1 91 0
  38 0004 8160     		str	r1, [r0, #8]
  39 0006 7047     		bx	lr
  40              		.cfi_endproc
  41              	.LFE7:
  42              		.size	chSemInit, .-chSemInit
  43 0008 AFF30080 		.section	.text.chSemResetI,"ax",%progbits
  43      AFF30080 
  44              		.align	2
  45              		.p2align 4,,15
  46              		.global	chSemResetI
  47              		.thumb
  48              		.thumb_func
  49              		.type	chSemResetI, %function
  50              	chSemResetI:
  51              	.LFB9:
  52              		.loc 1 136 0
  53              		.cfi_startproc
  54              		@ args = 0, pretend = 0, frame = 0
  55              		@ frame_needed = 0, uses_anonymous_args = 0
  56              	.LVL1:
ARM GAS  /tmp/ccZptTGt.s 			page 2


  57 0000 70B5     		push	{r4, r5, r6, lr}
  58              		.cfi_def_cfa_offset 16
  59              		.cfi_offset 4, -16
  60              		.cfi_offset 5, -12
  61              		.cfi_offset 6, -8
  62              		.cfi_offset 14, -4
  63              		.loc 1 141 0
  64 0002 8568     		ldr	r5, [r0, #8]
  65              	.LVL2:
  66              		.loc 1 136 0
  67 0004 0446     		mov	r4, r0
  68              		.loc 1 148 0
  69 0006 0135     		adds	r5, r5, #1
  70              	.LVL3:
  71 0008 002D     		cmp	r5, #0
  72              		.loc 1 147 0
  73 000a 8160     		str	r1, [r0, #8]
  74              	.LVL4:
  75              		.loc 1 148 0
  76 000c 0BDC     		bgt	.L2
  77              		.loc 1 149 0
  78 000e 6FF00106 		mvn	r6, #1
  79              	.LVL5:
  80              	.L5:
  81              	.LBB24:
  82              	.LBB25:
  83              		.file 2 "../third_party/ChibiOS/os/kernel/include/chinline.h"
  84              		.loc 2 67 0
  85 0012 6068     		ldr	r0, [r4, #4]
  86              	.LVL6:
  87              	.LBE25:
  88              	.LBE24:
  89              		.loc 1 148 0
  90 0014 0135     		adds	r5, r5, #1
  91              	.LVL7:
  92              	.LBB27:
  93              	.LBB26:
  94              		.loc 2 69 0
  95 0016 4368     		ldr	r3, [r0, #4]
  96 0018 6360     		str	r3, [r4, #4]
  97 001a 1C60     		str	r4, [r3]
  98              	.LBE26:
  99              	.LBE27:
 100              		.loc 1 149 0
 101 001c FFF7FEFF 		bl	chSchReadyI
 102              	.LVL8:
 103              		.loc 1 148 0
 104 0020 012D     		cmp	r5, #1
 105              		.loc 1 149 0
 106 0022 4662     		str	r6, [r0, #36]
 107              	.LVL9:
 108              		.loc 1 148 0
 109 0024 F5D1     		bne	.L5
 110              	.LVL10:
 111              	.L2:
 112 0026 70BD     		pop	{r4, r5, r6, pc}
 113              		.cfi_endproc
ARM GAS  /tmp/ccZptTGt.s 			page 3


 114              	.LFE9:
 115              		.size	chSemResetI, .-chSemResetI
 116 0028 AFF30080 		.section	.text.chSemReset,"ax",%progbits
 116      AFF30080 
 117              		.align	2
 118              		.p2align 4,,15
 119              		.global	chSemReset
 120              		.thumb
 121              		.thumb_func
 122              		.type	chSemReset, %function
 123              	chSemReset:
 124              	.LFB8:
 125              		.loc 1 109 0
 126              		.cfi_startproc
 127              		@ args = 0, pretend = 0, frame = 0
 128              		@ frame_needed = 0, uses_anonymous_args = 0
 129              	.LVL11:
 130 0000 08B5     		push	{r3, lr}
 131              		.cfi_def_cfa_offset 8
 132              		.cfi_offset 3, -8
 133              		.cfi_offset 14, -4
 134              	.LBB28:
 135              		.loc 1 111 0
 136 0002 2023     		movs	r3, #32
 137              	@ 111 "../third_party/ChibiOS/os/kernel/src/chsem.c" 1
 138 0004 83F31188 		msr     BASEPRI, r3
 139              	@ 0 "" 2
 140              		.thumb
 141              	.LBE28:
 142              		.loc 1 112 0
 143 0008 FFF7FEFF 		bl	chSemResetI
 144              	.LVL12:
 145              		.loc 1 113 0
 146 000c FFF7FEFF 		bl	chSchRescheduleS
 147              	.LVL13:
 148              	.LBB29:
 149              		.loc 1 114 0
 150 0010 0023     		movs	r3, #0
 151              	@ 114 "../third_party/ChibiOS/os/kernel/src/chsem.c" 1
 152 0012 83F31188 		msr     BASEPRI, r3
 153              	@ 0 "" 2
 154              		.thumb
 155 0016 08BD     		pop	{r3, pc}
 156              	.LBE29:
 157              		.cfi_endproc
 158              	.LFE8:
 159              		.size	chSemReset, .-chSemReset
 160 0018 AFF30080 		.section	.text.chSemWaitS,"ax",%progbits
 160      AFF30080 
 161              		.align	2
 162              		.p2align 4,,15
 163              		.global	chSemWaitS
 164              		.thumb
 165              		.thumb_func
 166              		.type	chSemWaitS, %function
 167              	chSemWaitS:
 168              	.LFB11:
ARM GAS  /tmp/ccZptTGt.s 			page 4


 169              		.loc 1 185 0
 170              		.cfi_startproc
 171              		@ args = 0, pretend = 0, frame = 0
 172              		@ frame_needed = 0, uses_anonymous_args = 0
 173              	.LVL14:
 174              		.loc 1 194 0
 175 0000 8268     		ldr	r2, [r0, #8]
 176              		.loc 1 185 0
 177 0002 10B5     		push	{r4, lr}
 178              		.cfi_def_cfa_offset 8
 179              		.cfi_offset 4, -8
 180              		.cfi_offset 14, -4
 181              		.loc 1 194 0
 182 0004 013A     		subs	r2, r2, #1
 183 0006 002A     		cmp	r2, #0
 184              		.loc 1 185 0
 185 0008 0346     		mov	r3, r0
 186              		.loc 1 194 0
 187 000a 8260     		str	r2, [r0, #8]
 188 000c 01DB     		blt	.L14
 189              		.loc 1 200 0
 190 000e 0020     		movs	r0, #0
 191              	.LVL15:
 192              		.loc 1 201 0
 193 0010 10BD     		pop	{r4, pc}
 194              	.LVL16:
 195              	.L14:
 196              		.loc 1 195 0
 197 0012 40F20004 		movw	r4, #:lower16:rlist
 198 0016 C0F20004 		movt	r4, #:upper16:rlist
 199 001a E269     		ldr	r2, [r4, #28]
 200              		.loc 1 197 0
 201 001c 0320     		movs	r0, #3
 202              	.LVL17:
 203              		.loc 1 195 0
 204 001e 5362     		str	r3, [r2, #36]
 205              	.LVL18:
 206              	.LBB30:
 207              	.LBB31:
 208              		.loc 2 55 0
 209 0020 5968     		ldr	r1, [r3, #4]
 210              		.loc 2 54 0
 211 0022 1360     		str	r3, [r2]
 212              		.loc 2 55 0
 213 0024 5160     		str	r1, [r2, #4]
 214              		.loc 2 56 0
 215 0026 5A60     		str	r2, [r3, #4]
 216              	.LVL19:
 217 0028 0A60     		str	r2, [r1]
 218              	.LVL20:
 219              	.LBE31:
 220              	.LBE30:
 221              		.loc 1 197 0
 222 002a FFF7FEFF 		bl	chSchGoSleepS
 223              	.LVL21:
 224              		.loc 1 198 0
 225 002e E369     		ldr	r3, [r4, #28]
ARM GAS  /tmp/ccZptTGt.s 			page 5


 226 0030 586A     		ldr	r0, [r3, #36]
 227 0032 10BD     		pop	{r4, pc}
 228              		.cfi_endproc
 229              	.LFE11:
 230              		.size	chSemWaitS, .-chSemWaitS
 231 0034 AFF30080 		.section	.text.chSemWait,"ax",%progbits
 231      AFF30080 
 231      AFF30080 
 232              		.align	2
 233              		.p2align 4,,15
 234              		.global	chSemWait
 235              		.thumb
 236              		.thumb_func
 237              		.type	chSemWait, %function
 238              	chSemWait:
 239              	.LFB10:
 240              		.loc 1 164 0
 241              		.cfi_startproc
 242              		@ args = 0, pretend = 0, frame = 0
 243              		@ frame_needed = 0, uses_anonymous_args = 0
 244              	.LVL22:
 245 0000 08B5     		push	{r3, lr}
 246              		.cfi_def_cfa_offset 8
 247              		.cfi_offset 3, -8
 248              		.cfi_offset 14, -4
 249              	.LBB32:
 250              		.loc 1 167 0
 251 0002 2023     		movs	r3, #32
 252              	@ 167 "../third_party/ChibiOS/os/kernel/src/chsem.c" 1
 253 0004 83F31188 		msr     BASEPRI, r3
 254              	@ 0 "" 2
 255              		.thumb
 256              	.LBE32:
 257              		.loc 1 168 0
 258 0008 FFF7FEFF 		bl	chSemWaitS
 259              	.LVL23:
 260              	.LBB33:
 261              		.loc 1 169 0
 262 000c 0023     		movs	r3, #0
 263              	@ 169 "../third_party/ChibiOS/os/kernel/src/chsem.c" 1
 264 000e 83F31188 		msr     BASEPRI, r3
 265              	@ 0 "" 2
 266              		.thumb
 267              	.LBE33:
 268              		.loc 1 171 0
 269 0012 08BD     		pop	{r3, pc}
 270              		.cfi_endproc
 271              	.LFE10:
 272              		.size	chSemWait, .-chSemWait
 273 0014 AFF30080 		.section	.text.chSemWaitTimeoutS,"ax",%progbits
 273      AFF30080 
 273      AFF30080 
 274              		.align	2
 275              		.p2align 4,,15
 276              		.global	chSemWaitTimeoutS
 277              		.thumb
 278              		.thumb_func
ARM GAS  /tmp/ccZptTGt.s 			page 6


 279              		.type	chSemWaitTimeoutS, %function
 280              	chSemWaitTimeoutS:
 281              	.LFB13:
 282              		.loc 1 250 0
 283              		.cfi_startproc
 284              		@ args = 0, pretend = 0, frame = 0
 285              		@ frame_needed = 0, uses_anonymous_args = 0
 286              		@ link register save eliminated.
 287              	.LVL24:
 288 0000 0346     		mov	r3, r0
 289              		.loc 1 254 0
 290 0002 8068     		ldr	r0, [r0, #8]
 291              	.LVL25:
 292              		.loc 1 250 0
 293 0004 10B4     		push	{r4}
 294              		.cfi_def_cfa_offset 4
 295              		.cfi_offset 4, -4
 296              		.loc 1 259 0
 297 0006 421E     		subs	r2, r0, #1
 298 0008 002A     		cmp	r2, #0
 299 000a 9A60     		str	r2, [r3, #8]
 300              		.loc 1 268 0
 301 000c A8BF     		it	ge
 302 000e 0020     		movge	r0, #0
 303              		.loc 1 259 0
 304 0010 02DB     		blt	.L20
 305              	.L17:
 306              		.loc 1 269 0
 307 0012 5DF8044B 		ldr	r4, [sp], #4
 308 0016 7047     		bx	lr
 309              	.L20:
 310              		.loc 1 260 0
 311 0018 79B1     		cbz	r1, .L21
 312              		.loc 1 264 0
 313 001a 40F20002 		movw	r2, #:lower16:rlist
 314 001e C0F20002 		movt	r2, #:upper16:rlist
 315 0022 D269     		ldr	r2, [r2, #28]
 316              		.loc 1 266 0
 317 0024 0320     		movs	r0, #3
 318              		.loc 1 264 0
 319 0026 5362     		str	r3, [r2, #36]
 320              	.LVL26:
 321              	.LBB34:
 322              	.LBB35:
 323              		.loc 2 55 0
 324 0028 5C68     		ldr	r4, [r3, #4]
 325 002a 82E81800 		stmia	r2, {r3, r4}
 326              		.loc 2 56 0
 327 002e 5A60     		str	r2, [r3, #4]
 328              	.LVL27:
 329 0030 2260     		str	r2, [r4]
 330              	.LVL28:
 331              	.LBE35:
 332              	.LBE34:
 333              		.loc 1 269 0
 334 0032 5DF8044B 		ldr	r4, [sp], #4
 335              		.loc 1 266 0
ARM GAS  /tmp/ccZptTGt.s 			page 7


 336 0036 FFF7FEBF 		b	chSchGoSleepTimeoutS
 337              	.LVL29:
 338              	.L21:
 339              		.loc 1 261 0
 340 003a 9860     		str	r0, [r3, #8]
 341              		.loc 1 262 0
 342 003c 4FF0FF30 		mov	r0, #-1
 343 0040 E7E7     		b	.L17
 344              		.cfi_endproc
 345              	.LFE13:
 346              		.size	chSemWaitTimeoutS, .-chSemWaitTimeoutS
 347 0042 00BFAFF3 		.section	.text.chSemWaitTimeout,"ax",%progbits
 347      0080AFF3 
 347      0080AFF3 
 347      0080
 348              		.align	2
 349              		.p2align 4,,15
 350              		.global	chSemWaitTimeout
 351              		.thumb
 352              		.thumb_func
 353              		.type	chSemWaitTimeout, %function
 354              	chSemWaitTimeout:
 355              	.LFB12:
 356              		.loc 1 222 0
 357              		.cfi_startproc
 358              		@ args = 0, pretend = 0, frame = 0
 359              		@ frame_needed = 0, uses_anonymous_args = 0
 360              	.LVL30:
 361 0000 08B5     		push	{r3, lr}
 362              		.cfi_def_cfa_offset 8
 363              		.cfi_offset 3, -8
 364              		.cfi_offset 14, -4
 365              	.LBB36:
 366              		.loc 1 225 0
 367 0002 2023     		movs	r3, #32
 368              	@ 225 "../third_party/ChibiOS/os/kernel/src/chsem.c" 1
 369 0004 83F31188 		msr     BASEPRI, r3
 370              	@ 0 "" 2
 371              		.thumb
 372              	.LBE36:
 373              		.loc 1 226 0
 374 0008 FFF7FEFF 		bl	chSemWaitTimeoutS
 375              	.LVL31:
 376              	.LBB37:
 377              		.loc 1 227 0
 378 000c 0023     		movs	r3, #0
 379              	@ 227 "../third_party/ChibiOS/os/kernel/src/chsem.c" 1
 380 000e 83F31188 		msr     BASEPRI, r3
 381              	@ 0 "" 2
 382              		.thumb
 383              	.LBE37:
 384              		.loc 1 229 0
 385 0012 08BD     		pop	{r3, pc}
 386              		.cfi_endproc
 387              	.LFE12:
 388              		.size	chSemWaitTimeout, .-chSemWaitTimeout
 389 0014 AFF30080 		.section	.text.chSemSignal,"ax",%progbits
ARM GAS  /tmp/ccZptTGt.s 			page 8


 389      AFF30080 
 389      AFF30080 
 390              		.align	2
 391              		.p2align 4,,15
 392              		.global	chSemSignal
 393              		.thumb
 394              		.thumb_func
 395              		.type	chSemSignal, %function
 396              	chSemSignal:
 397              	.LFB14:
 398              		.loc 1 278 0
 399              		.cfi_startproc
 400              		@ args = 0, pretend = 0, frame = 0
 401              		@ frame_needed = 0, uses_anonymous_args = 0
 402              	.LVL32:
 403 0000 08B5     		push	{r3, lr}
 404              		.cfi_def_cfa_offset 8
 405              		.cfi_offset 3, -8
 406              		.cfi_offset 14, -4
 407              		.loc 1 278 0
 408 0002 0246     		mov	r2, r0
 409              	.LBB38:
 410              		.loc 1 286 0
 411 0004 2023     		movs	r3, #32
 412              	@ 286 "../third_party/ChibiOS/os/kernel/src/chsem.c" 1
 413 0006 83F31188 		msr     BASEPRI, r3
 414              	@ 0 "" 2
 415              		.thumb
 416              	.LBE38:
 417              		.loc 1 287 0
 418 000a 8368     		ldr	r3, [r0, #8]
 419 000c 0133     		adds	r3, r3, #1
 420 000e 002B     		cmp	r3, #0
 421 0010 8360     		str	r3, [r0, #8]
 422 0012 03DD     		ble	.L25
 423              	.LBB39:
 424              		.loc 1 289 0
 425 0014 0023     		movs	r3, #0
 426              	@ 289 "../third_party/ChibiOS/os/kernel/src/chsem.c" 1
 427 0016 83F31188 		msr     BASEPRI, r3
 428              	@ 0 "" 2
 429              		.thumb
 430 001a 08BD     		pop	{r3, pc}
 431              	.L25:
 432              	.LVL33:
 433              	.LBE39:
 434              	.LBB40:
 435              	.LBB41:
 436              		.loc 2 60 0
 437 001c 0068     		ldr	r0, [r0]
 438              	.LVL34:
 439              	.LBE41:
 440              	.LBE40:
 441              		.loc 1 288 0
 442 001e 0021     		movs	r1, #0
 443              	.LBB43:
 444              	.LBB42:
ARM GAS  /tmp/ccZptTGt.s 			page 9


 445              		.loc 2 62 0
 446 0020 0368     		ldr	r3, [r0]
 447 0022 1360     		str	r3, [r2]
 448 0024 5A60     		str	r2, [r3, #4]
 449              	.LBE42:
 450              	.LBE43:
 451              		.loc 1 288 0
 452 0026 FFF7FEFF 		bl	chSchWakeupS
 453              	.LVL35:
 454              	.LBB44:
 455              		.loc 1 289 0
 456 002a 0023     		movs	r3, #0
 457              	@ 289 "../third_party/ChibiOS/os/kernel/src/chsem.c" 1
 458 002c 83F31188 		msr     BASEPRI, r3
 459              	@ 0 "" 2
 460              		.thumb
 461 0030 08BD     		pop	{r3, pc}
 462              	.LBE44:
 463              		.cfi_endproc
 464              	.LFE14:
 465              		.size	chSemSignal, .-chSemSignal
 466 0032 00BFAFF3 		.section	.text.chSemSignalI,"ax",%progbits
 466      0080AFF3 
 466      0080AFF3 
 466      0080
 467              		.align	2
 468              		.p2align 4,,15
 469              		.global	chSemSignalI
 470              		.thumb
 471              		.thumb_func
 472              		.type	chSemSignalI, %function
 473              	chSemSignalI:
 474              	.LFB15:
 475              		.loc 1 303 0
 476              		.cfi_startproc
 477              		@ args = 0, pretend = 0, frame = 0
 478              		@ frame_needed = 0, uses_anonymous_args = 0
 479              		@ link register save eliminated.
 480              	.LVL36:
 481              		.loc 1 312 0
 482 0000 8268     		ldr	r2, [r0, #8]
 483              		.loc 1 303 0
 484 0002 10B4     		push	{r4}
 485              		.cfi_def_cfa_offset 4
 486              		.cfi_offset 4, -4
 487              		.loc 1 312 0
 488 0004 0132     		adds	r2, r2, #1
 489 0006 002A     		cmp	r2, #0
 490              		.loc 1 303 0
 491 0008 0346     		mov	r3, r0
 492              		.loc 1 312 0
 493 000a 8260     		str	r2, [r0, #8]
 494 000c 02DD     		ble	.L28
 495              		.loc 1 319 0
 496 000e 5DF8044B 		ldr	r4, [sp], #4
 497 0012 7047     		bx	lr
 498              	.L28:
ARM GAS  /tmp/ccZptTGt.s 			page 10


 499              	.LVL37:
 500              	.LBB45:
 501              	.LBB46:
 502              	.LBB47:
 503              		.loc 2 60 0
 504 0014 0268     		ldr	r2, [r0]
 505              	.LVL38:
 506              	.LBE47:
 507              	.LBE46:
 508              		.loc 1 316 0
 509 0016 0024     		movs	r4, #0
 510              	.LBB50:
 511              	.LBB48:
 512              		.loc 2 62 0
 513 0018 1168     		ldr	r1, [r2]
 514              	.LBE48:
 515              	.LBE50:
 516              		.loc 1 317 0
 517 001a 1046     		mov	r0, r2
 518              	.LVL39:
 519              	.LBB51:
 520              	.LBB49:
 521              		.loc 2 62 0
 522 001c 1960     		str	r1, [r3]
 523 001e 4B60     		str	r3, [r1, #4]
 524              	.LBE49:
 525              	.LBE51:
 526              		.loc 1 316 0
 527 0020 5462     		str	r4, [r2, #36]
 528              	.LBE45:
 529              		.loc 1 319 0
 530 0022 5DF8044B 		ldr	r4, [sp], #4
 531              	.LBB52:
 532              		.loc 1 317 0
 533 0026 FFF7FEBF 		b	chSchReadyI
 534              	.LVL40:
 535              	.LBE52:
 536              		.cfi_endproc
 537              	.LFE15:
 538              		.size	chSemSignalI, .-chSemSignalI
 539 002a 00BFAFF3 		.section	.text.chSemAddCounterI,"ax",%progbits
 539      0080
 540              		.align	2
 541              		.p2align 4,,15
 542              		.global	chSemAddCounterI
 543              		.thumb
 544              		.thumb_func
 545              		.type	chSemAddCounterI, %function
 546              	chSemAddCounterI:
 547              	.LFB16:
 548              		.loc 1 334 0
 549              		.cfi_startproc
 550              		@ args = 0, pretend = 0, frame = 0
 551              		@ frame_needed = 0, uses_anonymous_args = 0
 552              	.LVL41:
 553 0000 70B5     		push	{r4, r5, r6, lr}
 554              		.cfi_def_cfa_offset 16
ARM GAS  /tmp/ccZptTGt.s 			page 11


 555              		.cfi_offset 4, -16
 556              		.cfi_offset 5, -12
 557              		.cfi_offset 6, -8
 558              		.cfi_offset 14, -4
 559              		.loc 1 343 0
 560 0002 0C1E     		subs	r4, r1, #0
 561              		.loc 1 334 0
 562 0004 0546     		mov	r5, r0
 563              		.loc 1 343 0
 564 0006 11DD     		ble	.L29
 565              		.loc 1 345 0
 566 0008 0026     		movs	r6, #0
 567 000a 01E0     		b	.L33
 568              	.LVL42:
 569              	.L31:
 570              		.loc 1 343 0
 571 000c 013C     		subs	r4, r4, #1
 572              	.LVL43:
 573 000e 0DD0     		beq	.L29
 574              	.LVL44:
 575              	.L33:
 576              		.loc 1 344 0
 577 0010 AB68     		ldr	r3, [r5, #8]
 578 0012 0133     		adds	r3, r3, #1
 579 0014 002B     		cmp	r3, #0
 580 0016 AB60     		str	r3, [r5, #8]
 581 0018 F8DC     		bgt	.L31
 582              	.LVL45:
 583              	.LBB53:
 584              	.LBB54:
 585              		.loc 2 60 0
 586 001a 2868     		ldr	r0, [r5]
 587              	.LVL46:
 588              		.loc 2 62 0
 589 001c 0368     		ldr	r3, [r0]
 590 001e 2B60     		str	r3, [r5]
 591 0020 5D60     		str	r5, [r3, #4]
 592              	.LBE54:
 593              	.LBE53:
 594              		.loc 1 345 0
 595 0022 FFF7FEFF 		bl	chSchReadyI
 596              	.LVL47:
 597              		.loc 1 343 0
 598 0026 013C     		subs	r4, r4, #1
 599              	.LVL48:
 600              		.loc 1 345 0
 601 0028 4662     		str	r6, [r0, #36]
 602              	.LVL49:
 603              		.loc 1 343 0
 604 002a F1D1     		bne	.L33
 605              	.LVL50:
 606              	.L29:
 607 002c 70BD     		pop	{r4, r5, r6, pc}
 608              		.cfi_endproc
 609              	.LFE16:
 610              		.size	chSemAddCounterI, .-chSemAddCounterI
 611 002e 00BF     		.section	.text.chSemSignalWait,"ax",%progbits
ARM GAS  /tmp/ccZptTGt.s 			page 12


 612              		.align	2
 613              		.p2align 4,,15
 614              		.global	chSemSignalWait
 615              		.thumb
 616              		.thumb_func
 617              		.type	chSemSignalWait, %function
 618              	chSemSignalWait:
 619              	.LFB17:
 620              		.loc 1 366 0
 621              		.cfi_startproc
 622              		@ args = 0, pretend = 0, frame = 8
 623              		@ frame_needed = 0, uses_anonymous_args = 0
 624              	.LVL51:
 625 0000 10B5     		push	{r4, lr}
 626              		.cfi_def_cfa_offset 8
 627              		.cfi_offset 4, -8
 628              		.cfi_offset 14, -4
 629 0002 0246     		mov	r2, r0
 630 0004 82B0     		sub	sp, sp, #8
 631              		.cfi_def_cfa_offset 16
 632              	.LBB55:
 633              		.loc 1 379 0
 634 0006 2023     		movs	r3, #32
 635              	@ 379 "../third_party/ChibiOS/os/kernel/src/chsem.c" 1
 636 0008 83F31188 		msr     BASEPRI, r3
 637              	@ 0 "" 2
 638              		.thumb
 639              	.LBE55:
 640              		.loc 1 380 0
 641 000c 8368     		ldr	r3, [r0, #8]
 642 000e 0133     		adds	r3, r3, #1
 643 0010 002B     		cmp	r3, #0
 644 0012 8360     		str	r3, [r0, #8]
 645 0014 20DD     		ble	.L41
 646              	.LVL52:
 647              	.L38:
 648              		.loc 1 382 0
 649 0016 8B68     		ldr	r3, [r1, #8]
 650 0018 013B     		subs	r3, r3, #1
 651 001a 002B     		cmp	r3, #0
 652 001c 8B60     		str	r3, [r1, #8]
 653 001e 07DB     		blt	.L42
 654              		.loc 1 390 0
 655 0020 FFF7FEFF 		bl	chSchRescheduleS
 656              	.LVL53:
 657              		.loc 1 391 0
 658 0024 0020     		movs	r0, #0
 659              	.LVL54:
 660              	.LBB56:
 661              		.loc 1 393 0
 662 0026 0023     		movs	r3, #0
 663              	@ 393 "../third_party/ChibiOS/os/kernel/src/chsem.c" 1
 664 0028 83F31188 		msr     BASEPRI, r3
 665              	@ 0 "" 2
 666              		.thumb
 667              	.LBE56:
 668              		.loc 1 395 0
ARM GAS  /tmp/ccZptTGt.s 			page 13


 669 002c 02B0     		add	sp, sp, #8
 670              		@ sp needed
 671 002e 10BD     		pop	{r4, pc}
 672              	.LVL55:
 673              	.L42:
 674              	.LBB57:
 675              		.loc 1 383 0
 676 0030 40F20003 		movw	r3, #:lower16:rlist
 677 0034 C0F20003 		movt	r3, #:upper16:rlist
 678 0038 DC69     		ldr	r4, [r3, #28]
 679              	.LVL56:
 680              	.LBB58:
 681              	.LBB59:
 682              		.loc 2 55 0
 683 003a 4B68     		ldr	r3, [r1, #4]
 684              	.LBE59:
 685              	.LBE58:
 686              		.loc 1 386 0
 687 003c 0320     		movs	r0, #3
 688              	.LBB61:
 689              	.LBB60:
 690              		.loc 2 55 0
 691 003e 84E80A00 		stmia	r4, {r1, r3}
 692              		.loc 2 56 0
 693 0042 4C60     		str	r4, [r1, #4]
 694 0044 1C60     		str	r4, [r3]
 695              	.LBE60:
 696              	.LBE61:
 697              		.loc 1 385 0
 698 0046 6162     		str	r1, [r4, #36]
 699              		.loc 1 386 0
 700 0048 FFF7FEFF 		bl	chSchGoSleepS
 701              	.LVL57:
 702              		.loc 1 387 0
 703 004c 606A     		ldr	r0, [r4, #36]
 704              	.LVL58:
 705              	.LBE57:
 706              	.LBB62:
 707              		.loc 1 393 0
 708 004e 0023     		movs	r3, #0
 709              	@ 393 "../third_party/ChibiOS/os/kernel/src/chsem.c" 1
 710 0050 83F31188 		msr     BASEPRI, r3
 711              	@ 0 "" 2
 712              		.thumb
 713              	.LBE62:
 714              		.loc 1 395 0
 715 0054 02B0     		add	sp, sp, #8
 716              		@ sp needed
 717 0056 10BD     		pop	{r4, pc}
 718              	.LVL59:
 719              	.L41:
 720              	.LBB63:
 721              	.LBB64:
 722              		.loc 2 60 0
 723 0058 0068     		ldr	r0, [r0]
 724              	.LVL60:
 725              		.loc 2 62 0
ARM GAS  /tmp/ccZptTGt.s 			page 14


 726 005a 0368     		ldr	r3, [r0]
 727 005c 1360     		str	r3, [r2]
 728 005e 5A60     		str	r2, [r3, #4]
 729              	.LBE64:
 730              	.LBE63:
 731              		.loc 1 381 0
 732 0060 0191     		str	r1, [sp, #4]
 733 0062 FFF7FEFF 		bl	chSchReadyI
 734              	.LVL61:
 735 0066 0023     		movs	r3, #0
 736 0068 4362     		str	r3, [r0, #36]
 737 006a 0199     		ldr	r1, [sp, #4]
 738 006c D3E7     		b	.L38
 739              		.cfi_endproc
 740              	.LFE17:
 741              		.size	chSemSignalWait, .-chSemSignalWait
 742 006e 00BF     		.text
 743              	.Letext0:
 744              		.file 3 "/home/santi/arm-2013.11/arm-none-eabi/include/stdint.h"
 745              		.file 4 "../third_party/ChibiOS/os/ports/GCC/ARMCMx/chtypes.h"
 746              		.file 5 "../third_party/ChibiOS/os/kernel/include/chlists.h"
 747              		.file 6 "../third_party/ChibiOS/os/kernel/include/chthreads.h"
 748              		.file 7 "../third_party/ChibiOS/os/ports/GCC/ARMCMx/chcore_v7m.h"
 749              		.file 8 "../third_party/ChibiOS/os/kernel/include/chschd.h"
 750              		.file 9 "../third_party/ChibiOS/os/kernel/include/chsem.h"
 751              		.file 10 "../third_party/ChibiOS/os/kernel/include/chmtx.h"