ARM GAS  /tmp/ccRzJDoc.s 			page 1


   1              		.syntax unified
   2              		.cpu cortex-m3
   3              		.fpu softvfp
   4              		.eabi_attribute 20, 1
   5              		.eabi_attribute 21, 1
   6              		.eabi_attribute 23, 3
   7              		.eabi_attribute 24, 1
   8              		.eabi_attribute 25, 1
   9              		.eabi_attribute 26, 1
  10              		.eabi_attribute 30, 2
  11              		.eabi_attribute 34, 1
  12              		.eabi_attribute 18, 4
  13              		.thumb
  14              		.file	"chsys.c"
  15              		.text
  16              	.Ltext0:
  17              		.cfi_sections	.debug_frame
  18              		.section	.text._idle_thread,"ax",%progbits
  19              		.align	2
  20              		.p2align 4,,15
  21              		.global	_idle_thread
  22              		.thumb
  23              		.thumb_func
  24              		.type	_idle_thread, %function
  25              	_idle_thread:
  26              	.LFB7:
  27              		.file 1 "../third_party/ChibiOS/os/kernel/src/chsys.c"
  28              		.loc 1 59 0
  29              		.cfi_startproc
  30              		@ Volatile: function does not return.
  31              		@ args = 0, pretend = 0, frame = 0
  32              		@ frame_needed = 0, uses_anonymous_args = 0
  33              		@ link register save eliminated.
  34              	.LVL0:
  35              		.loc 1 62 0
  36 0000 40F20003 		movw	r3, #:lower16:rlist
  37 0004 C0F20003 		movt	r3, #:upper16:rlist
  38 0008 DA69     		ldr	r2, [r3, #28]
  39 000a 40F20003 		movw	r3, #:lower16:.LC0
  40 000e C0F20003 		movt	r3, #:upper16:.LC0
  41 0012 9361     		str	r3, [r2, #24]
  42              	.L2:
  43 0014 FEE7     		b	.L2
  44              		.cfi_endproc
  45              	.LFE7:
  46              		.size	_idle_thread, .-_idle_thread
  47 0016 00BFAFF3 		.section	.text.chSysInit,"ax",%progbits
  47      0080AFF3 
  47      0080
  48              		.align	2
  49              		.p2align 4,,15
  50              		.global	chSysInit
  51              		.thumb
  52              		.thumb_func
  53              		.type	chSysInit, %function
  54              	chSysInit:
  55              	.LFB8:
ARM GAS  /tmp/ccRzJDoc.s 			page 2


  56              		.loc 1 82 0
  57              		.cfi_startproc
  58              		@ args = 0, pretend = 0, frame = 0
  59              		@ frame_needed = 0, uses_anonymous_args = 0
  60 0000 10B5     		push	{r4, lr}
  61              		.cfi_def_cfa_offset 8
  62              		.cfi_offset 4, -8
  63              		.cfi_offset 14, -4
  64 0002 82B0     		sub	sp, sp, #8
  65              		.cfi_def_cfa_offset 16
  66              		.loc 1 88 0
  67 0004 FFF7FEFF 		bl	_port_init
  68              	.LVL1:
  69              		.loc 1 89 0
  70 0008 FFF7FEFF 		bl	_scheduler_init
  71              	.LVL2:
  72              		.loc 1 90 0
  73 000c FFF7FEFF 		bl	_vt_init
  74              	.LVL3:
  75              		.loc 1 92 0
  76 0010 FFF7FEFF 		bl	_core_init
  77              	.LVL4:
  78              		.loc 1 95 0
  79 0014 FFF7FEFF 		bl	_heap_init
  80              	.LVL5:
  81              		.loc 1 102 0
  82 0018 40F20000 		movw	r0, #:lower16:.LANCHOR0
  83 001c 4021     		movs	r1, #64
  84 001e C0F20000 		movt	r0, #:upper16:.LANCHOR0
  85 0022 FFF7FEFF 		bl	_thread_init
  86              	.LVL6:
  87 0026 40F20003 		movw	r3, #:lower16:rlist
  88 002a C0F20003 		movt	r3, #:upper16:rlist
  89              		.loc 1 103 0
  90 002e 0122     		movs	r2, #1
  91              		.loc 1 102 0
  92 0030 D861     		str	r0, [r3, #28]
  93              	.LBB2:
  94              		.loc 1 109 0
  95 0032 0023     		movs	r3, #0
  96              	.LBE2:
  97              		.loc 1 103 0
  98 0034 0277     		strb	r2, [r0, #28]
  99              	.LBB3:
 100              		.loc 1 109 0
 101              	@ 109 "../third_party/ChibiOS/os/kernel/src/chsys.c" 1
 102 0036 83F31188 		msr     BASEPRI, r3                    
 103 003a 62B6     		cpsie   i
 104              	@ 0 "" 2
 105              		.thumb
 106              	.LBE3:
 107              		.loc 1 111 0
 108 003c 40F20003 		movw	r3, #:lower16:rlist
 109 0040 C0F20003 		movt	r3, #:upper16:rlist
 110 0044 DC69     		ldr	r4, [r3, #28]
 111 0046 40F20002 		movw	r2, #:lower16:.LC1
 112 004a C0F20002 		movt	r2, #:upper16:.LC1
ARM GAS  /tmp/ccRzJDoc.s 			page 3


 113              		.loc 1 117 0
 114 004e 0021     		movs	r1, #0
 115 0050 40F20000 		movw	r0, #:lower16:.LANCHOR1
 116 0054 40F20003 		movw	r3, #:lower16:_idle_thread
 117              		.loc 1 111 0
 118 0058 A261     		str	r2, [r4, #24]
 119              		.loc 1 117 0
 120 005a C0F20003 		movt	r3, #:upper16:_idle_thread
 121 005e 0091     		str	r1, [sp]
 122 0060 0122     		movs	r2, #1
 123 0062 C021     		movs	r1, #192
 124 0064 C0F20000 		movt	r0, #:upper16:.LANCHOR1
 125 0068 FFF7FEFF 		bl	chThdCreateStatic
 126              	.LVL7:
 127              		.loc 1 120 0
 128 006c 02B0     		add	sp, sp, #8
 129              		@ sp needed
 130 006e 10BD     		pop	{r4, pc}
 131              		.cfi_endproc
 132              	.LFE8:
 133              		.size	chSysInit, .-chSysInit
 134              		.section	.text.chSysTimerHandlerI,"ax",%progbits
 135              		.align	2
 136              		.p2align 4,,15
 137              		.global	chSysTimerHandlerI
 138              		.thumb
 139              		.thumb_func
 140              		.type	chSysTimerHandlerI, %function
 141              	chSysTimerHandlerI:
 142              	.LFB9:
 143              		.loc 1 133 0
 144              		.cfi_startproc
 145              		@ args = 0, pretend = 0, frame = 0
 146              		@ frame_needed = 0, uses_anonymous_args = 0
 147 0000 38B5     		push	{r3, r4, r5, lr}
 148              		.cfi_def_cfa_offset 16
 149              		.cfi_offset 3, -16
 150              		.cfi_offset 4, -12
 151              		.cfi_offset 5, -8
 152              		.cfi_offset 14, -4
 153              		.loc 1 139 0
 154 0002 40F20003 		movw	r3, #:lower16:rlist
 155 0006 C0F20003 		movt	r3, #:upper16:rlist
 156 000a 9A69     		ldr	r2, [r3, #24]
 157              		.loc 1 146 0
 158 000c 40F20004 		movw	r4, #:lower16:vtlist
 159              		.loc 1 139 0
 160 0010 002A     		cmp	r2, #0
 161              		.loc 1 141 0
 162 0012 C4BF     		itt	gt
 163 0014 02F1FF32 		addgt	r2, r2, #-1
 164 0018 9A61     		strgt	r2, [r3, #24]
 165              		.loc 1 144 0
 166 001a DB69     		ldr	r3, [r3, #28]
 167              		.loc 1 146 0
 168 001c C0F20004 		movt	r4, #:upper16:vtlist
 169              		.loc 1 144 0
ARM GAS  /tmp/ccRzJDoc.s 			page 4


 170 0020 1A6A     		ldr	r2, [r3, #32]
 171 0022 0132     		adds	r2, r2, #1
 172 0024 1A62     		str	r2, [r3, #32]
 173              		.loc 1 146 0
 174 0026 E268     		ldr	r2, [r4, #12]
 175 0028 2368     		ldr	r3, [r4]
 176 002a 0132     		adds	r2, r2, #1
 177 002c A342     		cmp	r3, r4
 178 002e E260     		str	r2, [r4, #12]
 179 0030 0ED0     		beq	.L5
 180              	.LBB4:
 181              		.loc 1 146 0 is_stmt 0 discriminator 1
 182 0032 9D68     		ldr	r5, [r3, #8]
 183 0034 013D     		subs	r5, r5, #1
 184 0036 9D60     		str	r5, [r3, #8]
 185              	.LVL8:
 186 0038 55B9     		cbnz	r5, .L5
 187              	.L9:
 188              	.LBB5:
 189              		.loc 1 146 0 discriminator 2
 190 003a 1A68     		ldr	r2, [r3]
 191 003c D968     		ldr	r1, [r3, #12]
 192              	.LVL9:
 193 003e 1869     		ldr	r0, [r3, #16]
 194 0040 DD60     		str	r5, [r3, #12]
 195 0042 2260     		str	r2, [r4]
 196 0044 5460     		str	r4, [r2, #4]
 197 0046 8847     		blx	r1
 198              	.LVL10:
 199              	.LBE5:
 200 0048 2368     		ldr	r3, [r4]
 201              	.LVL11:
 202 004a 9A68     		ldr	r2, [r3, #8]
 203 004c 002A     		cmp	r2, #0
 204 004e F4D0     		beq	.L9
 205              	.LVL12:
 206              	.L5:
 207 0050 38BD     		pop	{r3, r4, r5, pc}
 208              	.LBE4:
 209              		.cfi_endproc
 210              	.LFE9:
 211              		.size	chSysTimerHandlerI, .-chSysTimerHandlerI
 212              		.global	_idle_thread_wa
 213 0052 00BFAFF3 		.section	.rodata.str1.4,"aMS",%progbits,1
 213      0080AFF3 
 213      0080AFF3 
 213      0080
 214              		.align	2
 215              	.LC0:
 216 0000 69646C65 		.ascii	"idle\000"
 216      00
 217 0005 000000   		.space	3
 218              	.LC1:
 219 0008 6D61696E 		.ascii	"main\000"
 219      00
 220 000d 000000   		.section	.bss.mainthread.4799,"aw",%nobits
 221              		.align	2
ARM GAS  /tmp/ccRzJDoc.s 			page 5


 222              		.set	.LANCHOR0,. + 0
 223              		.type	mainthread.4799, %object
 224              		.size	mainthread.4799, 72
 225              	mainthread.4799:
 226 0000 00000000 		.space	72
 226      00000000 
 226      00000000 
 226      00000000 
 226      00000000 
 227              		.section	.bss._idle_thread_wa,"aw",%nobits
 228              		.align	3
 229              		.set	.LANCHOR1,. + 0
 230              		.type	_idle_thread_wa, %object
 231              		.size	_idle_thread_wa, 192
 232              	_idle_thread_wa:
 233 0000 00000000 		.space	192
 233      00000000 
 233      00000000 
 233      00000000 
 233      00000000 
 234              		.text
 235              	.Letext0:
 236              		.file 2 "/home/santi/arm-2013.11/lib/gcc/arm-none-eabi/4.8.1/include/stddef.h"
 237              		.file 3 "/home/santi/arm-2013.11/arm-none-eabi/include/stdint.h"
 238              		.file 4 "../third_party/ChibiOS/os/ports/GCC/ARMCMx/chtypes.h"
 239              		.file 5 "../third_party/ChibiOS/os/kernel/include/chlists.h"
 240              		.file 6 "../third_party/ChibiOS/os/kernel/include/chthreads.h"
 241              		.file 7 "../third_party/ChibiOS/os/ports/GCC/ARMCMx/chcore_v7m.h"
 242              		.file 8 "../third_party/ChibiOS/os/kernel/include/chvt.h"
 243              		.file 9 "../third_party/ChibiOS/os/kernel/include/chschd.h"
 244              		.file 10 "../third_party/ChibiOS/os/kernel/include/chmtx.h"
 245              		.file 11 "../third_party/ChibiOS/os/kernel/include/chmemcore.h"
 246              		.file 12 "../third_party/ChibiOS/os/kernel/include/chheap.h"