ARM GAS  /tmp/ccGYC9RU.s 			page 1


   1              		.syntax unified
   2              		.cpu cortex-m3
   3              		.fpu softvfp
   4              		.eabi_attribute 20, 1
   5              		.eabi_attribute 21, 1
   6              		.eabi_attribute 23, 3
   7              		.eabi_attribute 24, 1
   8              		.eabi_attribute 25, 1
   9              		.eabi_attribute 26, 1
  10              		.eabi_attribute 30, 2
  11              		.eabi_attribute 34, 1
  12              		.eabi_attribute 18, 4
  13              		.thumb
  14              		.file	"chthreads.c"
  15              		.text
  16              	.Ltext0:
  17              		.cfi_sections	.debug_frame
  18              		.section	.text._thread_init,"ax",%progbits
  19              		.align	2
  20              		.p2align 4,,15
  21              		.global	_thread_init
  22              		.thumb
  23              		.thumb_func
  24              		.type	_thread_init, %function
  25              	_thread_init:
  26              	.LFB7:
  27              		.file 1 "../third_party/ChibiOS/os/kernel/src/chthreads.c"
  28              		.loc 1 76 0
  29              		.cfi_startproc
  30              		@ args = 0, pretend = 0, frame = 0
  31              		@ frame_needed = 0, uses_anonymous_args = 0
  32              		@ link register save eliminated.
  33              	.LVL0:
  34 0000 2DE9F001 		push	{r4, r5, r6, r7, r8}
  35              		.cfi_def_cfa_offset 20
  36              		.cfi_offset 4, -20
  37              		.cfi_offset 5, -16
  38              		.cfi_offset 6, -12
  39              		.cfi_offset 7, -8
  40              		.cfi_offset 8, -4
  41              		.loc 1 96 0
  42 0004 40F20002 		movw	r2, #:lower16:rlist
  43 0008 C0F20002 		movt	r2, #:upper16:rlist
  44 000c 5569     		ldr	r5, [r2, #20]
  45              		.loc 1 80 0
  46 000e 0024     		movs	r4, #0
  47              		.loc 1 102 0
  48 0010 00F12C06 		add	r6, r0, #44
  49              		.loc 1 79 0
  50 0014 4FF00208 		mov	r8, #2
  51              		.loc 1 99 0
  52 0018 00F12807 		add	r7, r0, #40
  53              		.loc 1 92 0
  54 001c 4FF0010C 		mov	ip, #1
  55              		.loc 1 96 0
  56 0020 4561     		str	r5, [r0, #20]
  57 0022 0261     		str	r2, [r0, #16]
ARM GAS  /tmp/ccGYC9RU.s 			page 2


  58              		.loc 1 78 0
  59 0024 8160     		str	r1, [r0, #8]
  60              		.loc 1 79 0
  61 0026 80F81C80 		strb	r8, [r0, #28]
  62              		.loc 1 80 0
  63 002a 4477     		strb	r4, [r0, #29]
  64              		.loc 1 83 0
  65 002c C463     		str	r4, [r0, #60]
  66              		.loc 1 86 0
  67 002e 8463     		str	r4, [r0, #56]
  68              		.loc 1 89 0
  69 0030 0462     		str	r4, [r0, #32]
  70              		.loc 1 95 0
  71 0032 8461     		str	r4, [r0, #24]
  72              		.loc 1 82 0
  73 0034 0164     		str	r1, [r0, #64]
  74              		.loc 1 96 0
  75 0036 5061     		str	r0, [r2, #20]
  76              		.loc 1 92 0
  77 0038 80F81EC0 		strb	ip, [r0, #30]
  78              		.loc 1 96 0
  79 003c 2861     		str	r0, [r5, #16]
  80              		.loc 1 99 0
  81 003e 8762     		str	r7, [r0, #40]
  82              		.loc 1 102 0
  83 0040 0663     		str	r6, [r0, #48]
  84 0042 C662     		str	r6, [r0, #44]
  85              		.loc 1 111 0
  86 0044 BDE8F001 		pop	{r4, r5, r6, r7, r8}
  87 0048 7047     		bx	lr
  88              		.cfi_endproc
  89              	.LFE7:
  90              		.size	_thread_init, .-_thread_init
  91 004a 00BFAFF3 		.section	.text.chThdCreateI,"ax",%progbits
  91      0080
  92              		.align	2
  93              		.p2align 4,,15
  94              		.global	chThdCreateI
  95              		.thumb
  96              		.thumb_func
  97              		.type	chThdCreateI, %function
  98              	chThdCreateI:
  99              	.LFB8:
 100              		.loc 1 155 0
 101              		.cfi_startproc
 102              		@ args = 4, pretend = 0, frame = 0
 103              		@ frame_needed = 0, uses_anonymous_args = 0
 104              		@ link register save eliminated.
 105              	.LVL1:
 106 0000 2DE9F00F 		push	{r4, r5, r6, r7, r8, r9, r10, fp}
 107              		.cfi_def_cfa_offset 32
 108              		.cfi_offset 4, -32
 109              		.cfi_offset 5, -28
 110              		.cfi_offset 6, -24
 111              		.cfi_offset 7, -20
 112              		.cfi_offset 8, -16
 113              		.cfi_offset 9, -12
ARM GAS  /tmp/ccGYC9RU.s 			page 3


 114              		.cfi_offset 10, -8
 115              		.cfi_offset 11, -4
 116              	.LBB16:
 117              	.LBB17:
 118              		.loc 1 96 0
 119 0004 40F20005 		movw	r5, #:lower16:rlist
 120 0008 C0F20005 		movt	r5, #:upper16:rlist
 121              	.LBE17:
 122              	.LBE16:
 123              		.loc 1 164 0
 124 000c A1F1240C 		sub	ip, r1, #36
 125              	.LVL2:
 126              	.LBB21:
 127              	.LBB18:
 128              		.loc 1 96 0
 129 0010 D5F814B0 		ldr	fp, [r5, #20]
 130              	.LBE18:
 131              	.LBE21:
 132              		.loc 1 164 0
 133 0014 00EB0C07 		add	r7, r0, ip
 134 0018 0899     		ldr	r1, [sp, #32]
 135              	.LVL3:
 136 001a 40F20006 		movw	r6, #:lower16:_port_thread_start
 137 001e C760     		str	r7, [r0, #12]
 138 0020 C0F20006 		movt	r6, #:upper16:_port_thread_start
 139 0024 40F80C30 		str	r3, [r0, ip]
 140              	.LBB22:
 141              	.LBB19:
 142              		.loc 1 79 0
 143 0028 4FF0020A 		mov	r10, #2
 144              		.loc 1 80 0
 145 002c 0023     		movs	r3, #0
 146              	.LVL4:
 147              		.loc 1 92 0
 148 002e 4FF00109 		mov	r9, #1
 149              		.loc 1 99 0
 150 0032 00F12808 		add	r8, r0, #40
 151              		.loc 1 102 0
 152 0036 00F12C0C 		add	ip, r0, #44
 153              	.LVL5:
 154              	.LBE19:
 155              	.LBE22:
 156              		.loc 1 164 0
 157 003a 7960     		str	r1, [r7, #4]
 158 003c 3E62     		str	r6, [r7, #32]
 159              	.LVL6:
 160              	.LBB23:
 161              	.LBB20:
 162              		.loc 1 96 0
 163 003e 0561     		str	r5, [r0, #16]
 164 0040 C0F814B0 		str	fp, [r0, #20]
 165              		.loc 1 78 0
 166 0044 8260     		str	r2, [r0, #8]
 167              		.loc 1 79 0
 168 0046 80F81CA0 		strb	r10, [r0, #28]
 169              	.LVL7:
 170              		.loc 1 92 0
ARM GAS  /tmp/ccGYC9RU.s 			page 4


 171 004a 80F81E90 		strb	r9, [r0, #30]
 172              		.loc 1 96 0
 173 004e 6861     		str	r0, [r5, #20]
 174              		.loc 1 82 0
 175 0050 0264     		str	r2, [r0, #64]
 176              		.loc 1 80 0
 177 0052 4377     		strb	r3, [r0, #29]
 178              		.loc 1 83 0
 179 0054 C363     		str	r3, [r0, #60]
 180              		.loc 1 86 0
 181 0056 8363     		str	r3, [r0, #56]
 182              		.loc 1 89 0
 183 0058 0362     		str	r3, [r0, #32]
 184              		.loc 1 95 0
 185 005a 8361     		str	r3, [r0, #24]
 186              		.loc 1 96 0
 187 005c CBF81000 		str	r0, [fp, #16]
 188              		.loc 1 99 0
 189 0060 C0F82880 		str	r8, [r0, #40]
 190              		.loc 1 102 0
 191 0064 C0F830C0 		str	ip, [r0, #48]
 192 0068 C0F82CC0 		str	ip, [r0, #44]
 193              	.LBE20:
 194              	.LBE23:
 195              		.loc 1 166 0
 196 006c BDE8F00F 		pop	{r4, r5, r6, r7, r8, r9, r10, fp}
 197              	.LVL8:
 198 0070 7047     		bx	lr
 199              		.cfi_endproc
 200              	.LFE8:
 201              		.size	chThdCreateI, .-chThdCreateI
 202 0072 00BFAFF3 		.section	.text.chThdCreateStatic,"ax",%progbits
 202      0080AFF3 
 202      0080AFF3 
 202      0080
 203              		.align	2
 204              		.p2align 4,,15
 205              		.global	chThdCreateStatic
 206              		.thumb
 207              		.thumb_func
 208              		.type	chThdCreateStatic, %function
 209              	chThdCreateStatic:
 210              	.LFB9:
 211              		.loc 1 185 0
 212              		.cfi_startproc
 213              		@ args = 4, pretend = 0, frame = 0
 214              		@ frame_needed = 0, uses_anonymous_args = 0
 215              	.LVL9:
 216 0000 2DE9F84F 		push	{r3, r4, r5, r6, r7, r8, r9, r10, fp, lr}
 217              		.cfi_def_cfa_offset 40
 218              		.cfi_offset 3, -40
 219              		.cfi_offset 4, -36
 220              		.cfi_offset 5, -32
 221              		.cfi_offset 6, -28
 222              		.cfi_offset 7, -24
 223              		.cfi_offset 8, -20
 224              		.cfi_offset 9, -16
ARM GAS  /tmp/ccGYC9RU.s 			page 5


 225              		.cfi_offset 10, -12
 226              		.cfi_offset 11, -8
 227              		.cfi_offset 14, -4
 228              		.loc 1 185 0
 229 0004 9C46     		mov	ip, r3
 230 0006 0446     		mov	r4, r0
 231              	.LBB24:
 232              		.loc 1 196 0
 233 0008 2023     		movs	r3, #32
 234              	.LVL10:
 235              	@ 196 "../third_party/ChibiOS/os/kernel/src/chthreads.c" 1
 236 000a 83F31188 		msr     BASEPRI, r3
 237              	@ 0 "" 2
 238              	.LVL11:
 239              		.thumb
 240              	.LBE24:
 241              	.LBB25:
 242              	.LBB26:
 243              	.LBB27:
 244              	.LBB28:
 245              		.loc 1 96 0
 246 000e 40F20006 		movw	r6, #:lower16:rlist
 247 0012 C0F20006 		movt	r6, #:upper16:rlist
 248 0016 D6F814E0 		ldr	lr, [r6, #20]
 249              	.LBE28:
 250              	.LBE27:
 251              		.loc 1 164 0
 252 001a A1F12400 		sub	r0, r1, #36
 253              	.LVL12:
 254 001e 0A9B     		ldr	r3, [sp, #40]
 255 0020 40F20001 		movw	r1, #:lower16:_port_thread_start
 256              	.LVL13:
 257              	.LBB34:
 258              	.LBB29:
 259              		.loc 1 80 0
 260 0024 0025     		movs	r5, #0
 261              	.LBE29:
 262              	.LBE34:
 263              		.loc 1 164 0
 264 0026 2718     		adds	r7, r4, r0
 265              	.LBB35:
 266              	.LBB30:
 267              		.loc 1 102 0
 268 0028 04F12C0B 		add	fp, r4, #44
 269              	.LBE30:
 270              	.LBE35:
 271              		.loc 1 164 0
 272 002c C0F20001 		movt	r1, #:upper16:_port_thread_start
 273              	.LBB36:
 274              	.LBB31:
 275              		.loc 1 79 0
 276 0030 4FF0020A 		mov	r10, #2
 277              		.loc 1 92 0
 278 0034 4FF00109 		mov	r9, #1
 279              		.loc 1 99 0
 280 0038 04F12808 		add	r8, r4, #40
 281              	.LBE31:
ARM GAS  /tmp/ccGYC9RU.s 			page 6


 282              	.LBE36:
 283              		.loc 1 164 0
 284 003c E760     		str	r7, [r4, #12]
 285 003e 44F800C0 		str	ip, [r4, r0]
 286 0042 7B60     		str	r3, [r7, #4]
 287 0044 3962     		str	r1, [r7, #32]
 288              	.LVL14:
 289              	.LBE26:
 290              	.LBE25:
 291              		.loc 1 197 0
 292 0046 2046     		mov	r0, r4
 293              	.LVL15:
 294              	.LBB41:
 295              	.LBB39:
 296              	.LBB37:
 297              	.LBB32:
 298              		.loc 1 78 0
 299 0048 A260     		str	r2, [r4, #8]
 300              		.loc 1 96 0
 301 004a 2661     		str	r6, [r4, #16]
 302 004c C4F814E0 		str	lr, [r4, #20]
 303              		.loc 1 82 0
 304 0050 2264     		str	r2, [r4, #64]
 305              		.loc 1 79 0
 306 0052 84F81CA0 		strb	r10, [r4, #28]
 307              		.loc 1 92 0
 308 0056 84F81E90 		strb	r9, [r4, #30]
 309              		.loc 1 80 0
 310 005a 6577     		strb	r5, [r4, #29]
 311              		.loc 1 96 0
 312 005c 7461     		str	r4, [r6, #20]
 313              		.loc 1 83 0
 314 005e E563     		str	r5, [r4, #60]
 315              		.loc 1 86 0
 316 0060 A563     		str	r5, [r4, #56]
 317              		.loc 1 89 0
 318 0062 2562     		str	r5, [r4, #32]
 319              		.loc 1 95 0
 320 0064 A561     		str	r5, [r4, #24]
 321              	.LBE32:
 322              	.LBE37:
 323              	.LBE39:
 324              	.LBE41:
 325              		.loc 1 197 0
 326 0066 2946     		mov	r1, r5
 327              	.LBB42:
 328              	.LBB40:
 329              	.LBB38:
 330              	.LBB33:
 331              		.loc 1 96 0
 332 0068 CEF81040 		str	r4, [lr, #16]
 333              		.loc 1 99 0
 334 006c C4F82880 		str	r8, [r4, #40]
 335              		.loc 1 102 0
 336 0070 C4F830B0 		str	fp, [r4, #48]
 337 0074 C4F82CB0 		str	fp, [r4, #44]
 338              	.LBE33:
ARM GAS  /tmp/ccGYC9RU.s 			page 7


 339              	.LBE38:
 340              	.LBE40:
 341              	.LBE42:
 342              		.loc 1 197 0
 343 0078 FFF7FEFF 		bl	chSchWakeupS
 344              	.LVL16:
 345              	.LBB43:
 346              		.loc 1 198 0
 347 007c 2B46     		mov	r3, r5
 348              	@ 198 "../third_party/ChibiOS/os/kernel/src/chthreads.c" 1
 349 007e 83F31188 		msr     BASEPRI, r3
 350              	@ 0 "" 2
 351              		.thumb
 352              	.LBE43:
 353              		.loc 1 200 0
 354 0082 2046     		mov	r0, r4
 355 0084 BDE8F88F 		pop	{r3, r4, r5, r6, r7, r8, r9, r10, fp, pc}
 356              		.cfi_endproc
 357              	.LFE9:
 358              		.size	chThdCreateStatic, .-chThdCreateStatic
 359 0088 AFF30080 		.section	.text.chThdSetPriority,"ax",%progbits
 359      AFF30080 
 360              		.align	2
 361              		.p2align 4,,15
 362              		.global	chThdSetPriority
 363              		.thumb
 364              		.thumb_func
 365              		.type	chThdSetPriority, %function
 366              	chThdSetPriority:
 367              	.LFB10:
 368              		.loc 1 214 0
 369              		.cfi_startproc
 370              		@ args = 0, pretend = 0, frame = 0
 371              		@ frame_needed = 0, uses_anonymous_args = 0
 372              	.LVL17:
 373 0000 10B5     		push	{r4, lr}
 374              		.cfi_def_cfa_offset 8
 375              		.cfi_offset 4, -8
 376              		.cfi_offset 14, -4
 377              	.LBB44:
 378              		.loc 1 219 0
 379 0002 2023     		movs	r3, #32
 380              	@ 219 "../third_party/ChibiOS/os/kernel/src/chthreads.c" 1
 381 0004 83F31188 		msr     BASEPRI, r3
 382              	@ 0 "" 2
 383              		.thumb
 384              	.LBE44:
 385              		.loc 1 221 0
 386 0008 40F20003 		movw	r3, #:lower16:rlist
 387 000c C0F20003 		movt	r3, #:upper16:rlist
 388 0010 DB69     		ldr	r3, [r3, #28]
 389 0012 1C6C     		ldr	r4, [r3, #64]
 390              	.LVL18:
 391              		.loc 1 222 0
 392 0014 9968     		ldr	r1, [r3, #8]
 393 0016 8C42     		cmp	r4, r1
 394 0018 01D0     		beq	.L5
ARM GAS  /tmp/ccGYC9RU.s 			page 8


 395              		.loc 1 222 0 is_stmt 0 discriminator 1
 396 001a 8142     		cmp	r1, r0
 397 001c 00D2     		bcs	.L6
 398              	.L5:
 399              		.loc 1 223 0 is_stmt 1
 400 001e 9860     		str	r0, [r3, #8]
 401              	.L6:
 402              		.loc 1 224 0
 403 0020 1864     		str	r0, [r3, #64]
 404              		.loc 1 229 0
 405 0022 FFF7FEFF 		bl	chSchRescheduleS
 406              	.LVL19:
 407              	.LBB45:
 408              		.loc 1 230 0
 409 0026 0023     		movs	r3, #0
 410              	@ 230 "../third_party/ChibiOS/os/kernel/src/chthreads.c" 1
 411 0028 83F31188 		msr     BASEPRI, r3
 412              	@ 0 "" 2
 413              		.thumb
 414              	.LBE45:
 415              		.loc 1 232 0
 416 002c 2046     		mov	r0, r4
 417 002e 10BD     		pop	{r4, pc}
 418              		.cfi_endproc
 419              	.LFE10:
 420              		.size	chThdSetPriority, .-chThdSetPriority
 421              		.section	.text.chThdResume,"ax",%progbits
 422              		.align	2
 423              		.p2align 4,,15
 424              		.global	chThdResume
 425              		.thumb
 426              		.thumb_func
 427              		.type	chThdResume, %function
 428              	chThdResume:
 429              	.LFB11:
 430              		.loc 1 247 0
 431              		.cfi_startproc
 432              		@ args = 0, pretend = 0, frame = 0
 433              		@ frame_needed = 0, uses_anonymous_args = 0
 434              	.LVL20:
 435 0000 10B5     		push	{r4, lr}
 436              		.cfi_def_cfa_offset 8
 437              		.cfi_offset 4, -8
 438              		.cfi_offset 14, -4
 439              	.LBB46:
 440              		.loc 1 249 0
 441 0002 2023     		movs	r3, #32
 442              	.LBE46:
 443              		.loc 1 247 0
 444 0004 0446     		mov	r4, r0
 445              	.LBB47:
 446              		.loc 1 249 0
 447              	@ 249 "../third_party/ChibiOS/os/kernel/src/chthreads.c" 1
 448 0006 83F31188 		msr     BASEPRI, r3
 449              	@ 0 "" 2
 450              		.thumb
 451              	.LBE47:
ARM GAS  /tmp/ccGYC9RU.s 			page 9


 452              		.loc 1 253 0
 453 000a 0021     		movs	r1, #0
 454 000c FFF7FEFF 		bl	chSchWakeupS
 455              	.LVL21:
 456              	.LBB48:
 457              		.loc 1 254 0
 458 0010 0023     		movs	r3, #0
 459              	@ 254 "../third_party/ChibiOS/os/kernel/src/chthreads.c" 1
 460 0012 83F31188 		msr     BASEPRI, r3
 461              	@ 0 "" 2
 462              		.thumb
 463              	.LBE48:
 464              		.loc 1 256 0
 465 0016 2046     		mov	r0, r4
 466 0018 10BD     		pop	{r4, pc}
 467              		.cfi_endproc
 468              	.LFE11:
 469              		.size	chThdResume, .-chThdResume
 470 001a 00BFAFF3 		.section	.text.chThdTerminate,"ax",%progbits
 470      0080
 471              		.align	2
 472              		.p2align 4,,15
 473              		.global	chThdTerminate
 474              		.thumb
 475              		.thumb_func
 476              		.type	chThdTerminate, %function
 477              	chThdTerminate:
 478              	.LFB12:
 479              		.loc 1 270 0
 480              		.cfi_startproc
 481              		@ args = 0, pretend = 0, frame = 0
 482              		@ frame_needed = 0, uses_anonymous_args = 0
 483              		@ link register save eliminated.
 484              	.LVL22:
 485              	.LBB49:
 486              		.loc 1 272 0
 487 0000 2023     		movs	r3, #32
 488              	@ 272 "../third_party/ChibiOS/os/kernel/src/chthreads.c" 1
 489 0002 83F31188 		msr     BASEPRI, r3
 490              	@ 0 "" 2
 491              		.thumb
 492              	.LBE49:
 493              		.loc 1 273 0
 494 0006 427F     		ldrb	r2, [r0, #29]	@ zero_extendqisi2
 495              	.LBB50:
 496              		.loc 1 274 0
 497 0008 0023     		movs	r3, #0
 498              	.LBE50:
 499              		.loc 1 273 0
 500 000a 42F00402 		orr	r2, r2, #4
 501 000e 4277     		strb	r2, [r0, #29]
 502              	.LBB51:
 503              		.loc 1 274 0
 504              	@ 274 "../third_party/ChibiOS/os/kernel/src/chthreads.c" 1
 505 0010 83F31188 		msr     BASEPRI, r3
 506              	@ 0 "" 2
 507              		.thumb
ARM GAS  /tmp/ccGYC9RU.s 			page 10


 508 0014 7047     		bx	lr
 509              	.LBE51:
 510              		.cfi_endproc
 511              	.LFE12:
 512              		.size	chThdTerminate, .-chThdTerminate
 513 0016 00BFAFF3 		.section	.text.chThdSleep,"ax",%progbits
 513      0080AFF3 
 513      0080
 514              		.align	2
 515              		.p2align 4,,15
 516              		.global	chThdSleep
 517              		.thumb
 518              		.thumb_func
 519              		.type	chThdSleep, %function
 520              	chThdSleep:
 521              	.LFB13:
 522              		.loc 1 289 0
 523              		.cfi_startproc
 524              		@ args = 0, pretend = 0, frame = 0
 525              		@ frame_needed = 0, uses_anonymous_args = 0
 526              	.LVL23:
 527 0000 08B5     		push	{r3, lr}
 528              		.cfi_def_cfa_offset 8
 529              		.cfi_offset 3, -8
 530              		.cfi_offset 14, -4
 531              		.loc 1 289 0
 532 0002 0146     		mov	r1, r0
 533              	.LBB52:
 534              		.loc 1 293 0
 535 0004 2023     		movs	r3, #32
 536              	@ 293 "../third_party/ChibiOS/os/kernel/src/chthreads.c" 1
 537 0006 83F31188 		msr     BASEPRI, r3
 538              	@ 0 "" 2
 539              		.thumb
 540              	.LBE52:
 541              		.loc 1 294 0
 542 000a 0620     		movs	r0, #6
 543              	.LVL24:
 544 000c FFF7FEFF 		bl	chSchGoSleepTimeoutS
 545              	.LVL25:
 546              	.LBB53:
 547              		.loc 1 295 0
 548 0010 0023     		movs	r3, #0
 549              	@ 295 "../third_party/ChibiOS/os/kernel/src/chthreads.c" 1
 550 0012 83F31188 		msr     BASEPRI, r3
 551              	@ 0 "" 2
 552              		.thumb
 553 0016 08BD     		pop	{r3, pc}
 554              	.LBE53:
 555              		.cfi_endproc
 556              	.LFE13:
 557              		.size	chThdSleep, .-chThdSleep
 558 0018 AFF30080 		.section	.text.chThdSleepUntil,"ax",%progbits
 558      AFF30080 
 559              		.align	2
 560              		.p2align 4,,15
 561              		.global	chThdSleepUntil
ARM GAS  /tmp/ccGYC9RU.s 			page 11


 562              		.thumb
 563              		.thumb_func
 564              		.type	chThdSleepUntil, %function
 565              	chThdSleepUntil:
 566              	.LFB14:
 567              		.loc 1 306 0
 568              		.cfi_startproc
 569              		@ args = 0, pretend = 0, frame = 0
 570              		@ frame_needed = 0, uses_anonymous_args = 0
 571              	.LVL26:
 572 0000 08B5     		push	{r3, lr}
 573              		.cfi_def_cfa_offset 8
 574              		.cfi_offset 3, -8
 575              		.cfi_offset 14, -4
 576              	.LBB54:
 577              		.loc 1 308 0
 578 0002 2023     		movs	r3, #32
 579              	@ 308 "../third_party/ChibiOS/os/kernel/src/chthreads.c" 1
 580 0004 83F31188 		msr     BASEPRI, r3
 581              	@ 0 "" 2
 582              		.thumb
 583              	.LBE54:
 584              		.loc 1 309 0
 585 0008 40F20003 		movw	r3, #:lower16:vtlist
 586 000c C0F20003 		movt	r3, #:upper16:vtlist
 587 0010 D968     		ldr	r1, [r3, #12]
 588              	.LVL27:
 589 0012 411A     		subs	r1, r0, r1
 590              	.LVL28:
 591 0014 02D0     		beq	.L12
 592              		.loc 1 310 0
 593 0016 0620     		movs	r0, #6
 594 0018 FFF7FEFF 		bl	chSchGoSleepTimeoutS
 595              	.LVL29:
 596              	.L12:
 597              	.LBB55:
 598              		.loc 1 311 0
 599 001c 0023     		movs	r3, #0
 600              	@ 311 "../third_party/ChibiOS/os/kernel/src/chthreads.c" 1
 601 001e 83F31188 		msr     BASEPRI, r3
 602              	@ 0 "" 2
 603              		.thumb
 604 0022 08BD     		pop	{r3, pc}
 605              	.LBE55:
 606              		.cfi_endproc
 607              	.LFE14:
 608              		.size	chThdSleepUntil, .-chThdSleepUntil
 609 0024 AFF30080 		.section	.text.chThdYield,"ax",%progbits
 609      AFF30080 
 609      AFF30080 
 610              		.align	2
 611              		.p2align 4,,15
 612              		.global	chThdYield
 613              		.thumb
 614              		.thumb_func
 615              		.type	chThdYield, %function
 616              	chThdYield:
ARM GAS  /tmp/ccGYC9RU.s 			page 12


 617              	.LFB15:
 618              		.loc 1 321 0
 619              		.cfi_startproc
 620              		@ args = 0, pretend = 0, frame = 0
 621              		@ frame_needed = 0, uses_anonymous_args = 0
 622 0000 08B5     		push	{r3, lr}
 623              		.cfi_def_cfa_offset 8
 624              		.cfi_offset 3, -8
 625              		.cfi_offset 14, -4
 626              	.LBB56:
 627              		.loc 1 323 0
 628 0002 2023     		movs	r3, #32
 629              	@ 323 "../third_party/ChibiOS/os/kernel/src/chthreads.c" 1
 630 0004 83F31188 		msr     BASEPRI, r3
 631              	@ 0 "" 2
 632              		.thumb
 633              	.LBE56:
 634              		.loc 1 324 0
 635 0008 40F20003 		movw	r3, #:lower16:rlist
 636 000c C0F20003 		movt	r3, #:upper16:rlist
 637 0010 1A68     		ldr	r2, [r3]
 638 0012 DB69     		ldr	r3, [r3, #28]
 639 0014 9268     		ldr	r2, [r2, #8]
 640 0016 9B68     		ldr	r3, [r3, #8]
 641 0018 9A42     		cmp	r2, r3
 642 001a 01D3     		bcc	.L17
 643              		.loc 1 324 0 is_stmt 0 discriminator 1
 644 001c FFF7FEFF 		bl	chSchDoReschedule
 645              	.LVL30:
 646              	.L17:
 647              	.LBB57:
 648              		.loc 1 325 0 is_stmt 1
 649 0020 0023     		movs	r3, #0
 650              	@ 325 "../third_party/ChibiOS/os/kernel/src/chthreads.c" 1
 651 0022 83F31188 		msr     BASEPRI, r3
 652              	@ 0 "" 2
 653              		.thumb
 654 0026 08BD     		pop	{r3, pc}
 655              	.LBE57:
 656              		.cfi_endproc
 657              	.LFE15:
 658              		.size	chThdYield, .-chThdYield
 659 0028 AFF30080 		.section	.text.chThdExitS,"ax",%progbits
 659      AFF30080 
 660              		.align	2
 661              		.p2align 4,,15
 662              		.global	chThdExitS
 663              		.thumb
 664              		.thumb_func
 665              		.type	chThdExitS, %function
 666              	chThdExitS:
 667              	.LFB17:
 668              		.loc 1 363 0
 669              		.cfi_startproc
 670              		@ args = 0, pretend = 0, frame = 0
 671              		@ frame_needed = 0, uses_anonymous_args = 0
 672              	.LVL31:
ARM GAS  /tmp/ccGYC9RU.s 			page 13


 673 0000 38B5     		push	{r3, r4, r5, lr}
 674              		.cfi_def_cfa_offset 16
 675              		.cfi_offset 3, -16
 676              		.cfi_offset 4, -12
 677              		.cfi_offset 5, -8
 678              		.cfi_offset 14, -4
 679              		.loc 1 364 0
 680 0002 40F20003 		movw	r3, #:lower16:rlist
 681 0006 C0F20003 		movt	r3, #:upper16:rlist
 682 000a DC69     		ldr	r4, [r3, #28]
 683              	.LVL32:
 684              		.loc 1 371 0
 685 000c 2546     		mov	r5, r4
 686 000e 55F8283F 		ldr	r3, [r5, #40]!
 687              		.loc 1 366 0
 688 0012 6062     		str	r0, [r4, #36]
 689              		.loc 1 371 0
 690 0014 AB42     		cmp	r3, r5
 691 0016 07D0     		beq	.L22
 692              	.LVL33:
 693              	.L23:
 694              	.LBB58:
 695              	.LBB59:
 696              		.file 2 "../third_party/ChibiOS/os/kernel/include/chinline.h"
 697              		.loc 2 89 0
 698 0018 1A68     		ldr	r2, [r3]
 699              	.LBE59:
 700              	.LBE58:
 701              		.loc 1 372 0
 702 001a 1846     		mov	r0, r3
 703              	.LBB61:
 704              	.LBB60:
 705              		.loc 2 89 0
 706 001c A262     		str	r2, [r4, #40]
 707              	.LBE60:
 708              	.LBE61:
 709              		.loc 1 372 0
 710 001e FFF7FEFF 		bl	chSchReadyI
 711              	.LVL34:
 712              		.loc 1 371 0
 713 0022 A36A     		ldr	r3, [r4, #40]
 714 0024 AB42     		cmp	r3, r5
 715 0026 F7D1     		bne	.L23
 716              	.LVL35:
 717              	.L22:
 718              		.loc 1 377 0
 719 0028 637F     		ldrb	r3, [r4, #29]	@ zero_extendqisi2
 720 002a 9B07     		lsls	r3, r3, #30
 721 002c 04D1     		bne	.L21
 722              		.loc 1 378 0
 723 002e 2269     		ldr	r2, [r4, #16]
 724 0030 6369     		ldr	r3, [r4, #20]
 725 0032 1A61     		str	r2, [r3, #16]
 726 0034 2269     		ldr	r2, [r4, #16]
 727 0036 5361     		str	r3, [r2, #20]
 728              	.L21:
 729              		.loc 1 380 0
ARM GAS  /tmp/ccGYC9RU.s 			page 14


 730 0038 0E20     		movs	r0, #14
 731              		.loc 1 383 0
 732 003a BDE83840 		pop	{r3, r4, r5, lr}
 733              	.LVL36:
 734              		.loc 1 380 0
 735 003e FFF7FEBF 		b	chSchGoSleepS
 736              	.LVL37:
 737              		.cfi_endproc
 738              	.LFE17:
 739              		.size	chThdExitS, .-chThdExitS
 740 0042 00BFAFF3 		.section	.text.chThdExit,"ax",%progbits
 740      0080AFF3 
 740      0080AFF3 
 740      0080
 741              		.align	2
 742              		.p2align 4,,15
 743              		.global	chThdExit
 744              		.thumb
 745              		.thumb_func
 746              		.type	chThdExit, %function
 747              	chThdExit:
 748              	.LFB16:
 749              		.loc 1 342 0
 750              		.cfi_startproc
 751              		@ args = 0, pretend = 0, frame = 0
 752              		@ frame_needed = 0, uses_anonymous_args = 0
 753              		@ link register save eliminated.
 754              	.LVL38:
 755              	.LBB62:
 756              		.loc 1 344 0
 757 0000 2023     		movs	r3, #32
 758              	@ 344 "../third_party/ChibiOS/os/kernel/src/chthreads.c" 1
 759 0002 83F31188 		msr     BASEPRI, r3
 760              	@ 0 "" 2
 761              		.thumb
 762              	.LBE62:
 763              		.loc 1 345 0
 764 0006 FFF7FEBF 		b	chThdExitS
 765              	.LVL39:
 766              		.cfi_endproc
 767              	.LFE16:
 768              		.size	chThdExit, .-chThdExit
 769 000a 00BFAFF3 		.section	.text.chThdWait,"ax",%progbits
 769      0080
 770              		.align	2
 771              		.p2align 4,,15
 772              		.global	chThdWait
 773              		.thumb
 774              		.thumb_func
 775              		.type	chThdWait, %function
 776              	chThdWait:
 777              	.LFB18:
 778              		.loc 1 417 0
 779              		.cfi_startproc
 780              		@ args = 0, pretend = 0, frame = 0
 781              		@ frame_needed = 0, uses_anonymous_args = 0
 782              	.LVL40:
ARM GAS  /tmp/ccGYC9RU.s 			page 15


 783 0000 38B5     		push	{r3, r4, r5, lr}
 784              		.cfi_def_cfa_offset 16
 785              		.cfi_offset 3, -16
 786              		.cfi_offset 4, -12
 787              		.cfi_offset 5, -8
 788              		.cfi_offset 14, -4
 789              		.loc 1 417 0
 790 0002 0446     		mov	r4, r0
 791              	.LBB63:
 792              		.loc 1 422 0
 793 0004 2023     		movs	r3, #32
 794              	@ 422 "../third_party/ChibiOS/os/kernel/src/chthreads.c" 1
 795 0006 83F31188 		msr     BASEPRI, r3
 796              	@ 0 "" 2
 797              		.thumb
 798              	.LBE63:
 799              		.loc 1 427 0
 800 000a 037F     		ldrb	r3, [r0, #28]	@ zero_extendqisi2
 801 000c 0E2B     		cmp	r3, #14
 802 000e 0AD0     		beq	.L26
 803              		.loc 1 428 0
 804 0010 40F20003 		movw	r3, #:lower16:rlist
 805 0014 C0F20003 		movt	r3, #:upper16:rlist
 806              	.LBB64:
 807              	.LBB65:
 808              		.loc 2 82 0
 809 0018 826A     		ldr	r2, [r0, #40]
 810              	.LBE65:
 811              	.LBE64:
 812              		.loc 1 428 0
 813 001a DB69     		ldr	r3, [r3, #28]
 814              	.LVL41:
 815              		.loc 1 429 0
 816 001c 0720     		movs	r0, #7
 817              	.LVL42:
 818              	.LBB67:
 819              	.LBB66:
 820              		.loc 2 82 0
 821 001e 1A60     		str	r2, [r3]
 822              		.loc 2 83 0
 823 0020 A362     		str	r3, [r4, #40]
 824              	.LBE66:
 825              	.LBE67:
 826              		.loc 1 429 0
 827 0022 FFF7FEFF 		bl	chSchGoSleepS
 828              	.LVL43:
 829              	.L26:
 830              		.loc 1 431 0
 831 0026 656A     		ldr	r5, [r4, #36]
 832              	.LVL44:
 833              	.LBB68:
 834              		.loc 1 432 0
 835 0028 0023     		movs	r3, #0
 836              	@ 432 "../third_party/ChibiOS/os/kernel/src/chthreads.c" 1
 837 002a 83F31188 		msr     BASEPRI, r3
 838              	@ 0 "" 2
 839              		.thumb
ARM GAS  /tmp/ccGYC9RU.s 			page 16


 840              	.LBE68:
 841              		.loc 1 434 0
 842 002e 2046     		mov	r0, r4
 843 0030 FFF7FEFF 		bl	chThdRelease
 844              	.LVL45:
 845              		.loc 1 437 0
 846 0034 2846     		mov	r0, r5
 847 0036 38BD     		pop	{r3, r4, r5, pc}
 848              		.cfi_endproc
 849              	.LFE18:
 850              		.size	chThdWait, .-chThdWait
 851 0038 AFF30080 		.text
 851      AFF30080 
 852              	.Letext0:
 853              		.file 3 "/home/santi/arm-2013.11/lib/gcc/arm-none-eabi/4.8.1/include/stddef.h"
 854              		.file 4 "/home/santi/arm-2013.11/arm-none-eabi/include/stdint.h"
 855              		.file 5 "../third_party/ChibiOS/os/ports/GCC/ARMCMx/chtypes.h"
 856              		.file 6 "../third_party/ChibiOS/os/kernel/include/chlists.h"
 857              		.file 7 "../third_party/ChibiOS/os/kernel/include/chthreads.h"
 858              		.file 8 "../third_party/ChibiOS/os/ports/GCC/ARMCMx/chcore_v7m.h"
 859              		.file 9 "../third_party/ChibiOS/os/kernel/include/chvt.h"
 860              		.file 10 "../third_party/ChibiOS/os/kernel/include/chschd.h"
 861              		.file 11 "../third_party/ChibiOS/os/kernel/include/chmtx.h"
 862              		.file 12 "../third_party/ChibiOS/os/kernel/include/chdynamic.h"
 863              		.section	.debug_info,"",%progbits
 864              	.Ldebug_info0:
 865 0000 B40B0000 		.4byte	0xbb4
 866 0004 0400     		.2byte	0x4
 867 0006 00000000 		.4byte	.Ldebug_abbrev0
 868 000a 04       		.byte	0x4
 869 000b 01       		.uleb128 0x1
 870 000c 35000000 		.4byte	.LASF98
 871 0010 01       		.byte	0x1
 872 0011 6A010000 		.4byte	.LASF99
 873 0015 D2020000 		.4byte	.LASF100
 874 0019 E0000000 		.4byte	.Ldebug_ranges0+0xe0
 875 001d 00000000 		.4byte	0
 876 0021 00000000 		.4byte	.Ldebug_line0
 877 0025 02       		.uleb128 0x2
 878 0026 04       		.byte	0x4
 879 0027 05       		.byte	0x5
 880 0028 696E7400 		.ascii	"int\000"
 881 002c 03       		.uleb128 0x3
 882 002d 1B000000 		.4byte	.LASF2
 883 0031 03       		.byte	0x3
 884 0032 D4       		.byte	0xd4
 885 0033 37000000 		.4byte	0x37
 886 0037 04       		.uleb128 0x4
 887 0038 04       		.byte	0x4
 888 0039 07       		.byte	0x7
 889 003a EE010000 		.4byte	.LASF0
 890 003e 04       		.uleb128 0x4
 891 003f 01       		.byte	0x1
 892 0040 06       		.byte	0x6
 893 0041 1D010000 		.4byte	.LASF1
 894 0045 03       		.uleb128 0x3
 895 0046 86040000 		.4byte	.LASF3
ARM GAS  /tmp/ccGYC9RU.s 			page 17


 896 004a 04       		.byte	0x4
 897 004b 2A       		.byte	0x2a
 898 004c 50000000 		.4byte	0x50
 899 0050 04       		.uleb128 0x4
 900 0051 01       		.byte	0x1
 901 0052 08       		.byte	0x8
 902 0053 65030000 		.4byte	.LASF4
 903 0057 04       		.uleb128 0x4
 904 0058 02       		.byte	0x2
 905 0059 05       		.byte	0x5
 906 005a 7D030000 		.4byte	.LASF5
 907 005e 04       		.uleb128 0x4
 908 005f 02       		.byte	0x2
 909 0060 07       		.byte	0x7
 910 0061 22020000 		.4byte	.LASF6
 911 0065 03       		.uleb128 0x3
 912 0066 5D030000 		.4byte	.LASF7
 913 006a 04       		.byte	0x4
 914 006b 4F       		.byte	0x4f
 915 006c 70000000 		.4byte	0x70
 916 0070 04       		.uleb128 0x4
 917 0071 04       		.byte	0x4
 918 0072 05       		.byte	0x5
 919 0073 50010000 		.4byte	.LASF8
 920 0077 03       		.uleb128 0x3
 921 0078 D9030000 		.4byte	.LASF9
 922 007c 04       		.byte	0x4
 923 007d 50       		.byte	0x50
 924 007e 82000000 		.4byte	0x82
 925 0082 04       		.uleb128 0x4
 926 0083 04       		.byte	0x4
 927 0084 07       		.byte	0x7
 928 0085 03020000 		.4byte	.LASF10
 929 0089 04       		.uleb128 0x4
 930 008a 08       		.byte	0x8
 931 008b 05       		.byte	0x5
 932 008c 0F010000 		.4byte	.LASF11
 933 0090 04       		.uleb128 0x4
 934 0091 08       		.byte	0x8
 935 0092 07       		.byte	0x7
 936 0093 E8000000 		.4byte	.LASF12
 937 0097 03       		.uleb128 0x3
 938 0098 50020000 		.4byte	.LASF13
 939 009c 05       		.byte	0x5
 940 009d 2F       		.byte	0x2f
 941 009e 45000000 		.4byte	0x45
 942 00a2 03       		.uleb128 0x3
 943 00a3 59010000 		.4byte	.LASF14
 944 00a7 05       		.byte	0x5
 945 00a8 30       		.byte	0x30
 946 00a9 45000000 		.4byte	0x45
 947 00ad 03       		.uleb128 0x3
 948 00ae 46030000 		.4byte	.LASF15
 949 00b2 05       		.byte	0x5
 950 00b3 31       		.byte	0x31
 951 00b4 45000000 		.4byte	0x45
 952 00b8 03       		.uleb128 0x3
ARM GAS  /tmp/ccGYC9RU.s 			page 18


 953 00b9 55030000 		.4byte	.LASF16
 954 00bd 05       		.byte	0x5
 955 00be 32       		.byte	0x32
 956 00bf 77000000 		.4byte	0x77
 957 00c3 03       		.uleb128 0x3
 958 00c4 42020000 		.4byte	.LASF17
 959 00c8 05       		.byte	0x5
 960 00c9 33       		.byte	0x33
 961 00ca 65000000 		.4byte	0x65
 962 00ce 03       		.uleb128 0x3
 963 00cf 73020000 		.4byte	.LASF18
 964 00d3 05       		.byte	0x5
 965 00d4 35       		.byte	0x35
 966 00d5 77000000 		.4byte	0x77
 967 00d9 03       		.uleb128 0x3
 968 00da 1C040000 		.4byte	.LASF19
 969 00de 05       		.byte	0x5
 970 00df 36       		.byte	0x36
 971 00e0 77000000 		.4byte	0x77
 972 00e4 03       		.uleb128 0x3
 973 00e5 E8010000 		.4byte	.LASF20
 974 00e9 05       		.byte	0x5
 975 00ea 37       		.byte	0x37
 976 00eb 65000000 		.4byte	0x65
 977 00ef 03       		.uleb128 0x3
 978 00f0 B9030000 		.4byte	.LASF21
 979 00f4 06       		.byte	0x6
 980 00f5 2A       		.byte	0x2a
 981 00f6 FA000000 		.4byte	0xfa
 982 00fa 05       		.uleb128 0x5
 983 00fb B9030000 		.4byte	.LASF21
 984 00ff 48       		.byte	0x48
 985 0100 07       		.byte	0x7
 986 0101 5E       		.byte	0x5e
 987 0102 EB010000 		.4byte	0x1eb
 988 0106 06       		.uleb128 0x6
 989 0107 9D030000 		.4byte	.LASF22
 990 010b 07       		.byte	0x7
 991 010c 5F       		.byte	0x5f
 992 010d 0C020000 		.4byte	0x20c
 993 0111 00       		.byte	0
 994 0112 06       		.uleb128 0x6
 995 0113 4E030000 		.4byte	.LASF23
 996 0117 07       		.byte	0x7
 997 0118 61       		.byte	0x61
 998 0119 0C020000 		.4byte	0x20c
 999 011d 04       		.byte	0x4
 1000 011e 06       		.uleb128 0x6
 1001 011f 08010000 		.4byte	.LASF24
 1002 0123 07       		.byte	0x7
 1003 0124 63       		.byte	0x63
 1004 0125 B8000000 		.4byte	0xb8
 1005 0129 08       		.byte	0x8
 1006 012a 06       		.uleb128 0x6
 1007 012b E0040000 		.4byte	.LASF25
 1008 012f 07       		.byte	0x7
 1009 0130 64       		.byte	0x64
ARM GAS  /tmp/ccGYC9RU.s 			page 19


 1010 0131 C5020000 		.4byte	0x2c5
 1011 0135 0C       		.byte	0xc
 1012 0136 06       		.uleb128 0x6
 1013 0137 62010000 		.4byte	.LASF26
 1014 013b 07       		.byte	0x7
 1015 013c 66       		.byte	0x66
 1016 013d 0C020000 		.4byte	0x20c
 1017 0141 10       		.byte	0x10
 1018 0142 06       		.uleb128 0x6
 1019 0143 C4020000 		.4byte	.LASF27
 1020 0147 07       		.byte	0x7
 1021 0148 67       		.byte	0x67
 1022 0149 0C020000 		.4byte	0x20c
 1023 014d 14       		.byte	0x14
 1024 014e 06       		.uleb128 0x6
 1025 014f A0040000 		.4byte	.LASF28
 1026 0153 07       		.byte	0x7
 1027 0154 6E       		.byte	0x6e
 1028 0155 8B040000 		.4byte	0x48b
 1029 0159 18       		.byte	0x18
 1030 015a 06       		.uleb128 0x6
 1031 015b 87030000 		.4byte	.LASF29
 1032 015f 07       		.byte	0x7
 1033 0160 79       		.byte	0x79
 1034 0161 A2000000 		.4byte	0xa2
 1035 0165 1C       		.byte	0x1c
 1036 0166 06       		.uleb128 0x6
 1037 0167 A4030000 		.4byte	.LASF30
 1038 016b 07       		.byte	0x7
 1039 016c 7D       		.byte	0x7d
 1040 016d 97000000 		.4byte	0x97
 1041 0171 1D       		.byte	0x1d
 1042 0172 06       		.uleb128 0x6
 1043 0173 6F040000 		.4byte	.LASF31
 1044 0177 07       		.byte	0x7
 1045 0178 82       		.byte	0x82
 1046 0179 AD000000 		.4byte	0xad
 1047 017d 1E       		.byte	0x1e
 1048 017e 06       		.uleb128 0x6
 1049 017f 3A040000 		.4byte	.LASF32
 1050 0183 07       		.byte	0x7
 1051 0184 89       		.byte	0x89
 1052 0185 9C030000 		.4byte	0x39c
 1053 0189 20       		.byte	0x20
 1054 018a 07       		.uleb128 0x7
 1055 018b 705F7500 		.ascii	"p_u\000"
 1056 018f 07       		.byte	0x7
 1057 0190 AE       		.byte	0xae
 1058 0191 56040000 		.4byte	0x456
 1059 0195 24       		.byte	0x24
 1060 0196 06       		.uleb128 0x6
 1061 0197 E6040000 		.4byte	.LASF33
 1062 019b 07       		.byte	0x7
 1063 019c B3       		.byte	0xb3
 1064 019d 32020000 		.4byte	0x232
 1065 01a1 28       		.byte	0x28
 1066 01a2 06       		.uleb128 0x6
ARM GAS  /tmp/ccGYC9RU.s 			page 20


 1067 01a3 48040000 		.4byte	.LASF34
 1068 01a7 07       		.byte	0x7
 1069 01a8 B9       		.byte	0xb9
 1070 01a9 12020000 		.4byte	0x212
 1071 01ad 2C       		.byte	0x2c
 1072 01ae 06       		.uleb128 0x6
 1073 01af 15000000 		.4byte	.LASF35
 1074 01b3 07       		.byte	0x7
 1075 01b4 BD       		.byte	0xbd
 1076 01b5 C3000000 		.4byte	0xc3
 1077 01b9 34       		.byte	0x34
 1078 01ba 06       		.uleb128 0x6
 1079 01bb CE030000 		.4byte	.LASF36
 1080 01bf 07       		.byte	0x7
 1081 01c0 C3       		.byte	0xc3
 1082 01c1 CE000000 		.4byte	0xce
 1083 01c5 38       		.byte	0x38
 1084 01c6 06       		.uleb128 0x6
 1085 01c7 73030000 		.4byte	.LASF37
 1086 01cb 07       		.byte	0x7
 1087 01cc CA       		.byte	0xca
 1088 01cd 9D040000 		.4byte	0x49d
 1089 01d1 3C       		.byte	0x3c
 1090 01d2 06       		.uleb128 0x6
 1091 01d3 26040000 		.4byte	.LASF38
 1092 01d7 07       		.byte	0x7
 1093 01d8 CE       		.byte	0xce
 1094 01d9 B8000000 		.4byte	0xb8
 1095 01dd 40       		.byte	0x40
 1096 01de 06       		.uleb128 0x6
 1097 01df 33010000 		.4byte	.LASF39
 1098 01e3 07       		.byte	0x7
 1099 01e4 D4       		.byte	0xd4
 1100 01e5 48020000 		.4byte	0x248
 1101 01e9 44       		.byte	0x44
 1102 01ea 00       		.byte	0
 1103 01eb 08       		.uleb128 0x8
 1104 01ec 08       		.byte	0x8
 1105 01ed 06       		.byte	0x6
 1106 01ee 61       		.byte	0x61
 1107 01ef 0C020000 		.4byte	0x20c
 1108 01f3 06       		.uleb128 0x6
 1109 01f4 9D030000 		.4byte	.LASF22
 1110 01f8 06       		.byte	0x6
 1111 01f9 62       		.byte	0x62
 1112 01fa 0C020000 		.4byte	0x20c
 1113 01fe 00       		.byte	0
 1114 01ff 06       		.uleb128 0x6
 1115 0200 4E030000 		.4byte	.LASF23
 1116 0204 06       		.byte	0x6
 1117 0205 64       		.byte	0x64
 1118 0206 0C020000 		.4byte	0x20c
 1119 020a 04       		.byte	0x4
 1120 020b 00       		.byte	0
 1121 020c 09       		.uleb128 0x9
 1122 020d 04       		.byte	0x4
 1123 020e EF000000 		.4byte	0xef
ARM GAS  /tmp/ccGYC9RU.s 			page 21


 1124 0212 03       		.uleb128 0x3
 1125 0213 08000000 		.4byte	.LASF40
 1126 0217 06       		.byte	0x6
 1127 0218 66       		.byte	0x66
 1128 0219 EB010000 		.4byte	0x1eb
 1129 021d 08       		.uleb128 0x8
 1130 021e 04       		.byte	0x4
 1131 021f 06       		.byte	0x6
 1132 0220 6B       		.byte	0x6b
 1133 0221 32020000 		.4byte	0x232
 1134 0225 06       		.uleb128 0x6
 1135 0226 9D030000 		.4byte	.LASF22
 1136 022a 06       		.byte	0x6
 1137 022b 6D       		.byte	0x6d
 1138 022c 0C020000 		.4byte	0x20c
 1139 0230 00       		.byte	0
 1140 0231 00       		.byte	0
 1141 0232 03       		.uleb128 0x3
 1142 0233 67020000 		.4byte	.LASF41
 1143 0237 06       		.byte	0x6
 1144 0238 70       		.byte	0x70
 1145 0239 1D020000 		.4byte	0x21d
 1146 023d 03       		.uleb128 0x3
 1147 023e B4010000 		.4byte	.LASF42
 1148 0242 08       		.byte	0x8
 1149 0243 D7       		.byte	0xd7
 1150 0244 48020000 		.4byte	0x248
 1151 0248 0A       		.uleb128 0xa
 1152 0249 04       		.byte	0x4
 1153 024a 05       		.uleb128 0x5
 1154 024b 41040000 		.4byte	.LASF43
 1155 024f 24       		.byte	0x24
 1156 0250 08       		.byte	0x8
 1157 0251 FE       		.byte	0xfe
 1158 0252 C5020000 		.4byte	0x2c5
 1159 0256 0B       		.uleb128 0xb
 1160 0257 723400   		.ascii	"r4\000"
 1161 025a 08       		.byte	0x8
 1162 025b 1101     		.2byte	0x111
 1163 025d 3D020000 		.4byte	0x23d
 1164 0261 00       		.byte	0
 1165 0262 0B       		.uleb128 0xb
 1166 0263 723500   		.ascii	"r5\000"
 1167 0266 08       		.byte	0x8
 1168 0267 1201     		.2byte	0x112
 1169 0269 3D020000 		.4byte	0x23d
 1170 026d 04       		.byte	0x4
 1171 026e 0B       		.uleb128 0xb
 1172 026f 723600   		.ascii	"r6\000"
 1173 0272 08       		.byte	0x8
 1174 0273 1301     		.2byte	0x113
 1175 0275 3D020000 		.4byte	0x23d
 1176 0279 08       		.byte	0x8
 1177 027a 0B       		.uleb128 0xb
 1178 027b 723700   		.ascii	"r7\000"
 1179 027e 08       		.byte	0x8
 1180 027f 1401     		.2byte	0x114
ARM GAS  /tmp/ccGYC9RU.s 			page 22


 1181 0281 3D020000 		.4byte	0x23d
 1182 0285 0C       		.byte	0xc
 1183 0286 0B       		.uleb128 0xb
 1184 0287 723800   		.ascii	"r8\000"
 1185 028a 08       		.byte	0x8
 1186 028b 1501     		.2byte	0x115
 1187 028d 3D020000 		.4byte	0x23d
 1188 0291 10       		.byte	0x10
 1189 0292 0B       		.uleb128 0xb
 1190 0293 723900   		.ascii	"r9\000"
 1191 0296 08       		.byte	0x8
 1192 0297 1601     		.2byte	0x116
 1193 0299 3D020000 		.4byte	0x23d
 1194 029d 14       		.byte	0x14
 1195 029e 0B       		.uleb128 0xb
 1196 029f 72313000 		.ascii	"r10\000"
 1197 02a3 08       		.byte	0x8
 1198 02a4 1701     		.2byte	0x117
 1199 02a6 3D020000 		.4byte	0x23d
 1200 02aa 18       		.byte	0x18
 1201 02ab 0B       		.uleb128 0xb
 1202 02ac 72313100 		.ascii	"r11\000"
 1203 02b0 08       		.byte	0x8
 1204 02b1 1801     		.2byte	0x118
 1205 02b3 3D020000 		.4byte	0x23d
 1206 02b7 1C       		.byte	0x1c
 1207 02b8 0B       		.uleb128 0xb
 1208 02b9 6C7200   		.ascii	"lr\000"
 1209 02bc 08       		.byte	0x8
 1210 02bd 1901     		.2byte	0x119
 1211 02bf 3D020000 		.4byte	0x23d
 1212 02c3 20       		.byte	0x20
 1213 02c4 00       		.byte	0
 1214 02c5 0C       		.uleb128 0xc
 1215 02c6 15020000 		.4byte	.LASF44
 1216 02ca 04       		.byte	0x4
 1217 02cb 08       		.byte	0x8
 1218 02cc 2301     		.2byte	0x123
 1219 02ce E0020000 		.4byte	0x2e0
 1220 02d2 0B       		.uleb128 0xb
 1221 02d3 72313300 		.ascii	"r13\000"
 1222 02d7 08       		.byte	0x8
 1223 02d8 2401     		.2byte	0x124
 1224 02da E0020000 		.4byte	0x2e0
 1225 02de 00       		.byte	0
 1226 02df 00       		.byte	0
 1227 02e0 09       		.uleb128 0x9
 1228 02e1 04       		.byte	0x4
 1229 02e2 4A020000 		.4byte	0x24a
 1230 02e6 04       		.uleb128 0x4
 1231 02e7 04       		.byte	0x4
 1232 02e8 07       		.byte	0x7
 1233 02e9 A7020000 		.4byte	.LASF45
 1234 02ed 03       		.uleb128 0x3
 1235 02ee 31040000 		.4byte	.LASF46
 1236 02f2 09       		.byte	0x9
 1237 02f3 53       		.byte	0x53
ARM GAS  /tmp/ccGYC9RU.s 			page 23


 1238 02f4 F8020000 		.4byte	0x2f8
 1239 02f8 09       		.uleb128 0x9
 1240 02f9 04       		.byte	0x4
 1241 02fa FE020000 		.4byte	0x2fe
 1242 02fe 0D       		.uleb128 0xd
 1243 02ff 09030000 		.4byte	0x309
 1244 0303 0E       		.uleb128 0xe
 1245 0304 48020000 		.4byte	0x248
 1246 0308 00       		.byte	0
 1247 0309 03       		.uleb128 0x3
 1248 030a F7030000 		.4byte	.LASF47
 1249 030e 09       		.byte	0x9
 1250 030f 58       		.byte	0x58
 1251 0310 14030000 		.4byte	0x314
 1252 0314 05       		.uleb128 0x5
 1253 0315 F7030000 		.4byte	.LASF47
 1254 0319 14       		.byte	0x14
 1255 031a 09       		.byte	0x9
 1256 031b 5F       		.byte	0x5f
 1257 031c 5D030000 		.4byte	0x35d
 1258 0320 06       		.uleb128 0x6
 1259 0321 FB010000 		.4byte	.LASF48
 1260 0325 09       		.byte	0x9
 1261 0326 60       		.byte	0x60
 1262 0327 5D030000 		.4byte	0x35d
 1263 032b 00       		.byte	0
 1264 032c 06       		.uleb128 0x6
 1265 032d BD010000 		.4byte	.LASF49
 1266 0331 09       		.byte	0x9
 1267 0332 62       		.byte	0x62
 1268 0333 5D030000 		.4byte	0x35d
 1269 0337 04       		.byte	0x4
 1270 0338 06       		.uleb128 0x6
 1271 0339 9F020000 		.4byte	.LASF50
 1272 033d 09       		.byte	0x9
 1273 033e 64       		.byte	0x64
 1274 033f D9000000 		.4byte	0xd9
 1275 0343 08       		.byte	0x8
 1276 0344 06       		.uleb128 0x6
 1277 0345 B0020000 		.4byte	.LASF51
 1278 0349 09       		.byte	0x9
 1279 034a 65       		.byte	0x65
 1280 034b ED020000 		.4byte	0x2ed
 1281 034f 0C       		.byte	0xc
 1282 0350 06       		.uleb128 0x6
 1283 0351 5D040000 		.4byte	.LASF52
 1284 0355 09       		.byte	0x9
 1285 0356 67       		.byte	0x67
 1286 0357 48020000 		.4byte	0x248
 1287 035b 10       		.byte	0x10
 1288 035c 00       		.byte	0
 1289 035d 09       		.uleb128 0x9
 1290 035e 04       		.byte	0x4
 1291 035f 09030000 		.4byte	0x309
 1292 0363 08       		.uleb128 0x8
 1293 0364 10       		.byte	0x10
 1294 0365 09       		.byte	0x9
ARM GAS  /tmp/ccGYC9RU.s 			page 24


 1295 0366 71       		.byte	0x71
 1296 0367 9C030000 		.4byte	0x39c
 1297 036b 06       		.uleb128 0x6
 1298 036c FB010000 		.4byte	.LASF48
 1299 0370 09       		.byte	0x9
 1300 0371 72       		.byte	0x72
 1301 0372 5D030000 		.4byte	0x35d
 1302 0376 00       		.byte	0
 1303 0377 06       		.uleb128 0x6
 1304 0378 BD010000 		.4byte	.LASF49
 1305 037c 09       		.byte	0x9
 1306 037d 74       		.byte	0x74
 1307 037e 5D030000 		.4byte	0x35d
 1308 0382 04       		.byte	0x4
 1309 0383 06       		.uleb128 0x6
 1310 0384 9F020000 		.4byte	.LASF50
 1311 0388 09       		.byte	0x9
 1312 0389 76       		.byte	0x76
 1313 038a D9000000 		.4byte	0xd9
 1314 038e 08       		.byte	0x8
 1315 038f 06       		.uleb128 0x6
 1316 0390 A7040000 		.4byte	.LASF53
 1317 0394 09       		.byte	0x9
 1318 0395 77       		.byte	0x77
 1319 0396 9C030000 		.4byte	0x39c
 1320 039a 0C       		.byte	0xc
 1321 039b 00       		.byte	0
 1322 039c 0F       		.uleb128 0xf
 1323 039d D9000000 		.4byte	0xd9
 1324 03a1 03       		.uleb128 0x3
 1325 03a2 C7040000 		.4byte	.LASF54
 1326 03a6 09       		.byte	0x9
 1327 03a7 78       		.byte	0x78
 1328 03a8 63030000 		.4byte	0x363
 1329 03ac 08       		.uleb128 0x8
 1330 03ad 20       		.byte	0x20
 1331 03ae 0A       		.byte	0xa
 1332 03af 5E       		.byte	0x5e
 1333 03b0 09040000 		.4byte	0x409
 1334 03b4 06       		.uleb128 0x6
 1335 03b5 EF030000 		.4byte	.LASF55
 1336 03b9 0A       		.byte	0xa
 1337 03ba 5F       		.byte	0x5f
 1338 03bb 12020000 		.4byte	0x212
 1339 03bf 00       		.byte	0
 1340 03c0 06       		.uleb128 0x6
 1341 03c1 8F030000 		.4byte	.LASF56
 1342 03c5 0A       		.byte	0xa
 1343 03c6 60       		.byte	0x60
 1344 03c7 B8000000 		.4byte	0xb8
 1345 03cb 08       		.byte	0x8
 1346 03cc 06       		.uleb128 0x6
 1347 03cd CC020000 		.4byte	.LASF57
 1348 03d1 0A       		.byte	0xa
 1349 03d2 62       		.byte	0x62
 1350 03d3 C5020000 		.4byte	0x2c5
 1351 03d7 0C       		.byte	0xc
ARM GAS  /tmp/ccGYC9RU.s 			page 25


 1352 03d8 06       		.uleb128 0x6
 1353 03d9 AC010000 		.4byte	.LASF58
 1354 03dd 0A       		.byte	0xa
 1355 03de 65       		.byte	0x65
 1356 03df 0C020000 		.4byte	0x20c
 1357 03e3 10       		.byte	0x10
 1358 03e4 06       		.uleb128 0x6
 1359 03e5 22030000 		.4byte	.LASF59
 1360 03e9 0A       		.byte	0xa
 1361 03ea 66       		.byte	0x66
 1362 03eb 0C020000 		.4byte	0x20c
 1363 03ef 14       		.byte	0x14
 1364 03f0 06       		.uleb128 0x6
 1365 03f1 CE040000 		.4byte	.LASF60
 1366 03f5 0A       		.byte	0xa
 1367 03f6 6A       		.byte	0x6a
 1368 03f7 E4000000 		.4byte	0xe4
 1369 03fb 18       		.byte	0x18
 1370 03fc 06       		.uleb128 0x6
 1371 03fd 18030000 		.4byte	.LASF61
 1372 0401 0A       		.byte	0xa
 1373 0402 6C       		.byte	0x6c
 1374 0403 0C020000 		.4byte	0x20c
 1375 0407 1C       		.byte	0x1c
 1376 0408 00       		.byte	0
 1377 0409 03       		.uleb128 0x3
 1378 040a 76040000 		.4byte	.LASF62
 1379 040e 0A       		.byte	0xa
 1380 040f 6E       		.byte	0x6e
 1381 0410 AC030000 		.4byte	0x3ac
 1382 0414 05       		.uleb128 0x5
 1383 0415 7F020000 		.4byte	.LASF63
 1384 0419 10       		.byte	0x10
 1385 041a 0B       		.byte	0xb
 1386 041b 2C       		.byte	0x2c
 1387 041c 45040000 		.4byte	0x445
 1388 0420 06       		.uleb128 0x6
 1389 0421 3B010000 		.4byte	.LASF64
 1390 0425 0B       		.byte	0xb
 1391 0426 2D       		.byte	0x2d
 1392 0427 12020000 		.4byte	0x212
 1393 042b 00       		.byte	0
 1394 042c 06       		.uleb128 0x6
 1395 042d D8040000 		.4byte	.LASF65
 1396 0431 0B       		.byte	0xb
 1397 0432 2F       		.byte	0x2f
 1398 0433 0C020000 		.4byte	0x20c
 1399 0437 08       		.byte	0x8
 1400 0438 06       		.uleb128 0x6
 1401 0439 15040000 		.4byte	.LASF66
 1402 043d 0B       		.byte	0xb
 1403 043e 31       		.byte	0x31
 1404 043f 45040000 		.4byte	0x445
 1405 0443 0C       		.byte	0xc
 1406 0444 00       		.byte	0
 1407 0445 09       		.uleb128 0x9
 1408 0446 04       		.byte	0x4
ARM GAS  /tmp/ccGYC9RU.s 			page 26


 1409 0447 14040000 		.4byte	0x414
 1410 044b 03       		.uleb128 0x3
 1411 044c 7F020000 		.4byte	.LASF63
 1412 0450 0B       		.byte	0xb
 1413 0451 33       		.byte	0x33
 1414 0452 14040000 		.4byte	0x414
 1415 0456 10       		.uleb128 0x10
 1416 0457 04       		.byte	0x4
 1417 0458 07       		.byte	0x7
 1418 0459 90       		.byte	0x90
 1419 045a 8B040000 		.4byte	0x48b
 1420 045e 11       		.uleb128 0x11
 1421 045f 27000000 		.4byte	.LASF67
 1422 0463 07       		.byte	0x7
 1423 0464 97       		.byte	0x97
 1424 0465 C3000000 		.4byte	0xc3
 1425 0469 11       		.uleb128 0x11
 1426 046a FF000000 		.4byte	.LASF68
 1427 046e 07       		.byte	0x7
 1428 046f 9E       		.byte	0x9e
 1429 0470 C3000000 		.4byte	0xc3
 1430 0474 11       		.uleb128 0x11
 1431 0475 99040000 		.4byte	.LASF69
 1432 0479 07       		.byte	0x7
 1433 047a A5       		.byte	0xa5
 1434 047b 48020000 		.4byte	0x248
 1435 047f 11       		.uleb128 0x11
 1436 0480 96030000 		.4byte	.LASF70
 1437 0484 07       		.byte	0x7
 1438 0485 AC       		.byte	0xac
 1439 0486 CE000000 		.4byte	0xce
 1440 048a 00       		.byte	0
 1441 048b 09       		.uleb128 0x9
 1442 048c 04       		.byte	0x4
 1443 048d 91040000 		.4byte	0x491
 1444 0491 12       		.uleb128 0x12
 1445 0492 96040000 		.4byte	0x496
 1446 0496 04       		.uleb128 0x4
 1447 0497 01       		.byte	0x1
 1448 0498 08       		.byte	0x8
 1449 0499 04040000 		.4byte	.LASF71
 1450 049d 09       		.uleb128 0x9
 1451 049e 04       		.byte	0x4
 1452 049f 4B040000 		.4byte	0x44b
 1453 04a3 03       		.uleb128 0x3
 1454 04a4 00000000 		.4byte	.LASF72
 1455 04a8 07       		.byte	0x7
 1456 04a9 DF       		.byte	0xdf
 1457 04aa AE040000 		.4byte	0x4ae
 1458 04ae 09       		.uleb128 0x9
 1459 04af 04       		.byte	0x4
 1460 04b0 B4040000 		.4byte	0x4b4
 1461 04b4 13       		.uleb128 0x13
 1462 04b5 C3000000 		.4byte	0xc3
 1463 04b9 C3040000 		.4byte	0x4c3
 1464 04bd 0E       		.uleb128 0xe
 1465 04be 48020000 		.4byte	0x248
ARM GAS  /tmp/ccGYC9RU.s 			page 27


 1466 04c2 00       		.byte	0
 1467 04c3 14       		.uleb128 0x14
 1468 04c4 E2030000 		.4byte	.LASF74
 1469 04c8 01       		.byte	0x1
 1470 04c9 4C       		.byte	0x4c
 1471 04ca 0C020000 		.4byte	0x20c
 1472 04ce 01       		.byte	0x1
 1473 04cf E9040000 		.4byte	0x4e9
 1474 04d3 15       		.uleb128 0x15
 1475 04d4 747000   		.ascii	"tp\000"
 1476 04d7 01       		.byte	0x1
 1477 04d8 4C       		.byte	0x4c
 1478 04d9 0C020000 		.4byte	0x20c
 1479 04dd 16       		.uleb128 0x16
 1480 04de 22000000 		.4byte	.LASF73
 1481 04e2 01       		.byte	0x1
 1482 04e3 4C       		.byte	0x4c
 1483 04e4 B8000000 		.4byte	0xb8
 1484 04e8 00       		.byte	0
 1485 04e9 14       		.uleb128 0x14
 1486 04ea 43010000 		.4byte	.LASF75
 1487 04ee 01       		.byte	0x1
 1488 04ef 9A       		.byte	0x9a
 1489 04f0 0C020000 		.4byte	0x20c
 1490 04f4 01       		.byte	0x1
 1491 04f5 3A050000 		.4byte	0x53a
 1492 04f9 15       		.uleb128 0x15
 1493 04fa 77737000 		.ascii	"wsp\000"
 1494 04fe 01       		.byte	0x1
 1495 04ff 9A       		.byte	0x9a
 1496 0500 48020000 		.4byte	0x248
 1497 0504 16       		.uleb128 0x16
 1498 0505 1D020000 		.4byte	.LASF76
 1499 0509 01       		.byte	0x1
 1500 050a 9A       		.byte	0x9a
 1501 050b 2C000000 		.4byte	0x2c
 1502 050f 16       		.uleb128 0x16
 1503 0510 22000000 		.4byte	.LASF73
 1504 0514 01       		.byte	0x1
 1505 0515 9B       		.byte	0x9b
 1506 0516 B8000000 		.4byte	0xb8
 1507 051a 15       		.uleb128 0x15
 1508 051b 706600   		.ascii	"pf\000"
 1509 051e 01       		.byte	0x1
 1510 051f 9B       		.byte	0x9b
 1511 0520 A3040000 		.4byte	0x4a3
 1512 0524 15       		.uleb128 0x15
 1513 0525 61726700 		.ascii	"arg\000"
 1514 0529 01       		.byte	0x1
 1515 052a 9B       		.byte	0x9b
 1516 052b 48020000 		.4byte	0x248
 1517 052f 17       		.uleb128 0x17
 1518 0530 747000   		.ascii	"tp\000"
 1519 0533 01       		.byte	0x1
 1520 0534 9D       		.byte	0x9d
 1521 0535 0C020000 		.4byte	0x20c
 1522 0539 00       		.byte	0
ARM GAS  /tmp/ccGYC9RU.s 			page 28


 1523 053a 18       		.uleb128 0x18
 1524 053b 3A030000 		.4byte	.LASF101
 1525 053f 02       		.byte	0x2
 1526 0540 56       		.byte	0x56
 1527 0541 0C020000 		.4byte	0x20c
 1528 0545 03       		.byte	0x3
 1529 0546 60050000 		.4byte	0x560
 1530 054a 15       		.uleb128 0x15
 1531 054b 746C7000 		.ascii	"tlp\000"
 1532 054f 02       		.byte	0x2
 1533 0550 56       		.byte	0x56
 1534 0551 60050000 		.4byte	0x560
 1535 0555 17       		.uleb128 0x17
 1536 0556 747000   		.ascii	"tp\000"
 1537 0559 02       		.byte	0x2
 1538 055a 58       		.byte	0x58
 1539 055b 0C020000 		.4byte	0x20c
 1540 055f 00       		.byte	0
 1541 0560 09       		.uleb128 0x9
 1542 0561 04       		.byte	0x4
 1543 0562 32020000 		.4byte	0x232
 1544 0566 19       		.uleb128 0x19
 1545 0567 0C030000 		.4byte	.LASF102
 1546 056b 02       		.byte	0x2
 1547 056c 50       		.byte	0x50
 1548 056d 03       		.byte	0x3
 1549 056e 88050000 		.4byte	0x588
 1550 0572 15       		.uleb128 0x15
 1551 0573 747000   		.ascii	"tp\000"
 1552 0576 02       		.byte	0x2
 1553 0577 50       		.byte	0x50
 1554 0578 0C020000 		.4byte	0x20c
 1555 057c 15       		.uleb128 0x15
 1556 057d 746C7000 		.ascii	"tlp\000"
 1557 0581 02       		.byte	0x2
 1558 0582 50       		.byte	0x50
 1559 0583 60050000 		.4byte	0x560
 1560 0587 00       		.byte	0
 1561 0588 1A       		.uleb128 0x1a
 1562 0589 C3040000 		.4byte	0x4c3
 1563 058d 00000000 		.4byte	.LFB7
 1564 0591 4A000000 		.4byte	.LFE7-.LFB7
 1565 0595 01       		.uleb128 0x1
 1566 0596 9C       		.byte	0x9c
 1567 0597 AA050000 		.4byte	0x5aa
 1568 059b 1B       		.uleb128 0x1b
 1569 059c D3040000 		.4byte	0x4d3
 1570 05a0 01       		.uleb128 0x1
 1571 05a1 50       		.byte	0x50
 1572 05a2 1B       		.uleb128 0x1b
 1573 05a3 DD040000 		.4byte	0x4dd
 1574 05a7 01       		.uleb128 0x1
 1575 05a8 51       		.byte	0x51
 1576 05a9 00       		.byte	0
 1577 05aa 1A       		.uleb128 0x1a
 1578 05ab E9040000 		.4byte	0x4e9
 1579 05af 00000000 		.4byte	.LFB8
ARM GAS  /tmp/ccGYC9RU.s 			page 29


 1580 05b3 72000000 		.4byte	.LFE8-.LFB8
 1581 05b7 01       		.uleb128 0x1
 1582 05b8 9C       		.byte	0x9c
 1583 05b9 0C060000 		.4byte	0x60c
 1584 05bd 1B       		.uleb128 0x1b
 1585 05be F9040000 		.4byte	0x4f9
 1586 05c2 01       		.uleb128 0x1
 1587 05c3 50       		.byte	0x50
 1588 05c4 1C       		.uleb128 0x1c
 1589 05c5 04050000 		.4byte	0x504
 1590 05c9 00000000 		.4byte	.LLST0
 1591 05cd 1B       		.uleb128 0x1b
 1592 05ce 0F050000 		.4byte	0x50f
 1593 05d2 01       		.uleb128 0x1
 1594 05d3 52       		.byte	0x52
 1595 05d4 1C       		.uleb128 0x1c
 1596 05d5 1A050000 		.4byte	0x51a
 1597 05d9 2E000000 		.4byte	.LLST1
 1598 05dd 1C       		.uleb128 0x1c
 1599 05de 24050000 		.4byte	0x524
 1600 05e2 5B000000 		.4byte	.LLST2
 1601 05e6 1D       		.uleb128 0x1d
 1602 05e7 2F050000 		.4byte	0x52f
 1603 05eb 01       		.uleb128 0x1
 1604 05ec 50       		.byte	0x50
 1605 05ed 1E       		.uleb128 0x1e
 1606 05ee C3040000 		.4byte	0x4c3
 1607 05f2 04000000 		.4byte	.LBB16
 1608 05f6 00000000 		.4byte	.Ldebug_ranges0+0
 1609 05fa 01       		.byte	0x1
 1610 05fb A5       		.byte	0xa5
 1611 05fc 1B       		.uleb128 0x1b
 1612 05fd DD040000 		.4byte	0x4dd
 1613 0601 01       		.uleb128 0x1
 1614 0602 52       		.byte	0x52
 1615 0603 1B       		.uleb128 0x1b
 1616 0604 D3040000 		.4byte	0x4d3
 1617 0608 01       		.uleb128 0x1
 1618 0609 50       		.byte	0x50
 1619 060a 00       		.byte	0
 1620 060b 00       		.byte	0
 1621 060c 1F       		.uleb128 0x1f
 1622 060d 8D020000 		.4byte	.LASF77
 1623 0611 01       		.byte	0x1
 1624 0612 B8       		.byte	0xb8
 1625 0613 0C020000 		.4byte	0x20c
 1626 0617 00000000 		.4byte	.LFB9
 1627 061b 88000000 		.4byte	.LFE9-.LFB9
 1628 061f 01       		.uleb128 0x1
 1629 0620 9C       		.byte	0x9c
 1630 0621 34070000 		.4byte	0x734
 1631 0625 20       		.uleb128 0x20
 1632 0626 77737000 		.ascii	"wsp\000"
 1633 062a 01       		.byte	0x1
 1634 062b B8       		.byte	0xb8
 1635 062c 48020000 		.4byte	0x248
 1636 0630 7B000000 		.4byte	.LLST3
ARM GAS  /tmp/ccGYC9RU.s 			page 30


 1637 0634 21       		.uleb128 0x21
 1638 0635 1D020000 		.4byte	.LASF76
 1639 0639 01       		.byte	0x1
 1640 063a B8       		.byte	0xb8
 1641 063b 2C000000 		.4byte	0x2c
 1642 063f 99000000 		.4byte	.LLST4
 1643 0643 21       		.uleb128 0x21
 1644 0644 22000000 		.4byte	.LASF73
 1645 0648 01       		.byte	0x1
 1646 0649 B9       		.byte	0xb9
 1647 064a B8000000 		.4byte	0xb8
 1648 064e C7000000 		.4byte	.LLST5
 1649 0652 20       		.uleb128 0x20
 1650 0653 706600   		.ascii	"pf\000"
 1651 0656 01       		.byte	0x1
 1652 0657 B9       		.byte	0xb9
 1653 0658 A3040000 		.4byte	0x4a3
 1654 065c E8000000 		.4byte	.LLST6
 1655 0660 22       		.uleb128 0x22
 1656 0661 61726700 		.ascii	"arg\000"
 1657 0665 01       		.byte	0x1
 1658 0666 B9       		.byte	0xb9
 1659 0667 48020000 		.4byte	0x248
 1660 066b 02       		.uleb128 0x2
 1661 066c 91       		.byte	0x91
 1662 066d 00       		.sleb128 0
 1663 066e 17       		.uleb128 0x17
 1664 066f 747000   		.ascii	"tp\000"
 1665 0672 01       		.byte	0x1
 1666 0673 BA       		.byte	0xba
 1667 0674 0C020000 		.4byte	0x20c
 1668 0678 23       		.uleb128 0x23
 1669 0679 08000000 		.4byte	.LBB24
 1670 067d 06000000 		.4byte	.LBE24-.LBB24
 1671 0681 93060000 		.4byte	0x693
 1672 0685 24       		.uleb128 0x24
 1673 0686 746D7000 		.ascii	"tmp\000"
 1674 068a 01       		.byte	0x1
 1675 068b C4       		.byte	0xc4
 1676 068c 77000000 		.4byte	0x77
 1677 0690 01       		.uleb128 0x1
 1678 0691 53       		.byte	0x53
 1679 0692 00       		.byte	0
 1680 0693 25       		.uleb128 0x25
 1681 0694 E9040000 		.4byte	0x4e9
 1682 0698 0E000000 		.4byte	.LBB25
 1683 069c 28000000 		.4byte	.Ldebug_ranges0+0x28
 1684 06a0 01       		.byte	0x1
 1685 06a1 C5       		.byte	0xc5
 1686 06a2 02070000 		.4byte	0x702
 1687 06a6 1B       		.uleb128 0x1b
 1688 06a7 24050000 		.4byte	0x524
 1689 06ab 02       		.uleb128 0x2
 1690 06ac 91       		.byte	0x91
 1691 06ad 00       		.sleb128 0
 1692 06ae 1C       		.uleb128 0x1c
 1693 06af 1A050000 		.4byte	0x51a
ARM GAS  /tmp/ccGYC9RU.s 			page 31


 1694 06b3 14010000 		.4byte	.LLST7
 1695 06b7 1C       		.uleb128 0x1c
 1696 06b8 0F050000 		.4byte	0x50f
 1697 06bc 35010000 		.4byte	.LLST8
 1698 06c0 1C       		.uleb128 0x1c
 1699 06c1 04050000 		.4byte	0x504
 1700 06c5 56010000 		.4byte	.LLST9
 1701 06c9 1C       		.uleb128 0x1c
 1702 06ca F9040000 		.4byte	0x4f9
 1703 06ce 84010000 		.4byte	.LLST10
 1704 06d2 26       		.uleb128 0x26
 1705 06d3 28000000 		.4byte	.Ldebug_ranges0+0x28
 1706 06d7 27       		.uleb128 0x27
 1707 06d8 2F050000 		.4byte	0x52f
 1708 06dc 84010000 		.4byte	.LLST10
 1709 06e0 1E       		.uleb128 0x1e
 1710 06e1 C3040000 		.4byte	0x4c3
 1711 06e5 0E000000 		.4byte	.LBB27
 1712 06e9 48000000 		.4byte	.Ldebug_ranges0+0x48
 1713 06ed 01       		.byte	0x1
 1714 06ee A5       		.byte	0xa5
 1715 06ef 1C       		.uleb128 0x1c
 1716 06f0 DD040000 		.4byte	0x4dd
 1717 06f4 A2010000 		.4byte	.LLST12
 1718 06f8 1B       		.uleb128 0x1b
 1719 06f9 D3040000 		.4byte	0x4d3
 1720 06fd 01       		.uleb128 0x1
 1721 06fe 54       		.byte	0x54
 1722 06ff 00       		.byte	0
 1723 0700 00       		.byte	0
 1724 0701 00       		.byte	0
 1725 0702 23       		.uleb128 0x23
 1726 0703 7C000000 		.4byte	.LBB43
 1727 0707 06000000 		.4byte	.LBE43-.LBB43
 1728 070b 1D070000 		.4byte	0x71d
 1729 070f 24       		.uleb128 0x24
 1730 0710 746D7000 		.ascii	"tmp\000"
 1731 0714 01       		.byte	0x1
 1732 0715 C6       		.byte	0xc6
 1733 0716 77000000 		.4byte	0x77
 1734 071a 01       		.uleb128 0x1
 1735 071b 53       		.byte	0x53
 1736 071c 00       		.byte	0
 1737 071d 28       		.uleb128 0x28
 1738 071e 7C000000 		.4byte	.LVL16
 1739 0722 460B0000 		.4byte	0xb46
 1740 0726 29       		.uleb128 0x29
 1741 0727 01       		.uleb128 0x1
 1742 0728 51       		.byte	0x51
 1743 0729 02       		.uleb128 0x2
 1744 072a 75       		.byte	0x75
 1745 072b 00       		.sleb128 0
 1746 072c 29       		.uleb128 0x29
 1747 072d 01       		.uleb128 0x1
 1748 072e 50       		.byte	0x50
 1749 072f 02       		.uleb128 0x2
 1750 0730 74       		.byte	0x74
ARM GAS  /tmp/ccGYC9RU.s 			page 32


 1751 0731 00       		.sleb128 0
 1752 0732 00       		.byte	0
 1753 0733 00       		.byte	0
 1754 0734 1F       		.uleb128 0x1f
 1755 0735 D7010000 		.4byte	.LASF78
 1756 0739 01       		.byte	0x1
 1757 073a D6       		.byte	0xd6
 1758 073b B8000000 		.4byte	0xb8
 1759 073f 00000000 		.4byte	.LFB10
 1760 0743 30000000 		.4byte	.LFE10-.LFB10
 1761 0747 01       		.uleb128 0x1
 1762 0748 9C       		.byte	0x9c
 1763 0749 A9070000 		.4byte	0x7a9
 1764 074d 21       		.uleb128 0x21
 1765 074e 48020000 		.4byte	.LASF79
 1766 0752 01       		.byte	0x1
 1767 0753 D6       		.byte	0xd6
 1768 0754 B8000000 		.4byte	0xb8
 1769 0758 C3010000 		.4byte	.LLST13
 1770 075c 2A       		.uleb128 0x2a
 1771 075d 85020000 		.4byte	.LASF80
 1772 0761 01       		.byte	0x1
 1773 0762 D7       		.byte	0xd7
 1774 0763 B8000000 		.4byte	0xb8
 1775 0767 01       		.uleb128 0x1
 1776 0768 54       		.byte	0x54
 1777 0769 23       		.uleb128 0x23
 1778 076a 02000000 		.4byte	.LBB44
 1779 076e 06000000 		.4byte	.LBE44-.LBB44
 1780 0772 84070000 		.4byte	0x784
 1781 0776 24       		.uleb128 0x24
 1782 0777 746D7000 		.ascii	"tmp\000"
 1783 077b 01       		.byte	0x1
 1784 077c DB       		.byte	0xdb
 1785 077d 77000000 		.4byte	0x77
 1786 0781 01       		.uleb128 0x1
 1787 0782 53       		.byte	0x53
 1788 0783 00       		.byte	0
 1789 0784 23       		.uleb128 0x23
 1790 0785 26000000 		.4byte	.LBB45
 1791 0789 06000000 		.4byte	.LBE45-.LBB45
 1792 078d 9F070000 		.4byte	0x79f
 1793 0791 24       		.uleb128 0x24
 1794 0792 746D7000 		.ascii	"tmp\000"
 1795 0796 01       		.byte	0x1
 1796 0797 E6       		.byte	0xe6
 1797 0798 77000000 		.4byte	0x77
 1798 079c 01       		.uleb128 0x1
 1799 079d 53       		.byte	0x53
 1800 079e 00       		.byte	0
 1801 079f 2B       		.uleb128 0x2b
 1802 07a0 26000000 		.4byte	.LVL19
 1803 07a4 5C0B0000 		.4byte	0xb5c
 1804 07a8 00       		.byte	0
 1805 07a9 1F       		.uleb128 0x1f
 1806 07aa B8020000 		.4byte	.LASF81
 1807 07ae 01       		.byte	0x1
ARM GAS  /tmp/ccGYC9RU.s 			page 33


 1808 07af F7       		.byte	0xf7
 1809 07b0 0C020000 		.4byte	0x20c
 1810 07b4 00000000 		.4byte	.LFB11
 1811 07b8 1A000000 		.4byte	.LFE11-.LFB11
 1812 07bc 01       		.uleb128 0x1
 1813 07bd 9C       		.byte	0x9c
 1814 07be 18080000 		.4byte	0x818
 1815 07c2 20       		.uleb128 0x20
 1816 07c3 747000   		.ascii	"tp\000"
 1817 07c6 01       		.byte	0x1
 1818 07c7 F7       		.byte	0xf7
 1819 07c8 0C020000 		.4byte	0x20c
 1820 07cc E4010000 		.4byte	.LLST14
 1821 07d0 2C       		.uleb128 0x2c
 1822 07d1 80000000 		.4byte	.Ldebug_ranges0+0x80
 1823 07d5 E7070000 		.4byte	0x7e7
 1824 07d9 24       		.uleb128 0x24
 1825 07da 746D7000 		.ascii	"tmp\000"
 1826 07de 01       		.byte	0x1
 1827 07df F9       		.byte	0xf9
 1828 07e0 77000000 		.4byte	0x77
 1829 07e4 01       		.uleb128 0x1
 1830 07e5 53       		.byte	0x53
 1831 07e6 00       		.byte	0
 1832 07e7 23       		.uleb128 0x23
 1833 07e8 10000000 		.4byte	.LBB48
 1834 07ec 06000000 		.4byte	.LBE48-.LBB48
 1835 07f0 02080000 		.4byte	0x802
 1836 07f4 24       		.uleb128 0x24
 1837 07f5 746D7000 		.ascii	"tmp\000"
 1838 07f9 01       		.byte	0x1
 1839 07fa FE       		.byte	0xfe
 1840 07fb 77000000 		.4byte	0x77
 1841 07ff 01       		.uleb128 0x1
 1842 0800 53       		.byte	0x53
 1843 0801 00       		.byte	0
 1844 0802 28       		.uleb128 0x28
 1845 0803 10000000 		.4byte	.LVL21
 1846 0807 460B0000 		.4byte	0xb46
 1847 080b 29       		.uleb128 0x29
 1848 080c 01       		.uleb128 0x1
 1849 080d 51       		.byte	0x51
 1850 080e 01       		.uleb128 0x1
 1851 080f 30       		.byte	0x30
 1852 0810 29       		.uleb128 0x29
 1853 0811 01       		.uleb128 0x1
 1854 0812 50       		.byte	0x50
 1855 0813 02       		.uleb128 0x2
 1856 0814 74       		.byte	0x74
 1857 0815 00       		.sleb128 0
 1858 0816 00       		.byte	0
 1859 0817 00       		.byte	0
 1860 0818 2D       		.uleb128 0x2d
 1861 0819 58020000 		.4byte	.LASF82
 1862 081d 01       		.byte	0x1
 1863 081e 0E01     		.2byte	0x10e
 1864 0820 00000000 		.4byte	.LFB12
ARM GAS  /tmp/ccGYC9RU.s 			page 34


 1865 0824 16000000 		.4byte	.LFE12-.LFB12
 1866 0828 01       		.uleb128 0x1
 1867 0829 9C       		.byte	0x9c
 1868 082a 6C080000 		.4byte	0x86c
 1869 082e 2E       		.uleb128 0x2e
 1870 082f 747000   		.ascii	"tp\000"
 1871 0832 01       		.byte	0x1
 1872 0833 0E01     		.2byte	0x10e
 1873 0835 0C020000 		.4byte	0x20c
 1874 0839 01       		.uleb128 0x1
 1875 083a 50       		.byte	0x50
 1876 083b 23       		.uleb128 0x23
 1877 083c 00000000 		.4byte	.LBB49
 1878 0840 06000000 		.4byte	.LBE49-.LBB49
 1879 0844 57080000 		.4byte	0x857
 1880 0848 2F       		.uleb128 0x2f
 1881 0849 746D7000 		.ascii	"tmp\000"
 1882 084d 01       		.byte	0x1
 1883 084e 1001     		.2byte	0x110
 1884 0850 77000000 		.4byte	0x77
 1885 0854 01       		.uleb128 0x1
 1886 0855 53       		.byte	0x53
 1887 0856 00       		.byte	0
 1888 0857 26       		.uleb128 0x26
 1889 0858 98000000 		.4byte	.Ldebug_ranges0+0x98
 1890 085c 2F       		.uleb128 0x2f
 1891 085d 746D7000 		.ascii	"tmp\000"
 1892 0861 01       		.byte	0x1
 1893 0862 1201     		.2byte	0x112
 1894 0864 77000000 		.4byte	0x77
 1895 0868 01       		.uleb128 0x1
 1896 0869 53       		.byte	0x53
 1897 086a 00       		.byte	0
 1898 086b 00       		.byte	0
 1899 086c 2D       		.uleb128 0x2d
 1900 086d 64040000 		.4byte	.LASF83
 1901 0871 01       		.byte	0x1
 1902 0872 2101     		.2byte	0x121
 1903 0874 00000000 		.4byte	.LFB13
 1904 0878 18000000 		.4byte	.LFE13-.LFB13
 1905 087c 01       		.uleb128 0x1
 1906 087d 9C       		.byte	0x9c
 1907 087e E1080000 		.4byte	0x8e1
 1908 0882 30       		.uleb128 0x30
 1909 0883 07030000 		.4byte	.LASF84
 1910 0887 01       		.byte	0x1
 1911 0888 2101     		.2byte	0x121
 1912 088a D9000000 		.4byte	0xd9
 1913 088e 02020000 		.4byte	.LLST15
 1914 0892 23       		.uleb128 0x23
 1915 0893 04000000 		.4byte	.LBB52
 1916 0897 06000000 		.4byte	.LBE52-.LBB52
 1917 089b AE080000 		.4byte	0x8ae
 1918 089f 2F       		.uleb128 0x2f
 1919 08a0 746D7000 		.ascii	"tmp\000"
 1920 08a4 01       		.byte	0x1
 1921 08a5 2501     		.2byte	0x125
ARM GAS  /tmp/ccGYC9RU.s 			page 35


 1922 08a7 77000000 		.4byte	0x77
 1923 08ab 01       		.uleb128 0x1
 1924 08ac 53       		.byte	0x53
 1925 08ad 00       		.byte	0
 1926 08ae 23       		.uleb128 0x23
 1927 08af 10000000 		.4byte	.LBB53
 1928 08b3 08000000 		.4byte	.LBE53-.LBB53
 1929 08b7 CA080000 		.4byte	0x8ca
 1930 08bb 2F       		.uleb128 0x2f
 1931 08bc 746D7000 		.ascii	"tmp\000"
 1932 08c0 01       		.byte	0x1
 1933 08c1 2701     		.2byte	0x127
 1934 08c3 77000000 		.4byte	0x77
 1935 08c7 01       		.uleb128 0x1
 1936 08c8 53       		.byte	0x53
 1937 08c9 00       		.byte	0
 1938 08ca 28       		.uleb128 0x28
 1939 08cb 10000000 		.4byte	.LVL25
 1940 08cf 630B0000 		.4byte	0xb63
 1941 08d3 29       		.uleb128 0x29
 1942 08d4 01       		.uleb128 0x1
 1943 08d5 51       		.byte	0x51
 1944 08d6 03       		.uleb128 0x3
 1945 08d7 F3       		.byte	0xf3
 1946 08d8 01       		.uleb128 0x1
 1947 08d9 50       		.byte	0x50
 1948 08da 29       		.uleb128 0x29
 1949 08db 01       		.uleb128 0x1
 1950 08dc 50       		.byte	0x50
 1951 08dd 01       		.uleb128 0x1
 1952 08de 36       		.byte	0x36
 1953 08df 00       		.byte	0
 1954 08e0 00       		.byte	0
 1955 08e1 2D       		.uleb128 0x2d
 1956 08e2 2A030000 		.4byte	.LASF85
 1957 08e6 01       		.byte	0x1
 1958 08e7 3201     		.2byte	0x132
 1959 08e9 00000000 		.4byte	.LFB14
 1960 08ed 24000000 		.4byte	.LFE14-.LFB14
 1961 08f1 01       		.uleb128 0x1
 1962 08f2 9C       		.byte	0x9c
 1963 08f3 4F090000 		.4byte	0x94f
 1964 08f7 30       		.uleb128 0x30
 1965 08f8 07030000 		.4byte	.LASF84
 1966 08fc 01       		.byte	0x1
 1967 08fd 3201     		.2byte	0x132
 1968 08ff D9000000 		.4byte	0xd9
 1969 0903 2E020000 		.4byte	.LLST16
 1970 0907 23       		.uleb128 0x23
 1971 0908 02000000 		.4byte	.LBB54
 1972 090c 06000000 		.4byte	.LBE54-.LBB54
 1973 0910 23090000 		.4byte	0x923
 1974 0914 2F       		.uleb128 0x2f
 1975 0915 746D7000 		.ascii	"tmp\000"
 1976 0919 01       		.byte	0x1
 1977 091a 3401     		.2byte	0x134
 1978 091c 77000000 		.4byte	0x77
ARM GAS  /tmp/ccGYC9RU.s 			page 36


 1979 0920 01       		.uleb128 0x1
 1980 0921 53       		.byte	0x53
 1981 0922 00       		.byte	0
 1982 0923 23       		.uleb128 0x23
 1983 0924 1C000000 		.4byte	.LBB55
 1984 0928 08000000 		.4byte	.LBE55-.LBB55
 1985 092c 3F090000 		.4byte	0x93f
 1986 0930 2F       		.uleb128 0x2f
 1987 0931 746D7000 		.ascii	"tmp\000"
 1988 0935 01       		.byte	0x1
 1989 0936 3701     		.2byte	0x137
 1990 0938 77000000 		.4byte	0x77
 1991 093c 01       		.uleb128 0x1
 1992 093d 53       		.byte	0x53
 1993 093e 00       		.byte	0
 1994 093f 28       		.uleb128 0x28
 1995 0940 1C000000 		.4byte	.LVL29
 1996 0944 630B0000 		.4byte	0xb63
 1997 0948 29       		.uleb128 0x29
 1998 0949 01       		.uleb128 0x1
 1999 094a 50       		.byte	0x50
 2000 094b 01       		.uleb128 0x1
 2001 094c 36       		.byte	0x36
 2002 094d 00       		.byte	0
 2003 094e 00       		.byte	0
 2004 094f 2D       		.uleb128 0x2d
 2005 0950 8E040000 		.4byte	.LASF86
 2006 0954 01       		.byte	0x1
 2007 0955 4101     		.2byte	0x141
 2008 0957 00000000 		.4byte	.LFB15
 2009 095b 28000000 		.4byte	.LFE15-.LFB15
 2010 095f 01       		.uleb128 0x1
 2011 0960 9C       		.byte	0x9c
 2012 0961 A7090000 		.4byte	0x9a7
 2013 0965 23       		.uleb128 0x23
 2014 0966 02000000 		.4byte	.LBB56
 2015 096a 06000000 		.4byte	.LBE56-.LBB56
 2016 096e 81090000 		.4byte	0x981
 2017 0972 2F       		.uleb128 0x2f
 2018 0973 746D7000 		.ascii	"tmp\000"
 2019 0977 01       		.byte	0x1
 2020 0978 4301     		.2byte	0x143
 2021 097a 77000000 		.4byte	0x77
 2022 097e 01       		.uleb128 0x1
 2023 097f 53       		.byte	0x53
 2024 0980 00       		.byte	0
 2025 0981 23       		.uleb128 0x23
 2026 0982 20000000 		.4byte	.LBB57
 2027 0986 08000000 		.4byte	.LBE57-.LBB57
 2028 098a 9D090000 		.4byte	0x99d
 2029 098e 2F       		.uleb128 0x2f
 2030 098f 746D7000 		.ascii	"tmp\000"
 2031 0993 01       		.byte	0x1
 2032 0994 4501     		.2byte	0x145
 2033 0996 77000000 		.4byte	0x77
 2034 099a 01       		.uleb128 0x1
 2035 099b 53       		.byte	0x53
ARM GAS  /tmp/ccGYC9RU.s 			page 37


 2036 099c 00       		.byte	0
 2037 099d 2B       		.uleb128 0x2b
 2038 099e 20000000 		.4byte	.LVL30
 2039 09a2 7D0B0000 		.4byte	0xb7d
 2040 09a6 00       		.byte	0
 2041 09a7 2D       		.uleb128 0x2d
 2042 09a8 DD000000 		.4byte	.LASF87
 2043 09ac 01       		.byte	0x1
 2044 09ad 6B01     		.2byte	0x16b
 2045 09af 00000000 		.4byte	.LFB17
 2046 09b3 42000000 		.4byte	.LFE17-.LFB17
 2047 09b7 01       		.uleb128 0x1
 2048 09b8 9C       		.byte	0x9c
 2049 09b9 220A0000 		.4byte	0xa22
 2050 09bd 31       		.uleb128 0x31
 2051 09be 6D736700 		.ascii	"msg\000"
 2052 09c2 01       		.byte	0x1
 2053 09c3 6B01     		.2byte	0x16b
 2054 09c5 C3000000 		.4byte	0xc3
 2055 09c9 5C020000 		.4byte	.LLST17
 2056 09cd 32       		.uleb128 0x32
 2057 09ce 747000   		.ascii	"tp\000"
 2058 09d1 01       		.byte	0x1
 2059 09d2 6C01     		.2byte	0x16c
 2060 09d4 0C020000 		.4byte	0x20c
 2061 09d8 7D020000 		.4byte	.LLST18
 2062 09dc 33       		.uleb128 0x33
 2063 09dd 3A050000 		.4byte	0x53a
 2064 09e1 18000000 		.4byte	.LBB58
 2065 09e5 B0000000 		.4byte	.Ldebug_ranges0+0xb0
 2066 09e9 01       		.byte	0x1
 2067 09ea 7401     		.2byte	0x174
 2068 09ec 090A0000 		.4byte	0xa09
 2069 09f0 1C       		.uleb128 0x1c
 2070 09f1 4A050000 		.4byte	0x54a
 2071 09f5 90020000 		.4byte	.LLST19
 2072 09f9 26       		.uleb128 0x26
 2073 09fa B0000000 		.4byte	.Ldebug_ranges0+0xb0
 2074 09fe 27       		.uleb128 0x27
 2075 09ff 55050000 		.4byte	0x555
 2076 0a03 A5020000 		.4byte	.LLST20
 2077 0a07 00       		.byte	0
 2078 0a08 00       		.byte	0
 2079 0a09 2B       		.uleb128 0x2b
 2080 0a0a 22000000 		.4byte	.LVL34
 2081 0a0e 840B0000 		.4byte	0xb84
 2082 0a12 34       		.uleb128 0x34
 2083 0a13 42000000 		.4byte	.LVL37
 2084 0a17 990B0000 		.4byte	0xb99
 2085 0a1b 29       		.uleb128 0x29
 2086 0a1c 01       		.uleb128 0x1
 2087 0a1d 50       		.byte	0x50
 2088 0a1e 01       		.uleb128 0x1
 2089 0a1f 3E       		.byte	0x3e
 2090 0a20 00       		.byte	0
 2091 0a21 00       		.byte	0
 2092 0a22 2D       		.uleb128 0x2d
ARM GAS  /tmp/ccGYC9RU.s 			page 38


 2093 0a23 29010000 		.4byte	.LASF88
 2094 0a27 01       		.byte	0x1
 2095 0a28 5601     		.2byte	0x156
 2096 0a2a 00000000 		.4byte	.LFB16
 2097 0a2e 0A000000 		.4byte	.LFE16-.LFB16
 2098 0a32 01       		.uleb128 0x1
 2099 0a33 9C       		.byte	0x9c
 2100 0a34 760A0000 		.4byte	0xa76
 2101 0a38 31       		.uleb128 0x31
 2102 0a39 6D736700 		.ascii	"msg\000"
 2103 0a3d 01       		.byte	0x1
 2104 0a3e 5601     		.2byte	0x156
 2105 0a40 C3000000 		.4byte	0xc3
 2106 0a44 B8020000 		.4byte	.LLST21
 2107 0a48 23       		.uleb128 0x23
 2108 0a49 00000000 		.4byte	.LBB62
 2109 0a4d 06000000 		.4byte	.LBE62-.LBB62
 2110 0a51 640A0000 		.4byte	0xa64
 2111 0a55 2F       		.uleb128 0x2f
 2112 0a56 746D7000 		.ascii	"tmp\000"
 2113 0a5a 01       		.byte	0x1
 2114 0a5b 5801     		.2byte	0x158
 2115 0a5d 77000000 		.4byte	0x77
 2116 0a61 01       		.uleb128 0x1
 2117 0a62 53       		.byte	0x53
 2118 0a63 00       		.byte	0
 2119 0a64 34       		.uleb128 0x34
 2120 0a65 0A000000 		.4byte	.LVL39
 2121 0a69 A7090000 		.4byte	0x9a7
 2122 0a6d 29       		.uleb128 0x29
 2123 0a6e 01       		.uleb128 0x1
 2124 0a6f 50       		.byte	0x50
 2125 0a70 03       		.uleb128 0x3
 2126 0a71 F3       		.byte	0xf3
 2127 0a72 01       		.uleb128 0x1
 2128 0a73 50       		.byte	0x50
 2129 0a74 00       		.byte	0
 2130 0a75 00       		.byte	0
 2131 0a76 35       		.uleb128 0x35
 2132 0a77 53040000 		.4byte	.LASF89
 2133 0a7b 01       		.byte	0x1
 2134 0a7c A101     		.2byte	0x1a1
 2135 0a7e C3000000 		.4byte	0xc3
 2136 0a82 00000000 		.4byte	.LFB18
 2137 0a86 38000000 		.4byte	.LFE18-.LFB18
 2138 0a8a 01       		.uleb128 0x1
 2139 0a8b 9C       		.byte	0x9c
 2140 0a8c 300B0000 		.4byte	0xb30
 2141 0a90 31       		.uleb128 0x31
 2142 0a91 747000   		.ascii	"tp\000"
 2143 0a94 01       		.byte	0x1
 2144 0a95 A101     		.2byte	0x1a1
 2145 0a97 0C020000 		.4byte	0x20c
 2146 0a9b D9020000 		.4byte	.LLST22
 2147 0a9f 2F       		.uleb128 0x2f
 2148 0aa0 6D736700 		.ascii	"msg\000"
 2149 0aa4 01       		.byte	0x1
ARM GAS  /tmp/ccGYC9RU.s 			page 39


 2150 0aa5 A201     		.2byte	0x1a2
 2151 0aa7 C3000000 		.4byte	0xc3
 2152 0aab 01       		.uleb128 0x1
 2153 0aac 55       		.byte	0x55
 2154 0aad 23       		.uleb128 0x23
 2155 0aae 04000000 		.4byte	.LBB63
 2156 0ab2 06000000 		.4byte	.LBE63-.LBB63
 2157 0ab6 C90A0000 		.4byte	0xac9
 2158 0aba 2F       		.uleb128 0x2f
 2159 0abb 746D7000 		.ascii	"tmp\000"
 2160 0abf 01       		.byte	0x1
 2161 0ac0 A601     		.2byte	0x1a6
 2162 0ac2 77000000 		.4byte	0x77
 2163 0ac6 01       		.uleb128 0x1
 2164 0ac7 53       		.byte	0x53
 2165 0ac8 00       		.byte	0
 2166 0ac9 33       		.uleb128 0x33
 2167 0aca 66050000 		.4byte	0x566
 2168 0ace 18000000 		.4byte	.LBB64
 2169 0ad2 C8000000 		.4byte	.Ldebug_ranges0+0xc8
 2170 0ad6 01       		.byte	0x1
 2171 0ad7 AC01     		.2byte	0x1ac
 2172 0ad9 F00A0000 		.4byte	0xaf0
 2173 0add 1C       		.uleb128 0x1c
 2174 0ade 7C050000 		.4byte	0x57c
 2175 0ae2 F7020000 		.4byte	.LLST23
 2176 0ae6 1C       		.uleb128 0x1c
 2177 0ae7 72050000 		.4byte	0x572
 2178 0aeb 19030000 		.4byte	.LLST24
 2179 0aef 00       		.byte	0
 2180 0af0 23       		.uleb128 0x23
 2181 0af1 28000000 		.4byte	.LBB68
 2182 0af5 06000000 		.4byte	.LBE68-.LBB68
 2183 0af9 0C0B0000 		.4byte	0xb0c
 2184 0afd 2F       		.uleb128 0x2f
 2185 0afe 746D7000 		.ascii	"tmp\000"
 2186 0b02 01       		.byte	0x1
 2187 0b03 B001     		.2byte	0x1b0
 2188 0b05 77000000 		.4byte	0x77
 2189 0b09 01       		.uleb128 0x1
 2190 0b0a 53       		.byte	0x53
 2191 0b0b 00       		.byte	0
 2192 0b0c 36       		.uleb128 0x36
 2193 0b0d 26000000 		.4byte	.LVL43
 2194 0b11 990B0000 		.4byte	0xb99
 2195 0b15 1F0B0000 		.4byte	0xb1f
 2196 0b19 29       		.uleb128 0x29
 2197 0b1a 01       		.uleb128 0x1
 2198 0b1b 50       		.byte	0x50
 2199 0b1c 01       		.uleb128 0x1
 2200 0b1d 37       		.byte	0x37
 2201 0b1e 00       		.byte	0
 2202 0b1f 28       		.uleb128 0x28
 2203 0b20 34000000 		.4byte	.LVL45
 2204 0b24 AA0B0000 		.4byte	0xbaa
 2205 0b28 29       		.uleb128 0x29
 2206 0b29 01       		.uleb128 0x1
ARM GAS  /tmp/ccGYC9RU.s 			page 40


 2207 0b2a 50       		.byte	0x50
 2208 0b2b 02       		.uleb128 0x2
 2209 0b2c 74       		.byte	0x74
 2210 0b2d 00       		.sleb128 0
 2211 0b2e 00       		.byte	0
 2212 0b2f 00       		.byte	0
 2213 0b30 37       		.uleb128 0x37
 2214 0b31 2E000000 		.4byte	.LASF90
 2215 0b35 09       		.byte	0x9
 2216 0b36 7A       		.byte	0x7a
 2217 0b37 A1030000 		.4byte	0x3a1
 2218 0b3b 37       		.uleb128 0x37
 2219 0b3c 80040000 		.4byte	.LASF91
 2220 0b40 0A       		.byte	0xa
 2221 0b41 72       		.byte	0x72
 2222 0b42 09040000 		.4byte	0x409
 2223 0b46 38       		.uleb128 0x38
 2224 0b47 35020000 		.4byte	.LASF96
 2225 0b4b 0A       		.byte	0xa
 2226 0b4c 9C       		.byte	0x9c
 2227 0b4d 5C0B0000 		.4byte	0xb5c
 2228 0b51 0E       		.uleb128 0xe
 2229 0b52 0C020000 		.4byte	0x20c
 2230 0b56 0E       		.uleb128 0xe
 2231 0b57 C3000000 		.4byte	0xc3
 2232 0b5b 00       		.byte	0
 2233 0b5c 39       		.uleb128 0x39
 2234 0b5d 9B010000 		.4byte	.LASF93
 2235 0b61 0A       		.byte	0xa
 2236 0b62 9F       		.byte	0x9f
 2237 0b63 3A       		.uleb128 0x3a
 2238 0b64 B2040000 		.4byte	.LASF92
 2239 0b68 0A       		.byte	0xa
 2240 0b69 99       		.byte	0x99
 2241 0b6a C3000000 		.4byte	0xc3
 2242 0b6e 7D0B0000 		.4byte	0xb7d
 2243 0b72 0E       		.uleb128 0xe
 2244 0b73 A2000000 		.4byte	0xa2
 2245 0b77 0E       		.uleb128 0xe
 2246 0b78 D9000000 		.4byte	0xd9
 2247 0b7c 00       		.byte	0
 2248 0b7d 39       		.uleb128 0x39
 2249 0b7e C5010000 		.4byte	.LASF94
 2250 0b82 0A       		.byte	0xa
 2251 0b83 A5       		.byte	0xa5
 2252 0b84 3A       		.uleb128 0x3a
 2253 0b85 09040000 		.4byte	.LASF95
 2254 0b89 0A       		.byte	0xa
 2255 0b8a 93       		.byte	0x93
 2256 0b8b 0C020000 		.4byte	0x20c
 2257 0b8f 990B0000 		.4byte	0xb99
 2258 0b93 0E       		.uleb128 0xe
 2259 0b94 0C020000 		.4byte	0x20c
 2260 0b98 00       		.byte	0
 2261 0b99 38       		.uleb128 0x38
 2262 0b9a C0030000 		.4byte	.LASF97
 2263 0b9e 0A       		.byte	0xa
ARM GAS  /tmp/ccGYC9RU.s 			page 41


 2264 0b9f 96       		.byte	0x96
 2265 0ba0 AA0B0000 		.4byte	0xbaa
 2266 0ba4 0E       		.uleb128 0xe
 2267 0ba5 A2000000 		.4byte	0xa2
 2268 0ba9 00       		.byte	0
 2269 0baa 3B       		.uleb128 0x3b
 2270 0bab AC030000 		.4byte	.LASF103
 2271 0baf 0C       		.byte	0xc
 2272 0bb0 3A       		.byte	0x3a
 2273 0bb1 0E       		.uleb128 0xe
 2274 0bb2 0C020000 		.4byte	0x20c
 2275 0bb6 00       		.byte	0
 2276 0bb7 00       		.byte	0
 2277              		.section	.debug_abbrev,"",%progbits
 2278              	.Ldebug_abbrev0:
 2279 0000 01       		.uleb128 0x1
 2280 0001 11       		.uleb128 0x11
 2281 0002 01       		.byte	0x1
 2282 0003 25       		.uleb128 0x25
 2283 0004 0E       		.uleb128 0xe
 2284 0005 13       		.uleb128 0x13
 2285 0006 0B       		.uleb128 0xb
 2286 0007 03       		.uleb128 0x3
 2287 0008 0E       		.uleb128 0xe
 2288 0009 1B       		.uleb128 0x1b
 2289 000a 0E       		.uleb128 0xe
 2290 000b 55       		.uleb128 0x55
 2291 000c 17       		.uleb128 0x17
 2292 000d 11       		.uleb128 0x11
 2293 000e 01       		.uleb128 0x1
 2294 000f 10       		.uleb128 0x10
 2295 0010 17       		.uleb128 0x17
 2296 0011 00       		.byte	0
 2297 0012 00       		.byte	0
 2298 0013 02       		.uleb128 0x2
 2299 0014 24       		.uleb128 0x24
 2300 0015 00       		.byte	0
 2301 0016 0B       		.uleb128 0xb
 2302 0017 0B       		.uleb128 0xb
 2303 0018 3E       		.uleb128 0x3e
 2304 0019 0B       		.uleb128 0xb
 2305 001a 03       		.uleb128 0x3
 2306 001b 08       		.uleb128 0x8
 2307 001c 00       		.byte	0
 2308 001d 00       		.byte	0
 2309 001e 03       		.uleb128 0x3
 2310 001f 16       		.uleb128 0x16
 2311 0020 00       		.byte	0
 2312 0021 03       		.uleb128 0x3
 2313 0022 0E       		.uleb128 0xe
 2314 0023 3A       		.uleb128 0x3a
 2315 0024 0B       		.uleb128 0xb
 2316 0025 3B       		.uleb128 0x3b
 2317 0026 0B       		.uleb128 0xb
 2318 0027 49       		.uleb128 0x49
 2319 0028 13       		.uleb128 0x13
 2320 0029 00       		.byte	0
ARM GAS  /tmp/ccGYC9RU.s 			page 42


 2321 002a 00       		.byte	0
 2322 002b 04       		.uleb128 0x4
 2323 002c 24       		.uleb128 0x24
 2324 002d 00       		.byte	0
 2325 002e 0B       		.uleb128 0xb
 2326 002f 0B       		.uleb128 0xb
 2327 0030 3E       		.uleb128 0x3e
 2328 0031 0B       		.uleb128 0xb
 2329 0032 03       		.uleb128 0x3
 2330 0033 0E       		.uleb128 0xe
 2331 0034 00       		.byte	0
 2332 0035 00       		.byte	0
 2333 0036 05       		.uleb128 0x5
 2334 0037 13       		.uleb128 0x13
 2335 0038 01       		.byte	0x1
 2336 0039 03       		.uleb128 0x3
 2337 003a 0E       		.uleb128 0xe
 2338 003b 0B       		.uleb128 0xb
 2339 003c 0B       		.uleb128 0xb
 2340 003d 3A       		.uleb128 0x3a
 2341 003e 0B       		.uleb128 0xb
 2342 003f 3B       		.uleb128 0x3b
 2343 0040 0B       		.uleb128 0xb
 2344 0041 01       		.uleb128 0x1
 2345 0042 13       		.uleb128 0x13
 2346 0043 00       		.byte	0
 2347 0044 00       		.byte	0
 2348 0045 06       		.uleb128 0x6
 2349 0046 0D       		.uleb128 0xd
 2350 0047 00       		.byte	0
 2351 0048 03       		.uleb128 0x3
 2352 0049 0E       		.uleb128 0xe
 2353 004a 3A       		.uleb128 0x3a
 2354 004b 0B       		.uleb128 0xb
 2355 004c 3B       		.uleb128 0x3b
 2356 004d 0B       		.uleb128 0xb
 2357 004e 49       		.uleb128 0x49
 2358 004f 13       		.uleb128 0x13
 2359 0050 38       		.uleb128 0x38
 2360 0051 0B       		.uleb128 0xb
 2361 0052 00       		.byte	0
 2362 0053 00       		.byte	0
 2363 0054 07       		.uleb128 0x7
 2364 0055 0D       		.uleb128 0xd
 2365 0056 00       		.byte	0
 2366 0057 03       		.uleb128 0x3
 2367 0058 08       		.uleb128 0x8
 2368 0059 3A       		.uleb128 0x3a
 2369 005a 0B       		.uleb128 0xb
 2370 005b 3B       		.uleb128 0x3b
 2371 005c 0B       		.uleb128 0xb
 2372 005d 49       		.uleb128 0x49
 2373 005e 13       		.uleb128 0x13
 2374 005f 38       		.uleb128 0x38
 2375 0060 0B       		.uleb128 0xb
 2376 0061 00       		.byte	0
 2377 0062 00       		.byte	0
ARM GAS  /tmp/ccGYC9RU.s 			page 43


 2378 0063 08       		.uleb128 0x8
 2379 0064 13       		.uleb128 0x13
 2380 0065 01       		.byte	0x1
 2381 0066 0B       		.uleb128 0xb
 2382 0067 0B       		.uleb128 0xb
 2383 0068 3A       		.uleb128 0x3a
 2384 0069 0B       		.uleb128 0xb
 2385 006a 3B       		.uleb128 0x3b
 2386 006b 0B       		.uleb128 0xb
 2387 006c 01       		.uleb128 0x1
 2388 006d 13       		.uleb128 0x13
 2389 006e 00       		.byte	0
 2390 006f 00       		.byte	0
 2391 0070 09       		.uleb128 0x9
 2392 0071 0F       		.uleb128 0xf
 2393 0072 00       		.byte	0
 2394 0073 0B       		.uleb128 0xb
 2395 0074 0B       		.uleb128 0xb
 2396 0075 49       		.uleb128 0x49
 2397 0076 13       		.uleb128 0x13
 2398 0077 00       		.byte	0
 2399 0078 00       		.byte	0
 2400 0079 0A       		.uleb128 0xa
 2401 007a 0F       		.uleb128 0xf
 2402 007b 00       		.byte	0
 2403 007c 0B       		.uleb128 0xb
 2404 007d 0B       		.uleb128 0xb
 2405 007e 00       		.byte	0
 2406 007f 00       		.byte	0
 2407 0080 0B       		.uleb128 0xb
 2408 0081 0D       		.uleb128 0xd
 2409 0082 00       		.byte	0
 2410 0083 03       		.uleb128 0x3
 2411 0084 08       		.uleb128 0x8
 2412 0085 3A       		.uleb128 0x3a
 2413 0086 0B       		.uleb128 0xb
 2414 0087 3B       		.uleb128 0x3b
 2415 0088 05       		.uleb128 0x5
 2416 0089 49       		.uleb128 0x49
 2417 008a 13       		.uleb128 0x13
 2418 008b 38       		.uleb128 0x38
 2419 008c 0B       		.uleb128 0xb
 2420 008d 00       		.byte	0
 2421 008e 00       		.byte	0
 2422 008f 0C       		.uleb128 0xc
 2423 0090 13       		.uleb128 0x13
 2424 0091 01       		.byte	0x1
 2425 0092 03       		.uleb128 0x3
 2426 0093 0E       		.uleb128 0xe
 2427 0094 0B       		.uleb128 0xb
 2428 0095 0B       		.uleb128 0xb
 2429 0096 3A       		.uleb128 0x3a
 2430 0097 0B       		.uleb128 0xb
 2431 0098 3B       		.uleb128 0x3b
 2432 0099 05       		.uleb128 0x5
 2433 009a 01       		.uleb128 0x1
 2434 009b 13       		.uleb128 0x13
ARM GAS  /tmp/ccGYC9RU.s 			page 44


 2435 009c 00       		.byte	0
 2436 009d 00       		.byte	0
 2437 009e 0D       		.uleb128 0xd
 2438 009f 15       		.uleb128 0x15
 2439 00a0 01       		.byte	0x1
 2440 00a1 27       		.uleb128 0x27
 2441 00a2 19       		.uleb128 0x19
 2442 00a3 01       		.uleb128 0x1
 2443 00a4 13       		.uleb128 0x13
 2444 00a5 00       		.byte	0
 2445 00a6 00       		.byte	0
 2446 00a7 0E       		.uleb128 0xe
 2447 00a8 05       		.uleb128 0x5
 2448 00a9 00       		.byte	0
 2449 00aa 49       		.uleb128 0x49
 2450 00ab 13       		.uleb128 0x13
 2451 00ac 00       		.byte	0
 2452 00ad 00       		.byte	0
 2453 00ae 0F       		.uleb128 0xf
 2454 00af 35       		.uleb128 0x35
 2455 00b0 00       		.byte	0
 2456 00b1 49       		.uleb128 0x49
 2457 00b2 13       		.uleb128 0x13
 2458 00b3 00       		.byte	0
 2459 00b4 00       		.byte	0
 2460 00b5 10       		.uleb128 0x10
 2461 00b6 17       		.uleb128 0x17
 2462 00b7 01       		.byte	0x1
 2463 00b8 0B       		.uleb128 0xb
 2464 00b9 0B       		.uleb128 0xb
 2465 00ba 3A       		.uleb128 0x3a
 2466 00bb 0B       		.uleb128 0xb
 2467 00bc 3B       		.uleb128 0x3b
 2468 00bd 0B       		.uleb128 0xb
 2469 00be 01       		.uleb128 0x1
 2470 00bf 13       		.uleb128 0x13
 2471 00c0 00       		.byte	0
 2472 00c1 00       		.byte	0
 2473 00c2 11       		.uleb128 0x11
 2474 00c3 0D       		.uleb128 0xd
 2475 00c4 00       		.byte	0
 2476 00c5 03       		.uleb128 0x3
 2477 00c6 0E       		.uleb128 0xe
 2478 00c7 3A       		.uleb128 0x3a
 2479 00c8 0B       		.uleb128 0xb
 2480 00c9 3B       		.uleb128 0x3b
 2481 00ca 0B       		.uleb128 0xb
 2482 00cb 49       		.uleb128 0x49
 2483 00cc 13       		.uleb128 0x13
 2484 00cd 00       		.byte	0
 2485 00ce 00       		.byte	0
 2486 00cf 12       		.uleb128 0x12
 2487 00d0 26       		.uleb128 0x26
 2488 00d1 00       		.byte	0
 2489 00d2 49       		.uleb128 0x49
 2490 00d3 13       		.uleb128 0x13
 2491 00d4 00       		.byte	0
ARM GAS  /tmp/ccGYC9RU.s 			page 45


 2492 00d5 00       		.byte	0
 2493 00d6 13       		.uleb128 0x13
 2494 00d7 15       		.uleb128 0x15
 2495 00d8 01       		.byte	0x1
 2496 00d9 27       		.uleb128 0x27
 2497 00da 19       		.uleb128 0x19
 2498 00db 49       		.uleb128 0x49
 2499 00dc 13       		.uleb128 0x13
 2500 00dd 01       		.uleb128 0x1
 2501 00de 13       		.uleb128 0x13
 2502 00df 00       		.byte	0
 2503 00e0 00       		.byte	0
 2504 00e1 14       		.uleb128 0x14
 2505 00e2 2E       		.uleb128 0x2e
 2506 00e3 01       		.byte	0x1
 2507 00e4 3F       		.uleb128 0x3f
 2508 00e5 19       		.uleb128 0x19
 2509 00e6 03       		.uleb128 0x3
 2510 00e7 0E       		.uleb128 0xe
 2511 00e8 3A       		.uleb128 0x3a
 2512 00e9 0B       		.uleb128 0xb
 2513 00ea 3B       		.uleb128 0x3b
 2514 00eb 0B       		.uleb128 0xb
 2515 00ec 27       		.uleb128 0x27
 2516 00ed 19       		.uleb128 0x19
 2517 00ee 49       		.uleb128 0x49
 2518 00ef 13       		.uleb128 0x13
 2519 00f0 20       		.uleb128 0x20
 2520 00f1 0B       		.uleb128 0xb
 2521 00f2 01       		.uleb128 0x1
 2522 00f3 13       		.uleb128 0x13
 2523 00f4 00       		.byte	0
 2524 00f5 00       		.byte	0
 2525 00f6 15       		.uleb128 0x15
 2526 00f7 05       		.uleb128 0x5
 2527 00f8 00       		.byte	0
 2528 00f9 03       		.uleb128 0x3
 2529 00fa 08       		.uleb128 0x8
 2530 00fb 3A       		.uleb128 0x3a
 2531 00fc 0B       		.uleb128 0xb
 2532 00fd 3B       		.uleb128 0x3b
 2533 00fe 0B       		.uleb128 0xb
 2534 00ff 49       		.uleb128 0x49
 2535 0100 13       		.uleb128 0x13
 2536 0101 00       		.byte	0
 2537 0102 00       		.byte	0
 2538 0103 16       		.uleb128 0x16
 2539 0104 05       		.uleb128 0x5
 2540 0105 00       		.byte	0
 2541 0106 03       		.uleb128 0x3
 2542 0107 0E       		.uleb128 0xe
 2543 0108 3A       		.uleb128 0x3a
 2544 0109 0B       		.uleb128 0xb
 2545 010a 3B       		.uleb128 0x3b
 2546 010b 0B       		.uleb128 0xb
 2547 010c 49       		.uleb128 0x49
 2548 010d 13       		.uleb128 0x13
ARM GAS  /tmp/ccGYC9RU.s 			page 46


 2549 010e 00       		.byte	0
 2550 010f 00       		.byte	0
 2551 0110 17       		.uleb128 0x17
 2552 0111 34       		.uleb128 0x34
 2553 0112 00       		.byte	0
 2554 0113 03       		.uleb128 0x3
 2555 0114 08       		.uleb128 0x8
 2556 0115 3A       		.uleb128 0x3a
 2557 0116 0B       		.uleb128 0xb
 2558 0117 3B       		.uleb128 0x3b
 2559 0118 0B       		.uleb128 0xb
 2560 0119 49       		.uleb128 0x49
 2561 011a 13       		.uleb128 0x13
 2562 011b 00       		.byte	0
 2563 011c 00       		.byte	0
 2564 011d 18       		.uleb128 0x18
 2565 011e 2E       		.uleb128 0x2e
 2566 011f 01       		.byte	0x1
 2567 0120 03       		.uleb128 0x3
 2568 0121 0E       		.uleb128 0xe
 2569 0122 3A       		.uleb128 0x3a
 2570 0123 0B       		.uleb128 0xb
 2571 0124 3B       		.uleb128 0x3b
 2572 0125 0B       		.uleb128 0xb
 2573 0126 27       		.uleb128 0x27
 2574 0127 19       		.uleb128 0x19
 2575 0128 49       		.uleb128 0x49
 2576 0129 13       		.uleb128 0x13
 2577 012a 20       		.uleb128 0x20
 2578 012b 0B       		.uleb128 0xb
 2579 012c 01       		.uleb128 0x1
 2580 012d 13       		.uleb128 0x13
 2581 012e 00       		.byte	0
 2582 012f 00       		.byte	0
 2583 0130 19       		.uleb128 0x19
 2584 0131 2E       		.uleb128 0x2e
 2585 0132 01       		.byte	0x1
 2586 0133 03       		.uleb128 0x3
 2587 0134 0E       		.uleb128 0xe
 2588 0135 3A       		.uleb128 0x3a
 2589 0136 0B       		.uleb128 0xb
 2590 0137 3B       		.uleb128 0x3b
 2591 0138 0B       		.uleb128 0xb
 2592 0139 27       		.uleb128 0x27
 2593 013a 19       		.uleb128 0x19
 2594 013b 20       		.uleb128 0x20
 2595 013c 0B       		.uleb128 0xb
 2596 013d 01       		.uleb128 0x1
 2597 013e 13       		.uleb128 0x13
 2598 013f 00       		.byte	0
 2599 0140 00       		.byte	0
 2600 0141 1A       		.uleb128 0x1a
 2601 0142 2E       		.uleb128 0x2e
 2602 0143 01       		.byte	0x1
 2603 0144 31       		.uleb128 0x31
 2604 0145 13       		.uleb128 0x13
 2605 0146 11       		.uleb128 0x11
ARM GAS  /tmp/ccGYC9RU.s 			page 47


 2606 0147 01       		.uleb128 0x1
 2607 0148 12       		.uleb128 0x12
 2608 0149 06       		.uleb128 0x6
 2609 014a 40       		.uleb128 0x40
 2610 014b 18       		.uleb128 0x18
 2611 014c 9742     		.uleb128 0x2117
 2612 014e 19       		.uleb128 0x19
 2613 014f 01       		.uleb128 0x1
 2614 0150 13       		.uleb128 0x13
 2615 0151 00       		.byte	0
 2616 0152 00       		.byte	0
 2617 0153 1B       		.uleb128 0x1b
 2618 0154 05       		.uleb128 0x5
 2619 0155 00       		.byte	0
 2620 0156 31       		.uleb128 0x31
 2621 0157 13       		.uleb128 0x13
 2622 0158 02       		.uleb128 0x2
 2623 0159 18       		.uleb128 0x18
 2624 015a 00       		.byte	0
 2625 015b 00       		.byte	0
 2626 015c 1C       		.uleb128 0x1c
 2627 015d 05       		.uleb128 0x5
 2628 015e 00       		.byte	0
 2629 015f 31       		.uleb128 0x31
 2630 0160 13       		.uleb128 0x13
 2631 0161 02       		.uleb128 0x2
 2632 0162 17       		.uleb128 0x17
 2633 0163 00       		.byte	0
 2634 0164 00       		.byte	0
 2635 0165 1D       		.uleb128 0x1d
 2636 0166 34       		.uleb128 0x34
 2637 0167 00       		.byte	0
 2638 0168 31       		.uleb128 0x31
 2639 0169 13       		.uleb128 0x13
 2640 016a 02       		.uleb128 0x2
 2641 016b 18       		.uleb128 0x18
 2642 016c 00       		.byte	0
 2643 016d 00       		.byte	0
 2644 016e 1E       		.uleb128 0x1e
 2645 016f 1D       		.uleb128 0x1d
 2646 0170 01       		.byte	0x1
 2647 0171 31       		.uleb128 0x31
 2648 0172 13       		.uleb128 0x13
 2649 0173 52       		.uleb128 0x52
 2650 0174 01       		.uleb128 0x1
 2651 0175 55       		.uleb128 0x55
 2652 0176 17       		.uleb128 0x17
 2653 0177 58       		.uleb128 0x58
 2654 0178 0B       		.uleb128 0xb
 2655 0179 59       		.uleb128 0x59
 2656 017a 0B       		.uleb128 0xb
 2657 017b 00       		.byte	0
 2658 017c 00       		.byte	0
 2659 017d 1F       		.uleb128 0x1f
 2660 017e 2E       		.uleb128 0x2e
 2661 017f 01       		.byte	0x1
 2662 0180 3F       		.uleb128 0x3f
ARM GAS  /tmp/ccGYC9RU.s 			page 48


 2663 0181 19       		.uleb128 0x19
 2664 0182 03       		.uleb128 0x3
 2665 0183 0E       		.uleb128 0xe
 2666 0184 3A       		.uleb128 0x3a
 2667 0185 0B       		.uleb128 0xb
 2668 0186 3B       		.uleb128 0x3b
 2669 0187 0B       		.uleb128 0xb
 2670 0188 27       		.uleb128 0x27
 2671 0189 19       		.uleb128 0x19
 2672 018a 49       		.uleb128 0x49
 2673 018b 13       		.uleb128 0x13
 2674 018c 11       		.uleb128 0x11
 2675 018d 01       		.uleb128 0x1
 2676 018e 12       		.uleb128 0x12
 2677 018f 06       		.uleb128 0x6
 2678 0190 40       		.uleb128 0x40
 2679 0191 18       		.uleb128 0x18
 2680 0192 9742     		.uleb128 0x2117
 2681 0194 19       		.uleb128 0x19
 2682 0195 01       		.uleb128 0x1
 2683 0196 13       		.uleb128 0x13
 2684 0197 00       		.byte	0
 2685 0198 00       		.byte	0
 2686 0199 20       		.uleb128 0x20
 2687 019a 05       		.uleb128 0x5
 2688 019b 00       		.byte	0
 2689 019c 03       		.uleb128 0x3
 2690 019d 08       		.uleb128 0x8
 2691 019e 3A       		.uleb128 0x3a
 2692 019f 0B       		.uleb128 0xb
 2693 01a0 3B       		.uleb128 0x3b
 2694 01a1 0B       		.uleb128 0xb
 2695 01a2 49       		.uleb128 0x49
 2696 01a3 13       		.uleb128 0x13
 2697 01a4 02       		.uleb128 0x2
 2698 01a5 17       		.uleb128 0x17
 2699 01a6 00       		.byte	0
 2700 01a7 00       		.byte	0
 2701 01a8 21       		.uleb128 0x21
 2702 01a9 05       		.uleb128 0x5
 2703 01aa 00       		.byte	0
 2704 01ab 03       		.uleb128 0x3
 2705 01ac 0E       		.uleb128 0xe
 2706 01ad 3A       		.uleb128 0x3a
 2707 01ae 0B       		.uleb128 0xb
 2708 01af 3B       		.uleb128 0x3b
 2709 01b0 0B       		.uleb128 0xb
 2710 01b1 49       		.uleb128 0x49
 2711 01b2 13       		.uleb128 0x13
 2712 01b3 02       		.uleb128 0x2
 2713 01b4 17       		.uleb128 0x17
 2714 01b5 00       		.byte	0
 2715 01b6 00       		.byte	0
 2716 01b7 22       		.uleb128 0x22
 2717 01b8 05       		.uleb128 0x5
 2718 01b9 00       		.byte	0
 2719 01ba 03       		.uleb128 0x3
ARM GAS  /tmp/ccGYC9RU.s 			page 49


 2720 01bb 08       		.uleb128 0x8
 2721 01bc 3A       		.uleb128 0x3a
 2722 01bd 0B       		.uleb128 0xb
 2723 01be 3B       		.uleb128 0x3b
 2724 01bf 0B       		.uleb128 0xb
 2725 01c0 49       		.uleb128 0x49
 2726 01c1 13       		.uleb128 0x13
 2727 01c2 02       		.uleb128 0x2
 2728 01c3 18       		.uleb128 0x18
 2729 01c4 00       		.byte	0
 2730 01c5 00       		.byte	0
 2731 01c6 23       		.uleb128 0x23
 2732 01c7 0B       		.uleb128 0xb
 2733 01c8 01       		.byte	0x1
 2734 01c9 11       		.uleb128 0x11
 2735 01ca 01       		.uleb128 0x1
 2736 01cb 12       		.uleb128 0x12
 2737 01cc 06       		.uleb128 0x6
 2738 01cd 01       		.uleb128 0x1
 2739 01ce 13       		.uleb128 0x13
 2740 01cf 00       		.byte	0
 2741 01d0 00       		.byte	0
 2742 01d1 24       		.uleb128 0x24
 2743 01d2 34       		.uleb128 0x34
 2744 01d3 00       		.byte	0
 2745 01d4 03       		.uleb128 0x3
 2746 01d5 08       		.uleb128 0x8
 2747 01d6 3A       		.uleb128 0x3a
 2748 01d7 0B       		.uleb128 0xb
 2749 01d8 3B       		.uleb128 0x3b
 2750 01d9 0B       		.uleb128 0xb
 2751 01da 49       		.uleb128 0x49
 2752 01db 13       		.uleb128 0x13
 2753 01dc 02       		.uleb128 0x2
 2754 01dd 18       		.uleb128 0x18
 2755 01de 00       		.byte	0
 2756 01df 00       		.byte	0
 2757 01e0 25       		.uleb128 0x25
 2758 01e1 1D       		.uleb128 0x1d
 2759 01e2 01       		.byte	0x1
 2760 01e3 31       		.uleb128 0x31
 2761 01e4 13       		.uleb128 0x13
 2762 01e5 52       		.uleb128 0x52
 2763 01e6 01       		.uleb128 0x1
 2764 01e7 55       		.uleb128 0x55
 2765 01e8 17       		.uleb128 0x17
 2766 01e9 58       		.uleb128 0x58
 2767 01ea 0B       		.uleb128 0xb
 2768 01eb 59       		.uleb128 0x59
 2769 01ec 0B       		.uleb128 0xb
 2770 01ed 01       		.uleb128 0x1
 2771 01ee 13       		.uleb128 0x13
 2772 01ef 00       		.byte	0
 2773 01f0 00       		.byte	0
 2774 01f1 26       		.uleb128 0x26
 2775 01f2 0B       		.uleb128 0xb
 2776 01f3 01       		.byte	0x1
ARM GAS  /tmp/ccGYC9RU.s 			page 50


 2777 01f4 55       		.uleb128 0x55
 2778 01f5 17       		.uleb128 0x17
 2779 01f6 00       		.byte	0
 2780 01f7 00       		.byte	0
 2781 01f8 27       		.uleb128 0x27
 2782 01f9 34       		.uleb128 0x34
 2783 01fa 00       		.byte	0
 2784 01fb 31       		.uleb128 0x31
 2785 01fc 13       		.uleb128 0x13
 2786 01fd 02       		.uleb128 0x2
 2787 01fe 17       		.uleb128 0x17
 2788 01ff 00       		.byte	0
 2789 0200 00       		.byte	0
 2790 0201 28       		.uleb128 0x28
 2791 0202 898201   		.uleb128 0x4109
 2792 0205 01       		.byte	0x1
 2793 0206 11       		.uleb128 0x11
 2794 0207 01       		.uleb128 0x1
 2795 0208 31       		.uleb128 0x31
 2796 0209 13       		.uleb128 0x13
 2797 020a 00       		.byte	0
 2798 020b 00       		.byte	0
 2799 020c 29       		.uleb128 0x29
 2800 020d 8A8201   		.uleb128 0x410a
 2801 0210 00       		.byte	0
 2802 0211 02       		.uleb128 0x2
 2803 0212 18       		.uleb128 0x18
 2804 0213 9142     		.uleb128 0x2111
 2805 0215 18       		.uleb128 0x18
 2806 0216 00       		.byte	0
 2807 0217 00       		.byte	0
 2808 0218 2A       		.uleb128 0x2a
 2809 0219 34       		.uleb128 0x34
 2810 021a 00       		.byte	0
 2811 021b 03       		.uleb128 0x3
 2812 021c 0E       		.uleb128 0xe
 2813 021d 3A       		.uleb128 0x3a
 2814 021e 0B       		.uleb128 0xb
 2815 021f 3B       		.uleb128 0x3b
 2816 0220 0B       		.uleb128 0xb
 2817 0221 49       		.uleb128 0x49
 2818 0222 13       		.uleb128 0x13
 2819 0223 02       		.uleb128 0x2
 2820 0224 18       		.uleb128 0x18
 2821 0225 00       		.byte	0
 2822 0226 00       		.byte	0
 2823 0227 2B       		.uleb128 0x2b
 2824 0228 898201   		.uleb128 0x4109
 2825 022b 00       		.byte	0
 2826 022c 11       		.uleb128 0x11
 2827 022d 01       		.uleb128 0x1
 2828 022e 31       		.uleb128 0x31
 2829 022f 13       		.uleb128 0x13
 2830 0230 00       		.byte	0
 2831 0231 00       		.byte	0
 2832 0232 2C       		.uleb128 0x2c
 2833 0233 0B       		.uleb128 0xb
ARM GAS  /tmp/ccGYC9RU.s 			page 51


 2834 0234 01       		.byte	0x1
 2835 0235 55       		.uleb128 0x55
 2836 0236 17       		.uleb128 0x17
 2837 0237 01       		.uleb128 0x1
 2838 0238 13       		.uleb128 0x13
 2839 0239 00       		.byte	0
 2840 023a 00       		.byte	0
 2841 023b 2D       		.uleb128 0x2d
 2842 023c 2E       		.uleb128 0x2e
 2843 023d 01       		.byte	0x1
 2844 023e 3F       		.uleb128 0x3f
 2845 023f 19       		.uleb128 0x19
 2846 0240 03       		.uleb128 0x3
 2847 0241 0E       		.uleb128 0xe
 2848 0242 3A       		.uleb128 0x3a
 2849 0243 0B       		.uleb128 0xb
 2850 0244 3B       		.uleb128 0x3b
 2851 0245 05       		.uleb128 0x5
 2852 0246 27       		.uleb128 0x27
 2853 0247 19       		.uleb128 0x19
 2854 0248 11       		.uleb128 0x11
 2855 0249 01       		.uleb128 0x1
 2856 024a 12       		.uleb128 0x12
 2857 024b 06       		.uleb128 0x6
 2858 024c 40       		.uleb128 0x40
 2859 024d 18       		.uleb128 0x18
 2860 024e 9742     		.uleb128 0x2117
 2861 0250 19       		.uleb128 0x19
 2862 0251 01       		.uleb128 0x1
 2863 0252 13       		.uleb128 0x13
 2864 0253 00       		.byte	0
 2865 0254 00       		.byte	0
 2866 0255 2E       		.uleb128 0x2e
 2867 0256 05       		.uleb128 0x5
 2868 0257 00       		.byte	0
 2869 0258 03       		.uleb128 0x3
 2870 0259 08       		.uleb128 0x8
 2871 025a 3A       		.uleb128 0x3a
 2872 025b 0B       		.uleb128 0xb
 2873 025c 3B       		.uleb128 0x3b
 2874 025d 05       		.uleb128 0x5
 2875 025e 49       		.uleb128 0x49
 2876 025f 13       		.uleb128 0x13
 2877 0260 02       		.uleb128 0x2
 2878 0261 18       		.uleb128 0x18
 2879 0262 00       		.byte	0
 2880 0263 00       		.byte	0
 2881 0264 2F       		.uleb128 0x2f
 2882 0265 34       		.uleb128 0x34
 2883 0266 00       		.byte	0
 2884 0267 03       		.uleb128 0x3
 2885 0268 08       		.uleb128 0x8
 2886 0269 3A       		.uleb128 0x3a
 2887 026a 0B       		.uleb128 0xb
 2888 026b 3B       		.uleb128 0x3b
 2889 026c 05       		.uleb128 0x5
 2890 026d 49       		.uleb128 0x49
ARM GAS  /tmp/ccGYC9RU.s 			page 52


 2891 026e 13       		.uleb128 0x13
 2892 026f 02       		.uleb128 0x2
 2893 0270 18       		.uleb128 0x18
 2894 0271 00       		.byte	0
 2895 0272 00       		.byte	0
 2896 0273 30       		.uleb128 0x30
 2897 0274 05       		.uleb128 0x5
 2898 0275 00       		.byte	0
 2899 0276 03       		.uleb128 0x3
 2900 0277 0E       		.uleb128 0xe
 2901 0278 3A       		.uleb128 0x3a
 2902 0279 0B       		.uleb128 0xb
 2903 027a 3B       		.uleb128 0x3b
 2904 027b 05       		.uleb128 0x5
 2905 027c 49       		.uleb128 0x49
 2906 027d 13       		.uleb128 0x13
 2907 027e 02       		.uleb128 0x2
 2908 027f 17       		.uleb128 0x17
 2909 0280 00       		.byte	0
 2910 0281 00       		.byte	0
 2911 0282 31       		.uleb128 0x31
 2912 0283 05       		.uleb128 0x5
 2913 0284 00       		.byte	0
 2914 0285 03       		.uleb128 0x3
 2915 0286 08       		.uleb128 0x8
 2916 0287 3A       		.uleb128 0x3a
 2917 0288 0B       		.uleb128 0xb
 2918 0289 3B       		.uleb128 0x3b
 2919 028a 05       		.uleb128 0x5
 2920 028b 49       		.uleb128 0x49
 2921 028c 13       		.uleb128 0x13
 2922 028d 02       		.uleb128 0x2
 2923 028e 17       		.uleb128 0x17
 2924 028f 00       		.byte	0
 2925 0290 00       		.byte	0
 2926 0291 32       		.uleb128 0x32
 2927 0292 34       		.uleb128 0x34
 2928 0293 00       		.byte	0
 2929 0294 03       		.uleb128 0x3
 2930 0295 08       		.uleb128 0x8
 2931 0296 3A       		.uleb128 0x3a
 2932 0297 0B       		.uleb128 0xb
 2933 0298 3B       		.uleb128 0x3b
 2934 0299 05       		.uleb128 0x5
 2935 029a 49       		.uleb128 0x49
 2936 029b 13       		.uleb128 0x13
 2937 029c 02       		.uleb128 0x2
 2938 029d 17       		.uleb128 0x17
 2939 029e 00       		.byte	0
 2940 029f 00       		.byte	0
 2941 02a0 33       		.uleb128 0x33
 2942 02a1 1D       		.uleb128 0x1d
 2943 02a2 01       		.byte	0x1
 2944 02a3 31       		.uleb128 0x31
 2945 02a4 13       		.uleb128 0x13
 2946 02a5 52       		.uleb128 0x52
 2947 02a6 01       		.uleb128 0x1
ARM GAS  /tmp/ccGYC9RU.s 			page 53


 2948 02a7 55       		.uleb128 0x55
 2949 02a8 17       		.uleb128 0x17
 2950 02a9 58       		.uleb128 0x58
 2951 02aa 0B       		.uleb128 0xb
 2952 02ab 59       		.uleb128 0x59
 2953 02ac 05       		.uleb128 0x5
 2954 02ad 01       		.uleb128 0x1
 2955 02ae 13       		.uleb128 0x13
 2956 02af 00       		.byte	0
 2957 02b0 00       		.byte	0
 2958 02b1 34       		.uleb128 0x34
 2959 02b2 898201   		.uleb128 0x4109
 2960 02b5 01       		.byte	0x1
 2961 02b6 11       		.uleb128 0x11
 2962 02b7 01       		.uleb128 0x1
 2963 02b8 9542     		.uleb128 0x2115
 2964 02ba 19       		.uleb128 0x19
 2965 02bb 31       		.uleb128 0x31
 2966 02bc 13       		.uleb128 0x13
 2967 02bd 00       		.byte	0
 2968 02be 00       		.byte	0
 2969 02bf 35       		.uleb128 0x35
 2970 02c0 2E       		.uleb128 0x2e
 2971 02c1 01       		.byte	0x1
 2972 02c2 3F       		.uleb128 0x3f
 2973 02c3 19       		.uleb128 0x19
 2974 02c4 03       		.uleb128 0x3
 2975 02c5 0E       		.uleb128 0xe
 2976 02c6 3A       		.uleb128 0x3a
 2977 02c7 0B       		.uleb128 0xb
 2978 02c8 3B       		.uleb128 0x3b
 2979 02c9 05       		.uleb128 0x5
 2980 02ca 27       		.uleb128 0x27
 2981 02cb 19       		.uleb128 0x19
 2982 02cc 49       		.uleb128 0x49
 2983 02cd 13       		.uleb128 0x13
 2984 02ce 11       		.uleb128 0x11
 2985 02cf 01       		.uleb128 0x1
 2986 02d0 12       		.uleb128 0x12
 2987 02d1 06       		.uleb128 0x6
 2988 02d2 40       		.uleb128 0x40
 2989 02d3 18       		.uleb128 0x18
 2990 02d4 9742     		.uleb128 0x2117
 2991 02d6 19       		.uleb128 0x19
 2992 02d7 01       		.uleb128 0x1
 2993 02d8 13       		.uleb128 0x13
 2994 02d9 00       		.byte	0
 2995 02da 00       		.byte	0
 2996 02db 36       		.uleb128 0x36
 2997 02dc 898201   		.uleb128 0x4109
 2998 02df 01       		.byte	0x1
 2999 02e0 11       		.uleb128 0x11
 3000 02e1 01       		.uleb128 0x1
 3001 02e2 31       		.uleb128 0x31
 3002 02e3 13       		.uleb128 0x13
 3003 02e4 01       		.uleb128 0x1
 3004 02e5 13       		.uleb128 0x13
ARM GAS  /tmp/ccGYC9RU.s 			page 54


 3005 02e6 00       		.byte	0
 3006 02e7 00       		.byte	0
 3007 02e8 37       		.uleb128 0x37
 3008 02e9 34       		.uleb128 0x34
 3009 02ea 00       		.byte	0
 3010 02eb 03       		.uleb128 0x3
 3011 02ec 0E       		.uleb128 0xe
 3012 02ed 3A       		.uleb128 0x3a
 3013 02ee 0B       		.uleb128 0xb
 3014 02ef 3B       		.uleb128 0x3b
 3015 02f0 0B       		.uleb128 0xb
 3016 02f1 49       		.uleb128 0x49
 3017 02f2 13       		.uleb128 0x13
 3018 02f3 3F       		.uleb128 0x3f
 3019 02f4 19       		.uleb128 0x19
 3020 02f5 3C       		.uleb128 0x3c
 3021 02f6 19       		.uleb128 0x19
 3022 02f7 00       		.byte	0
 3023 02f8 00       		.byte	0
 3024 02f9 38       		.uleb128 0x38
 3025 02fa 2E       		.uleb128 0x2e
 3026 02fb 01       		.byte	0x1
 3027 02fc 3F       		.uleb128 0x3f
 3028 02fd 19       		.uleb128 0x19
 3029 02fe 03       		.uleb128 0x3
 3030 02ff 0E       		.uleb128 0xe
 3031 0300 3A       		.uleb128 0x3a
 3032 0301 0B       		.uleb128 0xb
 3033 0302 3B       		.uleb128 0x3b
 3034 0303 0B       		.uleb128 0xb
 3035 0304 27       		.uleb128 0x27
 3036 0305 19       		.uleb128 0x19
 3037 0306 3C       		.uleb128 0x3c
 3038 0307 19       		.uleb128 0x19
 3039 0308 01       		.uleb128 0x1
 3040 0309 13       		.uleb128 0x13
 3041 030a 00       		.byte	0
 3042 030b 00       		.byte	0
 3043 030c 39       		.uleb128 0x39
 3044 030d 2E       		.uleb128 0x2e
 3045 030e 00       		.byte	0
 3046 030f 3F       		.uleb128 0x3f
 3047 0310 19       		.uleb128 0x19
 3048 0311 03       		.uleb128 0x3
 3049 0312 0E       		.uleb128 0xe
 3050 0313 3A       		.uleb128 0x3a
 3051 0314 0B       		.uleb128 0xb
 3052 0315 3B       		.uleb128 0x3b
 3053 0316 0B       		.uleb128 0xb
 3054 0317 27       		.uleb128 0x27
 3055 0318 19       		.uleb128 0x19
 3056 0319 3C       		.uleb128 0x3c
 3057 031a 19       		.uleb128 0x19
 3058 031b 00       		.byte	0
 3059 031c 00       		.byte	0
 3060 031d 3A       		.uleb128 0x3a
 3061 031e 2E       		.uleb128 0x2e
ARM GAS  /tmp/ccGYC9RU.s 			page 55


 3062 031f 01       		.byte	0x1
 3063 0320 3F       		.uleb128 0x3f
 3064 0321 19       		.uleb128 0x19
 3065 0322 03       		.uleb128 0x3
 3066 0323 0E       		.uleb128 0xe
 3067 0324 3A       		.uleb128 0x3a
 3068 0325 0B       		.uleb128 0xb
 3069 0326 3B       		.uleb128 0x3b
 3070 0327 0B       		.uleb128 0xb
 3071 0328 27       		.uleb128 0x27
 3072 0329 19       		.uleb128 0x19
 3073 032a 49       		.uleb128 0x49
 3074 032b 13       		.uleb128 0x13
 3075 032c 3C       		.uleb128 0x3c
 3076 032d 19       		.uleb128 0x19
 3077 032e 01       		.uleb128 0x1
 3078 032f 13       		.uleb128 0x13
 3079 0330 00       		.byte	0
 3080 0331 00       		.byte	0
 3081 0332 3B       		.uleb128 0x3b
 3082 0333 2E       		.uleb128 0x2e
 3083 0334 01       		.byte	0x1
 3084 0335 3F       		.uleb128 0x3f
 3085 0336 19       		.uleb128 0x19
 3086 0337 03       		.uleb128 0x3
 3087 0338 0E       		.uleb128 0xe
 3088 0339 3A       		.uleb128 0x3a
 3089 033a 0B       		.uleb128 0xb
 3090 033b 3B       		.uleb128 0x3b
 3091 033c 0B       		.uleb128 0xb
 3092 033d 27       		.uleb128 0x27
 3093 033e 19       		.uleb128 0x19
 3094 033f 3C       		.uleb128 0x3c
 3095 0340 19       		.uleb128 0x19
 3096 0341 00       		.byte	0
 3097 0342 00       		.byte	0
 3098 0343 00       		.byte	0
 3099              		.section	.debug_loc,"",%progbits
 3100              	.Ldebug_loc0:
 3101              	.LLST0:
 3102 0000 00000000 		.4byte	.LVL1
 3103 0004 1A000000 		.4byte	.LVL3
 3104 0008 0100     		.2byte	0x1
 3105 000a 51       		.byte	0x51
 3106 000b 1A000000 		.4byte	.LVL3
 3107 000f 3A000000 		.4byte	.LVL5
 3108 0013 0300     		.2byte	0x3
 3109 0015 7C       		.byte	0x7c
 3110 0016 24       		.sleb128 36
 3111 0017 9F       		.byte	0x9f
 3112 0018 3A000000 		.4byte	.LVL5
 3113 001c 72000000 		.4byte	.LFE8
 3114 0020 0400     		.2byte	0x4
 3115 0022 F3       		.byte	0xf3
 3116 0023 01       		.uleb128 0x1
 3117 0024 51       		.byte	0x51
 3118 0025 9F       		.byte	0x9f
ARM GAS  /tmp/ccGYC9RU.s 			page 56


 3119 0026 00000000 		.4byte	0
 3120 002a 00000000 		.4byte	0
 3121              	.LLST1:
 3122 002e 00000000 		.4byte	.LVL1
 3123 0032 2E000000 		.4byte	.LVL4
 3124 0036 0100     		.2byte	0x1
 3125 0038 53       		.byte	0x53
 3126 0039 2E000000 		.4byte	.LVL4
 3127 003d 4A000000 		.4byte	.LVL7
 3128 0041 0200     		.2byte	0x2
 3129 0043 77       		.byte	0x77
 3130 0044 00       		.sleb128 0
 3131 0045 4A000000 		.4byte	.LVL7
 3132 0049 72000000 		.4byte	.LFE8
 3133 004d 0400     		.2byte	0x4
 3134 004f F3       		.byte	0xf3
 3135 0050 01       		.uleb128 0x1
 3136 0051 53       		.byte	0x53
 3137 0052 9F       		.byte	0x9f
 3138 0053 00000000 		.4byte	0
 3139 0057 00000000 		.4byte	0
 3140              	.LLST2:
 3141 005b 00000000 		.4byte	.LVL1
 3142 005f 70000000 		.4byte	.LVL8
 3143 0063 0200     		.2byte	0x2
 3144 0065 91       		.byte	0x91
 3145 0066 00       		.sleb128 0
 3146 0067 70000000 		.4byte	.LVL8
 3147 006b 72000000 		.4byte	.LFE8
 3148 006f 0200     		.2byte	0x2
 3149 0071 7D       		.byte	0x7d
 3150 0072 00       		.sleb128 0
 3151 0073 00000000 		.4byte	0
 3152 0077 00000000 		.4byte	0
 3153              	.LLST3:
 3154 007b 00000000 		.4byte	.LVL9
 3155 007f 1E000000 		.4byte	.LVL12
 3156 0083 0100     		.2byte	0x1
 3157 0085 50       		.byte	0x50
 3158 0086 1E000000 		.4byte	.LVL12
 3159 008a 88000000 		.4byte	.LFE9
 3160 008e 0100     		.2byte	0x1
 3161 0090 54       		.byte	0x54
 3162 0091 00000000 		.4byte	0
 3163 0095 00000000 		.4byte	0
 3164              	.LLST4:
 3165 0099 00000000 		.4byte	.LVL9
 3166 009d 24000000 		.4byte	.LVL13
 3167 00a1 0100     		.2byte	0x1
 3168 00a3 51       		.byte	0x51
 3169 00a4 24000000 		.4byte	.LVL13
 3170 00a8 48000000 		.4byte	.LVL15
 3171 00ac 0300     		.2byte	0x3
 3172 00ae 70       		.byte	0x70
 3173 00af 24       		.sleb128 36
 3174 00b0 9F       		.byte	0x9f
 3175 00b1 48000000 		.4byte	.LVL15
ARM GAS  /tmp/ccGYC9RU.s 			page 57


 3176 00b5 88000000 		.4byte	.LFE9
 3177 00b9 0400     		.2byte	0x4
 3178 00bb F3       		.byte	0xf3
 3179 00bc 01       		.uleb128 0x1
 3180 00bd 51       		.byte	0x51
 3181 00be 9F       		.byte	0x9f
 3182 00bf 00000000 		.4byte	0
 3183 00c3 00000000 		.4byte	0
 3184              	.LLST5:
 3185 00c7 00000000 		.4byte	.LVL9
 3186 00cb 7B000000 		.4byte	.LVL16-1
 3187 00cf 0100     		.2byte	0x1
 3188 00d1 52       		.byte	0x52
 3189 00d2 7B000000 		.4byte	.LVL16-1
 3190 00d6 88000000 		.4byte	.LFE9
 3191 00da 0400     		.2byte	0x4
 3192 00dc F3       		.byte	0xf3
 3193 00dd 01       		.uleb128 0x1
 3194 00de 52       		.byte	0x52
 3195 00df 9F       		.byte	0x9f
 3196 00e0 00000000 		.4byte	0
 3197 00e4 00000000 		.4byte	0
 3198              	.LLST6:
 3199 00e8 00000000 		.4byte	.LVL9
 3200 00ec 0A000000 		.4byte	.LVL10
 3201 00f0 0100     		.2byte	0x1
 3202 00f2 53       		.byte	0x53
 3203 00f3 0A000000 		.4byte	.LVL10
 3204 00f7 7B000000 		.4byte	.LVL16-1
 3205 00fb 0100     		.2byte	0x1
 3206 00fd 5C       		.byte	0x5c
 3207 00fe 7B000000 		.4byte	.LVL16-1
 3208 0102 88000000 		.4byte	.LFE9
 3209 0106 0400     		.2byte	0x4
 3210 0108 F3       		.byte	0xf3
 3211 0109 01       		.uleb128 0x1
 3212 010a 53       		.byte	0x53
 3213 010b 9F       		.byte	0x9f
 3214 010c 00000000 		.4byte	0
 3215 0110 00000000 		.4byte	0
 3216              	.LLST7:
 3217 0114 0E000000 		.4byte	.LVL11
 3218 0118 7B000000 		.4byte	.LVL16-1
 3219 011c 0100     		.2byte	0x1
 3220 011e 5C       		.byte	0x5c
 3221 011f 7B000000 		.4byte	.LVL16-1
 3222 0123 88000000 		.4byte	.LFE9
 3223 0127 0400     		.2byte	0x4
 3224 0129 F3       		.byte	0xf3
 3225 012a 01       		.uleb128 0x1
 3226 012b 53       		.byte	0x53
 3227 012c 9F       		.byte	0x9f
 3228 012d 00000000 		.4byte	0
 3229 0131 00000000 		.4byte	0
 3230              	.LLST8:
 3231 0135 0E000000 		.4byte	.LVL11
 3232 0139 7B000000 		.4byte	.LVL16-1
ARM GAS  /tmp/ccGYC9RU.s 			page 58


 3233 013d 0100     		.2byte	0x1
 3234 013f 52       		.byte	0x52
 3235 0140 7B000000 		.4byte	.LVL16-1
 3236 0144 88000000 		.4byte	.LFE9
 3237 0148 0400     		.2byte	0x4
 3238 014a F3       		.byte	0xf3
 3239 014b 01       		.uleb128 0x1
 3240 014c 52       		.byte	0x52
 3241 014d 9F       		.byte	0x9f
 3242 014e 00000000 		.4byte	0
 3243 0152 00000000 		.4byte	0
 3244              	.LLST9:
 3245 0156 0E000000 		.4byte	.LVL11
 3246 015a 24000000 		.4byte	.LVL13
 3247 015e 0100     		.2byte	0x1
 3248 0160 51       		.byte	0x51
 3249 0161 24000000 		.4byte	.LVL13
 3250 0165 48000000 		.4byte	.LVL15
 3251 0169 0300     		.2byte	0x3
 3252 016b 70       		.byte	0x70
 3253 016c 24       		.sleb128 36
 3254 016d 9F       		.byte	0x9f
 3255 016e 48000000 		.4byte	.LVL15
 3256 0172 88000000 		.4byte	.LFE9
 3257 0176 0400     		.2byte	0x4
 3258 0178 F3       		.byte	0xf3
 3259 0179 01       		.uleb128 0x1
 3260 017a 51       		.byte	0x51
 3261 017b 9F       		.byte	0x9f
 3262 017c 00000000 		.4byte	0
 3263 0180 00000000 		.4byte	0
 3264              	.LLST10:
 3265 0184 0E000000 		.4byte	.LVL11
 3266 0188 1E000000 		.4byte	.LVL12
 3267 018c 0100     		.2byte	0x1
 3268 018e 50       		.byte	0x50
 3269 018f 1E000000 		.4byte	.LVL12
 3270 0193 88000000 		.4byte	.LFE9
 3271 0197 0100     		.2byte	0x1
 3272 0199 54       		.byte	0x54
 3273 019a 00000000 		.4byte	0
 3274 019e 00000000 		.4byte	0
 3275              	.LLST12:
 3276 01a2 46000000 		.4byte	.LVL14
 3277 01a6 7B000000 		.4byte	.LVL16-1
 3278 01aa 0100     		.2byte	0x1
 3279 01ac 52       		.byte	0x52
 3280 01ad 7B000000 		.4byte	.LVL16-1
 3281 01b1 88000000 		.4byte	.LFE9
 3282 01b5 0400     		.2byte	0x4
 3283 01b7 F3       		.byte	0xf3
 3284 01b8 01       		.uleb128 0x1
 3285 01b9 52       		.byte	0x52
 3286 01ba 9F       		.byte	0x9f
 3287 01bb 00000000 		.4byte	0
 3288 01bf 00000000 		.4byte	0
 3289              	.LLST13:
ARM GAS  /tmp/ccGYC9RU.s 			page 59


 3290 01c3 00000000 		.4byte	.LVL17
 3291 01c7 25000000 		.4byte	.LVL19-1
 3292 01cb 0100     		.2byte	0x1
 3293 01cd 50       		.byte	0x50
 3294 01ce 25000000 		.4byte	.LVL19-1
 3295 01d2 30000000 		.4byte	.LFE10
 3296 01d6 0400     		.2byte	0x4
 3297 01d8 F3       		.byte	0xf3
 3298 01d9 01       		.uleb128 0x1
 3299 01da 50       		.byte	0x50
 3300 01db 9F       		.byte	0x9f
 3301 01dc 00000000 		.4byte	0
 3302 01e0 00000000 		.4byte	0
 3303              	.LLST14:
 3304 01e4 00000000 		.4byte	.LVL20
 3305 01e8 0F000000 		.4byte	.LVL21-1
 3306 01ec 0100     		.2byte	0x1
 3307 01ee 50       		.byte	0x50
 3308 01ef 0F000000 		.4byte	.LVL21-1
 3309 01f3 1A000000 		.4byte	.LFE11
 3310 01f7 0100     		.2byte	0x1
 3311 01f9 54       		.byte	0x54
 3312 01fa 00000000 		.4byte	0
 3313 01fe 00000000 		.4byte	0
 3314              	.LLST15:
 3315 0202 00000000 		.4byte	.LVL23
 3316 0206 0C000000 		.4byte	.LVL24
 3317 020a 0100     		.2byte	0x1
 3318 020c 50       		.byte	0x50
 3319 020d 0C000000 		.4byte	.LVL24
 3320 0211 0F000000 		.4byte	.LVL25-1
 3321 0215 0100     		.2byte	0x1
 3322 0217 51       		.byte	0x51
 3323 0218 0F000000 		.4byte	.LVL25-1
 3324 021c 18000000 		.4byte	.LFE13
 3325 0220 0400     		.2byte	0x4
 3326 0222 F3       		.byte	0xf3
 3327 0223 01       		.uleb128 0x1
 3328 0224 50       		.byte	0x50
 3329 0225 9F       		.byte	0x9f
 3330 0226 00000000 		.4byte	0
 3331 022a 00000000 		.4byte	0
 3332              	.LLST16:
 3333 022e 00000000 		.4byte	.LVL26
 3334 0232 12000000 		.4byte	.LVL27
 3335 0236 0100     		.2byte	0x1
 3336 0238 50       		.byte	0x50
 3337 0239 12000000 		.4byte	.LVL27
 3338 023d 14000000 		.4byte	.LVL28
 3339 0241 0600     		.2byte	0x6
 3340 0243 70       		.byte	0x70
 3341 0244 00       		.sleb128 0
 3342 0245 71       		.byte	0x71
 3343 0246 00       		.sleb128 0
 3344 0247 1C       		.byte	0x1c
 3345 0248 9F       		.byte	0x9f
 3346 0249 14000000 		.4byte	.LVL28
ARM GAS  /tmp/ccGYC9RU.s 			page 60


 3347 024d 1B000000 		.4byte	.LVL29-1
 3348 0251 0100     		.2byte	0x1
 3349 0253 51       		.byte	0x51
 3350 0254 00000000 		.4byte	0
 3351 0258 00000000 		.4byte	0
 3352              	.LLST17:
 3353 025c 00000000 		.4byte	.LVL31
 3354 0260 18000000 		.4byte	.LVL33
 3355 0264 0100     		.2byte	0x1
 3356 0266 50       		.byte	0x50
 3357 0267 18000000 		.4byte	.LVL33
 3358 026b 42000000 		.4byte	.LFE17
 3359 026f 0400     		.2byte	0x4
 3360 0271 F3       		.byte	0xf3
 3361 0272 01       		.uleb128 0x1
 3362 0273 50       		.byte	0x50
 3363 0274 9F       		.byte	0x9f
 3364 0275 00000000 		.4byte	0
 3365 0279 00000000 		.4byte	0
 3366              	.LLST18:
 3367 027d 0C000000 		.4byte	.LVL32
 3368 0281 3E000000 		.4byte	.LVL36
 3369 0285 0100     		.2byte	0x1
 3370 0287 54       		.byte	0x54
 3371 0288 00000000 		.4byte	0
 3372 028c 00000000 		.4byte	0
 3373              	.LLST19:
 3374 0290 18000000 		.4byte	.LVL33
 3375 0294 28000000 		.4byte	.LVL35
 3376 0298 0300     		.2byte	0x3
 3377 029a 74       		.byte	0x74
 3378 029b 28       		.sleb128 40
 3379 029c 9F       		.byte	0x9f
 3380 029d 00000000 		.4byte	0
 3381 02a1 00000000 		.4byte	0
 3382              	.LLST20:
 3383 02a5 18000000 		.4byte	.LVL33
 3384 02a9 21000000 		.4byte	.LVL34-1
 3385 02ad 0100     		.2byte	0x1
 3386 02af 53       		.byte	0x53
 3387 02b0 00000000 		.4byte	0
 3388 02b4 00000000 		.4byte	0
 3389              	.LLST21:
 3390 02b8 00000000 		.4byte	.LVL38
 3391 02bc 09000000 		.4byte	.LVL39-1
 3392 02c0 0100     		.2byte	0x1
 3393 02c2 50       		.byte	0x50
 3394 02c3 09000000 		.4byte	.LVL39-1
 3395 02c7 0A000000 		.4byte	.LFE16
 3396 02cb 0400     		.2byte	0x4
 3397 02cd F3       		.byte	0xf3
 3398 02ce 01       		.uleb128 0x1
 3399 02cf 50       		.byte	0x50
 3400 02d0 9F       		.byte	0x9f
 3401 02d1 00000000 		.4byte	0
 3402 02d5 00000000 		.4byte	0
 3403              	.LLST22:
ARM GAS  /tmp/ccGYC9RU.s 			page 61


 3404 02d9 00000000 		.4byte	.LVL40
 3405 02dd 1E000000 		.4byte	.LVL42
 3406 02e1 0100     		.2byte	0x1
 3407 02e3 50       		.byte	0x50
 3408 02e4 1E000000 		.4byte	.LVL42
 3409 02e8 38000000 		.4byte	.LFE18
 3410 02ec 0100     		.2byte	0x1
 3411 02ee 54       		.byte	0x54
 3412 02ef 00000000 		.4byte	0
 3413 02f3 00000000 		.4byte	0
 3414              	.LLST23:
 3415 02f7 1C000000 		.4byte	.LVL41
 3416 02fb 1E000000 		.4byte	.LVL42
 3417 02ff 0300     		.2byte	0x3
 3418 0301 70       		.byte	0x70
 3419 0302 28       		.sleb128 40
 3420 0303 9F       		.byte	0x9f
 3421 0304 1E000000 		.4byte	.LVL42
 3422 0308 26000000 		.4byte	.LVL43
 3423 030c 0300     		.2byte	0x3
 3424 030e 74       		.byte	0x74
 3425 030f 28       		.sleb128 40
 3426 0310 9F       		.byte	0x9f
 3427 0311 00000000 		.4byte	0
 3428 0315 00000000 		.4byte	0
 3429              	.LLST24:
 3430 0319 1C000000 		.4byte	.LVL41
 3431 031d 25000000 		.4byte	.LVL43-1
 3432 0321 0100     		.2byte	0x1
 3433 0323 53       		.byte	0x53
 3434 0324 00000000 		.4byte	0
 3435 0328 00000000 		.4byte	0
 3436              		.section	.debug_aranges,"",%progbits
 3437 0000 74000000 		.4byte	0x74
 3438 0004 0200     		.2byte	0x2
 3439 0006 00000000 		.4byte	.Ldebug_info0
 3440 000a 04       		.byte	0x4
 3441 000b 00       		.byte	0
 3442 000c 0000     		.2byte	0
 3443 000e 0000     		.2byte	0
 3444 0010 00000000 		.4byte	.LFB7
 3445 0014 4A000000 		.4byte	.LFE7-.LFB7
 3446 0018 00000000 		.4byte	.LFB8
 3447 001c 72000000 		.4byte	.LFE8-.LFB8
 3448 0020 00000000 		.4byte	.LFB9
 3449 0024 88000000 		.4byte	.LFE9-.LFB9
 3450 0028 00000000 		.4byte	.LFB10
 3451 002c 30000000 		.4byte	.LFE10-.LFB10
 3452 0030 00000000 		.4byte	.LFB11
 3453 0034 1A000000 		.4byte	.LFE11-.LFB11
 3454 0038 00000000 		.4byte	.LFB12
 3455 003c 16000000 		.4byte	.LFE12-.LFB12
 3456 0040 00000000 		.4byte	.LFB13
 3457 0044 18000000 		.4byte	.LFE13-.LFB13
 3458 0048 00000000 		.4byte	.LFB14
 3459 004c 24000000 		.4byte	.LFE14-.LFB14
 3460 0050 00000000 		.4byte	.LFB15
ARM GAS  /tmp/ccGYC9RU.s 			page 62


 3461 0054 28000000 		.4byte	.LFE15-.LFB15
 3462 0058 00000000 		.4byte	.LFB17
 3463 005c 42000000 		.4byte	.LFE17-.LFB17
 3464 0060 00000000 		.4byte	.LFB16
 3465 0064 0A000000 		.4byte	.LFE16-.LFB16
 3466 0068 00000000 		.4byte	.LFB18
 3467 006c 38000000 		.4byte	.LFE18-.LFB18
 3468 0070 00000000 		.4byte	0
 3469 0074 00000000 		.4byte	0
 3470              		.section	.debug_ranges,"",%progbits
 3471              	.Ldebug_ranges0:
 3472 0000 04000000 		.4byte	.LBB16
 3473 0004 0C000000 		.4byte	.LBE16
 3474 0008 10000000 		.4byte	.LBB21
 3475 000c 14000000 		.4byte	.LBE21
 3476 0010 28000000 		.4byte	.LBB22
 3477 0014 3A000000 		.4byte	.LBE22
 3478 0018 3E000000 		.4byte	.LBB23
 3479 001c 6C000000 		.4byte	.LBE23
 3480 0020 00000000 		.4byte	0
 3481 0024 00000000 		.4byte	0
 3482 0028 0E000000 		.4byte	.LBB25
 3483 002c 46000000 		.4byte	.LBE25
 3484 0030 48000000 		.4byte	.LBB41
 3485 0034 66000000 		.4byte	.LBE41
 3486 0038 68000000 		.4byte	.LBB42
 3487 003c 78000000 		.4byte	.LBE42
 3488 0040 00000000 		.4byte	0
 3489 0044 00000000 		.4byte	0
 3490 0048 0E000000 		.4byte	.LBB27
 3491 004c 1A000000 		.4byte	.LBE27
 3492 0050 24000000 		.4byte	.LBB34
 3493 0054 26000000 		.4byte	.LBE34
 3494 0058 28000000 		.4byte	.LBB35
 3495 005c 2C000000 		.4byte	.LBE35
 3496 0060 30000000 		.4byte	.LBB36
 3497 0064 3C000000 		.4byte	.LBE36
 3498 0068 48000000 		.4byte	.LBB37
 3499 006c 66000000 		.4byte	.LBE37
 3500 0070 68000000 		.4byte	.LBB38
 3501 0074 78000000 		.4byte	.LBE38
 3502 0078 00000000 		.4byte	0
 3503 007c 00000000 		.4byte	0
 3504 0080 02000000 		.4byte	.LBB46
 3505 0084 04000000 		.4byte	.LBE46
 3506 0088 06000000 		.4byte	.LBB47
 3507 008c 0A000000 		.4byte	.LBE47
 3508 0090 00000000 		.4byte	0
 3509 0094 00000000 		.4byte	0
 3510 0098 08000000 		.4byte	.LBB50
 3511 009c 0A000000 		.4byte	.LBE50
 3512 00a0 10000000 		.4byte	.LBB51
 3513 00a4 16000000 		.4byte	.LBE51
 3514 00a8 00000000 		.4byte	0
 3515 00ac 00000000 		.4byte	0
 3516 00b0 18000000 		.4byte	.LBB58
 3517 00b4 1A000000 		.4byte	.LBE58
ARM GAS  /tmp/ccGYC9RU.s 			page 63


 3518 00b8 1C000000 		.4byte	.LBB61
 3519 00bc 1E000000 		.4byte	.LBE61
 3520 00c0 00000000 		.4byte	0
 3521 00c4 00000000 		.4byte	0
 3522 00c8 18000000 		.4byte	.LBB64
 3523 00cc 1A000000 		.4byte	.LBE64
 3524 00d0 1E000000 		.4byte	.LBB67
 3525 00d4 22000000 		.4byte	.LBE67
 3526 00d8 00000000 		.4byte	0
 3527 00dc 00000000 		.4byte	0
 3528 00e0 00000000 		.4byte	.LFB7
 3529 00e4 4A000000 		.4byte	.LFE7
 3530 00e8 00000000 		.4byte	.LFB8
 3531 00ec 72000000 		.4byte	.LFE8
 3532 00f0 00000000 		.4byte	.LFB9
 3533 00f4 88000000 		.4byte	.LFE9
 3534 00f8 00000000 		.4byte	.LFB10
 3535 00fc 30000000 		.4byte	.LFE10
 3536 0100 00000000 		.4byte	.LFB11
 3537 0104 1A000000 		.4byte	.LFE11
 3538 0108 00000000 		.4byte	.LFB12
 3539 010c 16000000 		.4byte	.LFE12
 3540 0110 00000000 		.4byte	.LFB13
 3541 0114 18000000 		.4byte	.LFE13
 3542 0118 00000000 		.4byte	.LFB14
 3543 011c 24000000 		.4byte	.LFE14
 3544 0120 00000000 		.4byte	.LFB15
 3545 0124 28000000 		.4byte	.LFE15
 3546 0128 00000000 		.4byte	.LFB17
 3547 012c 42000000 		.4byte	.LFE17
 3548 0130 00000000 		.4byte	.LFB16
 3549 0134 0A000000 		.4byte	.LFE16
 3550 0138 00000000 		.4byte	.LFB18
 3551 013c 38000000 		.4byte	.LFE18
 3552 0140 00000000 		.4byte	0
 3553 0144 00000000 		.4byte	0
 3554              		.section	.debug_line,"",%progbits
 3555              	.Ldebug_line0:
 3556 0000 7F030000 		.section	.debug_str,"MS",%progbits,1
 3556      02009401 
 3556      00000201 
 3556      FB0E0D00 
 3556      01010101 
 3557              	.LASF72:
 3558 0000 7466756E 		.ascii	"tfunc_t\000"
 3558      635F7400 
 3559              	.LASF40:
 3560 0008 54687265 		.ascii	"ThreadsQueue\000"
 3560      61647351 
 3560      75657565 
 3560      00
 3561              	.LASF35:
 3562 0015 705F6D73 		.ascii	"p_msg\000"
 3562      6700
 3563              	.LASF2:
 3564 001b 73697A65 		.ascii	"size_t\000"
 3564      5F7400
ARM GAS  /tmp/ccGYC9RU.s 			page 64


 3565              	.LASF73:
 3566 0022 7072696F 		.ascii	"prio\000"
 3566      00
 3567              	.LASF67:
 3568 0027 7264796D 		.ascii	"rdymsg\000"
 3568      736700
 3569              	.LASF90:
 3570 002e 76746C69 		.ascii	"vtlist\000"
 3570      737400
 3571              	.LASF98:
 3572 0035 474E5520 		.ascii	"GNU C 4.8.1 -mcpu=cortex-m3 -mno-thumb-interwork -m"
 3572      4320342E 
 3572      382E3120 
 3572      2D6D6370 
 3572      753D636F 
 3573 0068 7468756D 		.ascii	"thumb -ggdb -O2 -std=gnu99 -fomit-frame-pointer -fa"
 3573      62202D67 
 3573      67646220 
 3573      2D4F3220 
 3573      2D737464 
 3574 009b 6C69676E 		.ascii	"lign-functions=16 -ffunction-sections -fdata-sectio"
 3574      2D66756E 
 3574      6374696F 
 3574      6E733D31 
 3574      36202D66 
 3575 00ce 6E73202D 		.ascii	"ns -fno-common\000"
 3575      666E6F2D 
 3575      636F6D6D 
 3575      6F6E00
 3576              	.LASF87:
 3577 00dd 63685468 		.ascii	"chThdExitS\000"
 3577      64457869 
 3577      745300
 3578              	.LASF12:
 3579 00e8 6C6F6E67 		.ascii	"long long unsigned int\000"
 3579      206C6F6E 
 3579      6720756E 
 3579      7369676E 
 3579      65642069 
 3580              	.LASF68:
 3581 00ff 65786974 		.ascii	"exitcode\000"
 3581      636F6465 
 3581      00
 3582              	.LASF24:
 3583 0108 705F7072 		.ascii	"p_prio\000"
 3583      696F00
 3584              	.LASF11:
 3585 010f 6C6F6E67 		.ascii	"long long int\000"
 3585      206C6F6E 
 3585      6720696E 
 3585      7400
 3586              	.LASF1:
 3587 011d 7369676E 		.ascii	"signed char\000"
 3587      65642063 
 3587      68617200 
 3588              	.LASF88:
 3589 0129 63685468 		.ascii	"chThdExit\000"
ARM GAS  /tmp/ccGYC9RU.s 			page 65


 3589      64457869 
 3589      7400
 3590              	.LASF39:
 3591 0133 705F6D70 		.ascii	"p_mpool\000"
 3591      6F6F6C00 
 3592              	.LASF64:
 3593 013b 6D5F7175 		.ascii	"m_queue\000"
 3593      65756500 
 3594              	.LASF75:
 3595 0143 63685468 		.ascii	"chThdCreateI\000"
 3595      64437265 
 3595      61746549 
 3595      00
 3596              	.LASF8:
 3597 0150 6C6F6E67 		.ascii	"long int\000"
 3597      20696E74 
 3597      00
 3598              	.LASF14:
 3599 0159 74737461 		.ascii	"tstate_t\000"
 3599      74655F74 
 3599      00
 3600              	.LASF26:
 3601 0162 705F6E65 		.ascii	"p_newer\000"
 3601      77657200 
 3602              	.LASF99:
 3603 016a 2E2E2F74 		.ascii	"../third_party/ChibiOS/os/kernel/src/chthreads.c\000"
 3603      68697264 
 3603      5F706172 
 3603      74792F43 
 3603      68696269 
 3604              	.LASF93:
 3605 019b 63685363 		.ascii	"chSchRescheduleS\000"
 3605      68526573 
 3605      63686564 
 3605      756C6553 
 3605      00
 3606              	.LASF58:
 3607 01ac 725F6E65 		.ascii	"r_newer\000"
 3607      77657200 
 3608              	.LASF42:
 3609 01b4 72656761 		.ascii	"regarm_t\000"
 3609      726D5F74 
 3609      00
 3610              	.LASF49:
 3611 01bd 76745F70 		.ascii	"vt_prev\000"
 3611      72657600 
 3612              	.LASF94:
 3613 01c5 63685363 		.ascii	"chSchDoReschedule\000"
 3613      68446F52 
 3613      65736368 
 3613      6564756C 
 3613      6500
 3614              	.LASF78:
 3615 01d7 63685468 		.ascii	"chThdSetPriority\000"
 3615      64536574 
 3615      5072696F 
 3615      72697479 
ARM GAS  /tmp/ccGYC9RU.s 			page 66


 3615      00
 3616              	.LASF20:
 3617 01e8 636E745F 		.ascii	"cnt_t\000"
 3617      7400
 3618              	.LASF0:
 3619 01ee 756E7369 		.ascii	"unsigned int\000"
 3619      676E6564 
 3619      20696E74 
 3619      00
 3620              	.LASF48:
 3621 01fb 76745F6E 		.ascii	"vt_next\000"
 3621      65787400 
 3622              	.LASF10:
 3623 0203 6C6F6E67 		.ascii	"long unsigned int\000"
 3623      20756E73 
 3623      69676E65 
 3623      6420696E 
 3623      7400
 3624              	.LASF44:
 3625 0215 636F6E74 		.ascii	"context\000"
 3625      65787400 
 3626              	.LASF76:
 3627 021d 73697A65 		.ascii	"size\000"
 3627      00
 3628              	.LASF6:
 3629 0222 73686F72 		.ascii	"short unsigned int\000"
 3629      7420756E 
 3629      7369676E 
 3629      65642069 
 3629      6E7400
 3630              	.LASF96:
 3631 0235 63685363 		.ascii	"chSchWakeupS\000"
 3631      6857616B 
 3631      65757053 
 3631      00
 3632              	.LASF17:
 3633 0242 6D73675F 		.ascii	"msg_t\000"
 3633      7400
 3634              	.LASF79:
 3635 0248 6E657770 		.ascii	"newprio\000"
 3635      72696F00 
 3636              	.LASF13:
 3637 0250 746D6F64 		.ascii	"tmode_t\000"
 3637      655F7400 
 3638              	.LASF82:
 3639 0258 63685468 		.ascii	"chThdTerminate\000"
 3639      64546572 
 3639      6D696E61 
 3639      746500
 3640              	.LASF41:
 3641 0267 54687265 		.ascii	"ThreadsList\000"
 3641      6164734C 
 3641      69737400 
 3642              	.LASF18:
 3643 0273 6576656E 		.ascii	"eventmask_t\000"
 3643      746D6173 
 3643      6B5F7400 
ARM GAS  /tmp/ccGYC9RU.s 			page 67


 3644              	.LASF63:
 3645 027f 4D757465 		.ascii	"Mutex\000"
 3645      7800
 3646              	.LASF80:
 3647 0285 6F6C6470 		.ascii	"oldprio\000"
 3647      72696F00 
 3648              	.LASF77:
 3649 028d 63685468 		.ascii	"chThdCreateStatic\000"
 3649      64437265 
 3649      61746553 
 3649      74617469 
 3649      6300
 3650              	.LASF50:
 3651 029f 76745F74 		.ascii	"vt_time\000"
 3651      696D6500 
 3652              	.LASF45:
 3653 02a7 73697A65 		.ascii	"sizetype\000"
 3653      74797065 
 3653      00
 3654              	.LASF51:
 3655 02b0 76745F66 		.ascii	"vt_func\000"
 3655      756E6300 
 3656              	.LASF81:
 3657 02b8 63685468 		.ascii	"chThdResume\000"
 3657      64526573 
 3657      756D6500 
 3658              	.LASF27:
 3659 02c4 705F6F6C 		.ascii	"p_older\000"
 3659      64657200 
 3660              	.LASF57:
 3661 02cc 725F6374 		.ascii	"r_ctx\000"
 3661      7800
 3662              	.LASF100:
 3663 02d2 2F686F6D 		.ascii	"/home/santi/Documentos/ProyectoDron_2018/MCU/creato"
 3663      652F7361 
 3663      6E74692F 
 3663      446F6375 
 3663      6D656E74 
 3664 0305 7200     		.ascii	"r\000"
 3665              	.LASF84:
 3666 0307 74696D65 		.ascii	"time\000"
 3666      00
 3667              	.LASF102:
 3668 030c 6C697374 		.ascii	"list_insert\000"
 3668      5F696E73 
 3668      65727400 
 3669              	.LASF61:
 3670 0318 725F6375 		.ascii	"r_current\000"
 3670      7272656E 
 3670      7400
 3671              	.LASF59:
 3672 0322 725F6F6C 		.ascii	"r_older\000"
 3672      64657200 
 3673              	.LASF85:
 3674 032a 63685468 		.ascii	"chThdSleepUntil\000"
 3674      64536C65 
 3674      6570556E 
ARM GAS  /tmp/ccGYC9RU.s 			page 68


 3674      74696C00 
 3675              	.LASF101:
 3676 033a 6C697374 		.ascii	"list_remove\000"
 3676      5F72656D 
 3676      6F766500 
 3677              	.LASF15:
 3678 0346 74726566 		.ascii	"trefs_t\000"
 3678      735F7400 
 3679              	.LASF23:
 3680 034e 705F7072 		.ascii	"p_prev\000"
 3680      657600
 3681              	.LASF16:
 3682 0355 74707269 		.ascii	"tprio_t\000"
 3682      6F5F7400 
 3683              	.LASF7:
 3684 035d 696E7433 		.ascii	"int32_t\000"
 3684      325F7400 
 3685              	.LASF4:
 3686 0365 756E7369 		.ascii	"unsigned char\000"
 3686      676E6564 
 3686      20636861 
 3686      7200
 3687              	.LASF37:
 3688 0373 705F6D74 		.ascii	"p_mtxlist\000"
 3688      786C6973 
 3688      7400
 3689              	.LASF5:
 3690 037d 73686F72 		.ascii	"short int\000"
 3690      7420696E 
 3690      7400
 3691              	.LASF29:
 3692 0387 705F7374 		.ascii	"p_state\000"
 3692      61746500 
 3693              	.LASF56:
 3694 038f 725F7072 		.ascii	"r_prio\000"
 3694      696F00
 3695              	.LASF70:
 3696 0396 65776D61 		.ascii	"ewmask\000"
 3696      736B00
 3697              	.LASF22:
 3698 039d 705F6E65 		.ascii	"p_next\000"
 3698      787400
 3699              	.LASF30:
 3700 03a4 705F666C 		.ascii	"p_flags\000"
 3700      61677300 
 3701              	.LASF103:
 3702 03ac 63685468 		.ascii	"chThdRelease\000"
 3702      6452656C 
 3702      65617365 
 3702      00
 3703              	.LASF21:
 3704 03b9 54687265 		.ascii	"Thread\000"
 3704      616400
 3705              	.LASF97:
 3706 03c0 63685363 		.ascii	"chSchGoSleepS\000"
 3706      68476F53 
 3706      6C656570 
ARM GAS  /tmp/ccGYC9RU.s 			page 69


 3706      5300
 3707              	.LASF36:
 3708 03ce 705F6570 		.ascii	"p_epending\000"
 3708      656E6469 
 3708      6E6700
 3709              	.LASF9:
 3710 03d9 75696E74 		.ascii	"uint32_t\000"
 3710      33325F74 
 3710      00
 3711              	.LASF74:
 3712 03e2 5F746872 		.ascii	"_thread_init\000"
 3712      6561645F 
 3712      696E6974 
 3712      00
 3713              	.LASF55:
 3714 03ef 725F7175 		.ascii	"r_queue\000"
 3714      65756500 
 3715              	.LASF47:
 3716 03f7 56697274 		.ascii	"VirtualTimer\000"
 3716      75616C54 
 3716      696D6572 
 3716      00
 3717              	.LASF71:
 3718 0404 63686172 		.ascii	"char\000"
 3718      00
 3719              	.LASF95:
 3720 0409 63685363 		.ascii	"chSchReadyI\000"
 3720      68526561 
 3720      64794900 
 3721              	.LASF66:
 3722 0415 6D5F6E65 		.ascii	"m_next\000"
 3722      787400
 3723              	.LASF19:
 3724 041c 73797374 		.ascii	"systime_t\000"
 3724      696D655F 
 3724      7400
 3725              	.LASF38:
 3726 0426 705F7265 		.ascii	"p_realprio\000"
 3726      616C7072 
 3726      696F00
 3727              	.LASF46:
 3728 0431 76746675 		.ascii	"vtfunc_t\000"
 3728      6E635F74 
 3728      00
 3729              	.LASF32:
 3730 043a 705F7469 		.ascii	"p_time\000"
 3730      6D6500
 3731              	.LASF43:
 3732 0441 696E7463 		.ascii	"intctx\000"
 3732      747800
 3733              	.LASF34:
 3734 0448 705F6D73 		.ascii	"p_msgqueue\000"
 3734      67717565 
 3734      756500
 3735              	.LASF89:
 3736 0453 63685468 		.ascii	"chThdWait\000"
 3736      64576169 
ARM GAS  /tmp/ccGYC9RU.s 			page 70


 3736      7400
 3737              	.LASF52:
 3738 045d 76745F70 		.ascii	"vt_par\000"
 3738      617200
 3739              	.LASF83:
 3740 0464 63685468 		.ascii	"chThdSleep\000"
 3740      64536C65 
 3740      657000
 3741              	.LASF31:
 3742 046f 705F7265 		.ascii	"p_refs\000"
 3742      667300
 3743              	.LASF62:
 3744 0476 52656164 		.ascii	"ReadyList\000"
 3744      794C6973 
 3744      7400
 3745              	.LASF91:
 3746 0480 726C6973 		.ascii	"rlist\000"
 3746      7400
 3747              	.LASF3:
 3748 0486 75696E74 		.ascii	"uint8_t\000"
 3748      385F7400 
 3749              	.LASF86:
 3750 048e 63685468 		.ascii	"chThdYield\000"
 3750      64596965 
 3750      6C6400
 3751              	.LASF69:
 3752 0499 77746F62 		.ascii	"wtobjp\000"
 3752      6A7000
 3753              	.LASF28:
 3754 04a0 705F6E61 		.ascii	"p_name\000"
 3754      6D6500
 3755              	.LASF53:
 3756 04a7 76745F73 		.ascii	"vt_systime\000"
 3756      79737469 
 3756      6D6500
 3757              	.LASF92:
 3758 04b2 63685363 		.ascii	"chSchGoSleepTimeoutS\000"
 3758      68476F53 
 3758      6C656570 
 3758      54696D65 
 3758      6F757453 
 3759              	.LASF54:
 3760 04c7 56544C69 		.ascii	"VTList\000"
 3760      737400
 3761              	.LASF60:
 3762 04ce 725F7072 		.ascii	"r_preempt\000"
 3762      65656D70 
 3762      7400
 3763              	.LASF65:
 3764 04d8 6D5F6F77 		.ascii	"m_owner\000"
 3764      6E657200 
 3765              	.LASF25:
 3766 04e0 705F6374 		.ascii	"p_ctx\000"
 3766      7800
 3767              	.LASF33:
 3768 04e6 705F7761 		.ascii	"p_waiting\000"
 3768      6974696E 
ARM GAS  /tmp/ccGYC9RU.s 			page 71


 3768      6700
 3769              		.ident	"GCC: (Sourcery CodeBench Lite 2013.11-24) 4.8.1"
ARM GAS  /tmp/ccGYC9RU.s 			page 72


DEFINED SYMBOLS
                            *ABS*:00000000 chthreads.c
     /tmp/ccGYC9RU.s:19     .text._thread_init:00000000 $t
     /tmp/ccGYC9RU.s:25     .text._thread_init:00000000 _thread_init
     /tmp/ccGYC9RU.s:92     .text.chThdCreateI:00000000 $t
     /tmp/ccGYC9RU.s:98     .text.chThdCreateI:00000000 chThdCreateI
     /tmp/ccGYC9RU.s:203    .text.chThdCreateStatic:00000000 $t
     /tmp/ccGYC9RU.s:209    .text.chThdCreateStatic:00000000 chThdCreateStatic
     /tmp/ccGYC9RU.s:360    .text.chThdSetPriority:00000000 $t
     /tmp/ccGYC9RU.s:366    .text.chThdSetPriority:00000000 chThdSetPriority
     /tmp/ccGYC9RU.s:422    .text.chThdResume:00000000 $t
     /tmp/ccGYC9RU.s:428    .text.chThdResume:00000000 chThdResume
     /tmp/ccGYC9RU.s:471    .text.chThdTerminate:00000000 $t
     /tmp/ccGYC9RU.s:477    .text.chThdTerminate:00000000 chThdTerminate
     /tmp/ccGYC9RU.s:514    .text.chThdSleep:00000000 $t
     /tmp/ccGYC9RU.s:520    .text.chThdSleep:00000000 chThdSleep
     /tmp/ccGYC9RU.s:559    .text.chThdSleepUntil:00000000 $t
     /tmp/ccGYC9RU.s:565    .text.chThdSleepUntil:00000000 chThdSleepUntil
     /tmp/ccGYC9RU.s:610    .text.chThdYield:00000000 $t
     /tmp/ccGYC9RU.s:616    .text.chThdYield:00000000 chThdYield
     /tmp/ccGYC9RU.s:660    .text.chThdExitS:00000000 $t
     /tmp/ccGYC9RU.s:666    .text.chThdExitS:00000000 chThdExitS
     /tmp/ccGYC9RU.s:741    .text.chThdExit:00000000 $t
     /tmp/ccGYC9RU.s:747    .text.chThdExit:00000000 chThdExit
     /tmp/ccGYC9RU.s:770    .text.chThdWait:00000000 $t
     /tmp/ccGYC9RU.s:776    .text.chThdWait:00000000 chThdWait
                     .debug_frame:00000010 $d

UNDEFINED SYMBOLS
rlist
_port_thread_start
chSchWakeupS
chSchRescheduleS
chSchGoSleepTimeoutS
vtlist
chSchDoReschedule
chSchReadyI
chSchGoSleepS
chThdRelease
