ARM GAS  /tmp/ccCtgIAB.s 			page 1


   1              		.syntax unified
   2              		.cpu cortex-m3
   3              		.fpu softvfp
   4              		.eabi_attribute 20, 1
   5              		.eabi_attribute 21, 1
   6              		.eabi_attribute 23, 3
   7              		.eabi_attribute 24, 1
   8              		.eabi_attribute 25, 1
   9              		.eabi_attribute 26, 1
  10              		.eabi_attribute 30, 2
  11              		.eabi_attribute 34, 1
  12              		.eabi_attribute 18, 4
  13              		.thumb
  14              		.file	"i2c.cpp"
  15              		.text
  16              	.Ltext0:
  17              		.cfi_sections	.debug_frame
  18              		.section	.text._ZN7creator3I2C4InitEv,"ax",%progbits
  19              		.align	2
  20              		.p2align 4,,15
  21              		.global	_ZN7creator3I2C4InitEv
  22              		.thumb
  23              		.thumb_func
  24              		.type	_ZN7creator3I2C4InitEv, %function
  25              	_ZN7creator3I2C4InitEv:
  26              		.fnstart
  27              	.LFB7:
  28              		.file 1 "i2c.cpp"
  29              		.loc 1 35 0
  30              		.cfi_startproc
  31              		@ args = 0, pretend = 0, frame = 0
  32              		@ frame_needed = 0, uses_anonymous_args = 0
  33              	.LVL0:
  34 0000 F8B5     		push	{r3, r4, r5, r6, r7, lr}
  35              		.save {r3, r4, r5, r6, r7, lr}
  36              		.cfi_def_cfa_offset 24
  37              		.cfi_offset 3, -24
  38              		.cfi_offset 4, -20
  39              		.cfi_offset 5, -16
  40              		.cfi_offset 6, -12
  41              		.cfi_offset 7, -8
  42              		.cfi_offset 14, -4
  43              		.loc 1 35 0
  44 0002 0746     		mov	r7, r0
  45              	.LBB2:
  46              	.LBB3:
  47              		.loc 1 37 0
  48 0004 2023     		movs	r3, #32
  49              	@ 37 "i2c.cpp" 1
  50 0006 83F31188 		msr     BASEPRI, r3
  51              	@ 0 "" 2
  52              		.thumb
  53              	.LBE3:
  54              		.loc 1 38 0
  55 000a 40F20000 		movw	r0, #:lower16:.LANCHOR0
  56              	.LVL1:
  57 000e 0221     		movs	r1, #2
ARM GAS  /tmp/ccCtgIAB.s 			page 2


  58 0010 C0F20000 		movt	r0, #:upper16:.LANCHOR0
  59 0014 FFF7FEFF 		bl	PIO_Configure
  60              	.LVL2:
  61              		.loc 1 42 0
  62 0018 4FF40044 		mov	r4, #32768
  63              		.loc 1 39 0
  64 001c 4FF48063 		mov	r3, #1024
  65 0020 4FF48646 		mov	r6, #17152
  66              		.loc 1 41 0
  67 0024 44F20135 		movw	r5, #17153
  68              		.loc 1 39 0
  69 0028 C4F20E03 		movt	r3, 16398
  70              		.loc 1 40 0
  71 002c 4FF4002E 		mov	lr, #524288
  72              		.loc 1 42 0
  73 0030 C4F20104 		movt	r4, 16385
  74              		.loc 1 39 0
  75 0034 C5F24D06 		movt	r6, 20557
  76              		.loc 1 41 0
  77 0038 C5F24D05 		movt	r5, 20557
  78              		.loc 1 42 0
  79 003c 4FF4D451 		mov	r1, #6784
  80 0040 4FF41042 		mov	r2, #36864
  81              		.loc 1 39 0
  82 0044 C3F8E460 		str	r6, [r3, #228]
  83              		.loc 1 42 0
  84 0048 2046     		mov	r0, r4
  85              		.loc 1 40 0
  86 004a C3F810E0 		str	lr, [r3, #16]
  87              		.loc 1 42 0
  88 004e C0F2D032 		movt	r2, 976
  89              		.loc 1 41 0
  90 0052 C3F8E450 		str	r5, [r3, #228]
  91              		.loc 1 42 0
  92 0056 C0F20601 		movt	r1, 6
  93 005a FFF7FEFF 		bl	TWI_ConfigureMaster
  94              	.LVL3:
  95              		.loc 1 43 0
  96 005e 3846     		mov	r0, r7
  97 0060 2146     		mov	r1, r4
  98 0062 FFF7FEFF 		bl	TWID_Initialize
  99              	.LVL4:
 100              	.LBB4:
 101              		.loc 1 44 0
 102 0066 0023     		movs	r3, #0
 103              	@ 44 "i2c.cpp" 1
 104 0068 83F31188 		msr     BASEPRI, r3
 105              	@ 0 "" 2
 106              		.thumb
 107 006c F8BD     		pop	{r3, r4, r5, r6, r7, pc}
 108              	.LBE4:
 109              	.LBE2:
 110              		.cfi_endproc
 111              	.LFE7:
 112              		.fnend
 113              		.size	_ZN7creator3I2C4InitEv, .-_ZN7creator3I2C4InitEv
 114 006e 00BF     		.section	.text._ZN7creator3I2C9WriteByteEhhh,"ax",%progbits
ARM GAS  /tmp/ccCtgIAB.s 			page 3


 115              		.align	2
 116              		.p2align 4,,15
 117              		.global	_ZN7creator3I2C9WriteByteEhhh
 118              		.thumb
 119              		.thumb_func
 120              		.type	_ZN7creator3I2C9WriteByteEhhh, %function
 121              	_ZN7creator3I2C9WriteByteEhhh:
 122              		.fnstart
 123              	.LFB8:
 124              		.loc 1 47 0
 125              		.cfi_startproc
 126              		@ args = 0, pretend = 0, frame = 8
 127              		@ frame_needed = 0, uses_anonymous_args = 0
 128              	.LVL5:
 129 0000 30B5     		push	{r4, r5, lr}
 130              		.save {r4, r5, lr}
 131              		.cfi_def_cfa_offset 12
 132              		.cfi_offset 4, -12
 133              		.cfi_offset 5, -8
 134              		.cfi_offset 14, -4
 135              		.pad #28
 136 0002 87B0     		sub	sp, sp, #28
 137              		.cfi_def_cfa_offset 40
 138              		.loc 1 47 0
 139 0004 06AC     		add	r4, sp, #24
 140 0006 04F8013D 		strb	r3, [r4, #-1]!
 141              	.LBB5:
 142              	.LBB6:
 143              		.loc 1 49 0
 144 000a 2023     		movs	r3, #32
 145              	.LVL6:
 146              	@ 49 "i2c.cpp" 1
 147 000c 83F31188 		msr     BASEPRI, r3
 148              	@ 0 "" 2
 149              		.thumb
 150              	.LBE6:
 151              		.loc 1 50 0
 152 0010 0123     		movs	r3, #1
 153 0012 0025     		movs	r5, #0
 154 0014 0193     		str	r3, [sp, #4]
 155 0016 0094     		str	r4, [sp]
 156 0018 0295     		str	r5, [sp, #8]
 157 001a FFF7FEFF 		bl	TWID_Write
 158              	.LVL7:
 159              	.LBB7:
 160              		.loc 1 51 0
 161 001e 2B46     		mov	r3, r5
 162              	@ 51 "i2c.cpp" 1
 163 0020 83F31188 		msr     BASEPRI, r3
 164              	@ 0 "" 2
 165              		.thumb
 166              	.LBE7:
 167              	.LBE5:
 168              		.loc 1 52 0
 169 0024 07B0     		add	sp, sp, #28
 170              		@ sp needed
 171 0026 30BD     		pop	{r4, r5, pc}
ARM GAS  /tmp/ccCtgIAB.s 			page 4


 172              		.cfi_endproc
 173              	.LFE8:
 174              		.fnend
 175              		.size	_ZN7creator3I2C9WriteByteEhhh, .-_ZN7creator3I2C9WriteByteEhhh
 176 0028 AFF30080 		.section	.text._ZN7creator3I2C9WriteByteEhh,"ax",%progbits
 176      AFF30080 
 177              		.align	2
 178              		.p2align 4,,15
 179              		.global	_ZN7creator3I2C9WriteByteEhh
 180              		.thumb
 181              		.thumb_func
 182              		.type	_ZN7creator3I2C9WriteByteEhh, %function
 183              	_ZN7creator3I2C9WriteByteEhh:
 184              		.fnstart
 185              	.LFB9:
 186              		.loc 1 54 0
 187              		.cfi_startproc
 188              		@ args = 0, pretend = 0, frame = 8
 189              		@ frame_needed = 0, uses_anonymous_args = 0
 190              	.LVL8:
 191 0000 30B5     		push	{r4, r5, lr}
 192              		.save {r4, r5, lr}
 193              		.cfi_def_cfa_offset 12
 194              		.cfi_offset 4, -12
 195              		.cfi_offset 5, -8
 196              		.cfi_offset 14, -4
 197              		.pad #28
 198 0002 87B0     		sub	sp, sp, #28
 199              		.cfi_def_cfa_offset 40
 200              		.loc 1 54 0
 201 0004 06AD     		add	r5, sp, #24
 202 0006 05F8012D 		strb	r2, [r5, #-1]!
 203              	.LBB8:
 204              	.LBB9:
 205              		.loc 1 56 0
 206 000a 2023     		movs	r3, #32
 207              	@ 56 "i2c.cpp" 1
 208 000c 83F31188 		msr     BASEPRI, r3
 209              	@ 0 "" 2
 210              		.thumb
 211              	.LBE9:
 212              		.loc 1 57 0
 213 0010 0024     		movs	r4, #0
 214 0012 0123     		movs	r3, #1
 215 0014 0193     		str	r3, [sp, #4]
 216 0016 0095     		str	r5, [sp]
 217 0018 2346     		mov	r3, r4
 218 001a 0294     		str	r4, [sp, #8]
 219 001c 2246     		mov	r2, r4
 220              	.LVL9:
 221 001e FFF7FEFF 		bl	TWID_Write
 222              	.LVL10:
 223              	.LBB10:
 224              		.loc 1 58 0
 225 0022 2346     		mov	r3, r4
 226              	@ 58 "i2c.cpp" 1
 227 0024 83F31188 		msr     BASEPRI, r3
ARM GAS  /tmp/ccCtgIAB.s 			page 5


 228              	@ 0 "" 2
 229              		.thumb
 230              	.LBE10:
 231              	.LBE8:
 232              		.loc 1 59 0
 233 0028 07B0     		add	sp, sp, #28
 234              		@ sp needed
 235 002a 30BD     		pop	{r4, r5, pc}
 236              		.cfi_endproc
 237              	.LFE9:
 238              		.fnend
 239              		.size	_ZN7creator3I2C9WriteByteEhh, .-_ZN7creator3I2C9WriteByteEhh
 240 002c AFF30080 		.section	.text._ZN7creator3I2C8ReadByteEhh,"ax",%progbits
 241              		.align	2
 242              		.p2align 4,,15
 243              		.global	_ZN7creator3I2C8ReadByteEhh
 244              		.thumb
 245              		.thumb_func
 246              		.type	_ZN7creator3I2C8ReadByteEhh, %function
 247              	_ZN7creator3I2C8ReadByteEhh:
 248              		.fnstart
 249              	.LFB10:
 250              		.loc 1 61 0
 251              		.cfi_startproc
 252              		@ args = 0, pretend = 0, frame = 8
 253              		@ frame_needed = 0, uses_anonymous_args = 0
 254              	.LVL11:
 255 0000 70B5     		push	{r4, r5, r6, lr}
 256              		.save {r4, r5, r6, lr}
 257              		.cfi_def_cfa_offset 16
 258              		.cfi_offset 4, -16
 259              		.cfi_offset 5, -12
 260              		.cfi_offset 6, -8
 261              		.cfi_offset 14, -4
 262              	.LBB11:
 263              	.LBB12:
 264              		.loc 1 63 0
 265 0002 2023     		movs	r3, #32
 266              	.LBE12:
 267              	.LBE11:
 268              		.loc 1 61 0
 269              		.pad #24
 270 0004 86B0     		sub	sp, sp, #24
 271              		.cfi_def_cfa_offset 40
 272              	.LBB15:
 273              	.LBB13:
 274              		.loc 1 63 0
 275              	@ 63 "i2c.cpp" 1
 276 0006 83F31188 		msr     BASEPRI, r3
 277              	@ 0 "" 2
 278              		.thumb
 279              	.LBE13:
 280              		.loc 1 67 0
 281 000a 0024     		movs	r4, #0
 282 000c 0DF11705 		add	r5, sp, #23
 283 0010 0123     		movs	r3, #1
 284 0012 0095     		str	r5, [sp]
ARM GAS  /tmp/ccCtgIAB.s 			page 6


 285 0014 0294     		str	r4, [sp, #8]
 286 0016 0193     		str	r3, [sp, #4]
 287 0018 FFF7FEFF 		bl	TWID_Read
 288              	.LVL12:
 289 001c 08B9     		cbnz	r0, .L5
 290              		.loc 1 67 0 is_stmt 0 discriminator 1
 291 001e 9DF81760 		ldrb	r6, [sp, #23]	@ zero_extendqisi2
 292              	.LVL13:
 293              	.L5:
 294              	.LBB14:
 295              		.loc 1 68 0 is_stmt 1
 296 0022 0023     		movs	r3, #0
 297              	@ 68 "i2c.cpp" 1
 298 0024 83F31188 		msr     BASEPRI, r3
 299              	@ 0 "" 2
 300              		.thumb
 301              	.LBE14:
 302              	.LBE15:
 303              		.loc 1 70 0
 304 0028 3046     		mov	r0, r6
 305 002a 06B0     		add	sp, sp, #24
 306              		@ sp needed
 307 002c 70BD     		pop	{r4, r5, r6, pc}
 308              		.cfi_endproc
 309              	.LFE10:
 310              		.fnend
 311              		.size	_ZN7creator3I2C8ReadByteEhh, .-_ZN7creator3I2C8ReadByteEhh
 312 002e 00BF     		.section	.text._ZN7creator3I2C8ReadByteEh,"ax",%progbits
 313              		.align	2
 314              		.p2align 4,,15
 315              		.global	_ZN7creator3I2C8ReadByteEh
 316              		.thumb
 317              		.thumb_func
 318              		.type	_ZN7creator3I2C8ReadByteEh, %function
 319              	_ZN7creator3I2C8ReadByteEh:
 320              		.fnstart
 321              	.LFB11:
 322              		.loc 1 72 0
 323              		.cfi_startproc
 324              		@ args = 0, pretend = 0, frame = 8
 325              		@ frame_needed = 0, uses_anonymous_args = 0
 326              	.LVL14:
 327 0000 70B5     		push	{r4, r5, r6, lr}
 328              		.save {r4, r5, r6, lr}
 329              		.cfi_def_cfa_offset 16
 330              		.cfi_offset 4, -16
 331              		.cfi_offset 5, -12
 332              		.cfi_offset 6, -8
 333              		.cfi_offset 14, -4
 334              	.LBB16:
 335              	.LBB17:
 336              		.loc 1 74 0
 337 0002 2023     		movs	r3, #32
 338              	.LBE17:
 339              	.LBE16:
 340              		.loc 1 72 0
 341              		.pad #24
ARM GAS  /tmp/ccCtgIAB.s 			page 7


 342 0004 86B0     		sub	sp, sp, #24
 343              		.cfi_def_cfa_offset 40
 344              	.LBB20:
 345              	.LBB18:
 346              		.loc 1 74 0
 347              	@ 74 "i2c.cpp" 1
 348 0006 83F31188 		msr     BASEPRI, r3
 349              	@ 0 "" 2
 350              		.thumb
 351              	.LBE18:
 352              		.loc 1 78 0
 353 000a 0023     		movs	r3, #0
 354 000c 0DF11705 		add	r5, sp, #23
 355 0010 0124     		movs	r4, #1
 356 0012 1A46     		mov	r2, r3
 357 0014 0095     		str	r5, [sp]
 358 0016 0194     		str	r4, [sp, #4]
 359 0018 0293     		str	r3, [sp, #8]
 360 001a FFF7FEFF 		bl	TWID_Read
 361              	.LVL15:
 362 001e 08B9     		cbnz	r0, .L8
 363              		.loc 1 78 0 is_stmt 0 discriminator 1
 364 0020 9DF81760 		ldrb	r6, [sp, #23]	@ zero_extendqisi2
 365              	.LVL16:
 366              	.L8:
 367              	.LBB19:
 368              		.loc 1 79 0 is_stmt 1
 369 0024 0023     		movs	r3, #0
 370              	@ 79 "i2c.cpp" 1
 371 0026 83F31188 		msr     BASEPRI, r3
 372              	@ 0 "" 2
 373              		.thumb
 374              	.LBE19:
 375              	.LBE20:
 376              		.loc 1 81 0
 377 002a 3046     		mov	r0, r6
 378 002c 06B0     		add	sp, sp, #24
 379              		@ sp needed
 380 002e 70BD     		pop	{r4, r5, r6, pc}
 381              		.cfi_endproc
 382              	.LFE11:
 383              		.fnend
 384              		.size	_ZN7creator3I2C8ReadByteEh, .-_ZN7creator3I2C8ReadByteEh
 385              		.section	.text._ZN7creator3I2C9ReadBytesEhhPhh,"ax",%progbits
 386              		.align	2
 387              		.p2align 4,,15
 388              		.global	_ZN7creator3I2C9ReadBytesEhhPhh
 389              		.thumb
 390              		.thumb_func
 391              		.type	_ZN7creator3I2C9ReadBytesEhhPhh, %function
 392              	_ZN7creator3I2C9ReadBytesEhhPhh:
 393              		.fnstart
 394              	.LFB12:
 395              		.loc 1 84 0
 396              		.cfi_startproc
 397              		@ args = 4, pretend = 0, frame = 0
 398              		@ frame_needed = 0, uses_anonymous_args = 0
ARM GAS  /tmp/ccCtgIAB.s 			page 8


 399              	.LVL17:
 400 0000 70B5     		push	{r4, r5, r6, lr}
 401              		.save {r4, r5, r6, lr}
 402              		.cfi_def_cfa_offset 16
 403              		.cfi_offset 4, -16
 404              		.cfi_offset 5, -12
 405              		.cfi_offset 6, -8
 406              		.cfi_offset 14, -4
 407              		.pad #16
 408 0002 84B0     		sub	sp, sp, #16
 409              		.cfi_def_cfa_offset 32
 410              		.loc 1 84 0
 411 0004 1E46     		mov	r6, r3
 412 0006 9DF82040 		ldrb	r4, [sp, #32]	@ zero_extendqisi2
 413              	.LBB21:
 414              	.LBB22:
 415              		.loc 1 85 0
 416 000a 2023     		movs	r3, #32
 417              	.LVL18:
 418              	@ 85 "i2c.cpp" 1
 419 000c 83F31188 		msr     BASEPRI, r3
 420              	@ 0 "" 2
 421              	.LVL19:
 422              		.thumb
 423              	.LBE22:
 424              		.loc 1 88 0
 425 0010 0025     		movs	r5, #0
 426 0012 0194     		str	r4, [sp, #4]
 427 0014 0096     		str	r6, [sp]
 428 0016 0295     		str	r5, [sp, #8]
 429 0018 0123     		movs	r3, #1
 430 001a FFF7FEFF 		bl	TWID_Read
 431              	.LVL20:
 432              	.LBB23:
 433              		.loc 1 91 0
 434 001e 2B46     		mov	r3, r5
 435              	.LBE23:
 436              		.loc 1 86 0
 437 0020 A842     		cmp	r0, r5
 438 0022 18BF     		it	ne
 439 0024 2C46     		movne	r4, r5
 440              	.LVL21:
 441              	.LBB24:
 442              		.loc 1 91 0
 443              	@ 91 "i2c.cpp" 1
 444 0026 83F31188 		msr     BASEPRI, r3
 445              	@ 0 "" 2
 446              		.thumb
 447              	.LBE24:
 448              	.LBE21:
 449              		.loc 1 93 0
 450 002a 2046     		mov	r0, r4
 451 002c 04B0     		add	sp, sp, #16
 452              		@ sp needed
 453 002e 70BD     		pop	{r4, r5, r6, pc}
 454              		.cfi_endproc
 455              	.LFE12:
ARM GAS  /tmp/ccCtgIAB.s 			page 9


 456              		.fnend
 457              		.size	_ZN7creator3I2C9ReadBytesEhhPhh, .-_ZN7creator3I2C9ReadBytesEhhPhh
 458              		.section	.rodata._ZN7creatorL4pinsE,"a",%progbits
 459              		.align	2
 460              		.set	.LANCHOR0,. + 0
 461              		.type	_ZN7creatorL4pinsE, %object
 462              		.size	_ZN7creatorL4pinsE, 24
 463              	_ZN7creatorL4pinsE:
 464 0000 08000000 		.word	8
 465 0004 000E0E40 		.word	1074662912
 466 0008 0B       		.byte	11
 467 0009 00       		.byte	0
 468 000a 00       		.byte	0
 469 000b 00       		.space	1
 470 000c 10000000 		.word	16
 471 0010 000E0E40 		.word	1074662912
 472 0014 0B       		.byte	11
 473 0015 00       		.byte	0
 474 0016 00       		.byte	0
 475 0017 00       		.space	1
 476              		.text
 477              	.Letext0:
 478              		.file 2 "/home/santi/arm-2013.11/arm-none-eabi/include/stdint.h"
 479              		.file 3 "../third_party/ChibiOS/os/hal/platforms/AT91SAM3S/at91lib/SAM3S.h"
 480              		.file 4 "../third_party/ChibiOS/os/hal/platforms/AT91SAM3S/pio.h"
 481              		.file 5 "../third_party/ChibiOS/os/hal/platforms/AT91SAM3S/async.h"
 482              		.file 6 "../third_party/ChibiOS/os/hal/platforms/AT91SAM3S/atmel_twid.h"
 483              		.file 7 "./i2c.h"
 484              		.file 8 "../third_party/ChibiOS/os/hal/platforms/AT91SAM3S/atmel_twi.h"