ARM GAS  /tmp/ccCtgIAB.s 			page 1


   1              		.syntax unified
   2              		.cpu cortex-m3
   3              		.fpu softvfp
   4              		.eabi_attribute 20, 1
   5              		.eabi_attribute 21, 1
   6              		.eabi_attribute 23, 3
   7              		.eabi_attribute 24, 1
   8              		.eabi_attribute 25, 1
   9              		.eabi_attribute 26, 1
  10              		.eabi_attribute 30, 2
  11              		.eabi_attribute 34, 1
  12              		.eabi_attribute 18, 4
  13              		.thumb
  14              		.file	"i2c.cpp"
  15              		.text
  16              	.Ltext0:
  17              		.cfi_sections	.debug_frame
  18              		.section	.text._ZN7creator3I2C4InitEv,"ax",%progbits
  19              		.align	2
  20              		.p2align 4,,15
  21              		.global	_ZN7creator3I2C4InitEv
  22              		.thumb
  23              		.thumb_func
  24              		.type	_ZN7creator3I2C4InitEv, %function
  25              	_ZN7creator3I2C4InitEv:
  26              		.fnstart
  27              	.LFB7:
  28              		.file 1 "i2c.cpp"
  29              		.loc 1 35 0
  30              		.cfi_startproc
  31              		@ args = 0, pretend = 0, frame = 0
  32              		@ frame_needed = 0, uses_anonymous_args = 0
  33              	.LVL0:
  34 0000 F8B5     		push	{r3, r4, r5, r6, r7, lr}
  35              		.save {r3, r4, r5, r6, r7, lr}
  36              		.cfi_def_cfa_offset 24
  37              		.cfi_offset 3, -24
  38              		.cfi_offset 4, -20
  39              		.cfi_offset 5, -16
  40              		.cfi_offset 6, -12
  41              		.cfi_offset 7, -8
  42              		.cfi_offset 14, -4
  43              		.loc 1 35 0
  44 0002 0746     		mov	r7, r0
  45              	.LBB2:
  46              	.LBB3:
  47              		.loc 1 37 0
  48 0004 2023     		movs	r3, #32
  49              	@ 37 "i2c.cpp" 1
  50 0006 83F31188 		msr     BASEPRI, r3
  51              	@ 0 "" 2
  52              		.thumb
  53              	.LBE3:
  54              		.loc 1 38 0
  55 000a 40F20000 		movw	r0, #:lower16:.LANCHOR0
  56              	.LVL1:
  57 000e 0221     		movs	r1, #2
ARM GAS  /tmp/ccCtgIAB.s 			page 2


  58 0010 C0F20000 		movt	r0, #:upper16:.LANCHOR0
  59 0014 FFF7FEFF 		bl	PIO_Configure
  60              	.LVL2:
  61              		.loc 1 42 0
  62 0018 4FF40044 		mov	r4, #32768
  63              		.loc 1 39 0
  64 001c 4FF48063 		mov	r3, #1024
  65 0020 4FF48646 		mov	r6, #17152
  66              		.loc 1 41 0
  67 0024 44F20135 		movw	r5, #17153
  68              		.loc 1 39 0
  69 0028 C4F20E03 		movt	r3, 16398
  70              		.loc 1 40 0
  71 002c 4FF4002E 		mov	lr, #524288
  72              		.loc 1 42 0
  73 0030 C4F20104 		movt	r4, 16385
  74              		.loc 1 39 0
  75 0034 C5F24D06 		movt	r6, 20557
  76              		.loc 1 41 0
  77 0038 C5F24D05 		movt	r5, 20557
  78              		.loc 1 42 0
  79 003c 4FF4D451 		mov	r1, #6784
  80 0040 4FF41042 		mov	r2, #36864
  81              		.loc 1 39 0
  82 0044 C3F8E460 		str	r6, [r3, #228]
  83              		.loc 1 42 0
  84 0048 2046     		mov	r0, r4
  85              		.loc 1 40 0
  86 004a C3F810E0 		str	lr, [r3, #16]
  87              		.loc 1 42 0
  88 004e C0F2D032 		movt	r2, 976
  89              		.loc 1 41 0
  90 0052 C3F8E450 		str	r5, [r3, #228]
  91              		.loc 1 42 0
  92 0056 C0F20601 		movt	r1, 6
  93 005a FFF7FEFF 		bl	TWI_ConfigureMaster
  94              	.LVL3:
  95              		.loc 1 43 0
  96 005e 3846     		mov	r0, r7
  97 0060 2146     		mov	r1, r4
  98 0062 FFF7FEFF 		bl	TWID_Initialize
  99              	.LVL4:
 100              	.LBB4:
 101              		.loc 1 44 0
 102 0066 0023     		movs	r3, #0
 103              	@ 44 "i2c.cpp" 1
 104 0068 83F31188 		msr     BASEPRI, r3
 105              	@ 0 "" 2
 106              		.thumb
 107 006c F8BD     		pop	{r3, r4, r5, r6, r7, pc}
 108              	.LBE4:
 109              	.LBE2:
 110              		.cfi_endproc
 111              	.LFE7:
 112              		.fnend
 113              		.size	_ZN7creator3I2C4InitEv, .-_ZN7creator3I2C4InitEv
 114 006e 00BF     		.section	.text._ZN7creator3I2C9WriteByteEhhh,"ax",%progbits
ARM GAS  /tmp/ccCtgIAB.s 			page 3


 115              		.align	2
 116              		.p2align 4,,15
 117              		.global	_ZN7creator3I2C9WriteByteEhhh
 118              		.thumb
 119              		.thumb_func
 120              		.type	_ZN7creator3I2C9WriteByteEhhh, %function
 121              	_ZN7creator3I2C9WriteByteEhhh:
 122              		.fnstart
 123              	.LFB8:
 124              		.loc 1 47 0
 125              		.cfi_startproc
 126              		@ args = 0, pretend = 0, frame = 8
 127              		@ frame_needed = 0, uses_anonymous_args = 0
 128              	.LVL5:
 129 0000 30B5     		push	{r4, r5, lr}
 130              		.save {r4, r5, lr}
 131              		.cfi_def_cfa_offset 12
 132              		.cfi_offset 4, -12
 133              		.cfi_offset 5, -8
 134              		.cfi_offset 14, -4
 135              		.pad #28
 136 0002 87B0     		sub	sp, sp, #28
 137              		.cfi_def_cfa_offset 40
 138              		.loc 1 47 0
 139 0004 06AC     		add	r4, sp, #24
 140 0006 04F8013D 		strb	r3, [r4, #-1]!
 141              	.LBB5:
 142              	.LBB6:
 143              		.loc 1 49 0
 144 000a 2023     		movs	r3, #32
 145              	.LVL6:
 146              	@ 49 "i2c.cpp" 1
 147 000c 83F31188 		msr     BASEPRI, r3
 148              	@ 0 "" 2
 149              		.thumb
 150              	.LBE6:
 151              		.loc 1 50 0
 152 0010 0123     		movs	r3, #1
 153 0012 0025     		movs	r5, #0
 154 0014 0193     		str	r3, [sp, #4]
 155 0016 0094     		str	r4, [sp]
 156 0018 0295     		str	r5, [sp, #8]
 157 001a FFF7FEFF 		bl	TWID_Write
 158              	.LVL7:
 159              	.LBB7:
 160              		.loc 1 51 0
 161 001e 2B46     		mov	r3, r5
 162              	@ 51 "i2c.cpp" 1
 163 0020 83F31188 		msr     BASEPRI, r3
 164              	@ 0 "" 2
 165              		.thumb
 166              	.LBE7:
 167              	.LBE5:
 168              		.loc 1 52 0
 169 0024 07B0     		add	sp, sp, #28
 170              		@ sp needed
 171 0026 30BD     		pop	{r4, r5, pc}
ARM GAS  /tmp/ccCtgIAB.s 			page 4


 172              		.cfi_endproc
 173              	.LFE8:
 174              		.fnend
 175              		.size	_ZN7creator3I2C9WriteByteEhhh, .-_ZN7creator3I2C9WriteByteEhhh
 176 0028 AFF30080 		.section	.text._ZN7creator3I2C9WriteByteEhh,"ax",%progbits
 176      AFF30080 
 177              		.align	2
 178              		.p2align 4,,15
 179              		.global	_ZN7creator3I2C9WriteByteEhh
 180              		.thumb
 181              		.thumb_func
 182              		.type	_ZN7creator3I2C9WriteByteEhh, %function
 183              	_ZN7creator3I2C9WriteByteEhh:
 184              		.fnstart
 185              	.LFB9:
 186              		.loc 1 54 0
 187              		.cfi_startproc
 188              		@ args = 0, pretend = 0, frame = 8
 189              		@ frame_needed = 0, uses_anonymous_args = 0
 190              	.LVL8:
 191 0000 30B5     		push	{r4, r5, lr}
 192              		.save {r4, r5, lr}
 193              		.cfi_def_cfa_offset 12
 194              		.cfi_offset 4, -12
 195              		.cfi_offset 5, -8
 196              		.cfi_offset 14, -4
 197              		.pad #28
 198 0002 87B0     		sub	sp, sp, #28
 199              		.cfi_def_cfa_offset 40
 200              		.loc 1 54 0
 201 0004 06AD     		add	r5, sp, #24
 202 0006 05F8012D 		strb	r2, [r5, #-1]!
 203              	.LBB8:
 204              	.LBB9:
 205              		.loc 1 56 0
 206 000a 2023     		movs	r3, #32
 207              	@ 56 "i2c.cpp" 1
 208 000c 83F31188 		msr     BASEPRI, r3
 209              	@ 0 "" 2
 210              		.thumb
 211              	.LBE9:
 212              		.loc 1 57 0
 213 0010 0024     		movs	r4, #0
 214 0012 0123     		movs	r3, #1
 215 0014 0193     		str	r3, [sp, #4]
 216 0016 0095     		str	r5, [sp]
 217 0018 2346     		mov	r3, r4
 218 001a 0294     		str	r4, [sp, #8]
 219 001c 2246     		mov	r2, r4
 220              	.LVL9:
 221 001e FFF7FEFF 		bl	TWID_Write
 222              	.LVL10:
 223              	.LBB10:
 224              		.loc 1 58 0
 225 0022 2346     		mov	r3, r4
 226              	@ 58 "i2c.cpp" 1
 227 0024 83F31188 		msr     BASEPRI, r3
ARM GAS  /tmp/ccCtgIAB.s 			page 5


 228              	@ 0 "" 2
 229              		.thumb
 230              	.LBE10:
 231              	.LBE8:
 232              		.loc 1 59 0
 233 0028 07B0     		add	sp, sp, #28
 234              		@ sp needed
 235 002a 30BD     		pop	{r4, r5, pc}
 236              		.cfi_endproc
 237              	.LFE9:
 238              		.fnend
 239              		.size	_ZN7creator3I2C9WriteByteEhh, .-_ZN7creator3I2C9WriteByteEhh
 240 002c AFF30080 		.section	.text._ZN7creator3I2C8ReadByteEhh,"ax",%progbits
 241              		.align	2
 242              		.p2align 4,,15
 243              		.global	_ZN7creator3I2C8ReadByteEhh
 244              		.thumb
 245              		.thumb_func
 246              		.type	_ZN7creator3I2C8ReadByteEhh, %function
 247              	_ZN7creator3I2C8ReadByteEhh:
 248              		.fnstart
 249              	.LFB10:
 250              		.loc 1 61 0
 251              		.cfi_startproc
 252              		@ args = 0, pretend = 0, frame = 8
 253              		@ frame_needed = 0, uses_anonymous_args = 0
 254              	.LVL11:
 255 0000 70B5     		push	{r4, r5, r6, lr}
 256              		.save {r4, r5, r6, lr}
 257              		.cfi_def_cfa_offset 16
 258              		.cfi_offset 4, -16
 259              		.cfi_offset 5, -12
 260              		.cfi_offset 6, -8
 261              		.cfi_offset 14, -4
 262              	.LBB11:
 263              	.LBB12:
 264              		.loc 1 63 0
 265 0002 2023     		movs	r3, #32
 266              	.LBE12:
 267              	.LBE11:
 268              		.loc 1 61 0
 269              		.pad #24
 270 0004 86B0     		sub	sp, sp, #24
 271              		.cfi_def_cfa_offset 40
 272              	.LBB15:
 273              	.LBB13:
 274              		.loc 1 63 0
 275              	@ 63 "i2c.cpp" 1
 276 0006 83F31188 		msr     BASEPRI, r3
 277              	@ 0 "" 2
 278              		.thumb
 279              	.LBE13:
 280              		.loc 1 67 0
 281 000a 0024     		movs	r4, #0
 282 000c 0DF11705 		add	r5, sp, #23
 283 0010 0123     		movs	r3, #1
 284 0012 0095     		str	r5, [sp]
ARM GAS  /tmp/ccCtgIAB.s 			page 6


 285 0014 0294     		str	r4, [sp, #8]
 286 0016 0193     		str	r3, [sp, #4]
 287 0018 FFF7FEFF 		bl	TWID_Read
 288              	.LVL12:
 289 001c 08B9     		cbnz	r0, .L5
 290              		.loc 1 67 0 is_stmt 0 discriminator 1
 291 001e 9DF81760 		ldrb	r6, [sp, #23]	@ zero_extendqisi2
 292              	.LVL13:
 293              	.L5:
 294              	.LBB14:
 295              		.loc 1 68 0 is_stmt 1
 296 0022 0023     		movs	r3, #0
 297              	@ 68 "i2c.cpp" 1
 298 0024 83F31188 		msr     BASEPRI, r3
 299              	@ 0 "" 2
 300              		.thumb
 301              	.LBE14:
 302              	.LBE15:
 303              		.loc 1 70 0
 304 0028 3046     		mov	r0, r6
 305 002a 06B0     		add	sp, sp, #24
 306              		@ sp needed
 307 002c 70BD     		pop	{r4, r5, r6, pc}
 308              		.cfi_endproc
 309              	.LFE10:
 310              		.fnend
 311              		.size	_ZN7creator3I2C8ReadByteEhh, .-_ZN7creator3I2C8ReadByteEhh
 312 002e 00BF     		.section	.text._ZN7creator3I2C8ReadByteEh,"ax",%progbits
 313              		.align	2
 314              		.p2align 4,,15
 315              		.global	_ZN7creator3I2C8ReadByteEh
 316              		.thumb
 317              		.thumb_func
 318              		.type	_ZN7creator3I2C8ReadByteEh, %function
 319              	_ZN7creator3I2C8ReadByteEh:
 320              		.fnstart
 321              	.LFB11:
 322              		.loc 1 72 0
 323              		.cfi_startproc
 324              		@ args = 0, pretend = 0, frame = 8
 325              		@ frame_needed = 0, uses_anonymous_args = 0
 326              	.LVL14:
 327 0000 70B5     		push	{r4, r5, r6, lr}
 328              		.save {r4, r5, r6, lr}
 329              		.cfi_def_cfa_offset 16
 330              		.cfi_offset 4, -16
 331              		.cfi_offset 5, -12
 332              		.cfi_offset 6, -8
 333              		.cfi_offset 14, -4
 334              	.LBB16:
 335              	.LBB17:
 336              		.loc 1 74 0
 337 0002 2023     		movs	r3, #32
 338              	.LBE17:
 339              	.LBE16:
 340              		.loc 1 72 0
 341              		.pad #24
ARM GAS  /tmp/ccCtgIAB.s 			page 7


 342 0004 86B0     		sub	sp, sp, #24
 343              		.cfi_def_cfa_offset 40
 344              	.LBB20:
 345              	.LBB18:
 346              		.loc 1 74 0
 347              	@ 74 "i2c.cpp" 1
 348 0006 83F31188 		msr     BASEPRI, r3
 349              	@ 0 "" 2
 350              		.thumb
 351              	.LBE18:
 352              		.loc 1 78 0
 353 000a 0023     		movs	r3, #0
 354 000c 0DF11705 		add	r5, sp, #23
 355 0010 0124     		movs	r4, #1
 356 0012 1A46     		mov	r2, r3
 357 0014 0095     		str	r5, [sp]
 358 0016 0194     		str	r4, [sp, #4]
 359 0018 0293     		str	r3, [sp, #8]
 360 001a FFF7FEFF 		bl	TWID_Read
 361              	.LVL15:
 362 001e 08B9     		cbnz	r0, .L8
 363              		.loc 1 78 0 is_stmt 0 discriminator 1
 364 0020 9DF81760 		ldrb	r6, [sp, #23]	@ zero_extendqisi2
 365              	.LVL16:
 366              	.L8:
 367              	.LBB19:
 368              		.loc 1 79 0 is_stmt 1
 369 0024 0023     		movs	r3, #0
 370              	@ 79 "i2c.cpp" 1
 371 0026 83F31188 		msr     BASEPRI, r3
 372              	@ 0 "" 2
 373              		.thumb
 374              	.LBE19:
 375              	.LBE20:
 376              		.loc 1 81 0
 377 002a 3046     		mov	r0, r6
 378 002c 06B0     		add	sp, sp, #24
 379              		@ sp needed
 380 002e 70BD     		pop	{r4, r5, r6, pc}
 381              		.cfi_endproc
 382              	.LFE11:
 383              		.fnend
 384              		.size	_ZN7creator3I2C8ReadByteEh, .-_ZN7creator3I2C8ReadByteEh
 385              		.section	.text._ZN7creator3I2C9ReadBytesEhhPhh,"ax",%progbits
 386              		.align	2
 387              		.p2align 4,,15
 388              		.global	_ZN7creator3I2C9ReadBytesEhhPhh
 389              		.thumb
 390              		.thumb_func
 391              		.type	_ZN7creator3I2C9ReadBytesEhhPhh, %function
 392              	_ZN7creator3I2C9ReadBytesEhhPhh:
 393              		.fnstart
 394              	.LFB12:
 395              		.loc 1 84 0
 396              		.cfi_startproc
 397              		@ args = 4, pretend = 0, frame = 0
 398              		@ frame_needed = 0, uses_anonymous_args = 0
ARM GAS  /tmp/ccCtgIAB.s 			page 8


 399              	.LVL17:
 400 0000 70B5     		push	{r4, r5, r6, lr}
 401              		.save {r4, r5, r6, lr}
 402              		.cfi_def_cfa_offset 16
 403              		.cfi_offset 4, -16
 404              		.cfi_offset 5, -12
 405              		.cfi_offset 6, -8
 406              		.cfi_offset 14, -4
 407              		.pad #16
 408 0002 84B0     		sub	sp, sp, #16
 409              		.cfi_def_cfa_offset 32
 410              		.loc 1 84 0
 411 0004 1E46     		mov	r6, r3
 412 0006 9DF82040 		ldrb	r4, [sp, #32]	@ zero_extendqisi2
 413              	.LBB21:
 414              	.LBB22:
 415              		.loc 1 85 0
 416 000a 2023     		movs	r3, #32
 417              	.LVL18:
 418              	@ 85 "i2c.cpp" 1
 419 000c 83F31188 		msr     BASEPRI, r3
 420              	@ 0 "" 2
 421              	.LVL19:
 422              		.thumb
 423              	.LBE22:
 424              		.loc 1 88 0
 425 0010 0025     		movs	r5, #0
 426 0012 0194     		str	r4, [sp, #4]
 427 0014 0096     		str	r6, [sp]
 428 0016 0295     		str	r5, [sp, #8]
 429 0018 0123     		movs	r3, #1
 430 001a FFF7FEFF 		bl	TWID_Read
 431              	.LVL20:
 432              	.LBB23:
 433              		.loc 1 91 0
 434 001e 2B46     		mov	r3, r5
 435              	.LBE23:
 436              		.loc 1 86 0
 437 0020 A842     		cmp	r0, r5
 438 0022 18BF     		it	ne
 439 0024 2C46     		movne	r4, r5
 440              	.LVL21:
 441              	.LBB24:
 442              		.loc 1 91 0
 443              	@ 91 "i2c.cpp" 1
 444 0026 83F31188 		msr     BASEPRI, r3
 445              	@ 0 "" 2
 446              		.thumb
 447              	.LBE24:
 448              	.LBE21:
 449              		.loc 1 93 0
 450 002a 2046     		mov	r0, r4
 451 002c 04B0     		add	sp, sp, #16
 452              		@ sp needed
 453 002e 70BD     		pop	{r4, r5, r6, pc}
 454              		.cfi_endproc
 455              	.LFE12:
ARM GAS  /tmp/ccCtgIAB.s 			page 9


 456              		.fnend
 457              		.size	_ZN7creator3I2C9ReadBytesEhhPhh, .-_ZN7creator3I2C9ReadBytesEhhPhh
 458              		.section	.rodata._ZN7creatorL4pinsE,"a",%progbits
 459              		.align	2
 460              		.set	.LANCHOR0,. + 0
 461              		.type	_ZN7creatorL4pinsE, %object
 462              		.size	_ZN7creatorL4pinsE, 24
 463              	_ZN7creatorL4pinsE:
 464 0000 08000000 		.word	8
 465 0004 000E0E40 		.word	1074662912
 466 0008 0B       		.byte	11
 467 0009 00       		.byte	0
 468 000a 00       		.byte	0
 469 000b 00       		.space	1
 470 000c 10000000 		.word	16
 471 0010 000E0E40 		.word	1074662912
 472 0014 0B       		.byte	11
 473 0015 00       		.byte	0
 474 0016 00       		.byte	0
 475 0017 00       		.space	1
 476              		.text
 477              	.Letext0:
 478              		.file 2 "/home/santi/arm-2013.11/arm-none-eabi/include/stdint.h"
 479              		.file 3 "../third_party/ChibiOS/os/hal/platforms/AT91SAM3S/at91lib/SAM3S.h"
 480              		.file 4 "../third_party/ChibiOS/os/hal/platforms/AT91SAM3S/pio.h"
 481              		.file 5 "../third_party/ChibiOS/os/hal/platforms/AT91SAM3S/async.h"
 482              		.file 6 "../third_party/ChibiOS/os/hal/platforms/AT91SAM3S/atmel_twid.h"
 483              		.file 7 "./i2c.h"
 484              		.file 8 "../third_party/ChibiOS/os/hal/platforms/AT91SAM3S/atmel_twi.h"
 485              		.section	.debug_info,"",%progbits
 486              	.Ldebug_info0:
 487 0000 27100000 		.4byte	0x1027
 488 0004 0400     		.2byte	0x4
 489 0006 00000000 		.4byte	.Ldebug_abbrev0
 490 000a 04       		.byte	0x4
 491 000b 01       		.uleb128 0x1
 492 000c 16050000 		.4byte	.LASF177
 493 0010 04       		.byte	0x4
 494 0011 D4050000 		.4byte	.LASF178
 495 0015 DE030000 		.4byte	.LASF179
 496 0019 78000000 		.4byte	.Ldebug_ranges0+0x78
 497 001d 00000000 		.4byte	0
 498 0021 00000000 		.4byte	.Ldebug_line0
 499 0025 02       		.uleb128 0x2
 500 0026 01       		.byte	0x1
 501 0027 06       		.byte	0x6
 502 0028 03010000 		.4byte	.LASF0
 503 002c 03       		.uleb128 0x3
 504 002d 20070000 		.4byte	.LASF5
 505 0031 02       		.byte	0x2
 506 0032 2A       		.byte	0x2a
 507 0033 37000000 		.4byte	0x37
 508 0037 02       		.uleb128 0x2
 509 0038 01       		.byte	0x1
 510 0039 08       		.byte	0x8
 511 003a B0040000 		.4byte	.LASF1
 512 003e 02       		.uleb128 0x2
ARM GAS  /tmp/ccCtgIAB.s 			page 10


 513 003f 02       		.byte	0x2
 514 0040 05       		.byte	0x5
 515 0041 CF040000 		.4byte	.LASF2
 516 0045 02       		.uleb128 0x2
 517 0046 02       		.byte	0x2
 518 0047 07       		.byte	0x7
 519 0048 05030000 		.4byte	.LASF3
 520 004c 02       		.uleb128 0x2
 521 004d 04       		.byte	0x4
 522 004e 05       		.byte	0x5
 523 004f B3010000 		.4byte	.LASF4
 524 0053 03       		.uleb128 0x3
 525 0054 CA060000 		.4byte	.LASF6
 526 0058 02       		.byte	0x2
 527 0059 50       		.byte	0x50
 528 005a 5E000000 		.4byte	0x5e
 529 005e 02       		.uleb128 0x2
 530 005f 04       		.byte	0x4
 531 0060 07       		.byte	0x7
 532 0061 B7020000 		.4byte	.LASF7
 533 0065 02       		.uleb128 0x2
 534 0066 08       		.byte	0x8
 535 0067 05       		.byte	0x5
 536 0068 F5000000 		.4byte	.LASF8
 537 006c 02       		.uleb128 0x2
 538 006d 08       		.byte	0x8
 539 006e 07       		.byte	0x7
 540 006f 76000000 		.4byte	.LASF9
 541 0073 04       		.uleb128 0x4
 542 0074 04       		.byte	0x4
 543 0075 05       		.byte	0x5
 544 0076 696E7400 		.ascii	"int\000"
 545 007a 02       		.uleb128 0x2
 546 007b 04       		.byte	0x4
 547 007c 07       		.byte	0x7
 548 007d 73020000 		.4byte	.LASF10
 549 0081 03       		.uleb128 0x3
 550 0082 94070000 		.4byte	.LASF11
 551 0086 03       		.byte	0x3
 552 0087 37       		.byte	0x37
 553 0088 8C000000 		.4byte	0x8c
 554 008c 05       		.uleb128 0x5
 555 008d 53000000 		.4byte	0x53
 556 0091 03       		.uleb128 0x3
 557 0092 20040000 		.4byte	.LASF12
 558 0096 03       		.byte	0x3
 559 0097 39       		.byte	0x39
 560 0098 8C000000 		.4byte	0x8c
 561 009c 03       		.uleb128 0x3
 562 009d 77060000 		.4byte	.LASF13
 563 00a1 03       		.byte	0x3
 564 00a2 3A       		.byte	0x3a
 565 00a3 8C000000 		.4byte	0x8c
 566 00a7 02       		.uleb128 0x2
 567 00a8 04       		.byte	0x4
 568 00a9 07       		.byte	0x7
 569 00aa A4030000 		.4byte	.LASF14
ARM GAS  /tmp/ccCtgIAB.s 			page 11


 570 00ae 06       		.uleb128 0x6
 571 00af 5E000000 		.4byte	0x5e
 572 00b3 BE000000 		.4byte	0xbe
 573 00b7 07       		.uleb128 0x7
 574 00b8 A7000000 		.4byte	0xa7
 575 00bc 12       		.byte	0x12
 576 00bd 00       		.byte	0
 577 00be 06       		.uleb128 0x6
 578 00bf 5E000000 		.4byte	0x5e
 579 00c3 CE000000 		.4byte	0xce
 580 00c7 07       		.uleb128 0x7
 581 00c8 A7000000 		.4byte	0xa7
 582 00cc 00       		.byte	0
 583 00cd 00       		.byte	0
 584 00ce 06       		.uleb128 0x6
 585 00cf 5E000000 		.4byte	0x5e
 586 00d3 DE000000 		.4byte	0xde
 587 00d7 07       		.uleb128 0x7
 588 00d8 A7000000 		.4byte	0xa7
 589 00dc 01       		.byte	0x1
 590 00dd 00       		.byte	0
 591 00de 06       		.uleb128 0x6
 592 00df 5E000000 		.4byte	0x5e
 593 00e3 EE000000 		.4byte	0xee
 594 00e7 07       		.uleb128 0x7
 595 00e8 A7000000 		.4byte	0xa7
 596 00ec 04       		.byte	0x4
 597 00ed 00       		.byte	0
 598 00ee 06       		.uleb128 0x6
 599 00ef 5E000000 		.4byte	0x5e
 600 00f3 FE000000 		.4byte	0xfe
 601 00f7 07       		.uleb128 0x7
 602 00f8 A7000000 		.4byte	0xa7
 603 00fc 03       		.byte	0x3
 604 00fd 00       		.byte	0
 605 00fe 08       		.uleb128 0x8
 606 00ff 9001     		.2byte	0x190
 607 0101 03       		.byte	0x3
 608 0102 DA06     		.2byte	0x6da
 609 0104 61030000 		.4byte	.LASF91
 610 0108 FB040000 		.4byte	0x4fb
 611 010c 09       		.uleb128 0x9
 612 010d 64020000 		.4byte	.LASF15
 613 0111 03       		.byte	0x3
 614 0112 DB06     		.2byte	0x6db
 615 0114 91000000 		.4byte	0x91
 616 0118 00       		.byte	0
 617 0119 09       		.uleb128 0x9
 618 011a AB010000 		.4byte	.LASF16
 619 011e 03       		.byte	0x3
 620 011f DC06     		.2byte	0x6dc
 621 0121 91000000 		.4byte	0x91
 622 0125 04       		.byte	0x4
 623 0126 09       		.uleb128 0x9
 624 0127 45010000 		.4byte	.LASF17
 625 012b 03       		.byte	0x3
 626 012c DD06     		.2byte	0x6dd
ARM GAS  /tmp/ccCtgIAB.s 			page 12


 627 012e 81000000 		.4byte	0x81
 628 0132 08       		.byte	0x8
 629 0133 09       		.uleb128 0x9
 630 0134 4D010000 		.4byte	.LASF18
 631 0138 03       		.byte	0x3
 632 0139 DE06     		.2byte	0x6de
 633 013b FB040000 		.4byte	0x4fb
 634 013f 0C       		.byte	0xc
 635 0140 09       		.uleb128 0x9
 636 0141 4B040000 		.4byte	.LASF19
 637 0145 03       		.byte	0x3
 638 0146 DF06     		.2byte	0x6df
 639 0148 91000000 		.4byte	0x91
 640 014c 10       		.byte	0x10
 641 014d 09       		.uleb128 0x9
 642 014e DB020000 		.4byte	.LASF20
 643 0152 03       		.byte	0x3
 644 0153 E006     		.2byte	0x6e0
 645 0155 91000000 		.4byte	0x91
 646 0159 14       		.byte	0x14
 647 015a 09       		.uleb128 0x9
 648 015b A6020000 		.4byte	.LASF21
 649 015f 03       		.byte	0x3
 650 0160 E106     		.2byte	0x6e1
 651 0162 81000000 		.4byte	0x81
 652 0166 18       		.byte	0x18
 653 0167 09       		.uleb128 0x9
 654 0168 57010000 		.4byte	.LASF22
 655 016c 03       		.byte	0x3
 656 016d E206     		.2byte	0x6e2
 657 016f 00050000 		.4byte	0x500
 658 0173 1C       		.byte	0x1c
 659 0174 09       		.uleb128 0x9
 660 0175 91060000 		.4byte	.LASF23
 661 0179 03       		.byte	0x3
 662 017a E306     		.2byte	0x6e3
 663 017c 91000000 		.4byte	0x91
 664 0180 20       		.byte	0x20
 665 0181 09       		.uleb128 0x9
 666 0182 EA040000 		.4byte	.LASF24
 667 0186 03       		.byte	0x3
 668 0187 E406     		.2byte	0x6e4
 669 0189 91000000 		.4byte	0x91
 670 018d 24       		.byte	0x24
 671 018e 09       		.uleb128 0x9
 672 018f BE040000 		.4byte	.LASF25
 673 0193 03       		.byte	0x3
 674 0194 E506     		.2byte	0x6e5
 675 0196 81000000 		.4byte	0x81
 676 019a 28       		.byte	0x28
 677 019b 09       		.uleb128 0x9
 678 019c E3020000 		.4byte	.LASF26
 679 01a0 03       		.byte	0x3
 680 01a1 E606     		.2byte	0x6e6
 681 01a3 05050000 		.4byte	0x505
 682 01a7 2C       		.byte	0x2c
 683 01a8 09       		.uleb128 0x9
ARM GAS  /tmp/ccCtgIAB.s 			page 13


 684 01a9 8B070000 		.4byte	.LASF27
 685 01ad 03       		.byte	0x3
 686 01ae E706     		.2byte	0x6e7
 687 01b0 91000000 		.4byte	0x91
 688 01b4 30       		.byte	0x30
 689 01b5 09       		.uleb128 0x9
 690 01b6 F3040000 		.4byte	.LASF28
 691 01ba 03       		.byte	0x3
 692 01bb E806     		.2byte	0x6e8
 693 01bd 91000000 		.4byte	0x91
 694 01c1 34       		.byte	0x34
 695 01c2 09       		.uleb128 0x9
 696 01c3 D2020000 		.4byte	.LASF29
 697 01c7 03       		.byte	0x3
 698 01c8 E906     		.2byte	0x6e9
 699 01ca 9C000000 		.4byte	0x9c
 700 01ce 38       		.byte	0x38
 701 01cf 09       		.uleb128 0x9
 702 01d0 06020000 		.4byte	.LASF30
 703 01d4 03       		.byte	0x3
 704 01d5 EA06     		.2byte	0x6ea
 705 01d7 81000000 		.4byte	0x81
 706 01db 3C       		.byte	0x3c
 707 01dc 09       		.uleb128 0x9
 708 01dd 35040000 		.4byte	.LASF31
 709 01e1 03       		.byte	0x3
 710 01e2 EB06     		.2byte	0x6eb
 711 01e4 91000000 		.4byte	0x91
 712 01e8 40       		.byte	0x40
 713 01e9 09       		.uleb128 0x9
 714 01ea 74030000 		.4byte	.LASF32
 715 01ee 03       		.byte	0x3
 716 01ef EC06     		.2byte	0x6ec
 717 01f1 91000000 		.4byte	0x91
 718 01f5 44       		.byte	0x44
 719 01f6 09       		.uleb128 0x9
 720 01f7 D9040000 		.4byte	.LASF33
 721 01fb 03       		.byte	0x3
 722 01fc ED06     		.2byte	0x6ed
 723 01fe 81000000 		.4byte	0x81
 724 0202 48       		.byte	0x48
 725 0203 09       		.uleb128 0x9
 726 0204 66030000 		.4byte	.LASF34
 727 0208 03       		.byte	0x3
 728 0209 EE06     		.2byte	0x6ee
 729 020b 81000000 		.4byte	0x81
 730 020f 4C       		.byte	0x4c
 731 0210 09       		.uleb128 0x9
 732 0211 CB050000 		.4byte	.LASF35
 733 0215 03       		.byte	0x3
 734 0216 EF06     		.2byte	0x6ef
 735 0218 91000000 		.4byte	0x91
 736 021c 50       		.byte	0x50
 737 021d 09       		.uleb128 0x9
 738 021e 53040000 		.4byte	.LASF36
 739 0222 03       		.byte	0x3
 740 0223 F006     		.2byte	0x6f0
ARM GAS  /tmp/ccCtgIAB.s 			page 14


 741 0225 91000000 		.4byte	0x91
 742 0229 54       		.byte	0x54
 743 022a 09       		.uleb128 0x9
 744 022b AE020000 		.4byte	.LASF37
 745 022f 03       		.byte	0x3
 746 0230 F106     		.2byte	0x6f1
 747 0232 81000000 		.4byte	0x81
 748 0236 58       		.byte	0x58
 749 0237 09       		.uleb128 0x9
 750 0238 6D060000 		.4byte	.LASF38
 751 023c 03       		.byte	0x3
 752 023d F206     		.2byte	0x6f2
 753 023f 0A050000 		.4byte	0x50a
 754 0243 5C       		.byte	0x5c
 755 0244 09       		.uleb128 0x9
 756 0245 66010000 		.4byte	.LASF39
 757 0249 03       		.byte	0x3
 758 024a F306     		.2byte	0x6f3
 759 024c 91000000 		.4byte	0x91
 760 0250 60       		.byte	0x60
 761 0251 09       		.uleb128 0x9
 762 0252 8A020000 		.4byte	.LASF40
 763 0256 03       		.byte	0x3
 764 0257 F406     		.2byte	0x6f4
 765 0259 91000000 		.4byte	0x91
 766 025d 64       		.byte	0x64
 767 025e 09       		.uleb128 0x9
 768 025f EC000000 		.4byte	.LASF41
 769 0263 03       		.byte	0x3
 770 0264 F506     		.2byte	0x6f5
 771 0266 81000000 		.4byte	0x81
 772 026a 68       		.byte	0x68
 773 026b 09       		.uleb128 0x9
 774 026c F6020000 		.4byte	.LASF42
 775 0270 03       		.byte	0x3
 776 0271 F606     		.2byte	0x6f6
 777 0273 0F050000 		.4byte	0x50f
 778 0277 6C       		.byte	0x6c
 779 0278 09       		.uleb128 0x9
 780 0279 17020000 		.4byte	.LASF43
 781 027d 03       		.byte	0x3
 782 027e F706     		.2byte	0x6f7
 783 0280 14050000 		.4byte	0x514
 784 0284 70       		.byte	0x70
 785 0285 09       		.uleb128 0x9
 786 0286 79010000 		.4byte	.LASF44
 787 028a 03       		.byte	0x3
 788 028b F806     		.2byte	0x6f8
 789 028d 19050000 		.4byte	0x519
 790 0291 78       		.byte	0x78
 791 0292 09       		.uleb128 0x9
 792 0293 7D060000 		.4byte	.LASF45
 793 0297 03       		.byte	0x3
 794 0298 F906     		.2byte	0x6f9
 795 029a 91000000 		.4byte	0x91
 796 029e 80       		.byte	0x80
 797 029f 09       		.uleb128 0x9
ARM GAS  /tmp/ccCtgIAB.s 			page 15


 798 02a0 65070000 		.4byte	.LASF46
 799 02a4 03       		.byte	0x3
 800 02a5 FA06     		.2byte	0x6fa
 801 02a7 91000000 		.4byte	0x91
 802 02ab 84       		.byte	0x84
 803 02ac 09       		.uleb128 0x9
 804 02ad 26060000 		.4byte	.LASF47
 805 02b1 03       		.byte	0x3
 806 02b2 FB06     		.2byte	0x6fb
 807 02b4 81000000 		.4byte	0x81
 808 02b8 88       		.byte	0x88
 809 02b9 09       		.uleb128 0x9
 810 02ba C6000000 		.4byte	.LASF48
 811 02be 03       		.byte	0x3
 812 02bf FC06     		.2byte	0x6fc
 813 02c1 9C000000 		.4byte	0x9c
 814 02c5 8C       		.byte	0x8c
 815 02c6 09       		.uleb128 0x9
 816 02c7 26040000 		.4byte	.LASF49
 817 02cb 03       		.byte	0x3
 818 02cc FD06     		.2byte	0x6fd
 819 02ce 91000000 		.4byte	0x91
 820 02d2 90       		.byte	0x90
 821 02d3 09       		.uleb128 0x9
 822 02d4 A1010000 		.4byte	.LASF50
 823 02d8 03       		.byte	0x3
 824 02d9 FE06     		.2byte	0x6fe
 825 02db 91000000 		.4byte	0x91
 826 02df 94       		.byte	0x94
 827 02e0 09       		.uleb128 0x9
 828 02e1 CC010000 		.4byte	.LASF51
 829 02e5 03       		.byte	0x3
 830 02e6 FF06     		.2byte	0x6ff
 831 02e8 81000000 		.4byte	0x81
 832 02ec 98       		.byte	0x98
 833 02ed 09       		.uleb128 0x9
 834 02ee 83010000 		.4byte	.LASF52
 835 02f2 03       		.byte	0x3
 836 02f3 0007     		.2byte	0x700
 837 02f5 1E050000 		.4byte	0x51e
 838 02f9 9C       		.byte	0x9c
 839 02fa 09       		.uleb128 0x9
 840 02fb E1040000 		.4byte	.LASF53
 841 02ff 03       		.byte	0x3
 842 0300 0107     		.2byte	0x701
 843 0302 91000000 		.4byte	0x91
 844 0306 A0       		.byte	0xa0
 845 0307 09       		.uleb128 0x9
 846 0308 82070000 		.4byte	.LASF54
 847 030c 03       		.byte	0x3
 848 030d 0207     		.2byte	0x702
 849 030f 91000000 		.4byte	0x91
 850 0313 A4       		.byte	0xa4
 851 0314 09       		.uleb128 0x9
 852 0315 44070000 		.4byte	.LASF55
 853 0319 03       		.byte	0x3
 854 031a 0307     		.2byte	0x703
ARM GAS  /tmp/ccCtgIAB.s 			page 16


 855 031c 81000000 		.4byte	0x81
 856 0320 A8       		.byte	0xa8
 857 0321 09       		.uleb128 0x9
 858 0322 8D010000 		.4byte	.LASF56
 859 0326 03       		.byte	0x3
 860 0327 0407     		.2byte	0x704
 861 0329 23050000 		.4byte	0x523
 862 032d AC       		.byte	0xac
 863 032e 09       		.uleb128 0x9
 864 032f 21000000 		.4byte	.LASF57
 865 0333 03       		.byte	0x3
 866 0334 0507     		.2byte	0x705
 867 0336 91000000 		.4byte	0x91
 868 033a B0       		.byte	0xb0
 869 033b 09       		.uleb128 0x9
 870 033c 12060000 		.4byte	.LASF58
 871 0340 03       		.byte	0x3
 872 0341 0607     		.2byte	0x706
 873 0343 91000000 		.4byte	0x91
 874 0347 B4       		.byte	0xb4
 875 0348 09       		.uleb128 0x9
 876 0349 84030000 		.4byte	.LASF59
 877 034d 03       		.byte	0x3
 878 034e 0707     		.2byte	0x707
 879 0350 81000000 		.4byte	0x81
 880 0354 B8       		.byte	0xb8
 881 0355 09       		.uleb128 0x9
 882 0356 97010000 		.4byte	.LASF60
 883 035a 03       		.byte	0x3
 884 035b 0807     		.2byte	0x708
 885 035d 28050000 		.4byte	0x528
 886 0361 BC       		.byte	0xbc
 887 0362 09       		.uleb128 0x9
 888 0363 19010000 		.4byte	.LASF61
 889 0367 03       		.byte	0x3
 890 0368 0907     		.2byte	0x709
 891 036a 91000000 		.4byte	0x91
 892 036e C0       		.byte	0xc0
 893 036f 09       		.uleb128 0x9
 894 0370 07070000 		.4byte	.LASF62
 895 0374 03       		.byte	0x3
 896 0375 0A07     		.2byte	0x70a
 897 0377 91000000 		.4byte	0x91
 898 037b C4       		.byte	0xc4
 899 037c 09       		.uleb128 0x9
 900 037d 10000000 		.4byte	.LASF63
 901 0381 03       		.byte	0x3
 902 0382 0B07     		.2byte	0x70b
 903 0384 81000000 		.4byte	0x81
 904 0388 C8       		.byte	0xc8
 905 0389 09       		.uleb128 0x9
 906 038a 2F020000 		.4byte	.LASF64
 907 038e 03       		.byte	0x3
 908 038f 0C07     		.2byte	0x70c
 909 0391 2D050000 		.4byte	0x52d
 910 0395 CC       		.byte	0xcc
 911 0396 09       		.uleb128 0x9
ARM GAS  /tmp/ccCtgIAB.s 			page 17


 912 0397 8B040000 		.4byte	.LASF65
 913 039b 03       		.byte	0x3
 914 039c 0D07     		.2byte	0x70d
 915 039e 91000000 		.4byte	0x91
 916 03a2 D0       		.byte	0xd0
 917 03a3 09       		.uleb128 0x9
 918 03a4 DC050000 		.4byte	.LASF66
 919 03a8 03       		.byte	0x3
 920 03a9 0E07     		.2byte	0x70e
 921 03ab 91000000 		.4byte	0x91
 922 03af D4       		.byte	0xd4
 923 03b0 09       		.uleb128 0x9
 924 03b1 93020000 		.4byte	.LASF67
 925 03b5 03       		.byte	0x3
 926 03b6 0F07     		.2byte	0x70f
 927 03b8 81000000 		.4byte	0x81
 928 03bc D8       		.byte	0xd8
 929 03bd 09       		.uleb128 0x9
 930 03be 3A020000 		.4byte	.LASF68
 931 03c2 03       		.byte	0x3
 932 03c3 1007     		.2byte	0x710
 933 03c5 32050000 		.4byte	0x532
 934 03c9 DC       		.byte	0xdc
 935 03ca 09       		.uleb128 0x9
 936 03cb 4D030000 		.4byte	.LASF69
 937 03cf 03       		.byte	0x3
 938 03d0 1107     		.2byte	0x711
 939 03d2 81000000 		.4byte	0x81
 940 03d6 E0       		.byte	0xe0
 941 03d7 09       		.uleb128 0x9
 942 03d8 B6030000 		.4byte	.LASF70
 943 03dc 03       		.byte	0x3
 944 03dd 1207     		.2byte	0x712
 945 03df 9C000000 		.4byte	0x9c
 946 03e3 E4       		.byte	0xe4
 947 03e4 09       		.uleb128 0x9
 948 03e5 5B020000 		.4byte	.LASF71
 949 03e9 03       		.byte	0x3
 950 03ea 1307     		.2byte	0x713
 951 03ec 81000000 		.4byte	0x81
 952 03f0 E8       		.byte	0xe8
 953 03f1 09       		.uleb128 0x9
 954 03f2 45020000 		.4byte	.LASF72
 955 03f6 03       		.byte	0x3
 956 03f7 1407     		.2byte	0x714
 957 03f9 37050000 		.4byte	0x537
 958 03fd EC       		.byte	0xec
 959 03fe 0A       		.uleb128 0xa
 960 03ff 44000000 		.4byte	.LASF73
 961 0403 03       		.byte	0x3
 962 0404 1507     		.2byte	0x715
 963 0406 9C000000 		.4byte	0x9c
 964 040a 0001     		.2byte	0x100
 965 040c 0A       		.uleb128 0xa
 966 040d 50020000 		.4byte	.LASF74
 967 0411 03       		.byte	0x3
 968 0412 1607     		.2byte	0x716
ARM GAS  /tmp/ccCtgIAB.s 			page 18


 969 0414 3C050000 		.4byte	0x53c
 970 0418 0401     		.2byte	0x104
 971 041a 0A       		.uleb128 0xa
 972 041b 9D040000 		.4byte	.LASF75
 973 041f 03       		.byte	0x3
 974 0420 1707     		.2byte	0x717
 975 0422 9C000000 		.4byte	0x9c
 976 0426 5001     		.2byte	0x150
 977 0428 0A       		.uleb128 0xa
 978 0429 FC010000 		.4byte	.LASF76
 979 042d 03       		.byte	0x3
 980 042e 1807     		.2byte	0x718
 981 0430 91000000 		.4byte	0x91
 982 0434 5401     		.2byte	0x154
 983 0436 0A       		.uleb128 0xa
 984 0437 AB000000 		.4byte	.LASF77
 985 043b 03       		.byte	0x3
 986 043c 1907     		.2byte	0x719
 987 043e 91000000 		.4byte	0x91
 988 0442 5801     		.2byte	0x158
 989 0444 0A       		.uleb128 0xa
 990 0445 0F010000 		.4byte	.LASF78
 991 0449 03       		.byte	0x3
 992 044a 1A07     		.2byte	0x71a
 993 044c 81000000 		.4byte	0x81
 994 0450 5C01     		.2byte	0x15c
 995 0452 0A       		.uleb128 0xa
 996 0453 63000000 		.4byte	.LASF79
 997 0457 03       		.byte	0x3
 998 0458 1B07     		.2byte	0x71b
 999 045a 81000000 		.4byte	0x81
 1000 045e 6001     		.2byte	0x160
 1001 0460 0A       		.uleb128 0xa
 1002 0461 06000000 		.4byte	.LASF80
 1003 0465 03       		.byte	0x3
 1004 0466 1C07     		.2byte	0x71c
 1005 0468 81000000 		.4byte	0x81
 1006 046c 6401     		.2byte	0x164
 1007 046e 0A       		.uleb128 0xa
 1008 046f 35030000 		.4byte	.LASF81
 1009 0473 03       		.byte	0x3
 1010 0474 1D07     		.2byte	0x71d
 1011 0476 9C000000 		.4byte	0x9c
 1012 047a 6801     		.2byte	0x168
 1013 047c 0A       		.uleb128 0xa
 1014 047d 06050000 		.4byte	.LASF82
 1015 0481 03       		.byte	0x3
 1016 0482 1E07     		.2byte	0x71e
 1017 0484 9C000000 		.4byte	0x9c
 1018 0488 6C01     		.2byte	0x16c
 1019 048a 0A       		.uleb128 0xa
 1020 048b 33000000 		.4byte	.LASF83
 1021 048f 03       		.byte	0x3
 1022 0490 1F07     		.2byte	0x71f
 1023 0492 9C000000 		.4byte	0x9c
 1024 0496 7001     		.2byte	0x170
 1025 0498 0A       		.uleb128 0xa
ARM GAS  /tmp/ccCtgIAB.s 			page 19


 1026 0499 9E020000 		.4byte	.LASF84
 1027 049d 03       		.byte	0x3
 1028 049e 2007     		.2byte	0x720
 1029 04a0 9C000000 		.4byte	0x9c
 1030 04a4 7401     		.2byte	0x174
 1031 04a6 0A       		.uleb128 0xa
 1032 04a7 9A060000 		.4byte	.LASF85
 1033 04ab 03       		.byte	0x3
 1034 04ac 2107     		.2byte	0x721
 1035 04ae 9C000000 		.4byte	0x9c
 1036 04b2 7801     		.2byte	0x178
 1037 04b4 0A       		.uleb128 0xa
 1038 04b5 B5000000 		.4byte	.LASF86
 1039 04b9 03       		.byte	0x3
 1040 04ba 2207     		.2byte	0x722
 1041 04bc 9C000000 		.4byte	0x9c
 1042 04c0 7C01     		.2byte	0x17c
 1043 04c2 0A       		.uleb128 0xa
 1044 04c3 5C040000 		.4byte	.LASF87
 1045 04c7 03       		.byte	0x3
 1046 04c8 2307     		.2byte	0x723
 1047 04ca 9C000000 		.4byte	0x9c
 1048 04ce 8001     		.2byte	0x180
 1049 04d0 0A       		.uleb128 0xa
 1050 04d1 0F070000 		.4byte	.LASF88
 1051 04d5 03       		.byte	0x3
 1052 04d6 2407     		.2byte	0x724
 1053 04d8 9C000000 		.4byte	0x9c
 1054 04dc 8401     		.2byte	0x184
 1055 04de 0A       		.uleb128 0xa
 1056 04df F3010000 		.4byte	.LASF89
 1057 04e3 03       		.byte	0x3
 1058 04e4 2507     		.2byte	0x725
 1059 04e6 91000000 		.4byte	0x91
 1060 04ea 8801     		.2byte	0x188
 1061 04ec 0A       		.uleb128 0xa
 1062 04ed C9020000 		.4byte	.LASF90
 1063 04f1 03       		.byte	0x3
 1064 04f2 2607     		.2byte	0x726
 1065 04f4 81000000 		.4byte	0x81
 1066 04f8 8C01     		.2byte	0x18c
 1067 04fa 00       		.byte	0
 1068 04fb 05       		.uleb128 0x5
 1069 04fc BE000000 		.4byte	0xbe
 1070 0500 05       		.uleb128 0x5
 1071 0501 BE000000 		.4byte	0xbe
 1072 0505 05       		.uleb128 0x5
 1073 0506 BE000000 		.4byte	0xbe
 1074 050a 05       		.uleb128 0x5
 1075 050b BE000000 		.4byte	0xbe
 1076 050f 05       		.uleb128 0x5
 1077 0510 BE000000 		.4byte	0xbe
 1078 0514 05       		.uleb128 0x5
 1079 0515 CE000000 		.4byte	0xce
 1080 0519 05       		.uleb128 0x5
 1081 051a CE000000 		.4byte	0xce
 1082 051e 05       		.uleb128 0x5
ARM GAS  /tmp/ccCtgIAB.s 			page 20


 1083 051f BE000000 		.4byte	0xbe
 1084 0523 05       		.uleb128 0x5
 1085 0524 BE000000 		.4byte	0xbe
 1086 0528 05       		.uleb128 0x5
 1087 0529 BE000000 		.4byte	0xbe
 1088 052d 05       		.uleb128 0x5
 1089 052e BE000000 		.4byte	0xbe
 1090 0532 05       		.uleb128 0x5
 1091 0533 BE000000 		.4byte	0xbe
 1092 0537 05       		.uleb128 0x5
 1093 0538 DE000000 		.4byte	0xde
 1094 053c 05       		.uleb128 0x5
 1095 053d AE000000 		.4byte	0xae
 1096 0541 0B       		.uleb128 0xb
 1097 0542 50696F00 		.ascii	"Pio\000"
 1098 0546 03       		.byte	0x3
 1099 0547 2707     		.2byte	0x727
 1100 0549 FE000000 		.4byte	0xfe
 1101 054d 08       		.uleb128 0x8
 1102 054e 1401     		.2byte	0x114
 1103 0550 03       		.byte	0x3
 1104 0551 3F0D     		.2byte	0xd3f
 1105 0553 AB060000 		.4byte	.LASF92
 1106 0557 1B070000 		.4byte	0x71b
 1107 055b 09       		.uleb128 0x9
 1108 055c 79070000 		.4byte	.LASF93
 1109 0560 03       		.byte	0x3
 1110 0561 400D     		.2byte	0xd40
 1111 0563 91000000 		.4byte	0x91
 1112 0567 00       		.byte	0
 1113 0568 09       		.uleb128 0x9
 1114 0569 96030000 		.4byte	.LASF94
 1115 056d 03       		.byte	0x3
 1116 056e 410D     		.2byte	0xd41
 1117 0570 91000000 		.4byte	0x91
 1118 0574 04       		.byte	0x4
 1119 0575 09       		.uleb128 0x9
 1120 0576 5C060000 		.4byte	.LASF95
 1121 057a 03       		.byte	0x3
 1122 057b 420D     		.2byte	0xd42
 1123 057d 81000000 		.4byte	0x81
 1124 0581 08       		.byte	0x8
 1125 0582 09       		.uleb128 0x9
 1126 0583 4D010000 		.4byte	.LASF18
 1127 0587 03       		.byte	0x3
 1128 0588 430D     		.2byte	0xd43
 1129 058a 1B070000 		.4byte	0x71b
 1130 058e 0C       		.byte	0xc
 1131 058f 09       		.uleb128 0x9
 1132 0590 DF010000 		.4byte	.LASF96
 1133 0594 03       		.byte	0x3
 1134 0595 440D     		.2byte	0xd44
 1135 0597 91000000 		.4byte	0x91
 1136 059b 10       		.byte	0x10
 1137 059c 09       		.uleb128 0x9
 1138 059d 21030000 		.4byte	.LASF97
 1139 05a1 03       		.byte	0x3
ARM GAS  /tmp/ccCtgIAB.s 			page 21


 1140 05a2 450D     		.2byte	0xd45
 1141 05a4 91000000 		.4byte	0x91
 1142 05a8 14       		.byte	0x14
 1143 05a9 09       		.uleb128 0x9
 1144 05aa 6F010000 		.4byte	.LASF98
 1145 05ae 03       		.byte	0x3
 1146 05af 460D     		.2byte	0xd46
 1147 05b1 81000000 		.4byte	0x81
 1148 05b5 18       		.byte	0x18
 1149 05b6 09       		.uleb128 0x9
 1150 05b7 57010000 		.4byte	.LASF22
 1151 05bb 03       		.byte	0x3
 1152 05bc 470D     		.2byte	0xd47
 1153 05be 20070000 		.4byte	0x720
 1154 05c2 1C       		.byte	0x1c
 1155 05c3 09       		.uleb128 0x9
 1156 05c4 3B000000 		.4byte	.LASF99
 1157 05c8 03       		.byte	0x3
 1158 05c9 480D     		.2byte	0xd48
 1159 05cb 9C000000 		.4byte	0x9c
 1160 05cf 20       		.byte	0x20
 1161 05d0 09       		.uleb128 0x9
 1162 05d1 80020000 		.4byte	.LASF100
 1163 05d5 03       		.byte	0x3
 1164 05d6 490D     		.2byte	0xd49
 1165 05d8 81000000 		.4byte	0x81
 1166 05dc 24       		.byte	0x24
 1167 05dd 09       		.uleb128 0x9
 1168 05de 6D040000 		.4byte	.LASF101
 1169 05e2 03       		.byte	0x3
 1170 05e3 4A0D     		.2byte	0xd4a
 1171 05e5 9C000000 		.4byte	0x9c
 1172 05e9 28       		.byte	0x28
 1173 05ea 09       		.uleb128 0x9
 1174 05eb EE050000 		.4byte	.LASF102
 1175 05ef 03       		.byte	0x3
 1176 05f0 4B0D     		.2byte	0xd4b
 1177 05f2 9C000000 		.4byte	0x9c
 1178 05f6 2C       		.byte	0x2c
 1179 05f7 09       		.uleb128 0x9
 1180 05f8 18030000 		.4byte	.LASF103
 1181 05fc 03       		.byte	0x3
 1182 05fd 4C0D     		.2byte	0xd4c
 1183 05ff 9C000000 		.4byte	0x9c
 1184 0603 30       		.byte	0x30
 1185 0604 09       		.uleb128 0x9
 1186 0605 E3020000 		.4byte	.LASF26
 1187 0609 03       		.byte	0x3
 1188 060a 4D0D     		.2byte	0xd4d
 1189 060c 25070000 		.4byte	0x725
 1190 0610 34       		.byte	0x34
 1191 0611 09       		.uleb128 0x9
 1192 0612 7C030000 		.4byte	.LASF104
 1193 0616 03       		.byte	0x3
 1194 0617 4E0D     		.2byte	0xd4e
 1195 0619 9C000000 		.4byte	0x9c
 1196 061d 38       		.byte	0x38
ARM GAS  /tmp/ccCtgIAB.s 			page 22


 1197 061e 09       		.uleb128 0x9
 1198 061f 6D060000 		.4byte	.LASF38
 1199 0623 03       		.byte	0x3
 1200 0624 4F0D     		.2byte	0xd4f
 1201 0626 2A070000 		.4byte	0x72a
 1202 062a 3C       		.byte	0x3c
 1203 062b 09       		.uleb128 0x9
 1204 062c 27020000 		.4byte	.LASF105
 1205 0630 03       		.byte	0x3
 1206 0631 500D     		.2byte	0xd50
 1207 0633 3F070000 		.4byte	0x73f
 1208 0637 40       		.byte	0x40
 1209 0638 09       		.uleb128 0x9
 1210 0639 F6020000 		.4byte	.LASF42
 1211 063d 03       		.byte	0x3
 1212 063e 510D     		.2byte	0xd51
 1213 0640 44070000 		.4byte	0x744
 1214 0644 4C       		.byte	0x4c
 1215 0645 09       		.uleb128 0x9
 1216 0646 A3060000 		.4byte	.LASF106
 1217 064a 03       		.byte	0x3
 1218 064b 520D     		.2byte	0xd52
 1219 064d 91000000 		.4byte	0x91
 1220 0651 60       		.byte	0x60
 1221 0652 09       		.uleb128 0x9
 1222 0653 0E050000 		.4byte	.LASF107
 1223 0657 03       		.byte	0x3
 1224 0658 530D     		.2byte	0xd53
 1225 065a 91000000 		.4byte	0x91
 1226 065e 64       		.byte	0x64
 1227 065f 09       		.uleb128 0x9
 1228 0660 6C020000 		.4byte	.LASF108
 1229 0664 03       		.byte	0x3
 1230 0665 540D     		.2byte	0xd54
 1231 0667 81000000 		.4byte	0x81
 1232 066b 68       		.byte	0x68
 1233 066c 09       		.uleb128 0x9
 1234 066d FF060000 		.4byte	.LASF109
 1235 0671 03       		.byte	0x3
 1236 0672 550D     		.2byte	0xd55
 1237 0674 81000000 		.4byte	0x81
 1238 0678 6C       		.byte	0x6c
 1239 0679 09       		.uleb128 0x9
 1240 067a B0060000 		.4byte	.LASF110
 1241 067e 03       		.byte	0x3
 1242 067f 560D     		.2byte	0xd56
 1243 0681 9C000000 		.4byte	0x9c
 1244 0685 70       		.byte	0x70
 1245 0686 09       		.uleb128 0x9
 1246 0687 5C070000 		.4byte	.LASF111
 1247 068b 03       		.byte	0x3
 1248 068c 570D     		.2byte	0xd57
 1249 068e 9C000000 		.4byte	0x9c
 1250 0692 74       		.byte	0x74
 1251 0693 09       		.uleb128 0x9
 1252 0694 70070000 		.4byte	.LASF112
 1253 0698 03       		.byte	0x3
ARM GAS  /tmp/ccCtgIAB.s 			page 23


 1254 0699 580D     		.2byte	0xd58
 1255 069b 91000000 		.4byte	0x91
 1256 069f 78       		.byte	0x78
 1257 06a0 09       		.uleb128 0x9
 1258 06a1 79010000 		.4byte	.LASF44
 1259 06a5 03       		.byte	0x3
 1260 06a6 590D     		.2byte	0xd59
 1261 06a8 59070000 		.4byte	0x759
 1262 06ac 7C       		.byte	0x7c
 1263 06ad 09       		.uleb128 0x9
 1264 06ae D6010000 		.4byte	.LASF113
 1265 06b2 03       		.byte	0x3
 1266 06b3 5A0D     		.2byte	0xd5a
 1267 06b5 9C000000 		.4byte	0x9c
 1268 06b9 E4       		.byte	0xe4
 1269 06ba 09       		.uleb128 0x9
 1270 06bb AD070000 		.4byte	.LASF114
 1271 06bf 03       		.byte	0x3
 1272 06c0 5B0D     		.2byte	0xd5b
 1273 06c2 81000000 		.4byte	0x81
 1274 06c6 E8       		.byte	0xe8
 1275 06c7 09       		.uleb128 0x9
 1276 06c8 83010000 		.4byte	.LASF52
 1277 06cc 03       		.byte	0x3
 1278 06cd 5C0D     		.2byte	0xd5c
 1279 06cf 5E070000 		.4byte	0x75e
 1280 06d3 EC       		.byte	0xec
 1281 06d4 0A       		.uleb128 0xa
 1282 06d5 E9010000 		.4byte	.LASF115
 1283 06d9 03       		.byte	0x3
 1284 06da 5D0D     		.2byte	0xd5d
 1285 06dc 91000000 		.4byte	0x91
 1286 06e0 0001     		.2byte	0x100
 1287 06e2 0A       		.uleb128 0xa
 1288 06e3 2B030000 		.4byte	.LASF116
 1289 06e7 03       		.byte	0x3
 1290 06e8 5E0D     		.2byte	0xd5e
 1291 06ea 91000000 		.4byte	0x91
 1292 06ee 0401     		.2byte	0x104
 1293 06f0 0A       		.uleb128 0xa
 1294 06f1 FC040000 		.4byte	.LASF117
 1295 06f5 03       		.byte	0x3
 1296 06f6 5F0D     		.2byte	0xd5f
 1297 06f8 81000000 		.4byte	0x81
 1298 06fc 0801     		.2byte	0x108
 1299 06fe 0A       		.uleb128 0xa
 1300 06ff 8D010000 		.4byte	.LASF56
 1301 0703 03       		.byte	0x3
 1302 0704 600D     		.2byte	0xd60
 1303 0706 63070000 		.4byte	0x763
 1304 070a 0C01     		.2byte	0x10c
 1305 070c 0A       		.uleb128 0xa
 1306 070d 8E030000 		.4byte	.LASF118
 1307 0711 03       		.byte	0x3
 1308 0712 610D     		.2byte	0xd61
 1309 0714 9C000000 		.4byte	0x9c
 1310 0718 1001     		.2byte	0x110
ARM GAS  /tmp/ccCtgIAB.s 			page 24


 1311 071a 00       		.byte	0
 1312 071b 05       		.uleb128 0x5
 1313 071c BE000000 		.4byte	0xbe
 1314 0720 05       		.uleb128 0x5
 1315 0721 BE000000 		.4byte	0xbe
 1316 0725 05       		.uleb128 0x5
 1317 0726 BE000000 		.4byte	0xbe
 1318 072a 05       		.uleb128 0x5
 1319 072b BE000000 		.4byte	0xbe
 1320 072f 06       		.uleb128 0x6
 1321 0730 5E000000 		.4byte	0x5e
 1322 0734 3F070000 		.4byte	0x73f
 1323 0738 07       		.uleb128 0x7
 1324 0739 A7000000 		.4byte	0xa7
 1325 073d 02       		.byte	0x2
 1326 073e 00       		.byte	0
 1327 073f 05       		.uleb128 0x5
 1328 0740 2F070000 		.4byte	0x72f
 1329 0744 05       		.uleb128 0x5
 1330 0745 DE000000 		.4byte	0xde
 1331 0749 06       		.uleb128 0x6
 1332 074a 5E000000 		.4byte	0x5e
 1333 074e 59070000 		.4byte	0x759
 1334 0752 07       		.uleb128 0x7
 1335 0753 A7000000 		.4byte	0xa7
 1336 0757 19       		.byte	0x19
 1337 0758 00       		.byte	0
 1338 0759 05       		.uleb128 0x5
 1339 075a 49070000 		.4byte	0x749
 1340 075e 05       		.uleb128 0x5
 1341 075f DE000000 		.4byte	0xde
 1342 0763 05       		.uleb128 0x5
 1343 0764 BE000000 		.4byte	0xbe
 1344 0768 0B       		.uleb128 0xb
 1345 0769 506D6300 		.ascii	"Pmc\000"
 1346 076d 03       		.byte	0x3
 1347 076e 620D     		.2byte	0xd62
 1348 0770 4D050000 		.4byte	0x54d
 1349 0774 08       		.uleb128 0x8
 1350 0775 2801     		.2byte	0x128
 1351 0777 03       		.byte	0x3
 1352 0778 5116     		.2byte	0x1651
 1353 077a C7030000 		.4byte	.LASF119
 1354 077e B8080000 		.4byte	0x8b8
 1355 0782 09       		.uleb128 0x9
 1356 0783 96040000 		.4byte	.LASF120
 1357 0787 03       		.byte	0x3
 1358 0788 5216     		.2byte	0x1652
 1359 078a 91000000 		.4byte	0x91
 1360 078e 00       		.byte	0
 1361 078f 09       		.uleb128 0x9
 1362 0790 BE000000 		.4byte	.LASF121
 1363 0794 03       		.byte	0x3
 1364 0795 5316     		.2byte	0x1653
 1365 0797 9C000000 		.4byte	0x9c
 1366 079b 04       		.byte	0x4
 1367 079c 09       		.uleb128 0x9
ARM GAS  /tmp/ccCtgIAB.s 			page 25


 1368 079d 2B000000 		.4byte	.LASF122
 1369 07a1 03       		.byte	0x3
 1370 07a2 5416     		.2byte	0x1654
 1371 07a4 9C000000 		.4byte	0x9c
 1372 07a8 08       		.byte	0x8
 1373 07a9 09       		.uleb128 0x9
 1374 07aa C1060000 		.4byte	.LASF123
 1375 07ae 03       		.byte	0x3
 1376 07af 5516     		.2byte	0x1655
 1377 07b1 9C000000 		.4byte	0x9c
 1378 07b5 0C       		.byte	0xc
 1379 07b6 09       		.uleb128 0x9
 1380 07b7 53070000 		.4byte	.LASF124
 1381 07bb 03       		.byte	0x3
 1382 07bc 5616     		.2byte	0x1656
 1383 07be 9C000000 		.4byte	0x9c
 1384 07c2 10       		.byte	0x10
 1385 07c3 09       		.uleb128 0x9
 1386 07c4 4D010000 		.4byte	.LASF18
 1387 07c8 03       		.byte	0x3
 1388 07c9 5716     		.2byte	0x1657
 1389 07cb B8080000 		.4byte	0x8b8
 1390 07cf 14       		.byte	0x14
 1391 07d0 09       		.uleb128 0x9
 1392 07d1 E7050000 		.4byte	.LASF125
 1393 07d5 03       		.byte	0x3
 1394 07d6 5816     		.2byte	0x1658
 1395 07d8 81000000 		.4byte	0x81
 1396 07dc 20       		.byte	0x20
 1397 07dd 09       		.uleb128 0x9
 1398 07de 65060000 		.4byte	.LASF126
 1399 07e2 03       		.byte	0x3
 1400 07e3 5916     		.2byte	0x1659
 1401 07e5 91000000 		.4byte	0x91
 1402 07e9 24       		.byte	0x24
 1403 07ea 09       		.uleb128 0x9
 1404 07eb C7040000 		.4byte	.LASF127
 1405 07ef 03       		.byte	0x3
 1406 07f0 5A16     		.2byte	0x165a
 1407 07f2 91000000 		.4byte	0x91
 1408 07f6 28       		.byte	0x28
 1409 07f7 09       		.uleb128 0x9
 1410 07f8 B9060000 		.4byte	.LASF128
 1411 07fc 03       		.byte	0x3
 1412 07fd 5B16     		.2byte	0x165b
 1413 07ff 81000000 		.4byte	0x81
 1414 0803 2C       		.byte	0x2c
 1415 0804 09       		.uleb128 0x9
 1416 0805 13040000 		.4byte	.LASF129
 1417 0809 03       		.byte	0x3
 1418 080a 5C16     		.2byte	0x165c
 1419 080c 81000000 		.4byte	0x81
 1420 0810 30       		.byte	0x30
 1421 0811 09       		.uleb128 0x9
 1422 0812 9A070000 		.4byte	.LASF130
 1423 0816 03       		.byte	0x3
 1424 0817 5D16     		.2byte	0x165d
ARM GAS  /tmp/ccCtgIAB.s 			page 26


 1425 0819 91000000 		.4byte	0x91
 1426 081d 34       		.byte	0x34
 1427 081e 09       		.uleb128 0x9
 1428 081f 57010000 		.4byte	.LASF22
 1429 0823 03       		.byte	0x3
 1430 0824 5E16     		.2byte	0x165e
 1431 0826 CD080000 		.4byte	0x8cd
 1432 082a 38       		.byte	0x38
 1433 082b 0A       		.uleb128 0xa
 1434 082c 65040000 		.4byte	.LASF131
 1435 0830 03       		.byte	0x3
 1436 0831 5F16     		.2byte	0x165f
 1437 0833 9C000000 		.4byte	0x9c
 1438 0837 0001     		.2byte	0x100
 1439 0839 0A       		.uleb128 0xa
 1440 083a 18070000 		.4byte	.LASF132
 1441 083e 03       		.byte	0x3
 1442 083f 6016     		.2byte	0x1660
 1443 0841 9C000000 		.4byte	0x9c
 1444 0845 0401     		.2byte	0x104
 1445 0847 0A       		.uleb128 0xa
 1446 0848 0F020000 		.4byte	.LASF133
 1447 084c 03       		.byte	0x3
 1448 084d 6116     		.2byte	0x1661
 1449 084f 9C000000 		.4byte	0x9c
 1450 0853 0801     		.2byte	0x108
 1451 0855 0A       		.uleb128 0xa
 1452 0856 CC030000 		.4byte	.LASF134
 1453 085a 03       		.byte	0x3
 1454 085b 6216     		.2byte	0x1662
 1455 085d 9C000000 		.4byte	0x9c
 1456 0861 0C01     		.2byte	0x10c
 1457 0863 0A       		.uleb128 0xa
 1458 0864 6D000000 		.4byte	.LASF135
 1459 0868 03       		.byte	0x3
 1460 0869 6316     		.2byte	0x1663
 1461 086b 9C000000 		.4byte	0x9c
 1462 086f 1001     		.2byte	0x110
 1463 0871 0A       		.uleb128 0xa
 1464 0872 ED020000 		.4byte	.LASF136
 1465 0876 03       		.byte	0x3
 1466 0877 6416     		.2byte	0x1664
 1467 0879 9C000000 		.4byte	0x9c
 1468 087d 1401     		.2byte	0x114
 1469 087f 0A       		.uleb128 0xa
 1470 0880 D8060000 		.4byte	.LASF137
 1471 0884 03       		.byte	0x3
 1472 0885 6516     		.2byte	0x1665
 1473 0887 9C000000 		.4byte	0x9c
 1474 088b 1801     		.2byte	0x118
 1475 088d 0A       		.uleb128 0xa
 1476 088e 3C010000 		.4byte	.LASF138
 1477 0892 03       		.byte	0x3
 1478 0893 6616     		.2byte	0x1666
 1479 0895 9C000000 		.4byte	0x9c
 1480 0899 1C01     		.2byte	0x11c
 1481 089b 0A       		.uleb128 0xa
ARM GAS  /tmp/ccCtgIAB.s 			page 27


 1482 089c AD030000 		.4byte	.LASF139
 1483 08a0 03       		.byte	0x3
 1484 08a1 6716     		.2byte	0x1667
 1485 08a3 91000000 		.4byte	0x91
 1486 08a7 2001     		.2byte	0x120
 1487 08a9 0A       		.uleb128 0xa
 1488 08aa 82040000 		.4byte	.LASF140
 1489 08ae 03       		.byte	0x3
 1490 08af 6816     		.2byte	0x1668
 1491 08b1 81000000 		.4byte	0x81
 1492 08b5 2401     		.2byte	0x124
 1493 08b7 00       		.byte	0
 1494 08b8 05       		.uleb128 0x5
 1495 08b9 2F070000 		.4byte	0x72f
 1496 08bd 06       		.uleb128 0x6
 1497 08be 5E000000 		.4byte	0x5e
 1498 08c2 CD080000 		.4byte	0x8cd
 1499 08c6 07       		.uleb128 0x7
 1500 08c7 A7000000 		.4byte	0xa7
 1501 08cb 31       		.byte	0x31
 1502 08cc 00       		.byte	0
 1503 08cd 05       		.uleb128 0x5
 1504 08ce BD080000 		.4byte	0x8bd
 1505 08d2 0B       		.uleb128 0xb
 1506 08d3 54776900 		.ascii	"Twi\000"
 1507 08d7 03       		.byte	0x3
 1508 08d8 6916     		.2byte	0x1669
 1509 08da 74070000 		.4byte	0x774
 1510 08de 0C       		.uleb128 0xc
 1511 08df 30040000 		.4byte	.LASF145
 1512 08e3 0C       		.byte	0xc
 1513 08e4 04       		.byte	0x4
 1514 08e5 C7       		.byte	0xc7
 1515 08e6 26090000 		.4byte	0x926
 1516 08ea 0D       		.uleb128 0xd
 1517 08eb 22020000 		.4byte	.LASF141
 1518 08ef 04       		.byte	0x4
 1519 08f0 CA       		.byte	0xca
 1520 08f1 53000000 		.4byte	0x53
 1521 08f5 00       		.byte	0
 1522 08f6 0E       		.uleb128 0xe
 1523 08f7 70696F00 		.ascii	"pio\000"
 1524 08fb 04       		.byte	0x4
 1525 08fc CC       		.byte	0xcc
 1526 08fd 26090000 		.4byte	0x926
 1527 0901 04       		.byte	0x4
 1528 0902 0E       		.uleb128 0xe
 1529 0903 696400   		.ascii	"id\000"
 1530 0906 04       		.byte	0x4
 1531 0907 CE       		.byte	0xce
 1532 0908 2C000000 		.4byte	0x2c
 1533 090c 08       		.byte	0x8
 1534 090d 0D       		.uleb128 0xd
 1535 090e 50000000 		.4byte	.LASF142
 1536 0912 04       		.byte	0x4
 1537 0913 D0       		.byte	0xd0
 1538 0914 2C000000 		.4byte	0x2c
ARM GAS  /tmp/ccCtgIAB.s 			page 28


 1539 0918 09       		.byte	0x9
 1540 0919 0D       		.uleb128 0xd
 1541 091a A6040000 		.4byte	.LASF143
 1542 091e 04       		.byte	0x4
 1543 091f D2       		.byte	0xd2
 1544 0920 2C000000 		.4byte	0x2c
 1545 0924 0A       		.byte	0xa
 1546 0925 00       		.byte	0
 1547 0926 0F       		.uleb128 0xf
 1548 0927 04       		.byte	0x4
 1549 0928 41050000 		.4byte	0x541
 1550 092c 10       		.uleb128 0x10
 1551 092d 50696E00 		.ascii	"Pin\000"
 1552 0931 04       		.byte	0x4
 1553 0932 D3       		.byte	0xd3
 1554 0933 DE080000 		.4byte	0x8de
 1555 0937 11       		.uleb128 0x11
 1556 0938 04       		.byte	0x4
 1557 0939 05       		.uleb128 0x5
 1558 093a 2C000000 		.4byte	0x2c
 1559 093e 02       		.uleb128 0x2
 1560 093f 01       		.byte	0x1
 1561 0940 08       		.byte	0x8
 1562 0941 F9050000 		.4byte	.LASF144
 1563 0945 0F       		.uleb128 0xf
 1564 0946 04       		.byte	0x4
 1565 0947 2C000000 		.4byte	0x2c
 1566 094b 0C       		.uleb128 0xc
 1567 094c C4050000 		.4byte	.LASF146
 1568 0950 18       		.byte	0x18
 1569 0951 05       		.byte	0x5
 1570 0952 3C       		.byte	0x3c
 1571 0953 7C090000 		.4byte	0x97c
 1572 0957 0D       		.uleb128 0xd
 1573 0958 E1060000 		.4byte	.LASF147
 1574 095c 05       		.byte	0x5
 1575 095d 3F       		.byte	0x3f
 1576 095e 39090000 		.4byte	0x939
 1577 0962 00       		.byte	0
 1578 0963 0D       		.uleb128 0xd
 1579 0964 58030000 		.4byte	.LASF148
 1580 0968 05       		.byte	0x5
 1581 0969 41       		.byte	0x41
 1582 096a 37090000 		.4byte	0x937
 1583 096e 04       		.byte	0x4
 1584 096f 0D       		.uleb128 0xd
 1585 0970 88060000 		.4byte	.LASF149
 1586 0974 05       		.byte	0x5
 1587 0975 43       		.byte	0x43
 1588 0976 EE000000 		.4byte	0xee
 1589 097a 08       		.byte	0x8
 1590 097b 00       		.byte	0
 1591 097c 03       		.uleb128 0x3
 1592 097d 6E030000 		.4byte	.LASF150
 1593 0981 05       		.byte	0x5
 1594 0982 44       		.byte	0x44
 1595 0983 4B090000 		.4byte	0x94b
ARM GAS  /tmp/ccCtgIAB.s 			page 29


 1596 0987 0C       		.uleb128 0xc
 1597 0988 3D030000 		.4byte	.LASF151
 1598 098c 08       		.byte	0x8
 1599 098d 06       		.byte	0x6
 1600 098e 3B       		.byte	0x3b
 1601 098f AC090000 		.4byte	0x9ac
 1602 0993 0D       		.uleb128 0xd
 1603 0994 9F030000 		.4byte	.LASF152
 1604 0998 06       		.byte	0x6
 1605 0999 3E       		.byte	0x3e
 1606 099a AC090000 		.4byte	0x9ac
 1607 099e 00       		.byte	0
 1608 099f 0D       		.uleb128 0xd
 1609 09a0 1C060000 		.4byte	.LASF153
 1610 09a4 06       		.byte	0x6
 1611 09a5 40       		.byte	0x40
 1612 09a6 B2090000 		.4byte	0x9b2
 1613 09aa 04       		.byte	0x4
 1614 09ab 00       		.byte	0
 1615 09ac 0F       		.uleb128 0xf
 1616 09ad 04       		.byte	0x4
 1617 09ae D2080000 		.4byte	0x8d2
 1618 09b2 0F       		.uleb128 0xf
 1619 09b3 04       		.byte	0x4
 1620 09b4 7C090000 		.4byte	0x97c
 1621 09b8 03       		.uleb128 0x3
 1622 09b9 BF050000 		.4byte	.LASF154
 1623 09bd 06       		.byte	0x6
 1624 09be 41       		.byte	0x41
 1625 09bf 87090000 		.4byte	0x987
 1626 09c3 12       		.uleb128 0x12
 1627 09c4 19000000 		.4byte	.LASF180
 1628 09c8 07       		.byte	0x7
 1629 09c9 1C       		.byte	0x1c
 1630 09ca EC0A0000 		.4byte	0xaec
 1631 09ce 13       		.uleb128 0x13
 1632 09cf 49324300 		.ascii	"I2C\000"
 1633 09d3 08       		.byte	0x8
 1634 09d4 07       		.byte	0x7
 1635 09d5 1E       		.byte	0x1e
 1636 09d6 C70A0000 		.4byte	0xac7
 1637 09da 0D       		.uleb128 0xd
 1638 09db 4D070000 		.4byte	.LASF155
 1639 09df 07       		.byte	0x7
 1640 09e0 2C       		.byte	0x2c
 1641 09e1 B8090000 		.4byte	0x9b8
 1642 09e5 00       		.byte	0
 1643 09e6 14       		.uleb128 0x14
 1644 09e7 46040000 		.4byte	.LASF156
 1645 09eb 07       		.byte	0x7
 1646 09ec 20       		.byte	0x20
 1647 09ed E8060000 		.4byte	.LASF158
 1648 09f1 01       		.byte	0x1
 1649 09f2 FA090000 		.4byte	0x9fa
 1650 09f6 000A0000 		.4byte	0xa00
 1651 09fa 15       		.uleb128 0x15
 1652 09fb EC0A0000 		.4byte	0xaec
ARM GAS  /tmp/ccCtgIAB.s 			page 30


 1653 09ff 00       		.byte	0
 1654 0a00 14       		.uleb128 0x14
 1655 0a01 78040000 		.4byte	.LASF157
 1656 0a05 07       		.byte	0x7
 1657 0a06 22       		.byte	0x22
 1658 0a07 8D000000 		.4byte	.LASF159
 1659 0a0b 01       		.byte	0x1
 1660 0a0c 140A0000 		.4byte	0xa14
 1661 0a10 290A0000 		.4byte	0xa29
 1662 0a14 15       		.uleb128 0x15
 1663 0a15 EC0A0000 		.4byte	0xaec
 1664 0a19 16       		.uleb128 0x16
 1665 0a1a 2C000000 		.4byte	0x2c
 1666 0a1e 16       		.uleb128 0x16
 1667 0a1f 2C000000 		.4byte	0x2c
 1668 0a23 16       		.uleb128 0x16
 1669 0a24 2C000000 		.4byte	0x2c
 1670 0a28 00       		.byte	0
 1671 0a29 14       		.uleb128 0x14
 1672 0a2a 78040000 		.4byte	.LASF157
 1673 0a2e 07       		.byte	0x7
 1674 0a2f 24       		.byte	0x24
 1675 0a30 CF000000 		.4byte	.LASF160
 1676 0a34 01       		.byte	0x1
 1677 0a35 3D0A0000 		.4byte	0xa3d
 1678 0a39 4D0A0000 		.4byte	0xa4d
 1679 0a3d 15       		.uleb128 0x15
 1680 0a3e EC0A0000 		.4byte	0xaec
 1681 0a42 16       		.uleb128 0x16
 1682 0a43 2C000000 		.4byte	0x2c
 1683 0a47 16       		.uleb128 0x16
 1684 0a48 2C000000 		.4byte	0x2c
 1685 0a4c 00       		.byte	0
 1686 0a4d 17       		.uleb128 0x17
 1687 0a4e 3D040000 		.4byte	.LASF161
 1688 0a52 07       		.byte	0x7
 1689 0a53 26       		.byte	0x26
 1690 0a54 28070000 		.4byte	.LASF162
 1691 0a58 2C000000 		.4byte	0x2c
 1692 0a5c 01       		.byte	0x1
 1693 0a5d 650A0000 		.4byte	0xa65
 1694 0a61 750A0000 		.4byte	0xa75
 1695 0a65 15       		.uleb128 0x15
 1696 0a66 EC0A0000 		.4byte	0xaec
 1697 0a6a 16       		.uleb128 0x16
 1698 0a6b 2C000000 		.4byte	0x2c
 1699 0a6f 16       		.uleb128 0x16
 1700 0a70 2C000000 		.4byte	0x2c
 1701 0a74 00       		.byte	0
 1702 0a75 17       		.uleb128 0x17
 1703 0a76 3D040000 		.4byte	.LASF161
 1704 0a7a 07       		.byte	0x7
 1705 0a7b 27       		.byte	0x27
 1706 0a7c 21010000 		.4byte	.LASF163
 1707 0a80 2C000000 		.4byte	0x2c
 1708 0a84 01       		.byte	0x1
 1709 0a85 8D0A0000 		.4byte	0xa8d
ARM GAS  /tmp/ccCtgIAB.s 			page 31


 1710 0a89 980A0000 		.4byte	0xa98
 1711 0a8d 15       		.uleb128 0x15
 1712 0a8e EC0A0000 		.4byte	0xaec
 1713 0a92 16       		.uleb128 0x16
 1714 0a93 2C000000 		.4byte	0x2c
 1715 0a97 00       		.byte	0
 1716 0a98 18       		.uleb128 0x18
 1717 0a99 43030000 		.4byte	.LASF164
 1718 0a9d 07       		.byte	0x7
 1719 0a9e 28       		.byte	0x28
 1720 0a9f 31060000 		.4byte	.LASF165
 1721 0aa3 2C000000 		.4byte	0x2c
 1722 0aa7 01       		.byte	0x1
 1723 0aa8 AC0A0000 		.4byte	0xaac
 1724 0aac 15       		.uleb128 0x15
 1725 0aad EC0A0000 		.4byte	0xaec
 1726 0ab1 16       		.uleb128 0x16
 1727 0ab2 2C000000 		.4byte	0x2c
 1728 0ab6 16       		.uleb128 0x16
 1729 0ab7 2C000000 		.4byte	0x2c
 1730 0abb 16       		.uleb128 0x16
 1731 0abc 45090000 		.4byte	0x945
 1732 0ac0 16       		.uleb128 0x16
 1733 0ac1 2C000000 		.4byte	0x2c
 1734 0ac5 00       		.byte	0
 1735 0ac6 00       		.byte	0
 1736 0ac7 19       		.uleb128 0x19
 1737 0ac8 D3060000 		.4byte	.LASF181
 1738 0acc 01       		.byte	0x1
 1739 0acd 21       		.byte	0x21
 1740 0ace 5C0F0000 		.4byte	0xf5c
 1741 0ad2 18       		.byte	0x18
 1742 0ad3 08       		.byte	0x8
 1743 0ad4 00       		.byte	0
 1744 0ad5 00       		.byte	0
 1745 0ad6 00       		.byte	0
 1746 0ad7 00       		.byte	0
 1747 0ad8 0E       		.byte	0xe
 1748 0ad9 0E       		.byte	0xe
 1749 0ada 40       		.byte	0x40
 1750 0adb 0B       		.byte	0xb
 1751 0adc 00       		.byte	0
 1752 0add 00       		.byte	0
 1753 0ade 00       		.byte	0
 1754 0adf 10       		.byte	0x10
 1755 0ae0 00       		.byte	0
 1756 0ae1 00       		.byte	0
 1757 0ae2 00       		.byte	0
 1758 0ae3 00       		.byte	0
 1759 0ae4 0E       		.byte	0xe
 1760 0ae5 0E       		.byte	0xe
 1761 0ae6 40       		.byte	0x40
 1762 0ae7 0B       		.byte	0xb
 1763 0ae8 00       		.byte	0
 1764 0ae9 00       		.byte	0
 1765 0aea 00       		.byte	0
 1766 0aeb 00       		.byte	0
ARM GAS  /tmp/ccCtgIAB.s 			page 32


 1767 0aec 0F       		.uleb128 0xf
 1768 0aed 04       		.byte	0x4
 1769 0aee CE090000 		.4byte	0x9ce
 1770 0af2 1A       		.uleb128 0x1a
 1771 0af3 E6090000 		.4byte	0x9e6
 1772 0af7 01       		.byte	0x1
 1773 0af8 23       		.byte	0x23
 1774 0af9 00000000 		.4byte	.LFB7
 1775 0afd 6E000000 		.4byte	.LFE7-.LFB7
 1776 0b01 01       		.uleb128 0x1
 1777 0b02 9C       		.byte	0x9c
 1778 0b03 0B0B0000 		.4byte	0xb0b
 1779 0b07 950B0000 		.4byte	0xb95
 1780 0b0b 1B       		.uleb128 0x1b
 1781 0b0c 61010000 		.4byte	.LASF166
 1782 0b10 950B0000 		.4byte	0xb95
 1783 0b14 00000000 		.4byte	.LLST0
 1784 0b18 1C       		.uleb128 0x1c
 1785 0b19 04000000 		.4byte	.LBB3
 1786 0b1d 06000000 		.4byte	.LBE3-.LBB3
 1787 0b21 330B0000 		.4byte	0xb33
 1788 0b25 1D       		.uleb128 0x1d
 1789 0b26 746D7000 		.ascii	"tmp\000"
 1790 0b2a 01       		.byte	0x1
 1791 0b2b 25       		.byte	0x25
 1792 0b2c 53000000 		.4byte	0x53
 1793 0b30 01       		.uleb128 0x1
 1794 0b31 53       		.byte	0x53
 1795 0b32 00       		.byte	0
 1796 0b33 1C       		.uleb128 0x1c
 1797 0b34 66000000 		.4byte	.LBB4
 1798 0b38 08000000 		.4byte	.LBE4-.LBB4
 1799 0b3c 4E0B0000 		.4byte	0xb4e
 1800 0b40 1D       		.uleb128 0x1d
 1801 0b41 746D7000 		.ascii	"tmp\000"
 1802 0b45 01       		.byte	0x1
 1803 0b46 2C       		.byte	0x2c
 1804 0b47 53000000 		.4byte	0x53
 1805 0b4b 01       		.uleb128 0x1
 1806 0b4c 53       		.byte	0x53
 1807 0b4d 00       		.byte	0
 1808 0b4e 1E       		.uleb128 0x1e
 1809 0b4f 18000000 		.4byte	.LVL2
 1810 0b53 6C0F0000 		.4byte	0xf6c
 1811 0b57 6A0B0000 		.4byte	0xb6a
 1812 0b5b 1F       		.uleb128 0x1f
 1813 0b5c 01       		.uleb128 0x1
 1814 0b5d 51       		.byte	0x51
 1815 0b5e 01       		.uleb128 0x1
 1816 0b5f 32       		.byte	0x32
 1817 0b60 1F       		.uleb128 0x1f
 1818 0b61 01       		.uleb128 0x1
 1819 0b62 50       		.byte	0x50
 1820 0b63 05       		.uleb128 0x5
 1821 0b64 03       		.byte	0x3
 1822 0b65 00000000 		.4byte	.LANCHOR0
 1823 0b69 00       		.byte	0
ARM GAS  /tmp/ccCtgIAB.s 			page 33


 1824 0b6a 1E       		.uleb128 0x1e
 1825 0b6b 5E000000 		.4byte	.LVL3
 1826 0b6f 910F0000 		.4byte	0xf91
 1827 0b73 7E0B0000 		.4byte	0xb7e
 1828 0b77 1F       		.uleb128 0x1f
 1829 0b78 01       		.uleb128 0x1
 1830 0b79 50       		.byte	0x50
 1831 0b7a 02       		.uleb128 0x2
 1832 0b7b 74       		.byte	0x74
 1833 0b7c 00       		.sleb128 0
 1834 0b7d 00       		.byte	0
 1835 0b7e 20       		.uleb128 0x20
 1836 0b7f 66000000 		.4byte	.LVL4
 1837 0b83 AC0F0000 		.4byte	0xfac
 1838 0b87 1F       		.uleb128 0x1f
 1839 0b88 01       		.uleb128 0x1
 1840 0b89 51       		.byte	0x51
 1841 0b8a 02       		.uleb128 0x2
 1842 0b8b 74       		.byte	0x74
 1843 0b8c 00       		.sleb128 0
 1844 0b8d 1F       		.uleb128 0x1f
 1845 0b8e 01       		.uleb128 0x1
 1846 0b8f 50       		.byte	0x50
 1847 0b90 02       		.uleb128 0x2
 1848 0b91 77       		.byte	0x77
 1849 0b92 00       		.sleb128 0
 1850 0b93 00       		.byte	0
 1851 0b94 00       		.byte	0
 1852 0b95 21       		.uleb128 0x21
 1853 0b96 EC0A0000 		.4byte	0xaec
 1854 0b9a 1A       		.uleb128 0x1a
 1855 0b9b 000A0000 		.4byte	0xa00
 1856 0b9f 01       		.byte	0x1
 1857 0ba0 2F       		.byte	0x2f
 1858 0ba1 00000000 		.4byte	.LFB8
 1859 0ba5 28000000 		.4byte	.LFE8-.LFB8
 1860 0ba9 01       		.uleb128 0x1
 1861 0baa 9C       		.byte	0x9c
 1862 0bab B30B0000 		.4byte	0xbb3
 1863 0baf 4E0C0000 		.4byte	0xc4e
 1864 0bb3 1B       		.uleb128 0x1b
 1865 0bb4 61010000 		.4byte	.LASF166
 1866 0bb8 950B0000 		.4byte	0xb95
 1867 0bbc 1E000000 		.4byte	.LLST1
 1868 0bc0 22       		.uleb128 0x22
 1869 0bc1 BF030000 		.4byte	.LASF167
 1870 0bc5 01       		.byte	0x1
 1871 0bc6 2F       		.byte	0x2f
 1872 0bc7 2C000000 		.4byte	0x2c
 1873 0bcb 3F000000 		.4byte	.LLST2
 1874 0bcf 22       		.uleb128 0x22
 1875 0bd0 A2070000 		.4byte	.LASF168
 1876 0bd4 01       		.byte	0x1
 1877 0bd5 2F       		.byte	0x2f
 1878 0bd6 2C000000 		.4byte	0x2c
 1879 0bda 60000000 		.4byte	.LLST3
 1880 0bde 22       		.uleb128 0x22
ARM GAS  /tmp/ccCtgIAB.s 			page 34


 1881 0bdf 00030000 		.4byte	.LASF169
 1882 0be3 01       		.byte	0x1
 1883 0be4 2F       		.byte	0x2f
 1884 0be5 2C000000 		.4byte	0x2c
 1885 0be9 81000000 		.4byte	.LLST4
 1886 0bed 1C       		.uleb128 0x1c
 1887 0bee 0A000000 		.4byte	.LBB6
 1888 0bf2 06000000 		.4byte	.LBE6-.LBB6
 1889 0bf6 080C0000 		.4byte	0xc08
 1890 0bfa 1D       		.uleb128 0x1d
 1891 0bfb 746D7000 		.ascii	"tmp\000"
 1892 0bff 01       		.byte	0x1
 1893 0c00 31       		.byte	0x31
 1894 0c01 53000000 		.4byte	0x53
 1895 0c05 01       		.uleb128 0x1
 1896 0c06 53       		.byte	0x53
 1897 0c07 00       		.byte	0
 1898 0c08 1C       		.uleb128 0x1c
 1899 0c09 1E000000 		.4byte	.LBB7
 1900 0c0d 06000000 		.4byte	.LBE7-.LBB7
 1901 0c11 230C0000 		.4byte	0xc23
 1902 0c15 1D       		.uleb128 0x1d
 1903 0c16 746D7000 		.ascii	"tmp\000"
 1904 0c1a 01       		.byte	0x1
 1905 0c1b 33       		.byte	0x33
 1906 0c1c 53000000 		.4byte	0x53
 1907 0c20 01       		.uleb128 0x1
 1908 0c21 53       		.byte	0x53
 1909 0c22 00       		.byte	0
 1910 0c23 20       		.uleb128 0x20
 1911 0c24 1E000000 		.4byte	.LVL7
 1912 0c28 C80F0000 		.4byte	0xfc8
 1913 0c2c 1F       		.uleb128 0x1f
 1914 0c2d 01       		.uleb128 0x1
 1915 0c2e 53       		.byte	0x53
 1916 0c2f 01       		.uleb128 0x1
 1917 0c30 31       		.byte	0x31
 1918 0c31 1F       		.uleb128 0x1f
 1919 0c32 01       		.uleb128 0x1
 1920 0c33 50       		.byte	0x50
 1921 0c34 03       		.uleb128 0x3
 1922 0c35 F3       		.byte	0xf3
 1923 0c36 01       		.uleb128 0x1
 1924 0c37 50       		.byte	0x50
 1925 0c38 1F       		.uleb128 0x1f
 1926 0c39 02       		.uleb128 0x2
 1927 0c3a 7D       		.byte	0x7d
 1928 0c3b 08       		.sleb128 8
 1929 0c3c 02       		.uleb128 0x2
 1930 0c3d 75       		.byte	0x75
 1931 0c3e 00       		.sleb128 0
 1932 0c3f 1F       		.uleb128 0x1f
 1933 0c40 02       		.uleb128 0x2
 1934 0c41 7D       		.byte	0x7d
 1935 0c42 04       		.sleb128 4
 1936 0c43 01       		.uleb128 0x1
 1937 0c44 31       		.byte	0x31
ARM GAS  /tmp/ccCtgIAB.s 			page 35


 1938 0c45 1F       		.uleb128 0x1f
 1939 0c46 02       		.uleb128 0x2
 1940 0c47 7D       		.byte	0x7d
 1941 0c48 00       		.sleb128 0
 1942 0c49 02       		.uleb128 0x2
 1943 0c4a 74       		.byte	0x74
 1944 0c4b 00       		.sleb128 0
 1945 0c4c 00       		.byte	0
 1946 0c4d 00       		.byte	0
 1947 0c4e 1A       		.uleb128 0x1a
 1948 0c4f 290A0000 		.4byte	0xa29
 1949 0c53 01       		.byte	0x1
 1950 0c54 36       		.byte	0x36
 1951 0c55 00000000 		.4byte	.LFB9
 1952 0c59 2C000000 		.4byte	.LFE9-.LFB9
 1953 0c5d 01       		.uleb128 0x1
 1954 0c5e 9C       		.byte	0x9c
 1955 0c5f 670C0000 		.4byte	0xc67
 1956 0c63 FA0C0000 		.4byte	0xcfa
 1957 0c67 1B       		.uleb128 0x1b
 1958 0c68 61010000 		.4byte	.LASF166
 1959 0c6c 950B0000 		.4byte	0xb95
 1960 0c70 A0000000 		.4byte	.LLST5
 1961 0c74 22       		.uleb128 0x22
 1962 0c75 BF030000 		.4byte	.LASF167
 1963 0c79 01       		.byte	0x1
 1964 0c7a 36       		.byte	0x36
 1965 0c7b 2C000000 		.4byte	0x2c
 1966 0c7f C1000000 		.4byte	.LLST6
 1967 0c83 22       		.uleb128 0x22
 1968 0c84 00030000 		.4byte	.LASF169
 1969 0c88 01       		.byte	0x1
 1970 0c89 36       		.byte	0x36
 1971 0c8a 2C000000 		.4byte	0x2c
 1972 0c8e E2000000 		.4byte	.LLST7
 1973 0c92 1C       		.uleb128 0x1c
 1974 0c93 0A000000 		.4byte	.LBB9
 1975 0c97 06000000 		.4byte	.LBE9-.LBB9
 1976 0c9b AD0C0000 		.4byte	0xcad
 1977 0c9f 1D       		.uleb128 0x1d
 1978 0ca0 746D7000 		.ascii	"tmp\000"
 1979 0ca4 01       		.byte	0x1
 1980 0ca5 38       		.byte	0x38
 1981 0ca6 53000000 		.4byte	0x53
 1982 0caa 01       		.uleb128 0x1
 1983 0cab 53       		.byte	0x53
 1984 0cac 00       		.byte	0
 1985 0cad 1C       		.uleb128 0x1c
 1986 0cae 22000000 		.4byte	.LBB10
 1987 0cb2 06000000 		.4byte	.LBE10-.LBB10
 1988 0cb6 C80C0000 		.4byte	0xcc8
 1989 0cba 1D       		.uleb128 0x1d
 1990 0cbb 746D7000 		.ascii	"tmp\000"
 1991 0cbf 01       		.byte	0x1
 1992 0cc0 3A       		.byte	0x3a
 1993 0cc1 53000000 		.4byte	0x53
 1994 0cc5 01       		.uleb128 0x1
ARM GAS  /tmp/ccCtgIAB.s 			page 36


 1995 0cc6 53       		.byte	0x53
 1996 0cc7 00       		.byte	0
 1997 0cc8 20       		.uleb128 0x20
 1998 0cc9 22000000 		.4byte	.LVL10
 1999 0ccd C80F0000 		.4byte	0xfc8
 2000 0cd1 1F       		.uleb128 0x1f
 2001 0cd2 01       		.uleb128 0x1
 2002 0cd3 53       		.byte	0x53
 2003 0cd4 02       		.uleb128 0x2
 2004 0cd5 74       		.byte	0x74
 2005 0cd6 00       		.sleb128 0
 2006 0cd7 1F       		.uleb128 0x1f
 2007 0cd8 01       		.uleb128 0x1
 2008 0cd9 52       		.byte	0x52
 2009 0cda 02       		.uleb128 0x2
 2010 0cdb 74       		.byte	0x74
 2011 0cdc 00       		.sleb128 0
 2012 0cdd 1F       		.uleb128 0x1f
 2013 0cde 01       		.uleb128 0x1
 2014 0cdf 50       		.byte	0x50
 2015 0ce0 03       		.uleb128 0x3
 2016 0ce1 F3       		.byte	0xf3
 2017 0ce2 01       		.uleb128 0x1
 2018 0ce3 50       		.byte	0x50
 2019 0ce4 1F       		.uleb128 0x1f
 2020 0ce5 02       		.uleb128 0x2
 2021 0ce6 7D       		.byte	0x7d
 2022 0ce7 08       		.sleb128 8
 2023 0ce8 02       		.uleb128 0x2
 2024 0ce9 74       		.byte	0x74
 2025 0cea 00       		.sleb128 0
 2026 0ceb 1F       		.uleb128 0x1f
 2027 0cec 02       		.uleb128 0x2
 2028 0ced 7D       		.byte	0x7d
 2029 0cee 04       		.sleb128 4
 2030 0cef 01       		.uleb128 0x1
 2031 0cf0 31       		.byte	0x31
 2032 0cf1 1F       		.uleb128 0x1f
 2033 0cf2 02       		.uleb128 0x2
 2034 0cf3 7D       		.byte	0x7d
 2035 0cf4 00       		.sleb128 0
 2036 0cf5 02       		.uleb128 0x2
 2037 0cf6 75       		.byte	0x75
 2038 0cf7 00       		.sleb128 0
 2039 0cf8 00       		.byte	0
 2040 0cf9 00       		.byte	0
 2041 0cfa 1A       		.uleb128 0x1a
 2042 0cfb 4D0A0000 		.4byte	0xa4d
 2043 0cff 01       		.byte	0x1
 2044 0d00 3D       		.byte	0x3d
 2045 0d01 00000000 		.4byte	.LFB10
 2046 0d05 2E000000 		.4byte	.LFE10-.LFB10
 2047 0d09 01       		.uleb128 0x1
 2048 0d0a 9C       		.byte	0x9c
 2049 0d0b 130D0000 		.4byte	0xd13
 2050 0d0f BC0D0000 		.4byte	0xdbc
 2051 0d13 1B       		.uleb128 0x1b
ARM GAS  /tmp/ccCtgIAB.s 			page 37


 2052 0d14 61010000 		.4byte	.LASF166
 2053 0d18 950B0000 		.4byte	0xb95
 2054 0d1c 01010000 		.4byte	.LLST8
 2055 0d20 22       		.uleb128 0x22
 2056 0d21 BF030000 		.4byte	.LASF167
 2057 0d25 01       		.byte	0x1
 2058 0d26 3D       		.byte	0x3d
 2059 0d27 2C000000 		.4byte	0x2c
 2060 0d2b 22010000 		.4byte	.LLST9
 2061 0d2f 22       		.uleb128 0x22
 2062 0d30 A2070000 		.4byte	.LASF168
 2063 0d34 01       		.byte	0x1
 2064 0d35 3D       		.byte	0x3d
 2065 0d36 2C000000 		.4byte	0x2c
 2066 0d3a 43010000 		.4byte	.LLST10
 2067 0d3e 23       		.uleb128 0x23
 2068 0d3f 00000000 		.4byte	.Ldebug_ranges0+0
 2069 0d43 1D       		.uleb128 0x1d
 2070 0d44 72657400 		.ascii	"ret\000"
 2071 0d48 01       		.byte	0x1
 2072 0d49 40       		.byte	0x40
 2073 0d4a 2C000000 		.4byte	0x2c
 2074 0d4e 01       		.uleb128 0x1
 2075 0d4f 56       		.byte	0x56
 2076 0d50 24       		.uleb128 0x24
 2077 0d51 00030000 		.4byte	.LASF169
 2078 0d55 01       		.byte	0x1
 2079 0d56 41       		.byte	0x41
 2080 0d57 2C000000 		.4byte	0x2c
 2081 0d5b 02       		.uleb128 0x2
 2082 0d5c 91       		.byte	0x91
 2083 0d5d 6F       		.sleb128 -17
 2084 0d5e 25       		.uleb128 0x25
 2085 0d5f 18000000 		.4byte	.Ldebug_ranges0+0x18
 2086 0d63 750D0000 		.4byte	0xd75
 2087 0d67 1D       		.uleb128 0x1d
 2088 0d68 746D7000 		.ascii	"tmp\000"
 2089 0d6c 01       		.byte	0x1
 2090 0d6d 3F       		.byte	0x3f
 2091 0d6e 53000000 		.4byte	0x53
 2092 0d72 01       		.uleb128 0x1
 2093 0d73 53       		.byte	0x53
 2094 0d74 00       		.byte	0
 2095 0d75 1C       		.uleb128 0x1c
 2096 0d76 22000000 		.4byte	.LBB14
 2097 0d7a 06000000 		.4byte	.LBE14-.LBB14
 2098 0d7e 900D0000 		.4byte	0xd90
 2099 0d82 1D       		.uleb128 0x1d
 2100 0d83 746D7000 		.ascii	"tmp\000"
 2101 0d87 01       		.byte	0x1
 2102 0d88 44       		.byte	0x44
 2103 0d89 53000000 		.4byte	0x53
 2104 0d8d 01       		.uleb128 0x1
 2105 0d8e 53       		.byte	0x53
 2106 0d8f 00       		.byte	0
 2107 0d90 20       		.uleb128 0x20
 2108 0d91 1C000000 		.4byte	.LVL12
ARM GAS  /tmp/ccCtgIAB.s 			page 38


 2109 0d95 FB0F0000 		.4byte	0xffb
 2110 0d99 1F       		.uleb128 0x1f
 2111 0d9a 01       		.uleb128 0x1
 2112 0d9b 53       		.byte	0x53
 2113 0d9c 01       		.uleb128 0x1
 2114 0d9d 31       		.byte	0x31
 2115 0d9e 1F       		.uleb128 0x1f
 2116 0d9f 01       		.uleb128 0x1
 2117 0da0 50       		.byte	0x50
 2118 0da1 03       		.uleb128 0x3
 2119 0da2 F3       		.byte	0xf3
 2120 0da3 01       		.uleb128 0x1
 2121 0da4 50       		.byte	0x50
 2122 0da5 1F       		.uleb128 0x1f
 2123 0da6 02       		.uleb128 0x2
 2124 0da7 7D       		.byte	0x7d
 2125 0da8 08       		.sleb128 8
 2126 0da9 02       		.uleb128 0x2
 2127 0daa 74       		.byte	0x74
 2128 0dab 00       		.sleb128 0
 2129 0dac 1F       		.uleb128 0x1f
 2130 0dad 02       		.uleb128 0x2
 2131 0dae 7D       		.byte	0x7d
 2132 0daf 04       		.sleb128 4
 2133 0db0 01       		.uleb128 0x1
 2134 0db1 31       		.byte	0x31
 2135 0db2 1F       		.uleb128 0x1f
 2136 0db3 02       		.uleb128 0x2
 2137 0db4 7D       		.byte	0x7d
 2138 0db5 00       		.sleb128 0
 2139 0db6 02       		.uleb128 0x2
 2140 0db7 75       		.byte	0x75
 2141 0db8 00       		.sleb128 0
 2142 0db9 00       		.byte	0
 2143 0dba 00       		.byte	0
 2144 0dbb 00       		.byte	0
 2145 0dbc 1A       		.uleb128 0x1a
 2146 0dbd 750A0000 		.4byte	0xa75
 2147 0dc1 01       		.byte	0x1
 2148 0dc2 48       		.byte	0x48
 2149 0dc3 00000000 		.4byte	.LFB11
 2150 0dc7 30000000 		.4byte	.LFE11-.LFB11
 2151 0dcb 01       		.uleb128 0x1
 2152 0dcc 9C       		.byte	0x9c
 2153 0dcd D50D0000 		.4byte	0xdd5
 2154 0dd1 740E0000 		.4byte	0xe74
 2155 0dd5 1B       		.uleb128 0x1b
 2156 0dd6 61010000 		.4byte	.LASF166
 2157 0dda 950B0000 		.4byte	0xb95
 2158 0dde 64010000 		.4byte	.LLST11
 2159 0de2 22       		.uleb128 0x22
 2160 0de3 BF030000 		.4byte	.LASF167
 2161 0de7 01       		.byte	0x1
 2162 0de8 48       		.byte	0x48
 2163 0de9 2C000000 		.4byte	0x2c
 2164 0ded 85010000 		.4byte	.LLST12
 2165 0df1 23       		.uleb128 0x23
ARM GAS  /tmp/ccCtgIAB.s 			page 39


 2166 0df2 30000000 		.4byte	.Ldebug_ranges0+0x30
 2167 0df6 1D       		.uleb128 0x1d
 2168 0df7 72657400 		.ascii	"ret\000"
 2169 0dfb 01       		.byte	0x1
 2170 0dfc 4B       		.byte	0x4b
 2171 0dfd 2C000000 		.4byte	0x2c
 2172 0e01 01       		.uleb128 0x1
 2173 0e02 56       		.byte	0x56
 2174 0e03 24       		.uleb128 0x24
 2175 0e04 00030000 		.4byte	.LASF169
 2176 0e08 01       		.byte	0x1
 2177 0e09 4C       		.byte	0x4c
 2178 0e0a 2C000000 		.4byte	0x2c
 2179 0e0e 02       		.uleb128 0x2
 2180 0e0f 91       		.byte	0x91
 2181 0e10 6F       		.sleb128 -17
 2182 0e11 25       		.uleb128 0x25
 2183 0e12 48000000 		.4byte	.Ldebug_ranges0+0x48
 2184 0e16 280E0000 		.4byte	0xe28
 2185 0e1a 1D       		.uleb128 0x1d
 2186 0e1b 746D7000 		.ascii	"tmp\000"
 2187 0e1f 01       		.byte	0x1
 2188 0e20 4A       		.byte	0x4a
 2189 0e21 53000000 		.4byte	0x53
 2190 0e25 01       		.uleb128 0x1
 2191 0e26 53       		.byte	0x53
 2192 0e27 00       		.byte	0
 2193 0e28 1C       		.uleb128 0x1c
 2194 0e29 24000000 		.4byte	.LBB19
 2195 0e2d 06000000 		.4byte	.LBE19-.LBB19
 2196 0e31 430E0000 		.4byte	0xe43
 2197 0e35 1D       		.uleb128 0x1d
 2198 0e36 746D7000 		.ascii	"tmp\000"
 2199 0e3a 01       		.byte	0x1
 2200 0e3b 4F       		.byte	0x4f
 2201 0e3c 53000000 		.4byte	0x53
 2202 0e40 01       		.uleb128 0x1
 2203 0e41 53       		.byte	0x53
 2204 0e42 00       		.byte	0
 2205 0e43 20       		.uleb128 0x20
 2206 0e44 1E000000 		.4byte	.LVL15
 2207 0e48 FB0F0000 		.4byte	0xffb
 2208 0e4c 1F       		.uleb128 0x1f
 2209 0e4d 01       		.uleb128 0x1
 2210 0e4e 53       		.byte	0x53
 2211 0e4f 01       		.uleb128 0x1
 2212 0e50 30       		.byte	0x30
 2213 0e51 1F       		.uleb128 0x1f
 2214 0e52 01       		.uleb128 0x1
 2215 0e53 52       		.byte	0x52
 2216 0e54 01       		.uleb128 0x1
 2217 0e55 30       		.byte	0x30
 2218 0e56 1F       		.uleb128 0x1f
 2219 0e57 01       		.uleb128 0x1
 2220 0e58 50       		.byte	0x50
 2221 0e59 03       		.uleb128 0x3
 2222 0e5a F3       		.byte	0xf3
ARM GAS  /tmp/ccCtgIAB.s 			page 40


 2223 0e5b 01       		.uleb128 0x1
 2224 0e5c 50       		.byte	0x50
 2225 0e5d 1F       		.uleb128 0x1f
 2226 0e5e 02       		.uleb128 0x2
 2227 0e5f 7D       		.byte	0x7d
 2228 0e60 08       		.sleb128 8
 2229 0e61 01       		.uleb128 0x1
 2230 0e62 30       		.byte	0x30
 2231 0e63 1F       		.uleb128 0x1f
 2232 0e64 02       		.uleb128 0x2
 2233 0e65 7D       		.byte	0x7d
 2234 0e66 04       		.sleb128 4
 2235 0e67 02       		.uleb128 0x2
 2236 0e68 74       		.byte	0x74
 2237 0e69 00       		.sleb128 0
 2238 0e6a 1F       		.uleb128 0x1f
 2239 0e6b 02       		.uleb128 0x2
 2240 0e6c 7D       		.byte	0x7d
 2241 0e6d 00       		.sleb128 0
 2242 0e6e 02       		.uleb128 0x2
 2243 0e6f 75       		.byte	0x75
 2244 0e70 00       		.sleb128 0
 2245 0e71 00       		.byte	0
 2246 0e72 00       		.byte	0
 2247 0e73 00       		.byte	0
 2248 0e74 1A       		.uleb128 0x1a
 2249 0e75 980A0000 		.4byte	0xa98
 2250 0e79 01       		.byte	0x1
 2251 0e7a 53       		.byte	0x53
 2252 0e7b 00000000 		.4byte	.LFB12
 2253 0e7f 30000000 		.4byte	.LFE12-.LFB12
 2254 0e83 01       		.uleb128 0x1
 2255 0e84 9C       		.byte	0x9c
 2256 0e85 8D0E0000 		.4byte	0xe8d
 2257 0e89 4C0F0000 		.4byte	0xf4c
 2258 0e8d 1B       		.uleb128 0x1b
 2259 0e8e 61010000 		.4byte	.LASF166
 2260 0e92 950B0000 		.4byte	0xb95
 2261 0e96 A6010000 		.4byte	.LLST13
 2262 0e9a 22       		.uleb128 0x22
 2263 0e9b BF030000 		.4byte	.LASF167
 2264 0e9f 01       		.byte	0x1
 2265 0ea0 53       		.byte	0x53
 2266 0ea1 2C000000 		.4byte	0x2c
 2267 0ea5 C7010000 		.4byte	.LLST14
 2268 0ea9 22       		.uleb128 0x22
 2269 0eaa A2070000 		.4byte	.LASF168
 2270 0eae 01       		.byte	0x1
 2271 0eaf 53       		.byte	0x53
 2272 0eb0 2C000000 		.4byte	0x2c
 2273 0eb4 E8010000 		.4byte	.LLST15
 2274 0eb8 22       		.uleb128 0x22
 2275 0eb9 1B040000 		.4byte	.LASF170
 2276 0ebd 01       		.byte	0x1
 2277 0ebe 53       		.byte	0x53
 2278 0ebf 45090000 		.4byte	0x945
 2279 0ec3 09020000 		.4byte	.LLST16
ARM GAS  /tmp/ccCtgIAB.s 			page 41


 2280 0ec7 26       		.uleb128 0x26
 2281 0ec8 00000000 		.4byte	.LASF171
 2282 0ecc 01       		.byte	0x1
 2283 0ecd 54       		.byte	0x54
 2284 0ece 2C000000 		.4byte	0x2c
 2285 0ed2 02       		.uleb128 0x2
 2286 0ed3 91       		.byte	0x91
 2287 0ed4 00       		.sleb128 0
 2288 0ed5 27       		.uleb128 0x27
 2289 0ed6 0A000000 		.4byte	.LBB21
 2290 0eda 20000000 		.4byte	.LBE21-.LBB21
 2291 0ede 28       		.uleb128 0x28
 2292 0edf 72657400 		.ascii	"ret\000"
 2293 0ee3 01       		.byte	0x1
 2294 0ee4 56       		.byte	0x56
 2295 0ee5 2C000000 		.4byte	0x2c
 2296 0ee9 27020000 		.4byte	.LLST17
 2297 0eed 1C       		.uleb128 0x1c
 2298 0eee 0A000000 		.4byte	.LBB22
 2299 0ef2 06000000 		.4byte	.LBE22-.LBB22
 2300 0ef6 080F0000 		.4byte	0xf08
 2301 0efa 1D       		.uleb128 0x1d
 2302 0efb 746D7000 		.ascii	"tmp\000"
 2303 0eff 01       		.byte	0x1
 2304 0f00 55       		.byte	0x55
 2305 0f01 53000000 		.4byte	0x53
 2306 0f05 01       		.uleb128 0x1
 2307 0f06 53       		.byte	0x53
 2308 0f07 00       		.byte	0
 2309 0f08 25       		.uleb128 0x25
 2310 0f09 60000000 		.4byte	.Ldebug_ranges0+0x60
 2311 0f0d 1F0F0000 		.4byte	0xf1f
 2312 0f11 1D       		.uleb128 0x1d
 2313 0f12 746D7000 		.ascii	"tmp\000"
 2314 0f16 01       		.byte	0x1
 2315 0f17 5B       		.byte	0x5b
 2316 0f18 53000000 		.4byte	0x53
 2317 0f1c 01       		.uleb128 0x1
 2318 0f1d 53       		.byte	0x53
 2319 0f1e 00       		.byte	0
 2320 0f1f 20       		.uleb128 0x20
 2321 0f20 1E000000 		.4byte	.LVL20
 2322 0f24 FB0F0000 		.4byte	0xffb
 2323 0f28 1F       		.uleb128 0x1f
 2324 0f29 01       		.uleb128 0x1
 2325 0f2a 53       		.byte	0x53
 2326 0f2b 01       		.uleb128 0x1
 2327 0f2c 31       		.byte	0x31
 2328 0f2d 1F       		.uleb128 0x1f
 2329 0f2e 01       		.uleb128 0x1
 2330 0f2f 50       		.byte	0x50
 2331 0f30 03       		.uleb128 0x3
 2332 0f31 F3       		.byte	0xf3
 2333 0f32 01       		.uleb128 0x1
 2334 0f33 50       		.byte	0x50
 2335 0f34 1F       		.uleb128 0x1f
 2336 0f35 02       		.uleb128 0x2
ARM GAS  /tmp/ccCtgIAB.s 			page 42


 2337 0f36 7D       		.byte	0x7d
 2338 0f37 08       		.sleb128 8
 2339 0f38 02       		.uleb128 0x2
 2340 0f39 75       		.byte	0x75
 2341 0f3a 00       		.sleb128 0
 2342 0f3b 1F       		.uleb128 0x1f
 2343 0f3c 02       		.uleb128 0x2
 2344 0f3d 7D       		.byte	0x7d
 2345 0f3e 04       		.sleb128 4
 2346 0f3f 02       		.uleb128 0x2
 2347 0f40 74       		.byte	0x74
 2348 0f41 00       		.sleb128 0
 2349 0f42 1F       		.uleb128 0x1f
 2350 0f43 02       		.uleb128 0x2
 2351 0f44 7D       		.byte	0x7d
 2352 0f45 00       		.sleb128 0
 2353 0f46 02       		.uleb128 0x2
 2354 0f47 76       		.byte	0x76
 2355 0f48 00       		.sleb128 0
 2356 0f49 00       		.byte	0
 2357 0f4a 00       		.byte	0
 2358 0f4b 00       		.byte	0
 2359 0f4c 06       		.uleb128 0x6
 2360 0f4d DE080000 		.4byte	0x8de
 2361 0f51 5C0F0000 		.4byte	0xf5c
 2362 0f55 07       		.uleb128 0x7
 2363 0f56 A7000000 		.4byte	0xa7
 2364 0f5a 01       		.byte	0x1
 2365 0f5b 00       		.byte	0
 2366 0f5c 21       		.uleb128 0x21
 2367 0f5d 4C0F0000 		.4byte	0xf4c
 2368 0f61 29       		.uleb128 0x29
 2369 0f62 C70A0000 		.4byte	0xac7
 2370 0f66 05       		.uleb128 0x5
 2371 0f67 03       		.byte	0x3
 2372 0f68 00000000 		.4byte	_ZN7creatorL4pinsE
 2373 0f6c 2A       		.uleb128 0x2a
 2374 0f6d 55000000 		.4byte	.LASF174
 2375 0f71 04       		.byte	0x4
 2376 0f72 DD       		.byte	0xdd
 2377 0f73 2C000000 		.4byte	0x2c
 2378 0f77 860F0000 		.4byte	0xf86
 2379 0f7b 16       		.uleb128 0x16
 2380 0f7c 860F0000 		.4byte	0xf86
 2381 0f80 16       		.uleb128 0x16
 2382 0f81 53000000 		.4byte	0x53
 2383 0f85 00       		.byte	0
 2384 0f86 0F       		.uleb128 0xf
 2385 0f87 04       		.byte	0x4
 2386 0f88 8C0F0000 		.4byte	0xf8c
 2387 0f8c 21       		.uleb128 0x21
 2388 0f8d 2C090000 		.4byte	0x92c
 2389 0f91 2B       		.uleb128 0x2b
 2390 0f92 FE050000 		.4byte	.LASF172
 2391 0f96 08       		.byte	0x8
 2392 0f97 44       		.byte	0x44
 2393 0f98 AC0F0000 		.4byte	0xfac
ARM GAS  /tmp/ccCtgIAB.s 			page 43


 2394 0f9c 16       		.uleb128 0x16
 2395 0f9d AC090000 		.4byte	0x9ac
 2396 0fa1 16       		.uleb128 0x16
 2397 0fa2 53000000 		.4byte	0x53
 2398 0fa6 16       		.uleb128 0x16
 2399 0fa7 53000000 		.4byte	0x53
 2400 0fab 00       		.byte	0
 2401 0fac 2B       		.uleb128 0x2b
 2402 0fad BC010000 		.4byte	.LASF173
 2403 0fb1 06       		.byte	0x6
 2404 0fb2 46       		.byte	0x46
 2405 0fb3 C20F0000 		.4byte	0xfc2
 2406 0fb7 16       		.uleb128 0x16
 2407 0fb8 C20F0000 		.4byte	0xfc2
 2408 0fbc 16       		.uleb128 0x16
 2409 0fbd AC090000 		.4byte	0x9ac
 2410 0fc1 00       		.byte	0
 2411 0fc2 0F       		.uleb128 0xf
 2412 0fc3 04       		.byte	0x4
 2413 0fc4 B8090000 		.4byte	0x9b8
 2414 0fc8 2A       		.uleb128 0x2a
 2415 0fc9 51060000 		.4byte	.LASF175
 2416 0fcd 06       		.byte	0x6
 2417 0fce 53       		.byte	0x53
 2418 0fcf 2C000000 		.4byte	0x2c
 2419 0fd3 FB0F0000 		.4byte	0xffb
 2420 0fd7 16       		.uleb128 0x16
 2421 0fd8 C20F0000 		.4byte	0xfc2
 2422 0fdc 16       		.uleb128 0x16
 2423 0fdd 2C000000 		.4byte	0x2c
 2424 0fe1 16       		.uleb128 0x16
 2425 0fe2 53000000 		.4byte	0x53
 2426 0fe6 16       		.uleb128 0x16
 2427 0fe7 2C000000 		.4byte	0x2c
 2428 0feb 16       		.uleb128 0x16
 2429 0fec 45090000 		.4byte	0x945
 2430 0ff0 16       		.uleb128 0x16
 2431 0ff1 53000000 		.4byte	0x53
 2432 0ff5 16       		.uleb128 0x16
 2433 0ff6 B2090000 		.4byte	0x9b2
 2434 0ffa 00       		.byte	0
 2435 0ffb 2C       		.uleb128 0x2c
 2436 0ffc D4030000 		.4byte	.LASF176
 2437 1000 06       		.byte	0x6
 2438 1001 4A       		.byte	0x4a
 2439 1002 2C000000 		.4byte	0x2c
 2440 1006 16       		.uleb128 0x16
 2441 1007 C20F0000 		.4byte	0xfc2
 2442 100b 16       		.uleb128 0x16
 2443 100c 2C000000 		.4byte	0x2c
 2444 1010 16       		.uleb128 0x16
 2445 1011 53000000 		.4byte	0x53
 2446 1015 16       		.uleb128 0x16
 2447 1016 2C000000 		.4byte	0x2c
 2448 101a 16       		.uleb128 0x16
 2449 101b 45090000 		.4byte	0x945
 2450 101f 16       		.uleb128 0x16
ARM GAS  /tmp/ccCtgIAB.s 			page 44


 2451 1020 53000000 		.4byte	0x53
 2452 1024 16       		.uleb128 0x16
 2453 1025 B2090000 		.4byte	0x9b2
 2454 1029 00       		.byte	0
 2455 102a 00       		.byte	0
 2456              		.section	.debug_abbrev,"",%progbits
 2457              	.Ldebug_abbrev0:
 2458 0000 01       		.uleb128 0x1
 2459 0001 11       		.uleb128 0x11
 2460 0002 01       		.byte	0x1
 2461 0003 25       		.uleb128 0x25
 2462 0004 0E       		.uleb128 0xe
 2463 0005 13       		.uleb128 0x13
 2464 0006 0B       		.uleb128 0xb
 2465 0007 03       		.uleb128 0x3
 2466 0008 0E       		.uleb128 0xe
 2467 0009 1B       		.uleb128 0x1b
 2468 000a 0E       		.uleb128 0xe
 2469 000b 55       		.uleb128 0x55
 2470 000c 17       		.uleb128 0x17
 2471 000d 11       		.uleb128 0x11
 2472 000e 01       		.uleb128 0x1
 2473 000f 10       		.uleb128 0x10
 2474 0010 17       		.uleb128 0x17
 2475 0011 00       		.byte	0
 2476 0012 00       		.byte	0
 2477 0013 02       		.uleb128 0x2
 2478 0014 24       		.uleb128 0x24
 2479 0015 00       		.byte	0
 2480 0016 0B       		.uleb128 0xb
 2481 0017 0B       		.uleb128 0xb
 2482 0018 3E       		.uleb128 0x3e
 2483 0019 0B       		.uleb128 0xb
 2484 001a 03       		.uleb128 0x3
 2485 001b 0E       		.uleb128 0xe
 2486 001c 00       		.byte	0
 2487 001d 00       		.byte	0
 2488 001e 03       		.uleb128 0x3
 2489 001f 16       		.uleb128 0x16
 2490 0020 00       		.byte	0
 2491 0021 03       		.uleb128 0x3
 2492 0022 0E       		.uleb128 0xe
 2493 0023 3A       		.uleb128 0x3a
 2494 0024 0B       		.uleb128 0xb
 2495 0025 3B       		.uleb128 0x3b
 2496 0026 0B       		.uleb128 0xb
 2497 0027 49       		.uleb128 0x49
 2498 0028 13       		.uleb128 0x13
 2499 0029 00       		.byte	0
 2500 002a 00       		.byte	0
 2501 002b 04       		.uleb128 0x4
 2502 002c 24       		.uleb128 0x24
 2503 002d 00       		.byte	0
 2504 002e 0B       		.uleb128 0xb
 2505 002f 0B       		.uleb128 0xb
 2506 0030 3E       		.uleb128 0x3e
 2507 0031 0B       		.uleb128 0xb
ARM GAS  /tmp/ccCtgIAB.s 			page 45


 2508 0032 03       		.uleb128 0x3
 2509 0033 08       		.uleb128 0x8
 2510 0034 00       		.byte	0
 2511 0035 00       		.byte	0
 2512 0036 05       		.uleb128 0x5
 2513 0037 35       		.uleb128 0x35
 2514 0038 00       		.byte	0
 2515 0039 49       		.uleb128 0x49
 2516 003a 13       		.uleb128 0x13
 2517 003b 00       		.byte	0
 2518 003c 00       		.byte	0
 2519 003d 06       		.uleb128 0x6
 2520 003e 01       		.uleb128 0x1
 2521 003f 01       		.byte	0x1
 2522 0040 49       		.uleb128 0x49
 2523 0041 13       		.uleb128 0x13
 2524 0042 01       		.uleb128 0x1
 2525 0043 13       		.uleb128 0x13
 2526 0044 00       		.byte	0
 2527 0045 00       		.byte	0
 2528 0046 07       		.uleb128 0x7
 2529 0047 21       		.uleb128 0x21
 2530 0048 00       		.byte	0
 2531 0049 49       		.uleb128 0x49
 2532 004a 13       		.uleb128 0x13
 2533 004b 2F       		.uleb128 0x2f
 2534 004c 0B       		.uleb128 0xb
 2535 004d 00       		.byte	0
 2536 004e 00       		.byte	0
 2537 004f 08       		.uleb128 0x8
 2538 0050 13       		.uleb128 0x13
 2539 0051 01       		.byte	0x1
 2540 0052 0B       		.uleb128 0xb
 2541 0053 05       		.uleb128 0x5
 2542 0054 3A       		.uleb128 0x3a
 2543 0055 0B       		.uleb128 0xb
 2544 0056 3B       		.uleb128 0x3b
 2545 0057 05       		.uleb128 0x5
 2546 0058 6E       		.uleb128 0x6e
 2547 0059 0E       		.uleb128 0xe
 2548 005a 01       		.uleb128 0x1
 2549 005b 13       		.uleb128 0x13
 2550 005c 00       		.byte	0
 2551 005d 00       		.byte	0
 2552 005e 09       		.uleb128 0x9
 2553 005f 0D       		.uleb128 0xd
 2554 0060 00       		.byte	0
 2555 0061 03       		.uleb128 0x3
 2556 0062 0E       		.uleb128 0xe
 2557 0063 3A       		.uleb128 0x3a
 2558 0064 0B       		.uleb128 0xb
 2559 0065 3B       		.uleb128 0x3b
 2560 0066 05       		.uleb128 0x5
 2561 0067 49       		.uleb128 0x49
 2562 0068 13       		.uleb128 0x13
 2563 0069 38       		.uleb128 0x38
 2564 006a 0B       		.uleb128 0xb
ARM GAS  /tmp/ccCtgIAB.s 			page 46


 2565 006b 00       		.byte	0
 2566 006c 00       		.byte	0
 2567 006d 0A       		.uleb128 0xa
 2568 006e 0D       		.uleb128 0xd
 2569 006f 00       		.byte	0
 2570 0070 03       		.uleb128 0x3
 2571 0071 0E       		.uleb128 0xe
 2572 0072 3A       		.uleb128 0x3a
 2573 0073 0B       		.uleb128 0xb
 2574 0074 3B       		.uleb128 0x3b
 2575 0075 05       		.uleb128 0x5
 2576 0076 49       		.uleb128 0x49
 2577 0077 13       		.uleb128 0x13
 2578 0078 38       		.uleb128 0x38
 2579 0079 05       		.uleb128 0x5
 2580 007a 00       		.byte	0
 2581 007b 00       		.byte	0
 2582 007c 0B       		.uleb128 0xb
 2583 007d 16       		.uleb128 0x16
 2584 007e 00       		.byte	0
 2585 007f 03       		.uleb128 0x3
 2586 0080 08       		.uleb128 0x8
 2587 0081 3A       		.uleb128 0x3a
 2588 0082 0B       		.uleb128 0xb
 2589 0083 3B       		.uleb128 0x3b
 2590 0084 05       		.uleb128 0x5
 2591 0085 49       		.uleb128 0x49
 2592 0086 13       		.uleb128 0x13
 2593 0087 00       		.byte	0
 2594 0088 00       		.byte	0
 2595 0089 0C       		.uleb128 0xc
 2596 008a 13       		.uleb128 0x13
 2597 008b 01       		.byte	0x1
 2598 008c 03       		.uleb128 0x3
 2599 008d 0E       		.uleb128 0xe
 2600 008e 0B       		.uleb128 0xb
 2601 008f 0B       		.uleb128 0xb
 2602 0090 3A       		.uleb128 0x3a
 2603 0091 0B       		.uleb128 0xb
 2604 0092 3B       		.uleb128 0x3b
 2605 0093 0B       		.uleb128 0xb
 2606 0094 01       		.uleb128 0x1
 2607 0095 13       		.uleb128 0x13
 2608 0096 00       		.byte	0
 2609 0097 00       		.byte	0
 2610 0098 0D       		.uleb128 0xd
 2611 0099 0D       		.uleb128 0xd
 2612 009a 00       		.byte	0
 2613 009b 03       		.uleb128 0x3
 2614 009c 0E       		.uleb128 0xe
 2615 009d 3A       		.uleb128 0x3a
 2616 009e 0B       		.uleb128 0xb
 2617 009f 3B       		.uleb128 0x3b
 2618 00a0 0B       		.uleb128 0xb
 2619 00a1 49       		.uleb128 0x49
 2620 00a2 13       		.uleb128 0x13
 2621 00a3 38       		.uleb128 0x38
ARM GAS  /tmp/ccCtgIAB.s 			page 47


 2622 00a4 0B       		.uleb128 0xb
 2623 00a5 00       		.byte	0
 2624 00a6 00       		.byte	0
 2625 00a7 0E       		.uleb128 0xe
 2626 00a8 0D       		.uleb128 0xd
 2627 00a9 00       		.byte	0
 2628 00aa 03       		.uleb128 0x3
 2629 00ab 08       		.uleb128 0x8
 2630 00ac 3A       		.uleb128 0x3a
 2631 00ad 0B       		.uleb128 0xb
 2632 00ae 3B       		.uleb128 0x3b
 2633 00af 0B       		.uleb128 0xb
 2634 00b0 49       		.uleb128 0x49
 2635 00b1 13       		.uleb128 0x13
 2636 00b2 38       		.uleb128 0x38
 2637 00b3 0B       		.uleb128 0xb
 2638 00b4 00       		.byte	0
 2639 00b5 00       		.byte	0
 2640 00b6 0F       		.uleb128 0xf
 2641 00b7 0F       		.uleb128 0xf
 2642 00b8 00       		.byte	0
 2643 00b9 0B       		.uleb128 0xb
 2644 00ba 0B       		.uleb128 0xb
 2645 00bb 49       		.uleb128 0x49
 2646 00bc 13       		.uleb128 0x13
 2647 00bd 00       		.byte	0
 2648 00be 00       		.byte	0
 2649 00bf 10       		.uleb128 0x10
 2650 00c0 16       		.uleb128 0x16
 2651 00c1 00       		.byte	0
 2652 00c2 03       		.uleb128 0x3
 2653 00c3 08       		.uleb128 0x8
 2654 00c4 3A       		.uleb128 0x3a
 2655 00c5 0B       		.uleb128 0xb
 2656 00c6 3B       		.uleb128 0x3b
 2657 00c7 0B       		.uleb128 0xb
 2658 00c8 49       		.uleb128 0x49
 2659 00c9 13       		.uleb128 0x13
 2660 00ca 00       		.byte	0
 2661 00cb 00       		.byte	0
 2662 00cc 11       		.uleb128 0x11
 2663 00cd 0F       		.uleb128 0xf
 2664 00ce 00       		.byte	0
 2665 00cf 0B       		.uleb128 0xb
 2666 00d0 0B       		.uleb128 0xb
 2667 00d1 00       		.byte	0
 2668 00d2 00       		.byte	0
 2669 00d3 12       		.uleb128 0x12
 2670 00d4 39       		.uleb128 0x39
 2671 00d5 01       		.byte	0x1
 2672 00d6 03       		.uleb128 0x3
 2673 00d7 0E       		.uleb128 0xe
 2674 00d8 3A       		.uleb128 0x3a
 2675 00d9 0B       		.uleb128 0xb
 2676 00da 3B       		.uleb128 0x3b
 2677 00db 0B       		.uleb128 0xb
 2678 00dc 01       		.uleb128 0x1
ARM GAS  /tmp/ccCtgIAB.s 			page 48


 2679 00dd 13       		.uleb128 0x13
 2680 00de 00       		.byte	0
 2681 00df 00       		.byte	0
 2682 00e0 13       		.uleb128 0x13
 2683 00e1 02       		.uleb128 0x2
 2684 00e2 01       		.byte	0x1
 2685 00e3 03       		.uleb128 0x3
 2686 00e4 08       		.uleb128 0x8
 2687 00e5 0B       		.uleb128 0xb
 2688 00e6 0B       		.uleb128 0xb
 2689 00e7 3A       		.uleb128 0x3a
 2690 00e8 0B       		.uleb128 0xb
 2691 00e9 3B       		.uleb128 0x3b
 2692 00ea 0B       		.uleb128 0xb
 2693 00eb 01       		.uleb128 0x1
 2694 00ec 13       		.uleb128 0x13
 2695 00ed 00       		.byte	0
 2696 00ee 00       		.byte	0
 2697 00ef 14       		.uleb128 0x14
 2698 00f0 2E       		.uleb128 0x2e
 2699 00f1 01       		.byte	0x1
 2700 00f2 3F       		.uleb128 0x3f
 2701 00f3 19       		.uleb128 0x19
 2702 00f4 03       		.uleb128 0x3
 2703 00f5 0E       		.uleb128 0xe
 2704 00f6 3A       		.uleb128 0x3a
 2705 00f7 0B       		.uleb128 0xb
 2706 00f8 3B       		.uleb128 0x3b
 2707 00f9 0B       		.uleb128 0xb
 2708 00fa 6E       		.uleb128 0x6e
 2709 00fb 0E       		.uleb128 0xe
 2710 00fc 32       		.uleb128 0x32
 2711 00fd 0B       		.uleb128 0xb
 2712 00fe 3C       		.uleb128 0x3c
 2713 00ff 19       		.uleb128 0x19
 2714 0100 64       		.uleb128 0x64
 2715 0101 13       		.uleb128 0x13
 2716 0102 01       		.uleb128 0x1
 2717 0103 13       		.uleb128 0x13
 2718 0104 00       		.byte	0
 2719 0105 00       		.byte	0
 2720 0106 15       		.uleb128 0x15
 2721 0107 05       		.uleb128 0x5
 2722 0108 00       		.byte	0
 2723 0109 49       		.uleb128 0x49
 2724 010a 13       		.uleb128 0x13
 2725 010b 34       		.uleb128 0x34
 2726 010c 19       		.uleb128 0x19
 2727 010d 00       		.byte	0
 2728 010e 00       		.byte	0
 2729 010f 16       		.uleb128 0x16
 2730 0110 05       		.uleb128 0x5
 2731 0111 00       		.byte	0
 2732 0112 49       		.uleb128 0x49
 2733 0113 13       		.uleb128 0x13
 2734 0114 00       		.byte	0
 2735 0115 00       		.byte	0
ARM GAS  /tmp/ccCtgIAB.s 			page 49


 2736 0116 17       		.uleb128 0x17
 2737 0117 2E       		.uleb128 0x2e
 2738 0118 01       		.byte	0x1
 2739 0119 3F       		.uleb128 0x3f
 2740 011a 19       		.uleb128 0x19
 2741 011b 03       		.uleb128 0x3
 2742 011c 0E       		.uleb128 0xe
 2743 011d 3A       		.uleb128 0x3a
 2744 011e 0B       		.uleb128 0xb
 2745 011f 3B       		.uleb128 0x3b
 2746 0120 0B       		.uleb128 0xb
 2747 0121 6E       		.uleb128 0x6e
 2748 0122 0E       		.uleb128 0xe
 2749 0123 49       		.uleb128 0x49
 2750 0124 13       		.uleb128 0x13
 2751 0125 32       		.uleb128 0x32
 2752 0126 0B       		.uleb128 0xb
 2753 0127 3C       		.uleb128 0x3c
 2754 0128 19       		.uleb128 0x19
 2755 0129 64       		.uleb128 0x64
 2756 012a 13       		.uleb128 0x13
 2757 012b 01       		.uleb128 0x1
 2758 012c 13       		.uleb128 0x13
 2759 012d 00       		.byte	0
 2760 012e 00       		.byte	0
 2761 012f 18       		.uleb128 0x18
 2762 0130 2E       		.uleb128 0x2e
 2763 0131 01       		.byte	0x1
 2764 0132 3F       		.uleb128 0x3f
 2765 0133 19       		.uleb128 0x19
 2766 0134 03       		.uleb128 0x3
 2767 0135 0E       		.uleb128 0xe
 2768 0136 3A       		.uleb128 0x3a
 2769 0137 0B       		.uleb128 0xb
 2770 0138 3B       		.uleb128 0x3b
 2771 0139 0B       		.uleb128 0xb
 2772 013a 6E       		.uleb128 0x6e
 2773 013b 0E       		.uleb128 0xe
 2774 013c 49       		.uleb128 0x49
 2775 013d 13       		.uleb128 0x13
 2776 013e 32       		.uleb128 0x32
 2777 013f 0B       		.uleb128 0xb
 2778 0140 3C       		.uleb128 0x3c
 2779 0141 19       		.uleb128 0x19
 2780 0142 64       		.uleb128 0x64
 2781 0143 13       		.uleb128 0x13
 2782 0144 00       		.byte	0
 2783 0145 00       		.byte	0
 2784 0146 19       		.uleb128 0x19
 2785 0147 34       		.uleb128 0x34
 2786 0148 00       		.byte	0
 2787 0149 03       		.uleb128 0x3
 2788 014a 0E       		.uleb128 0xe
 2789 014b 3A       		.uleb128 0x3a
 2790 014c 0B       		.uleb128 0xb
 2791 014d 3B       		.uleb128 0x3b
 2792 014e 0B       		.uleb128 0xb
ARM GAS  /tmp/ccCtgIAB.s 			page 50


 2793 014f 49       		.uleb128 0x49
 2794 0150 13       		.uleb128 0x13
 2795 0151 3C       		.uleb128 0x3c
 2796 0152 19       		.uleb128 0x19
 2797 0153 1C       		.uleb128 0x1c
 2798 0154 0A       		.uleb128 0xa
 2799 0155 00       		.byte	0
 2800 0156 00       		.byte	0
 2801 0157 1A       		.uleb128 0x1a
 2802 0158 2E       		.uleb128 0x2e
 2803 0159 01       		.byte	0x1
 2804 015a 47       		.uleb128 0x47
 2805 015b 13       		.uleb128 0x13
 2806 015c 3A       		.uleb128 0x3a
 2807 015d 0B       		.uleb128 0xb
 2808 015e 3B       		.uleb128 0x3b
 2809 015f 0B       		.uleb128 0xb
 2810 0160 11       		.uleb128 0x11
 2811 0161 01       		.uleb128 0x1
 2812 0162 12       		.uleb128 0x12
 2813 0163 06       		.uleb128 0x6
 2814 0164 40       		.uleb128 0x40
 2815 0165 18       		.uleb128 0x18
 2816 0166 64       		.uleb128 0x64
 2817 0167 13       		.uleb128 0x13
 2818 0168 9742     		.uleb128 0x2117
 2819 016a 19       		.uleb128 0x19
 2820 016b 01       		.uleb128 0x1
 2821 016c 13       		.uleb128 0x13
 2822 016d 00       		.byte	0
 2823 016e 00       		.byte	0
 2824 016f 1B       		.uleb128 0x1b
 2825 0170 05       		.uleb128 0x5
 2826 0171 00       		.byte	0
 2827 0172 03       		.uleb128 0x3
 2828 0173 0E       		.uleb128 0xe
 2829 0174 49       		.uleb128 0x49
 2830 0175 13       		.uleb128 0x13
 2831 0176 34       		.uleb128 0x34
 2832 0177 19       		.uleb128 0x19
 2833 0178 02       		.uleb128 0x2
 2834 0179 17       		.uleb128 0x17
 2835 017a 00       		.byte	0
 2836 017b 00       		.byte	0
 2837 017c 1C       		.uleb128 0x1c
 2838 017d 0B       		.uleb128 0xb
 2839 017e 01       		.byte	0x1
 2840 017f 11       		.uleb128 0x11
 2841 0180 01       		.uleb128 0x1
 2842 0181 12       		.uleb128 0x12
 2843 0182 06       		.uleb128 0x6
 2844 0183 01       		.uleb128 0x1
 2845 0184 13       		.uleb128 0x13
 2846 0185 00       		.byte	0
 2847 0186 00       		.byte	0
 2848 0187 1D       		.uleb128 0x1d
 2849 0188 34       		.uleb128 0x34
ARM GAS  /tmp/ccCtgIAB.s 			page 51


 2850 0189 00       		.byte	0
 2851 018a 03       		.uleb128 0x3
 2852 018b 08       		.uleb128 0x8
 2853 018c 3A       		.uleb128 0x3a
 2854 018d 0B       		.uleb128 0xb
 2855 018e 3B       		.uleb128 0x3b
 2856 018f 0B       		.uleb128 0xb
 2857 0190 49       		.uleb128 0x49
 2858 0191 13       		.uleb128 0x13
 2859 0192 02       		.uleb128 0x2
 2860 0193 18       		.uleb128 0x18
 2861 0194 00       		.byte	0
 2862 0195 00       		.byte	0
 2863 0196 1E       		.uleb128 0x1e
 2864 0197 898201   		.uleb128 0x4109
 2865 019a 01       		.byte	0x1
 2866 019b 11       		.uleb128 0x11
 2867 019c 01       		.uleb128 0x1
 2868 019d 31       		.uleb128 0x31
 2869 019e 13       		.uleb128 0x13
 2870 019f 01       		.uleb128 0x1
 2871 01a0 13       		.uleb128 0x13
 2872 01a1 00       		.byte	0
 2873 01a2 00       		.byte	0
 2874 01a3 1F       		.uleb128 0x1f
 2875 01a4 8A8201   		.uleb128 0x410a
 2876 01a7 00       		.byte	0
 2877 01a8 02       		.uleb128 0x2
 2878 01a9 18       		.uleb128 0x18
 2879 01aa 9142     		.uleb128 0x2111
 2880 01ac 18       		.uleb128 0x18
 2881 01ad 00       		.byte	0
 2882 01ae 00       		.byte	0
 2883 01af 20       		.uleb128 0x20
 2884 01b0 898201   		.uleb128 0x4109
 2885 01b3 01       		.byte	0x1
 2886 01b4 11       		.uleb128 0x11
 2887 01b5 01       		.uleb128 0x1
 2888 01b6 31       		.uleb128 0x31
 2889 01b7 13       		.uleb128 0x13
 2890 01b8 00       		.byte	0
 2891 01b9 00       		.byte	0
 2892 01ba 21       		.uleb128 0x21
 2893 01bb 26       		.uleb128 0x26
 2894 01bc 00       		.byte	0
 2895 01bd 49       		.uleb128 0x49
 2896 01be 13       		.uleb128 0x13
 2897 01bf 00       		.byte	0
 2898 01c0 00       		.byte	0
 2899 01c1 22       		.uleb128 0x22
 2900 01c2 05       		.uleb128 0x5
 2901 01c3 00       		.byte	0
 2902 01c4 03       		.uleb128 0x3
 2903 01c5 0E       		.uleb128 0xe
 2904 01c6 3A       		.uleb128 0x3a
 2905 01c7 0B       		.uleb128 0xb
 2906 01c8 3B       		.uleb128 0x3b
ARM GAS  /tmp/ccCtgIAB.s 			page 52


 2907 01c9 0B       		.uleb128 0xb
 2908 01ca 49       		.uleb128 0x49
 2909 01cb 13       		.uleb128 0x13
 2910 01cc 02       		.uleb128 0x2
 2911 01cd 17       		.uleb128 0x17
 2912 01ce 00       		.byte	0
 2913 01cf 00       		.byte	0
 2914 01d0 23       		.uleb128 0x23
 2915 01d1 0B       		.uleb128 0xb
 2916 01d2 01       		.byte	0x1
 2917 01d3 55       		.uleb128 0x55
 2918 01d4 17       		.uleb128 0x17
 2919 01d5 00       		.byte	0
 2920 01d6 00       		.byte	0
 2921 01d7 24       		.uleb128 0x24
 2922 01d8 34       		.uleb128 0x34
 2923 01d9 00       		.byte	0
 2924 01da 03       		.uleb128 0x3
 2925 01db 0E       		.uleb128 0xe
 2926 01dc 3A       		.uleb128 0x3a
 2927 01dd 0B       		.uleb128 0xb
 2928 01de 3B       		.uleb128 0x3b
 2929 01df 0B       		.uleb128 0xb
 2930 01e0 49       		.uleb128 0x49
 2931 01e1 13       		.uleb128 0x13
 2932 01e2 02       		.uleb128 0x2
 2933 01e3 18       		.uleb128 0x18
 2934 01e4 00       		.byte	0
 2935 01e5 00       		.byte	0
 2936 01e6 25       		.uleb128 0x25
 2937 01e7 0B       		.uleb128 0xb
 2938 01e8 01       		.byte	0x1
 2939 01e9 55       		.uleb128 0x55
 2940 01ea 17       		.uleb128 0x17
 2941 01eb 01       		.uleb128 0x1
 2942 01ec 13       		.uleb128 0x13
 2943 01ed 00       		.byte	0
 2944 01ee 00       		.byte	0
 2945 01ef 26       		.uleb128 0x26
 2946 01f0 05       		.uleb128 0x5
 2947 01f1 00       		.byte	0
 2948 01f2 03       		.uleb128 0x3
 2949 01f3 0E       		.uleb128 0xe
 2950 01f4 3A       		.uleb128 0x3a
 2951 01f5 0B       		.uleb128 0xb
 2952 01f6 3B       		.uleb128 0x3b
 2953 01f7 0B       		.uleb128 0xb
 2954 01f8 49       		.uleb128 0x49
 2955 01f9 13       		.uleb128 0x13
 2956 01fa 02       		.uleb128 0x2
 2957 01fb 18       		.uleb128 0x18
 2958 01fc 00       		.byte	0
 2959 01fd 00       		.byte	0
 2960 01fe 27       		.uleb128 0x27
 2961 01ff 0B       		.uleb128 0xb
 2962 0200 01       		.byte	0x1
 2963 0201 11       		.uleb128 0x11
ARM GAS  /tmp/ccCtgIAB.s 			page 53


 2964 0202 01       		.uleb128 0x1
 2965 0203 12       		.uleb128 0x12
 2966 0204 06       		.uleb128 0x6
 2967 0205 00       		.byte	0
 2968 0206 00       		.byte	0
 2969 0207 28       		.uleb128 0x28
 2970 0208 34       		.uleb128 0x34
 2971 0209 00       		.byte	0
 2972 020a 03       		.uleb128 0x3
 2973 020b 08       		.uleb128 0x8
 2974 020c 3A       		.uleb128 0x3a
 2975 020d 0B       		.uleb128 0xb
 2976 020e 3B       		.uleb128 0x3b
 2977 020f 0B       		.uleb128 0xb
 2978 0210 49       		.uleb128 0x49
 2979 0211 13       		.uleb128 0x13
 2980 0212 02       		.uleb128 0x2
 2981 0213 17       		.uleb128 0x17
 2982 0214 00       		.byte	0
 2983 0215 00       		.byte	0
 2984 0216 29       		.uleb128 0x29
 2985 0217 34       		.uleb128 0x34
 2986 0218 00       		.byte	0
 2987 0219 47       		.uleb128 0x47
 2988 021a 13       		.uleb128 0x13
 2989 021b 02       		.uleb128 0x2
 2990 021c 18       		.uleb128 0x18
 2991 021d 00       		.byte	0
 2992 021e 00       		.byte	0
 2993 021f 2A       		.uleb128 0x2a
 2994 0220 2E       		.uleb128 0x2e
 2995 0221 01       		.byte	0x1
 2996 0222 3F       		.uleb128 0x3f
 2997 0223 19       		.uleb128 0x19
 2998 0224 03       		.uleb128 0x3
 2999 0225 0E       		.uleb128 0xe
 3000 0226 3A       		.uleb128 0x3a
 3001 0227 0B       		.uleb128 0xb
 3002 0228 3B       		.uleb128 0x3b
 3003 0229 0B       		.uleb128 0xb
 3004 022a 49       		.uleb128 0x49
 3005 022b 13       		.uleb128 0x13
 3006 022c 3C       		.uleb128 0x3c
 3007 022d 19       		.uleb128 0x19
 3008 022e 01       		.uleb128 0x1
 3009 022f 13       		.uleb128 0x13
 3010 0230 00       		.byte	0
 3011 0231 00       		.byte	0
 3012 0232 2B       		.uleb128 0x2b
 3013 0233 2E       		.uleb128 0x2e
 3014 0234 01       		.byte	0x1
 3015 0235 3F       		.uleb128 0x3f
 3016 0236 19       		.uleb128 0x19
 3017 0237 03       		.uleb128 0x3
 3018 0238 0E       		.uleb128 0xe
 3019 0239 3A       		.uleb128 0x3a
 3020 023a 0B       		.uleb128 0xb
ARM GAS  /tmp/ccCtgIAB.s 			page 54


 3021 023b 3B       		.uleb128 0x3b
 3022 023c 0B       		.uleb128 0xb
 3023 023d 3C       		.uleb128 0x3c
 3024 023e 19       		.uleb128 0x19
 3025 023f 01       		.uleb128 0x1
 3026 0240 13       		.uleb128 0x13
 3027 0241 00       		.byte	0
 3028 0242 00       		.byte	0
 3029 0243 2C       		.uleb128 0x2c
 3030 0244 2E       		.uleb128 0x2e
 3031 0245 01       		.byte	0x1
 3032 0246 3F       		.uleb128 0x3f
 3033 0247 19       		.uleb128 0x19
 3034 0248 03       		.uleb128 0x3
 3035 0249 0E       		.uleb128 0xe
 3036 024a 3A       		.uleb128 0x3a
 3037 024b 0B       		.uleb128 0xb
 3038 024c 3B       		.uleb128 0x3b
 3039 024d 0B       		.uleb128 0xb
 3040 024e 49       		.uleb128 0x49
 3041 024f 13       		.uleb128 0x13
 3042 0250 3C       		.uleb128 0x3c
 3043 0251 19       		.uleb128 0x19
 3044 0252 00       		.byte	0
 3045 0253 00       		.byte	0
 3046 0254 00       		.byte	0
 3047              		.section	.debug_loc,"",%progbits
 3048              	.Ldebug_loc0:
 3049              	.LLST0:
 3050 0000 00000000 		.4byte	.LVL0
 3051 0004 0E000000 		.4byte	.LVL1
 3052 0008 0100     		.2byte	0x1
 3053 000a 50       		.byte	0x50
 3054 000b 0E000000 		.4byte	.LVL1
 3055 000f 6E000000 		.4byte	.LFE7
 3056 0013 0100     		.2byte	0x1
 3057 0015 57       		.byte	0x57
 3058 0016 00000000 		.4byte	0
 3059 001a 00000000 		.4byte	0
 3060              	.LLST1:
 3061 001e 00000000 		.4byte	.LVL5
 3062 0022 1D000000 		.4byte	.LVL7-1
 3063 0026 0100     		.2byte	0x1
 3064 0028 50       		.byte	0x50
 3065 0029 1D000000 		.4byte	.LVL7-1
 3066 002d 28000000 		.4byte	.LFE8
 3067 0031 0400     		.2byte	0x4
 3068 0033 F3       		.byte	0xf3
 3069 0034 01       		.uleb128 0x1
 3070 0035 50       		.byte	0x50
 3071 0036 9F       		.byte	0x9f
 3072 0037 00000000 		.4byte	0
 3073 003b 00000000 		.4byte	0
 3074              	.LLST2:
 3075 003f 00000000 		.4byte	.LVL5
 3076 0043 1D000000 		.4byte	.LVL7-1
 3077 0047 0100     		.2byte	0x1
ARM GAS  /tmp/ccCtgIAB.s 			page 55


 3078 0049 51       		.byte	0x51
 3079 004a 1D000000 		.4byte	.LVL7-1
 3080 004e 28000000 		.4byte	.LFE8
 3081 0052 0400     		.2byte	0x4
 3082 0054 F3       		.byte	0xf3
 3083 0055 01       		.uleb128 0x1
 3084 0056 51       		.byte	0x51
 3085 0057 9F       		.byte	0x9f
 3086 0058 00000000 		.4byte	0
 3087 005c 00000000 		.4byte	0
 3088              	.LLST3:
 3089 0060 00000000 		.4byte	.LVL5
 3090 0064 1D000000 		.4byte	.LVL7-1
 3091 0068 0100     		.2byte	0x1
 3092 006a 52       		.byte	0x52
 3093 006b 1D000000 		.4byte	.LVL7-1
 3094 006f 28000000 		.4byte	.LFE8
 3095 0073 0400     		.2byte	0x4
 3096 0075 F3       		.byte	0xf3
 3097 0076 01       		.uleb128 0x1
 3098 0077 52       		.byte	0x52
 3099 0078 9F       		.byte	0x9f
 3100 0079 00000000 		.4byte	0
 3101 007d 00000000 		.4byte	0
 3102              	.LLST4:
 3103 0081 00000000 		.4byte	.LVL5
 3104 0085 0C000000 		.4byte	.LVL6
 3105 0089 0100     		.2byte	0x1
 3106 008b 53       		.byte	0x53
 3107 008c 0C000000 		.4byte	.LVL6
 3108 0090 28000000 		.4byte	.LFE8
 3109 0094 0200     		.2byte	0x2
 3110 0096 74       		.byte	0x74
 3111 0097 00       		.sleb128 0
 3112 0098 00000000 		.4byte	0
 3113 009c 00000000 		.4byte	0
 3114              	.LLST5:
 3115 00a0 00000000 		.4byte	.LVL8
 3116 00a4 21000000 		.4byte	.LVL10-1
 3117 00a8 0100     		.2byte	0x1
 3118 00aa 50       		.byte	0x50
 3119 00ab 21000000 		.4byte	.LVL10-1
 3120 00af 2C000000 		.4byte	.LFE9
 3121 00b3 0400     		.2byte	0x4
 3122 00b5 F3       		.byte	0xf3
 3123 00b6 01       		.uleb128 0x1
 3124 00b7 50       		.byte	0x50
 3125 00b8 9F       		.byte	0x9f
 3126 00b9 00000000 		.4byte	0
 3127 00bd 00000000 		.4byte	0
 3128              	.LLST6:
 3129 00c1 00000000 		.4byte	.LVL8
 3130 00c5 21000000 		.4byte	.LVL10-1
 3131 00c9 0100     		.2byte	0x1
 3132 00cb 51       		.byte	0x51
 3133 00cc 21000000 		.4byte	.LVL10-1
 3134 00d0 2C000000 		.4byte	.LFE9
ARM GAS  /tmp/ccCtgIAB.s 			page 56


 3135 00d4 0400     		.2byte	0x4
 3136 00d6 F3       		.byte	0xf3
 3137 00d7 01       		.uleb128 0x1
 3138 00d8 51       		.byte	0x51
 3139 00d9 9F       		.byte	0x9f
 3140 00da 00000000 		.4byte	0
 3141 00de 00000000 		.4byte	0
 3142              	.LLST7:
 3143 00e2 00000000 		.4byte	.LVL8
 3144 00e6 1E000000 		.4byte	.LVL9
 3145 00ea 0100     		.2byte	0x1
 3146 00ec 52       		.byte	0x52
 3147 00ed 1E000000 		.4byte	.LVL9
 3148 00f1 2C000000 		.4byte	.LFE9
 3149 00f5 0200     		.2byte	0x2
 3150 00f7 75       		.byte	0x75
 3151 00f8 00       		.sleb128 0
 3152 00f9 00000000 		.4byte	0
 3153 00fd 00000000 		.4byte	0
 3154              	.LLST8:
 3155 0101 00000000 		.4byte	.LVL11
 3156 0105 1B000000 		.4byte	.LVL12-1
 3157 0109 0100     		.2byte	0x1
 3158 010b 50       		.byte	0x50
 3159 010c 1B000000 		.4byte	.LVL12-1
 3160 0110 2E000000 		.4byte	.LFE10
 3161 0114 0400     		.2byte	0x4
 3162 0116 F3       		.byte	0xf3
 3163 0117 01       		.uleb128 0x1
 3164 0118 50       		.byte	0x50
 3165 0119 9F       		.byte	0x9f
 3166 011a 00000000 		.4byte	0
 3167 011e 00000000 		.4byte	0
 3168              	.LLST9:
 3169 0122 00000000 		.4byte	.LVL11
 3170 0126 1B000000 		.4byte	.LVL12-1
 3171 012a 0100     		.2byte	0x1
 3172 012c 51       		.byte	0x51
 3173 012d 1B000000 		.4byte	.LVL12-1
 3174 0131 2E000000 		.4byte	.LFE10
 3175 0135 0400     		.2byte	0x4
 3176 0137 F3       		.byte	0xf3
 3177 0138 01       		.uleb128 0x1
 3178 0139 51       		.byte	0x51
 3179 013a 9F       		.byte	0x9f
 3180 013b 00000000 		.4byte	0
 3181 013f 00000000 		.4byte	0
 3182              	.LLST10:
 3183 0143 00000000 		.4byte	.LVL11
 3184 0147 1B000000 		.4byte	.LVL12-1
 3185 014b 0100     		.2byte	0x1
 3186 014d 52       		.byte	0x52
 3187 014e 1B000000 		.4byte	.LVL12-1
 3188 0152 2E000000 		.4byte	.LFE10
 3189 0156 0400     		.2byte	0x4
 3190 0158 F3       		.byte	0xf3
 3191 0159 01       		.uleb128 0x1
ARM GAS  /tmp/ccCtgIAB.s 			page 57


 3192 015a 52       		.byte	0x52
 3193 015b 9F       		.byte	0x9f
 3194 015c 00000000 		.4byte	0
 3195 0160 00000000 		.4byte	0
 3196              	.LLST11:
 3197 0164 00000000 		.4byte	.LVL14
 3198 0168 1D000000 		.4byte	.LVL15-1
 3199 016c 0100     		.2byte	0x1
 3200 016e 50       		.byte	0x50
 3201 016f 1D000000 		.4byte	.LVL15-1
 3202 0173 30000000 		.4byte	.LFE11
 3203 0177 0400     		.2byte	0x4
 3204 0179 F3       		.byte	0xf3
 3205 017a 01       		.uleb128 0x1
 3206 017b 50       		.byte	0x50
 3207 017c 9F       		.byte	0x9f
 3208 017d 00000000 		.4byte	0
 3209 0181 00000000 		.4byte	0
 3210              	.LLST12:
 3211 0185 00000000 		.4byte	.LVL14
 3212 0189 1D000000 		.4byte	.LVL15-1
 3213 018d 0100     		.2byte	0x1
 3214 018f 51       		.byte	0x51
 3215 0190 1D000000 		.4byte	.LVL15-1
 3216 0194 30000000 		.4byte	.LFE11
 3217 0198 0400     		.2byte	0x4
 3218 019a F3       		.byte	0xf3
 3219 019b 01       		.uleb128 0x1
 3220 019c 51       		.byte	0x51
 3221 019d 9F       		.byte	0x9f
 3222 019e 00000000 		.4byte	0
 3223 01a2 00000000 		.4byte	0
 3224              	.LLST13:
 3225 01a6 00000000 		.4byte	.LVL17
 3226 01aa 1D000000 		.4byte	.LVL20-1
 3227 01ae 0100     		.2byte	0x1
 3228 01b0 50       		.byte	0x50
 3229 01b1 1D000000 		.4byte	.LVL20-1
 3230 01b5 30000000 		.4byte	.LFE12
 3231 01b9 0400     		.2byte	0x4
 3232 01bb F3       		.byte	0xf3
 3233 01bc 01       		.uleb128 0x1
 3234 01bd 50       		.byte	0x50
 3235 01be 9F       		.byte	0x9f
 3236 01bf 00000000 		.4byte	0
 3237 01c3 00000000 		.4byte	0
 3238              	.LLST14:
 3239 01c7 00000000 		.4byte	.LVL17
 3240 01cb 1D000000 		.4byte	.LVL20-1
 3241 01cf 0100     		.2byte	0x1
 3242 01d1 51       		.byte	0x51
 3243 01d2 1D000000 		.4byte	.LVL20-1
 3244 01d6 30000000 		.4byte	.LFE12
 3245 01da 0400     		.2byte	0x4
 3246 01dc F3       		.byte	0xf3
 3247 01dd 01       		.uleb128 0x1
 3248 01de 51       		.byte	0x51
ARM GAS  /tmp/ccCtgIAB.s 			page 58


 3249 01df 9F       		.byte	0x9f
 3250 01e0 00000000 		.4byte	0
 3251 01e4 00000000 		.4byte	0
 3252              	.LLST15:
 3253 01e8 00000000 		.4byte	.LVL17
 3254 01ec 1D000000 		.4byte	.LVL20-1
 3255 01f0 0100     		.2byte	0x1
 3256 01f2 52       		.byte	0x52
 3257 01f3 1D000000 		.4byte	.LVL20-1
 3258 01f7 30000000 		.4byte	.LFE12
 3259 01fb 0400     		.2byte	0x4
 3260 01fd F3       		.byte	0xf3
 3261 01fe 01       		.uleb128 0x1
 3262 01ff 52       		.byte	0x52
 3263 0200 9F       		.byte	0x9f
 3264 0201 00000000 		.4byte	0
 3265 0205 00000000 		.4byte	0
 3266              	.LLST16:
 3267 0209 00000000 		.4byte	.LVL17
 3268 020d 0C000000 		.4byte	.LVL18
 3269 0211 0100     		.2byte	0x1
 3270 0213 53       		.byte	0x53
 3271 0214 0C000000 		.4byte	.LVL18
 3272 0218 30000000 		.4byte	.LFE12
 3273 021c 0100     		.2byte	0x1
 3274 021e 56       		.byte	0x56
 3275 021f 00000000 		.4byte	0
 3276 0223 00000000 		.4byte	0
 3277              	.LLST17:
 3278 0227 10000000 		.4byte	.LVL19
 3279 022b 26000000 		.4byte	.LVL21
 3280 022f 0200     		.2byte	0x2
 3281 0231 30       		.byte	0x30
 3282 0232 9F       		.byte	0x9f
 3283 0233 26000000 		.4byte	.LVL21
 3284 0237 30000000 		.4byte	.LFE12
 3285 023b 0100     		.2byte	0x1
 3286 023d 54       		.byte	0x54
 3287 023e 00000000 		.4byte	0
 3288 0242 00000000 		.4byte	0
 3289              		.section	.debug_aranges,"",%progbits
 3290 0000 44000000 		.4byte	0x44
 3291 0004 0200     		.2byte	0x2
 3292 0006 00000000 		.4byte	.Ldebug_info0
 3293 000a 04       		.byte	0x4
 3294 000b 00       		.byte	0
 3295 000c 0000     		.2byte	0
 3296 000e 0000     		.2byte	0
 3297 0010 00000000 		.4byte	.LFB7
 3298 0014 6E000000 		.4byte	.LFE7-.LFB7
 3299 0018 00000000 		.4byte	.LFB8
 3300 001c 28000000 		.4byte	.LFE8-.LFB8
 3301 0020 00000000 		.4byte	.LFB9
 3302 0024 2C000000 		.4byte	.LFE9-.LFB9
 3303 0028 00000000 		.4byte	.LFB10
 3304 002c 2E000000 		.4byte	.LFE10-.LFB10
 3305 0030 00000000 		.4byte	.LFB11
ARM GAS  /tmp/ccCtgIAB.s 			page 59


 3306 0034 30000000 		.4byte	.LFE11-.LFB11
 3307 0038 00000000 		.4byte	.LFB12
 3308 003c 30000000 		.4byte	.LFE12-.LFB12
 3309 0040 00000000 		.4byte	0
 3310 0044 00000000 		.4byte	0
 3311              		.section	.debug_ranges,"",%progbits
 3312              	.Ldebug_ranges0:
 3313 0000 02000000 		.4byte	.LBB11
 3314 0004 04000000 		.4byte	.LBE11
 3315 0008 06000000 		.4byte	.LBB15
 3316 000c 28000000 		.4byte	.LBE15
 3317 0010 00000000 		.4byte	0
 3318 0014 00000000 		.4byte	0
 3319 0018 02000000 		.4byte	.LBB12
 3320 001c 04000000 		.4byte	.LBE12
 3321 0020 06000000 		.4byte	.LBB13
 3322 0024 0A000000 		.4byte	.LBE13
 3323 0028 00000000 		.4byte	0
 3324 002c 00000000 		.4byte	0
 3325 0030 02000000 		.4byte	.LBB16
 3326 0034 04000000 		.4byte	.LBE16
 3327 0038 06000000 		.4byte	.LBB20
 3328 003c 2A000000 		.4byte	.LBE20
 3329 0040 00000000 		.4byte	0
 3330 0044 00000000 		.4byte	0
 3331 0048 02000000 		.4byte	.LBB17
 3332 004c 04000000 		.4byte	.LBE17
 3333 0050 06000000 		.4byte	.LBB18
 3334 0054 0A000000 		.4byte	.LBE18
 3335 0058 00000000 		.4byte	0
 3336 005c 00000000 		.4byte	0
 3337 0060 1E000000 		.4byte	.LBB23
 3338 0064 20000000 		.4byte	.LBE23
 3339 0068 26000000 		.4byte	.LBB24
 3340 006c 2A000000 		.4byte	.LBE24
 3341 0070 00000000 		.4byte	0
 3342 0074 00000000 		.4byte	0
 3343 0078 00000000 		.4byte	.LFB7
 3344 007c 6E000000 		.4byte	.LFE7
 3345 0080 00000000 		.4byte	.LFB8
 3346 0084 28000000 		.4byte	.LFE8
 3347 0088 00000000 		.4byte	.LFB9
 3348 008c 2C000000 		.4byte	.LFE9
 3349 0090 00000000 		.4byte	.LFB10
 3350 0094 2E000000 		.4byte	.LFE10
 3351 0098 00000000 		.4byte	.LFB11
 3352 009c 30000000 		.4byte	.LFE11
 3353 00a0 00000000 		.4byte	.LFB12
 3354 00a4 30000000 		.4byte	.LFE12
 3355 00a8 00000000 		.4byte	0
 3356 00ac 00000000 		.4byte	0
 3357              		.section	.debug_line,"",%progbits
 3358              	.Ldebug_line0:
 3359 0000 AE010000 		.section	.debug_str,"MS",%progbits,1
 3359      02000D01 
 3359      00000201 
 3359      FB0E0D00 
ARM GAS  /tmp/ccCtgIAB.s 			page 60


 3359      01010101 
 3360              	.LASF171:
 3361 0000 636F756E 		.ascii	"count\000"
 3361      7400
 3362              	.LASF80:
 3363 0006 50494F5F 		.ascii	"PIO_PCRHR\000"
 3363      50435248 
 3363      5200
 3364              	.LASF63:
 3365 0010 50494F5F 		.ascii	"PIO_ELSR\000"
 3365      454C5352 
 3365      00
 3366              	.LASF180:
 3367 0019 63726561 		.ascii	"creator\000"
 3367      746F7200 
 3368              	.LASF57:
 3369 0021 50494F5F 		.ascii	"PIO_AIMER\000"
 3369      41494D45 
 3369      5200
 3370              	.LASF122:
 3371 002b 5457495F 		.ascii	"TWI_SMR\000"
 3371      534D5200 
 3372              	.LASF83:
 3373 0033 50494F5F 		.ascii	"PIO_TPR\000"
 3373      54505200 
 3374              	.LASF99:
 3375 003b 434B4752 		.ascii	"CKGR_MOR\000"
 3375      5F4D4F52 
 3375      00
 3376              	.LASF73:
 3377 0044 50494F5F 		.ascii	"PIO_SCHMITT\000"
 3377      5343484D 
 3377      49545400 
 3378              	.LASF142:
 3379 0050 74797065 		.ascii	"type\000"
 3379      00
 3380              	.LASF174:
 3381 0055 50494F5F 		.ascii	"PIO_Configure\000"
 3381      436F6E66 
 3381      69677572 
 3381      6500
 3382              	.LASF79:
 3383 0063 50494F5F 		.ascii	"PIO_PCISR\000"
 3383      50434953 
 3383      5200
 3384              	.LASF135:
 3385 006d 5457495F 		.ascii	"TWI_RNPR\000"
 3385      524E5052 
 3385      00
 3386              	.LASF9:
 3387 0076 6C6F6E67 		.ascii	"long long unsigned int\000"
 3387      206C6F6E 
 3387      6720756E 
 3387      7369676E 
 3387      65642069 
 3388              	.LASF159:
 3389 008d 5F5A4E37 		.ascii	"_ZN7creator3I2C9WriteByteEhhh\000"
ARM GAS  /tmp/ccCtgIAB.s 			page 61


 3389      63726561 
 3389      746F7233 
 3389      49324339 
 3389      57726974 
 3390              	.LASF77:
 3391 00ab 50494F5F 		.ascii	"PIO_PCIDR\000"
 3391      50434944 
 3391      5200
 3392              	.LASF86:
 3393 00b5 50494F5F 		.ascii	"PIO_RNCR\000"
 3393      524E4352 
 3393      00
 3394              	.LASF121:
 3395 00be 5457495F 		.ascii	"TWI_MMR\000"
 3395      4D4D5200 
 3396              	.LASF48:
 3397 00c6 50494F5F 		.ascii	"PIO_SCDR\000"
 3397      53434452 
 3397      00
 3398              	.LASF160:
 3399 00cf 5F5A4E37 		.ascii	"_ZN7creator3I2C9WriteByteEhh\000"
 3399      63726561 
 3399      746F7233 
 3399      49324339 
 3399      57726974 
 3400              	.LASF41:
 3401 00ec 50494F5F 		.ascii	"PIO_PUSR\000"
 3401      50555352 
 3401      00
 3402              	.LASF8:
 3403 00f5 6C6F6E67 		.ascii	"long long int\000"
 3403      206C6F6E 
 3403      6720696E 
 3403      7400
 3404              	.LASF0:
 3405 0103 7369676E 		.ascii	"signed char\000"
 3405      65642063 
 3405      68617200 
 3406              	.LASF78:
 3407 010f 50494F5F 		.ascii	"PIO_PCIMR\000"
 3407      5043494D 
 3407      5200
 3408              	.LASF61:
 3409 0119 50494F5F 		.ascii	"PIO_ESR\000"
 3409      45535200 
 3410              	.LASF163:
 3411 0121 5F5A4E37 		.ascii	"_ZN7creator3I2C8ReadByteEh\000"
 3411      63726561 
 3411      746F7233 
 3411      49324338 
 3411      52656164 
 3412              	.LASF138:
 3413 013c 5457495F 		.ascii	"TWI_TNCR\000"
 3413      544E4352 
 3413      00
 3414              	.LASF17:
 3415 0145 50494F5F 		.ascii	"PIO_PSR\000"
ARM GAS  /tmp/ccCtgIAB.s 			page 62


 3415      50535200 
 3416              	.LASF18:
 3417 014d 52657365 		.ascii	"Reserved1\000"
 3417      72766564 
 3417      3100
 3418              	.LASF22:
 3419 0157 52657365 		.ascii	"Reserved2\000"
 3419      72766564 
 3419      3200
 3420              	.LASF166:
 3421 0161 74686973 		.ascii	"this\000"
 3421      00
 3422              	.LASF39:
 3423 0166 50494F5F 		.ascii	"PIO_PUDR\000"
 3423      50554452 
 3423      00
 3424              	.LASF98:
 3425 016f 504D435F 		.ascii	"PMC_PCSR0\000"
 3425      50435352 
 3425      3000
 3426              	.LASF44:
 3427 0179 52657365 		.ascii	"Reserved6\000"
 3427      72766564 
 3427      3600
 3428              	.LASF52:
 3429 0183 52657365 		.ascii	"Reserved7\000"
 3429      72766564 
 3429      3700
 3430              	.LASF56:
 3431 018d 52657365 		.ascii	"Reserved8\000"
 3431      72766564 
 3431      3800
 3432              	.LASF60:
 3433 0197 52657365 		.ascii	"Reserved9\000"
 3433      72766564 
 3433      3900
 3434              	.LASF50:
 3435 01a1 50494F5F 		.ascii	"PIO_PPDER\000"
 3435      50504445 
 3435      5200
 3436              	.LASF16:
 3437 01ab 50494F5F 		.ascii	"PIO_PDR\000"
 3437      50445200 
 3438              	.LASF4:
 3439 01b3 6C6F6E67 		.ascii	"long int\000"
 3439      20696E74 
 3439      00
 3440              	.LASF173:
 3441 01bc 54574944 		.ascii	"TWID_Initialize\000"
 3441      5F496E69 
 3441      7469616C 
 3441      697A6500 
 3442              	.LASF51:
 3443 01cc 50494F5F 		.ascii	"PIO_PPDSR\000"
 3443      50504453 
 3443      5200
 3444              	.LASF113:
ARM GAS  /tmp/ccCtgIAB.s 			page 63


 3445 01d6 504D435F 		.ascii	"PMC_WPMR\000"
 3445      57504D52 
 3445      00
 3446              	.LASF96:
 3447 01df 504D435F 		.ascii	"PMC_PCER0\000"
 3447      50434552 
 3447      3000
 3448              	.LASF115:
 3449 01e9 504D435F 		.ascii	"PMC_PCER1\000"
 3449      50434552 
 3449      3100
 3450              	.LASF89:
 3451 01f3 50494F5F 		.ascii	"PIO_PTCR\000"
 3451      50544352 
 3451      00
 3452              	.LASF76:
 3453 01fc 50494F5F 		.ascii	"PIO_PCIER\000"
 3453      50434945 
 3453      5200
 3454              	.LASF30:
 3455 0206 50494F5F 		.ascii	"PIO_PDSR\000"
 3455      50445352 
 3455      00
 3456              	.LASF133:
 3457 020f 5457495F 		.ascii	"TWI_TPR\000"
 3457      54505200 
 3458              	.LASF43:
 3459 0217 50494F5F 		.ascii	"PIO_ABCDSR\000"
 3459      41424344 
 3459      535200
 3460              	.LASF141:
 3461 0222 6D61736B 		.ascii	"mask\000"
 3461      00
 3462              	.LASF105:
 3463 0227 504D435F 		.ascii	"PMC_PCK\000"
 3463      50434B00 
 3464              	.LASF64:
 3465 022f 52657365 		.ascii	"Reserved10\000"
 3465      72766564 
 3465      313000
 3466              	.LASF68:
 3467 023a 52657365 		.ascii	"Reserved11\000"
 3467      72766564 
 3467      313100
 3468              	.LASF72:
 3469 0245 52657365 		.ascii	"Reserved12\000"
 3469      72766564 
 3469      313200
 3470              	.LASF74:
 3471 0250 52657365 		.ascii	"Reserved13\000"
 3471      72766564 
 3471      313300
 3472              	.LASF71:
 3473 025b 50494F5F 		.ascii	"PIO_WPSR\000"
 3473      57505352 
 3473      00
 3474              	.LASF15:
ARM GAS  /tmp/ccCtgIAB.s 			page 64


 3475 0264 50494F5F 		.ascii	"PIO_PER\000"
 3475      50455200 
 3476              	.LASF108:
 3477 026c 504D435F 		.ascii	"PMC_SR\000"
 3477      535200
 3478              	.LASF10:
 3479 0273 756E7369 		.ascii	"unsigned int\000"
 3479      676E6564 
 3479      20696E74 
 3479      00
 3480              	.LASF100:
 3481 0280 434B4752 		.ascii	"CKGR_MCFR\000"
 3481      5F4D4346 
 3481      5200
 3482              	.LASF40:
 3483 028a 50494F5F 		.ascii	"PIO_PUER\000"
 3483      50554552 
 3483      00
 3484              	.LASF67:
 3485 0293 50494F5F 		.ascii	"PIO_FRLHSR\000"
 3485      46524C48 
 3485      535200
 3486              	.LASF84:
 3487 029e 50494F5F 		.ascii	"PIO_TCR\000"
 3487      54435200 
 3488              	.LASF21:
 3489 02a6 50494F5F 		.ascii	"PIO_OSR\000"
 3489      4F535200 
 3490              	.LASF37:
 3491 02ae 50494F5F 		.ascii	"PIO_MDSR\000"
 3491      4D445352 
 3491      00
 3492              	.LASF7:
 3493 02b7 6C6F6E67 		.ascii	"long unsigned int\000"
 3493      20756E73 
 3493      69676E65 
 3493      6420696E 
 3493      7400
 3494              	.LASF90:
 3495 02c9 50494F5F 		.ascii	"PIO_PTSR\000"
 3495      50545352 
 3495      00
 3496              	.LASF29:
 3497 02d2 50494F5F 		.ascii	"PIO_ODSR\000"
 3497      4F445352 
 3497      00
 3498              	.LASF20:
 3499 02db 50494F5F 		.ascii	"PIO_ODR\000"
 3499      4F445200 
 3500              	.LASF26:
 3501 02e3 52657365 		.ascii	"Reserved3\000"
 3501      72766564 
 3501      3300
 3502              	.LASF136:
 3503 02ed 5457495F 		.ascii	"TWI_RNCR\000"
 3503      524E4352 
 3503      00
ARM GAS  /tmp/ccCtgIAB.s 			page 65


 3504              	.LASF42:
 3505 02f6 52657365 		.ascii	"Reserved5\000"
 3505      72766564 
 3505      3500
 3506              	.LASF169:
 3507 0300 64617461 		.ascii	"data\000"
 3507      00
 3508              	.LASF3:
 3509 0305 73686F72 		.ascii	"short unsigned int\000"
 3509      7420756E 
 3509      7369676E 
 3509      65642069 
 3509      6E7400
 3510              	.LASF103:
 3511 0318 504D435F 		.ascii	"PMC_MCKR\000"
 3511      4D434B52 
 3511      00
 3512              	.LASF97:
 3513 0321 504D435F 		.ascii	"PMC_PCDR0\000"
 3513      50434452 
 3513      3000
 3514              	.LASF116:
 3515 032b 504D435F 		.ascii	"PMC_PCDR1\000"
 3515      50434452 
 3515      3100
 3516              	.LASF81:
 3517 0335 50494F5F 		.ascii	"PIO_RPR\000"
 3517      52505200 
 3518              	.LASF151:
 3519 033d 5F547769 		.ascii	"_Twid\000"
 3519      6400
 3520              	.LASF164:
 3521 0343 52656164 		.ascii	"ReadBytes\000"
 3521      42797465 
 3521      7300
 3522              	.LASF69:
 3523 034d 50494F5F 		.ascii	"PIO_LOCKSR\000"
 3523      4C4F434B 
 3523      535200
 3524              	.LASF148:
 3525 0358 63616C6C 		.ascii	"callback\000"
 3525      6261636B 
 3525      00
 3526              	.LASF91:
 3527 0361 3350696F 		.ascii	"3Pio\000"
 3527      00
 3528              	.LASF34:
 3529 0366 50494F5F 		.ascii	"PIO_ISR\000"
 3529      49535200 
 3530              	.LASF150:
 3531 036e 4173796E 		.ascii	"Async\000"
 3531      6300
 3532              	.LASF32:
 3533 0374 50494F5F 		.ascii	"PIO_IDR\000"
 3533      49445200 
 3534              	.LASF104:
 3535 037c 504D435F 		.ascii	"PMC_USB\000"
ARM GAS  /tmp/ccCtgIAB.s 			page 66


 3535      55534200 
 3536              	.LASF59:
 3537 0384 50494F5F 		.ascii	"PIO_AIMMR\000"
 3537      41494D4D 
 3537      5200
 3538              	.LASF118:
 3539 038e 504D435F 		.ascii	"PMC_OCR\000"
 3539      4F435200 
 3540              	.LASF94:
 3541 0396 504D435F 		.ascii	"PMC_SCDR\000"
 3541      53434452 
 3541      00
 3542              	.LASF152:
 3543 039f 70547769 		.ascii	"pTwi\000"
 3543      00
 3544              	.LASF14:
 3545 03a4 73697A65 		.ascii	"sizetype\000"
 3545      74797065 
 3545      00
 3546              	.LASF139:
 3547 03ad 5457495F 		.ascii	"TWI_PTCR\000"
 3547      50544352 
 3547      00
 3548              	.LASF70:
 3549 03b6 50494F5F 		.ascii	"PIO_WPMR\000"
 3549      57504D52 
 3549      00
 3550              	.LASF167:
 3551 03bf 61646472 		.ascii	"address\000"
 3551      65737300 
 3552              	.LASF119:
 3553 03c7 33547769 		.ascii	"3Twi\000"
 3553      00
 3554              	.LASF134:
 3555 03cc 5457495F 		.ascii	"TWI_TCR\000"
 3555      54435200 
 3556              	.LASF176:
 3557 03d4 54574944 		.ascii	"TWID_Read\000"
 3557      5F526561 
 3557      6400
 3558              	.LASF179:
 3559 03de 2F686F6D 		.ascii	"/home/santi/Documentos/ProyectoDron_2018/MCU/creato"
 3559      652F7361 
 3559      6E74692F 
 3559      446F6375 
 3559      6D656E74 
 3560 0411 7200     		.ascii	"r\000"
 3561              	.LASF129:
 3562 0413 5457495F 		.ascii	"TWI_RHR\000"
 3562      52485200 
 3563              	.LASF170:
 3564 041b 64657374 		.ascii	"dest\000"
 3564      00
 3565              	.LASF12:
 3566 0420 576F5265 		.ascii	"WoReg\000"
 3566      6700
 3567              	.LASF49:
ARM GAS  /tmp/ccCtgIAB.s 			page 67


 3568 0426 50494F5F 		.ascii	"PIO_PPDDR\000"
 3568      50504444 
 3568      5200
 3569              	.LASF145:
 3570 0430 5F50696E 		.ascii	"_Pin\000"
 3570      00
 3571              	.LASF31:
 3572 0435 50494F5F 		.ascii	"PIO_IER\000"
 3572      49455200 
 3573              	.LASF161:
 3574 043d 52656164 		.ascii	"ReadByte\000"
 3574      42797465 
 3574      00
 3575              	.LASF156:
 3576 0446 496E6974 		.ascii	"Init\000"
 3576      00
 3577              	.LASF19:
 3578 044b 50494F5F 		.ascii	"PIO_OER\000"
 3578      4F455200 
 3579              	.LASF36:
 3580 0453 50494F5F 		.ascii	"PIO_MDDR\000"
 3580      4D444452 
 3580      00
 3581              	.LASF87:
 3582 045c 50494F5F 		.ascii	"PIO_TNPR\000"
 3582      544E5052 
 3582      00
 3583              	.LASF131:
 3584 0465 5457495F 		.ascii	"TWI_RPR\000"
 3584      52505200 
 3585              	.LASF101:
 3586 046d 434B4752 		.ascii	"CKGR_PLLAR\000"
 3586      5F504C4C 
 3586      415200
 3587              	.LASF157:
 3588 0478 57726974 		.ascii	"WriteByte\000"
 3588      65427974 
 3588      6500
 3589              	.LASF140:
 3590 0482 5457495F 		.ascii	"TWI_PTSR\000"
 3590      50545352 
 3590      00
 3591              	.LASF65:
 3592 048b 50494F5F 		.ascii	"PIO_FELLSR\000"
 3592      46454C4C 
 3592      535200
 3593              	.LASF120:
 3594 0496 5457495F 		.ascii	"TWI_CR\000"
 3594      435200
 3595              	.LASF75:
 3596 049d 50494F5F 		.ascii	"PIO_PCMR\000"
 3596      50434D52 
 3596      00
 3597              	.LASF143:
 3598 04a6 61747472 		.ascii	"attribute\000"
 3598      69627574 
 3598      6500
ARM GAS  /tmp/ccCtgIAB.s 			page 68


 3599              	.LASF1:
 3600 04b0 756E7369 		.ascii	"unsigned char\000"
 3600      676E6564 
 3600      20636861 
 3600      7200
 3601              	.LASF25:
 3602 04be 50494F5F 		.ascii	"PIO_IFSR\000"
 3602      49465352 
 3602      00
 3603              	.LASF127:
 3604 04c7 5457495F 		.ascii	"TWI_IDR\000"
 3604      49445200 
 3605              	.LASF2:
 3606 04cf 73686F72 		.ascii	"short int\000"
 3606      7420696E 
 3606      7400
 3607              	.LASF33:
 3608 04d9 50494F5F 		.ascii	"PIO_IMR\000"
 3608      494D5200 
 3609              	.LASF53:
 3610 04e1 50494F5F 		.ascii	"PIO_OWER\000"
 3610      4F574552 
 3610      00
 3611              	.LASF24:
 3612 04ea 50494F5F 		.ascii	"PIO_IFDR\000"
 3612      49464452 
 3612      00
 3613              	.LASF28:
 3614 04f3 50494F5F 		.ascii	"PIO_CODR\000"
 3614      434F4452 
 3614      00
 3615              	.LASF117:
 3616 04fc 504D435F 		.ascii	"PMC_PCSR1\000"
 3616      50435352 
 3616      3100
 3617              	.LASF82:
 3618 0506 50494F5F 		.ascii	"PIO_RCR\000"
 3618      52435200 
 3619              	.LASF107:
 3620 050e 504D435F 		.ascii	"PMC_IDR\000"
 3620      49445200 
 3621              	.LASF177:
 3622 0516 474E5520 		.ascii	"GNU C++ 4.8.1 -mcpu=cortex-m3 -mno-thumb-interwork "
 3622      432B2B20 
 3622      342E382E 
 3622      31202D6D 
 3622      6370753D 
 3623 0549 2D6D7468 		.ascii	"-mthumb -ggdb -O2 -fomit-frame-pointer -falign-func"
 3623      756D6220 
 3623      2D676764 
 3623      62202D4F 
 3623      32202D66 
 3624 057c 74696F6E 		.ascii	"tions=16 -ffunction-sections -fdata-sections -fno-c"
 3624      733D3136 
 3624      202D6666 
 3624      756E6374 
 3624      696F6E2D 
ARM GAS  /tmp/ccCtgIAB.s 			page 69


 3625 05af 6F6D6D6F 		.ascii	"ommon -fno-rtti\000"
 3625      6E202D66 
 3625      6E6F2D72 
 3625      74746900 
 3626              	.LASF154:
 3627 05bf 54776964 		.ascii	"Twid\000"
 3627      00
 3628              	.LASF146:
 3629 05c4 5F417379 		.ascii	"_Async\000"
 3629      6E6300
 3630              	.LASF35:
 3631 05cb 50494F5F 		.ascii	"PIO_MDER\000"
 3631      4D444552 
 3631      00
 3632              	.LASF178:
 3633 05d4 6932632E 		.ascii	"i2c.cpp\000"
 3633      63707000 
 3634              	.LASF66:
 3635 05dc 50494F5F 		.ascii	"PIO_REHLSR\000"
 3635      5245484C 
 3635      535200
 3636              	.LASF125:
 3637 05e7 5457495F 		.ascii	"TWI_SR\000"
 3637      535200
 3638              	.LASF102:
 3639 05ee 434B4752 		.ascii	"CKGR_PLLBR\000"
 3639      5F504C4C 
 3639      425200
 3640              	.LASF144:
 3641 05f9 63686172 		.ascii	"char\000"
 3641      00
 3642              	.LASF172:
 3643 05fe 5457495F 		.ascii	"TWI_ConfigureMaster\000"
 3643      436F6E66 
 3643      69677572 
 3643      654D6173 
 3643      74657200 
 3644              	.LASF58:
 3645 0612 50494F5F 		.ascii	"PIO_AIMDR\000"
 3645      41494D44 
 3645      5200
 3646              	.LASF153:
 3647 061c 70547261 		.ascii	"pTransfer\000"
 3647      6E736665 
 3647      7200
 3648              	.LASF47:
 3649 0626 50494F5F 		.ascii	"PIO_IFSCSR\000"
 3649      49465343 
 3649      535200
 3650              	.LASF165:
 3651 0631 5F5A4E37 		.ascii	"_ZN7creator3I2C9ReadBytesEhhPhh\000"
 3651      63726561 
 3651      746F7233 
 3651      49324339 
 3651      52656164 
 3652              	.LASF175:
 3653 0651 54574944 		.ascii	"TWID_Write\000"
ARM GAS  /tmp/ccCtgIAB.s 			page 70


 3653      5F577269 
 3653      746500
 3654              	.LASF95:
 3655 065c 504D435F 		.ascii	"PMC_SCSR\000"
 3655      53435352 
 3655      00
 3656              	.LASF126:
 3657 0665 5457495F 		.ascii	"TWI_IER\000"
 3657      49455200 
 3658              	.LASF38:
 3659 066d 52657365 		.ascii	"Reserved4\000"
 3659      72766564 
 3659      3400
 3660              	.LASF13:
 3661 0677 52775265 		.ascii	"RwReg\000"
 3661      6700
 3662              	.LASF45:
 3663 067d 50494F5F 		.ascii	"PIO_IFSCDR\000"
 3663      49465343 
 3663      445200
 3664              	.LASF149:
 3665 0688 7053746F 		.ascii	"pStorage\000"
 3665      72616765 
 3665      00
 3666              	.LASF23:
 3667 0691 50494F5F 		.ascii	"PIO_IFER\000"
 3667      49464552 
 3667      00
 3668              	.LASF85:
 3669 069a 50494F5F 		.ascii	"PIO_RNPR\000"
 3669      524E5052 
 3669      00
 3670              	.LASF106:
 3671 06a3 504D435F 		.ascii	"PMC_IER\000"
 3671      49455200 
 3672              	.LASF92:
 3673 06ab 33506D63 		.ascii	"3Pmc\000"
 3673      00
 3674              	.LASF110:
 3675 06b0 504D435F 		.ascii	"PMC_FSMR\000"
 3675      46534D52 
 3675      00
 3676              	.LASF128:
 3677 06b9 5457495F 		.ascii	"TWI_IMR\000"
 3677      494D5200 
 3678              	.LASF123:
 3679 06c1 5457495F 		.ascii	"TWI_IADR\000"
 3679      49414452 
 3679      00
 3680              	.LASF6:
 3681 06ca 75696E74 		.ascii	"uint32_t\000"
 3681      33325F74 
 3681      00
 3682              	.LASF181:
 3683 06d3 70696E73 		.ascii	"pins\000"
 3683      00
 3684              	.LASF137:
ARM GAS  /tmp/ccCtgIAB.s 			page 71


 3685 06d8 5457495F 		.ascii	"TWI_TNPR\000"
 3685      544E5052 
 3685      00
 3686              	.LASF147:
 3687 06e1 73746174 		.ascii	"status\000"
 3687      757300
 3688              	.LASF158:
 3689 06e8 5F5A4E37 		.ascii	"_ZN7creator3I2C4InitEv\000"
 3689      63726561 
 3689      746F7233 
 3689      49324334 
 3689      496E6974 
 3690              	.LASF109:
 3691 06ff 504D435F 		.ascii	"PMC_IMR\000"
 3691      494D5200 
 3692              	.LASF62:
 3693 0707 50494F5F 		.ascii	"PIO_LSR\000"
 3693      4C535200 
 3694              	.LASF88:
 3695 070f 50494F5F 		.ascii	"PIO_TNCR\000"
 3695      544E4352 
 3695      00
 3696              	.LASF132:
 3697 0718 5457495F 		.ascii	"TWI_RCR\000"
 3697      52435200 
 3698              	.LASF5:
 3699 0720 75696E74 		.ascii	"uint8_t\000"
 3699      385F7400 
 3700              	.LASF162:
 3701 0728 5F5A4E37 		.ascii	"_ZN7creator3I2C8ReadByteEhh\000"
 3701      63726561 
 3701      746F7233 
 3701      49324338 
 3701      52656164 
 3702              	.LASF55:
 3703 0744 50494F5F 		.ascii	"PIO_OWSR\000"
 3703      4F575352 
 3703      00
 3704              	.LASF155:
 3705 074d 74776964 		.ascii	"twid_\000"
 3705      5F00
 3706              	.LASF124:
 3707 0753 5457495F 		.ascii	"TWI_CWGR\000"
 3707      43574752 
 3707      00
 3708              	.LASF111:
 3709 075c 504D435F 		.ascii	"PMC_FSPR\000"
 3709      46535052 
 3709      00
 3710              	.LASF46:
 3711 0765 50494F5F 		.ascii	"PIO_IFSCER\000"
 3711      49465343 
 3711      455200
 3712              	.LASF112:
 3713 0770 504D435F 		.ascii	"PMC_FOCR\000"
 3713      464F4352 
 3713      00
ARM GAS  /tmp/ccCtgIAB.s 			page 72


 3714              	.LASF93:
 3715 0779 504D435F 		.ascii	"PMC_SCER\000"
 3715      53434552 
 3715      00
 3716              	.LASF54:
 3717 0782 50494F5F 		.ascii	"PIO_OWDR\000"
 3717      4F574452 
 3717      00
 3718              	.LASF27:
 3719 078b 50494F5F 		.ascii	"PIO_SODR\000"
 3719      534F4452 
 3719      00
 3720              	.LASF11:
 3721 0794 526F5265 		.ascii	"RoReg\000"
 3721      6700
 3722              	.LASF130:
 3723 079a 5457495F 		.ascii	"TWI_THR\000"
 3723      54485200 
 3724              	.LASF168:
 3725 07a2 73756241 		.ascii	"subAddress\000"
 3725      64647265 
 3725      737300
 3726              	.LASF114:
 3727 07ad 504D435F 		.ascii	"PMC_WPSR\000"
 3727      57505352 
 3727      00
 3728              		.ident	"GCC: (Sourcery CodeBench Lite 2013.11-24) 4.8.1"
ARM GAS  /tmp/ccCtgIAB.s 			page 73


DEFINED SYMBOLS
                            *ABS*:00000000 i2c.cpp
     /tmp/ccCtgIAB.s:19     .text._ZN7creator3I2C4InitEv:00000000 $t
     /tmp/ccCtgIAB.s:25     .text._ZN7creator3I2C4InitEv:00000000 _ZN7creator3I2C4InitEv
     /tmp/ccCtgIAB.s:460    .rodata._ZN7creatorL4pinsE:00000000 .LANCHOR0
.ARM.exidx.text._ZN7creator3I2C4InitEv:00000000 $d
     /tmp/ccCtgIAB.s:115    .text._ZN7creator3I2C9WriteByteEhhh:00000000 $t
     /tmp/ccCtgIAB.s:121    .text._ZN7creator3I2C9WriteByteEhhh:00000000 _ZN7creator3I2C9WriteByteEhhh
.ARM.exidx.text._ZN7creator3I2C9WriteByteEhhh:00000000 $d
     /tmp/ccCtgIAB.s:177    .text._ZN7creator3I2C9WriteByteEhh:00000000 $t
     /tmp/ccCtgIAB.s:183    .text._ZN7creator3I2C9WriteByteEhh:00000000 _ZN7creator3I2C9WriteByteEhh
.ARM.exidx.text._ZN7creator3I2C9WriteByteEhh:00000000 $d
     /tmp/ccCtgIAB.s:241    .text._ZN7creator3I2C8ReadByteEhh:00000000 $t
     /tmp/ccCtgIAB.s:247    .text._ZN7creator3I2C8ReadByteEhh:00000000 _ZN7creator3I2C8ReadByteEhh
.ARM.exidx.text._ZN7creator3I2C8ReadByteEhh:00000000 $d
     /tmp/ccCtgIAB.s:313    .text._ZN7creator3I2C8ReadByteEh:00000000 $t
     /tmp/ccCtgIAB.s:319    .text._ZN7creator3I2C8ReadByteEh:00000000 _ZN7creator3I2C8ReadByteEh
.ARM.exidx.text._ZN7creator3I2C8ReadByteEh:00000000 $d
     /tmp/ccCtgIAB.s:386    .text._ZN7creator3I2C9ReadBytesEhhPhh:00000000 $t
     /tmp/ccCtgIAB.s:392    .text._ZN7creator3I2C9ReadBytesEhhPhh:00000000 _ZN7creator3I2C9ReadBytesEhhPhh
.ARM.exidx.text._ZN7creator3I2C9ReadBytesEhhPhh:00000000 $d
     /tmp/ccCtgIAB.s:459    .rodata._ZN7creatorL4pinsE:00000000 $d
     /tmp/ccCtgIAB.s:463    .rodata._ZN7creatorL4pinsE:00000000 _ZN7creatorL4pinsE
                     .debug_frame:00000010 $d

UNDEFINED SYMBOLS
PIO_Configure
TWI_ConfigureMaster
TWID_Initialize
__aeabi_unwind_cpp_pr0
TWID_Write
TWID_Read
