ARM GAS  /tmp/ccxMPRSl.s 			page 1


   1              		.syntax unified
   2              		.cpu cortex-m3
   3              		.fpu softvfp
   4              		.eabi_attribute 20, 1
   5              		.eabi_attribute 21, 1
   6              		.eabi_attribute 23, 3
   7              		.eabi_attribute 24, 1
   8              		.eabi_attribute 25, 1
   9              		.eabi_attribute 26, 1
  10              		.eabi_attribute 30, 2
  11              		.eabi_attribute 34, 1
  12              		.eabi_attribute 18, 4
  13              		.thumb
  14              		.file	"lsm9ds1.cpp"
  15              		.text
  16              	.Ltext0:
  17              		.cfi_sections	.debug_frame
  18              		.section	.text._ZN7LSM9DS14initE14interface_modehh,"ax",%progbits
  19              		.align	2
  20              		.p2align 4,,15
  21              		.global	_ZN7LSM9DS14initE14interface_modehh
  22              		.thumb
  23              		.thumb_func
  24              		.type	_ZN7LSM9DS14initE14interface_modehh, %function
  25              	_ZN7LSM9DS14initE14interface_modehh:
  26              		.fnstart
  27              	.LFB13:
  28              		.file 1 "lsm9ds1.cpp"
  29              		.loc 1 42 0
  30              		.cfi_startproc
  31              		@ args = 0, pretend = 0, frame = 0
  32              		@ frame_needed = 0, uses_anonymous_args = 0
  33              		@ link register save eliminated.
  34              	.LVL0:
  35 0000 2DE9F00F 		push	{r4, r5, r6, r7, r8, r9, r10, fp}
  36              		.cfi_def_cfa_offset 32
  37              		.cfi_offset 4, -32
  38              		.cfi_offset 5, -28
  39              		.cfi_offset 6, -24
  40              		.cfi_offset 7, -20
  41              		.cfi_offset 8, -16
  42              		.cfi_offset 9, -12
  43              		.cfi_offset 10, -8
  44              		.cfi_offset 11, -4
  45              	.LBB195:
  46              		.loc 1 105 0
  47 0004 4FF0070C 		mov	ip, #7
  48              		.loc 1 61 0
  49 0008 0024     		movs	r4, #0
  50              		.loc 1 47 0
  51 000a 0125     		movs	r5, #1
  52              		.loc 1 57 0
  53 000c 0627     		movs	r7, #6
  54              		.loc 1 110 0
  55 000e 0326     		movs	r6, #3
  56              		.loc 1 52 0
  57 0010 4FF0F50B 		mov	fp, #245
ARM GAS  /tmp/ccxMPRSl.s 			page 2


  58              		.loc 1 79 0
  59 0014 4FF0020A 		mov	r10, #2
  60              		.loc 1 89 0
  61 0018 4FF0FF09 		mov	r9, #255
  62              		.loc 1 99 0
  63 001c 4FF00408 		mov	r8, #4
  64              		.loc 1 43 0
  65 0020 0170     		strb	r1, [r0]
  66              		.loc 1 44 0
  67 0022 4270     		strb	r2, [r0, #1]
  68              		.loc 1 45 0
  69 0024 8370     		strb	r3, [r0, #2]
  70              		.loc 1 57 0
  71 0026 0772     		strb	r7, [r0, #8]
  72              		.loc 1 84 0
  73 0028 0776     		strb	r7, [r0, #24]
  74              		.loc 1 52 0
  75 002a A0F806B0 		strh	fp, [r0, #6]	@ movhi
  76              		.loc 1 79 0
  77 002e 80F817A0 		strb	r10, [r0, #23]
  78              		.loc 1 89 0
  79 0032 80F81C90 		strb	r9, [r0, #28]
  80              		.loc 1 99 0
  81 0036 80F82080 		strb	r8, [r0, #32]
  82              		.loc 1 105 0
  83 003a 80F821C0 		strb	ip, [r0, #33]
  84              		.loc 1 47 0
  85 003e 0571     		strb	r5, [r0, #4]
  86              		.loc 1 48 0
  87 0040 4574     		strb	r5, [r0, #17]
  88              		.loc 1 49 0
  89 0042 8574     		strb	r5, [r0, #18]
  90              		.loc 1 50 0
  91 0044 C574     		strb	r5, [r0, #19]
  92              		.loc 1 72 0
  93 0046 0575     		strb	r5, [r0, #20]
  94              		.loc 1 74 0
  95 0048 8575     		strb	r5, [r0, #22]
  96              		.loc 1 75 0
  97 004a 4576     		strb	r5, [r0, #25]
  98              		.loc 1 76 0
  99 004c 8576     		strb	r5, [r0, #26]
 100              		.loc 1 77 0
 101 004e C576     		strb	r5, [r0, #27]
 102              		.loc 1 97 0
 103 0050 C577     		strb	r5, [r0, #31]
 104              		.loc 1 61 0
 105 0052 4472     		strb	r4, [r0, #9]
 106              		.loc 1 62 0
 107 0054 8472     		strb	r4, [r0, #10]
 108              		.loc 1 63 0
 109 0056 C472     		strb	r4, [r0, #11]
 110              		.loc 1 67 0
 111 0058 0473     		strb	r4, [r0, #12]
 112              		.loc 1 68 0
 113 005a 4473     		strb	r4, [r0, #13]
 114              		.loc 1 69 0
ARM GAS  /tmp/ccxMPRSl.s 			page 3


 115 005c 8473     		strb	r4, [r0, #14]
 116              		.loc 1 70 0
 117 005e C473     		strb	r4, [r0, #15]
 118              		.loc 1 71 0
 119 0060 0474     		strb	r4, [r0, #16]
 120              		.loc 1 90 0
 121 0062 4477     		strb	r4, [r0, #29]
 122              		.loc 1 95 0
 123 0064 8477     		strb	r4, [r0, #30]
 124              		.loc 1 106 0
 125 0066 80F82240 		strb	r4, [r0, #34]
 126              		.loc 1 110 0
 127 006a 80F82360 		strb	r6, [r0, #35]
 128              	.LBB196:
 129              		.loc 1 121 0
 130 006e 0021     		movs	r1, #0
 131              	.LVL1:
 132              	.LBE196:
 133              		.loc 1 111 0
 134 0070 80F82460 		strb	r6, [r0, #36]
 135              	.LBB197:
 136              		.loc 1 124 0
 137 0074 2746     		mov	r7, r4
 138              	.LBE197:
 139              		.loc 1 112 0
 140 0076 80F82540 		strb	r4, [r0, #37]
 141              		.loc 1 119 0
 142 007a 80F82750 		strb	r5, [r0, #39]
 143              	.LVL2:
 144              		.loc 1 117 0
 145 007e 80F82640 		strb	r4, [r0, #38]
 146 0082 0246     		mov	r2, r0
 147              	.LVL3:
 148              		.loc 1 119 0
 149 0084 0346     		mov	r3, r0
 150              	.LVL4:
 151              	.L3:
 152              	.LBB198:
 153              		.loc 1 120 0 discriminator 2
 154 0086 013E     		subs	r6, r6, #1
 155              	.LVL5:
 156              		.loc 1 121 0 discriminator 2
 157 0088 D163     		str	r1, [r2, #60]	@ float
 158              		.loc 1 122 0 discriminator 2
 159 008a 9164     		str	r1, [r2, #72]	@ float
 160              		.loc 1 123 0 discriminator 2
 161 008c 5165     		str	r1, [r2, #84]	@ float
 162              		.loc 1 124 0 discriminator 2
 163 008e 4FF00004 		mov	r4, #0	@ movhi
 164 0092 A3F86070 		strh	r7, [r3, #96]	@ movhi
 165              		.loc 1 125 0 discriminator 2
 166 0096 A3F86670 		strh	r7, [r3, #102]	@ movhi
 167              		.loc 1 126 0 discriminator 2
 168 009a A3F86C70 		strh	r7, [r3, #108]	@ movhi
 169              	.LVL6:
 170 009e 02F10402 		add	r2, r2, #4
 171 00a2 03F10203 		add	r3, r3, #2
ARM GAS  /tmp/ccxMPRSl.s 			page 4


 172              		.loc 1 120 0 discriminator 2
 173 00a6 EED1     		bne	.L3
 174              	.LBE198:
 175              		.loc 1 128 0
 176 00a8 80F88040 		strb	r4, [r0, #128]
 177              	.LBE195:
 178              		.loc 1 129 0
 179 00ac BDE8F00F 		pop	{r4, r5, r6, r7, r8, r9, r10, fp}
 180 00b0 7047     		bx	lr
 181              		.cfi_endproc
 182              	.LFE13:
 183              		.cantunwind
 184              		.fnend
 185              		.size	_ZN7LSM9DS14initE14interface_modehh, .-_ZN7LSM9DS14initE14interface_modehh
 186 00b2 00BFAFF3 		.section	.text._ZN7LSM9DS1C2EPN7creator3I2CE,"ax",%progbits
 186      0080AFF3 
 186      0080AFF3 
 186      0080
 187              		.align	2
 188              		.p2align 4,,15
 189              		.global	_ZN7LSM9DS1C2EPN7creator3I2CE
 190              		.thumb
 191              		.thumb_func
 192              		.type	_ZN7LSM9DS1C2EPN7creator3I2CE, %function
 193              	_ZN7LSM9DS1C2EPN7creator3I2CE:
 194              		.fnstart
 195              	.LFB8:
 196              		.loc 1 32 0
 197              		.cfi_startproc
 198              		@ args = 0, pretend = 0, frame = 0
 199              		@ frame_needed = 0, uses_anonymous_args = 0
 200              	.LVL7:
 201 0000 10B5     		push	{r4, lr}
 202              		.cfi_def_cfa_offset 8
 203              		.cfi_offset 4, -8
 204              		.cfi_offset 14, -4
 205              	.LBB199:
 206              		.loc 1 33 0
 207 0002 6B22     		movs	r2, #107
 208              	.LBE199:
 209              		.loc 1 32 0
 210 0004 0446     		mov	r4, r0
 211              	.LBB200:
 212 0006 C0F88410 		str	r1, [r0, #132]
 213              		.loc 1 33 0
 214 000a 1E23     		movs	r3, #30
 215 000c 0121     		movs	r1, #1
 216              	.LVL8:
 217 000e FFF7FEFF 		bl	_ZN7LSM9DS14initE14interface_modehh
 218              	.LVL9:
 219              	.LBE200:
 220              		.loc 1 34 0
 221 0012 2046     		mov	r0, r4
 222 0014 10BD     		pop	{r4, pc}
 223              		.cfi_endproc
 224              	.LFE8:
 225              		.cantunwind
ARM GAS  /tmp/ccxMPRSl.s 			page 5


 226              		.fnend
 227              		.size	_ZN7LSM9DS1C2EPN7creator3I2CE, .-_ZN7LSM9DS1C2EPN7creator3I2CE
 228              		.global	_ZN7LSM9DS1C1EPN7creator3I2CE
 229              		.thumb_set _ZN7LSM9DS1C1EPN7creator3I2CE,_ZN7LSM9DS1C2EPN7creator3I2CE
 230 0016 00BFAFF3 		.section	.text._ZN7LSM9DS1C2EPN7creator3I2CE14interface_modehh,"ax",%progbits
 230      0080AFF3 
 230      0080
 231              		.align	2
 232              		.p2align 4,,15
 233              		.global	_ZN7LSM9DS1C2EPN7creator3I2CE14interface_modehh
 234              		.thumb
 235              		.thumb_func
 236              		.type	_ZN7LSM9DS1C2EPN7creator3I2CE14interface_modehh, %function
 237              	_ZN7LSM9DS1C2EPN7creator3I2CE14interface_modehh:
 238              		.fnstart
 239              	.LFB11:
 240              		.loc 1 36 0
 241              		.cfi_startproc
 242              		@ args = 4, pretend = 0, frame = 0
 243              		@ frame_needed = 0, uses_anonymous_args = 0
 244              	.LVL10:
 245 0000 38B5     		push	{r3, r4, r5, lr}
 246              		.cfi_def_cfa_offset 16
 247              		.cfi_offset 3, -16
 248              		.cfi_offset 4, -12
 249              		.cfi_offset 5, -8
 250              		.cfi_offset 14, -4
 251              		.loc 1 36 0
 252 0002 9DF81050 		ldrb	r5, [sp, #16]	@ zero_extendqisi2
 253 0006 0446     		mov	r4, r0
 254              	.LBB201:
 255              		.loc 1 38 0
 256 0008 C0F88410 		str	r1, [r0, #132]
 257              		.loc 1 39 0
 258 000c 1146     		mov	r1, r2
 259              	.LVL11:
 260 000e 1A46     		mov	r2, r3
 261              	.LVL12:
 262 0010 2B46     		mov	r3, r5
 263              	.LVL13:
 264 0012 FFF7FEFF 		bl	_ZN7LSM9DS14initE14interface_modehh
 265              	.LVL14:
 266              	.LBE201:
 267              		.loc 1 40 0
 268 0016 2046     		mov	r0, r4
 269 0018 38BD     		pop	{r3, r4, r5, pc}
 270              		.cfi_endproc
 271              	.LFE11:
 272              		.cantunwind
 273              		.fnend
 274              		.size	_ZN7LSM9DS1C2EPN7creator3I2CE14interface_modehh, .-_ZN7LSM9DS1C2EPN7creator3I2CE14interface_
 275              		.global	_ZN7LSM9DS1C1EPN7creator3I2CE14interface_modehh
 276              		.thumb_set _ZN7LSM9DS1C1EPN7creator3I2CE14interface_modehh,_ZN7LSM9DS1C2EPN7creator3I2CE14interfac
 277 001a 00BFAFF3 		.section	.text._ZN7LSM9DS18initGyroEv,"ax",%progbits
 277      0080
 278              		.align	2
 279              		.p2align 4,,15
ARM GAS  /tmp/ccxMPRSl.s 			page 6


 280              		.global	_ZN7LSM9DS18initGyroEv
 281              		.thumb
 282              		.thumb_func
 283              		.type	_ZN7LSM9DS18initGyroEv, %function
 284              	_ZN7LSM9DS18initGyroEv:
 285              		.fnstart
 286              	.LFB15:
 287              		.loc 1 164 0
 288              		.cfi_startproc
 289              		@ args = 0, pretend = 0, frame = 0
 290              		@ frame_needed = 0, uses_anonymous_args = 0
 291              	.LVL15:
 292 0000 10B5     		push	{r4, lr}
 293              		.save {r4, lr}
 294              		.cfi_def_cfa_offset 8
 295              		.cfi_offset 4, -8
 296              		.cfi_offset 14, -4
 297              	.LBB202:
 298              		.loc 1 175 0
 299 0002 0279     		ldrb	r2, [r0, #4]	@ zero_extendqisi2
 300              	.LBE202:
 301              		.loc 1 164 0
 302 0004 0446     		mov	r4, r0
 303              	.LBB217:
 304              		.loc 1 175 0
 305 0006 12B1     		cbz	r2, .L8
 306              		.loc 1 176 0
 307 0008 027A     		ldrb	r2, [r0, #8]	@ zero_extendqisi2
 308 000a 5201     		lsls	r2, r2, #5
 309 000c D2B2     		uxtb	r2, r2
 310              	.LVL16:
 311              	.L8:
 312              		.loc 1 178 0
 313 000e E388     		ldrh	r3, [r4, #6]
 314 0010 B3F5FA7F 		cmp	r3, #500
 315              		.loc 1 180 0
 316 0014 08BF     		it	eq
 317 0016 42F00802 		orreq	r2, r2, #8
 318              	.LVL17:
 319              		.loc 1 178 0
 320 001a 04D0     		beq	.L9
 321 001c B3F5FA6F 		cmp	r3, #2000
 322              		.loc 1 183 0
 323 0020 08BF     		it	eq
 324 0022 42F01802 		orreq	r2, r2, #24
 325              	.LVL18:
 326              	.L9:
 327              		.loc 1 187 0
 328 0026 637A     		ldrb	r3, [r4, #9]	@ zero_extendqisi2
 329              	.LBB203:
 330              	.LBB204:
 331              		.loc 1 887 0
 332 0028 D4F88400 		ldr	r0, [r4, #132]
 333              	.LVL19:
 334              	.LBE204:
 335              	.LBE203:
 336              		.loc 1 187 0
ARM GAS  /tmp/ccxMPRSl.s 			page 7


 337 002c 03F00303 		and	r3, r3, #3
 338              	.LVL20:
 339              	.LBB206:
 340              	.LBB205:
 341              		.loc 1 887 0
 342 0030 1343     		orrs	r3, r3, r2
 343              	.LVL21:
 344 0032 94F87310 		ldrb	r1, [r4, #115]	@ zero_extendqisi2
 345 0036 1022     		movs	r2, #16
 346              	.LVL22:
 347 0038 FFF7FEFF 		bl	_ZN7creator3I2C9WriteByteEhhh
 348              	.LVL23:
 349              	.LBE205:
 350              	.LBE206:
 351              	.LBB207:
 352              	.LBB208:
 353 003c 1122     		movs	r2, #17
 354 003e 0023     		movs	r3, #0
 355 0040 D4F88400 		ldr	r0, [r4, #132]
 356 0044 94F87310 		ldrb	r1, [r4, #115]	@ zero_extendqisi2
 357 0048 FFF7FEFF 		bl	_ZN7creator3I2C9WriteByteEhhh
 358              	.LVL24:
 359              	.LBE208:
 360              	.LBE207:
 361              		.loc 1 201 0
 362 004c A37A     		ldrb	r3, [r4, #10]	@ zero_extendqisi2
 363              		.loc 1 202 0
 364 004e E27A     		ldrb	r2, [r4, #11]	@ zero_extendqisi2
 365              		.loc 1 201 0
 366 0050 002B     		cmp	r3, #0
 367 0052 14BF     		ite	ne
 368 0054 8023     		movne	r3, #128
 369 0056 0023     		moveq	r3, #0
 370              	.LVL25:
 371              		.loc 1 202 0
 372 0058 2AB1     		cbz	r2, .L13
 373              		.loc 1 203 0
 374 005a 227B     		ldrb	r2, [r4, #12]	@ zero_extendqisi2
 375 005c 02F00F02 		and	r2, r2, #15
 376 0060 42F04002 		orr	r2, r2, #64
 377 0064 1343     		orrs	r3, r3, r2
 378              	.LVL26:
 379              	.L13:
 380              	.LBB209:
 381              	.LBB210:
 382              		.loc 1 887 0
 383 0066 1222     		movs	r2, #18
 384 0068 D4F88400 		ldr	r0, [r4, #132]
 385 006c 94F87310 		ldrb	r1, [r4, #115]	@ zero_extendqisi2
 386 0070 FFF7FEFF 		bl	_ZN7creator3I2C9WriteByteEhhh
 387              	.LVL27:
 388              	.LBE210:
 389              	.LBE209:
 390              		.loc 1 215 0
 391 0074 E37C     		ldrb	r3, [r4, #19]	@ zero_extendqisi2
 392              		.loc 1 216 0
 393 0076 A27C     		ldrb	r2, [r4, #18]	@ zero_extendqisi2
ARM GAS  /tmp/ccxMPRSl.s 			page 8


 394              		.loc 1 214 0
 395 0078 002B     		cmp	r3, #0
 396 007a 14BF     		ite	ne
 397 007c 2023     		movne	r3, #32
 398 007e 0023     		moveq	r3, #0
 399              	.LVL28:
 400              		.loc 1 216 0
 401 0080 12B1     		cbz	r2, .L15
 402              		.loc 1 216 0 is_stmt 0 discriminator 1
 403 0082 43F01003 		orr	r3, r3, #16
 404              	.LVL29:
 405 0086 DBB2     		uxtb	r3, r3
 406              	.LVL30:
 407              	.L15:
 408              		.loc 1 217 0 is_stmt 1
 409 0088 627C     		ldrb	r2, [r4, #17]	@ zero_extendqisi2
 410 008a 0AB1     		cbz	r2, .L16
 411              		.loc 1 217 0 is_stmt 0 discriminator 1
 412 008c 43F00803 		orr	r3, r3, #8
 413              	.LVL31:
 414              	.L16:
 415              		.loc 1 218 0 is_stmt 1
 416 0090 227D     		ldrb	r2, [r4, #20]	@ zero_extendqisi2
 417 0092 0AB1     		cbz	r2, .L17
 418              		.loc 1 218 0 is_stmt 0 discriminator 1
 419 0094 43F00203 		orr	r3, r3, #2
 420              	.LVL32:
 421              	.L17:
 422              	.LBB211:
 423              	.LBB212:
 424              		.loc 1 887 0 is_stmt 1
 425 0098 1E22     		movs	r2, #30
 426 009a D4F88400 		ldr	r0, [r4, #132]
 427 009e 94F87310 		ldrb	r1, [r4, #115]	@ zero_extendqisi2
 428 00a2 FFF7FEFF 		bl	_ZN7creator3I2C9WriteByteEhhh
 429              	.LVL33:
 430              	.LBE212:
 431              	.LBE211:
 432              		.loc 1 226 0
 433 00a6 637B     		ldrb	r3, [r4, #13]	@ zero_extendqisi2
 434              		.loc 1 227 0
 435 00a8 A27B     		ldrb	r2, [r4, #14]	@ zero_extendqisi2
 436              		.loc 1 225 0
 437 00aa 002B     		cmp	r3, #0
 438 00ac 14BF     		ite	ne
 439 00ae 2023     		movne	r3, #32
 440 00b0 0023     		moveq	r3, #0
 441              	.LVL34:
 442              		.loc 1 227 0
 443 00b2 12B1     		cbz	r2, .L19
 444              		.loc 1 227 0 is_stmt 0 discriminator 1
 445 00b4 43F01003 		orr	r3, r3, #16
 446              	.LVL35:
 447 00b8 DBB2     		uxtb	r3, r3
 448              	.LVL36:
 449              	.L19:
 450              		.loc 1 228 0 is_stmt 1
ARM GAS  /tmp/ccxMPRSl.s 			page 9


 451 00ba E27B     		ldrb	r2, [r4, #15]	@ zero_extendqisi2
 452 00bc 0AB1     		cbz	r2, .L20
 453              		.loc 1 228 0 is_stmt 0 discriminator 1
 454 00be 43F00803 		orr	r3, r3, #8
 455              	.LVL37:
 456              	.L20:
 457              	.LBB213:
 458              	.LBB214:
 459              		.loc 1 887 0 is_stmt 1
 460 00c2 D4F88400 		ldr	r0, [r4, #132]
 461 00c6 94F87310 		ldrb	r1, [r4, #115]	@ zero_extendqisi2
 462 00ca 1322     		movs	r2, #19
 463              	.LBE214:
 464              	.LBE213:
 465              	.LBE217:
 466              		.loc 1 230 0
 467 00cc BDE81040 		pop	{r4, lr}
 468              	.LVL38:
 469              	.LBB218:
 470              	.LBB216:
 471              	.LBB215:
 472              		.loc 1 887 0
 473 00d0 FFF7FEBF 		b	_ZN7creator3I2C9WriteByteEhhh
 474              	.LVL39:
 475              	.LBE215:
 476              	.LBE216:
 477              	.LBE218:
 478              		.cfi_endproc
 479              	.LFE15:
 480              		.fnend
 481              		.size	_ZN7LSM9DS18initGyroEv, .-_ZN7LSM9DS18initGyroEv
 482 00d4 AFF30080 		.section	.text._ZN7LSM9DS19initAccelEv,"ax",%progbits
 482      AFF30080 
 482      AFF30080 
 483              		.align	2
 484              		.p2align 4,,15
 485              		.global	_ZN7LSM9DS19initAccelEv
 486              		.thumb
 487              		.thumb_func
 488              		.type	_ZN7LSM9DS19initAccelEv, %function
 489              	_ZN7LSM9DS19initAccelEv:
 490              		.fnstart
 491              	.LFB16:
 492              		.loc 1 232 0
 493              		.cfi_startproc
 494              		@ args = 0, pretend = 0, frame = 0
 495              		@ frame_needed = 0, uses_anonymous_args = 0
 496              	.LVL40:
 497 0000 10B5     		push	{r4, lr}
 498              		.save {r4, lr}
 499              		.cfi_def_cfa_offset 8
 500              		.cfi_offset 4, -8
 501              		.cfi_offset 14, -4
 502              	.LBB219:
 503              		.loc 1 242 0
 504 0002 C37E     		ldrb	r3, [r0, #27]	@ zero_extendqisi2
 505              		.loc 1 243 0
ARM GAS  /tmp/ccxMPRSl.s 			page 10


 506 0004 827E     		ldrb	r2, [r0, #26]	@ zero_extendqisi2
 507              	.LBE219:
 508              		.loc 1 232 0
 509 0006 0446     		mov	r4, r0
 510              	.LBB230:
 511              		.loc 1 233 0
 512 0008 002B     		cmp	r3, #0
 513 000a 14BF     		ite	ne
 514 000c 2023     		movne	r3, #32
 515 000e 0023     		moveq	r3, #0
 516              	.LVL41:
 517              		.loc 1 243 0
 518 0010 12B1     		cbz	r2, .L45
 519              		.loc 1 243 0 is_stmt 0 discriminator 1
 520 0012 43F01003 		orr	r3, r3, #16
 521              	.LVL42:
 522 0016 DBB2     		uxtb	r3, r3
 523              	.LVL43:
 524              	.L45:
 525              		.loc 1 244 0 is_stmt 1
 526 0018 627E     		ldrb	r2, [r4, #25]	@ zero_extendqisi2
 527 001a 0AB1     		cbz	r2, .L46
 528              		.loc 1 244 0 is_stmt 0 discriminator 1
 529 001c 43F00803 		orr	r3, r3, #8
 530              	.LVL44:
 531              	.L46:
 532              	.LBB220:
 533              	.LBB221:
 534              		.loc 1 887 0 is_stmt 1
 535 0020 D4F88400 		ldr	r0, [r4, #132]
 536              	.LVL45:
 537 0024 94F87310 		ldrb	r1, [r4, #115]	@ zero_extendqisi2
 538 0028 1F22     		movs	r2, #31
 539 002a FFF7FEFF 		bl	_ZN7creator3I2C9WriteByteEhhh
 540              	.LVL46:
 541              	.LBE221:
 542              	.LBE220:
 543              		.loc 1 256 0
 544 002e A37D     		ldrb	r3, [r4, #22]	@ zero_extendqisi2
 545 0030 13B1     		cbz	r3, .L47
 546              		.loc 1 257 0
 547 0032 237E     		ldrb	r3, [r4, #24]	@ zero_extendqisi2
 548 0034 5B01     		lsls	r3, r3, #5
 549 0036 DBB2     		uxtb	r3, r3
 550              	.LVL47:
 551              	.L47:
 552              		.loc 1 259 0
 553 0038 E27D     		ldrb	r2, [r4, #23]	@ zero_extendqisi2
 554 003a 082A     		cmp	r2, #8
 555              		.loc 1 264 0
 556 003c 08BF     		it	eq
 557 003e 43F01803 		orreq	r3, r3, #24
 558              	.LVL48:
 559              		.loc 1 259 0
 560 0042 08D0     		beq	.L48
 561 0044 102A     		cmp	r2, #16
 562              		.loc 1 267 0
ARM GAS  /tmp/ccxMPRSl.s 			page 11


 563 0046 08BF     		it	eq
 564 0048 43F00803 		orreq	r3, r3, #8
 565              		.loc 1 259 0
 566 004c 03D0     		beq	.L48
 567 004e 042A     		cmp	r2, #4
 568              		.loc 1 261 0
 569 0050 08BF     		it	eq
 570 0052 43F01003 		orreq	r3, r3, #16
 571              	.L48:
 572              	.LVL49:
 573              		.loc 1 271 0
 574 0056 227F     		ldrb	r2, [r4, #28]	@ zero_extendqisi2
 575              	.LBB222:
 576              	.LBB223:
 577              		.loc 1 887 0
 578 0058 D4F88400 		ldr	r0, [r4, #132]
 579              	.LBE223:
 580              	.LBE222:
 581              		.loc 1 271 0
 582 005c 1106     		lsls	r1, r2, #24
 583              		.loc 1 273 0
 584 005e 5FBF     		itttt	pl
 585 0060 02F00302 		andpl	r2, r2, #3
 586 0064 1343     		orrpl	r3, r3, r2
 587              	.LVL50:
 588 0066 43F00403 		orrpl	r3, r3, #4
 589 006a DBB2     		uxtbpl	r3, r3
 590              	.LVL51:
 591              	.LBB225:
 592              	.LBB224:
 593              		.loc 1 887 0
 594 006c 94F87310 		ldrb	r1, [r4, #115]	@ zero_extendqisi2
 595 0070 2022     		movs	r2, #32
 596 0072 FFF7FEFF 		bl	_ZN7creator3I2C9WriteByteEhhh
 597              	.LVL52:
 598              	.LBE224:
 599              	.LBE225:
 600              		.loc 1 284 0
 601 0076 637F     		ldrb	r3, [r4, #29]	@ zero_extendqisi2
 602 0078 2BB1     		cbz	r3, .L53
 603              	.LVL53:
 604              		.loc 1 286 0
 605 007a A37F     		ldrb	r3, [r4, #30]	@ zero_extendqisi2
 606 007c 03F00303 		and	r3, r3, #3
 607 0080 5B01     		lsls	r3, r3, #5
 608 0082 43F08003 		orr	r3, r3, #128
 609              	.LVL54:
 610              	.L53:
 611              	.LBB226:
 612              	.LBB227:
 613              		.loc 1 887 0
 614 0086 D4F88400 		ldr	r0, [r4, #132]
 615 008a 94F87310 		ldrb	r1, [r4, #115]	@ zero_extendqisi2
 616 008e 2122     		movs	r2, #33
 617              	.LBE227:
 618              	.LBE226:
 619              	.LBE230:
ARM GAS  /tmp/ccxMPRSl.s 			page 12


 620              		.loc 1 289 0
 621 0090 BDE81040 		pop	{r4, lr}
 622              	.LVL55:
 623              	.LBB231:
 624              	.LBB229:
 625              	.LBB228:
 626              		.loc 1 887 0
 627 0094 FFF7FEBF 		b	_ZN7creator3I2C9WriteByteEhhh
 628              	.LVL56:
 629              	.LBE228:
 630              	.LBE229:
 631              	.LBE231:
 632              		.cfi_endproc
 633              	.LFE16:
 634              		.fnend
 635              		.size	_ZN7LSM9DS19initAccelEv, .-_ZN7LSM9DS19initAccelEv
 636 0098 AFF30080 		.section	.text._ZN7LSM9DS19magOffsetEhs,"ax",%progbits
 636      AFF30080 
 637              		.align	2
 638              		.p2align 4,,15
 639              		.global	_ZN7LSM9DS19magOffsetEhs
 640              		.thumb
 641              		.thumb_func
 642              		.type	_ZN7LSM9DS19magOffsetEhs, %function
 643              	_ZN7LSM9DS19magOffsetEhs:
 644              		.fnstart
 645              	.LFB19:
 646              		.loc 1 363 0
 647              		.cfi_startproc
 648              		@ args = 0, pretend = 0, frame = 0
 649              		@ frame_needed = 0, uses_anonymous_args = 0
 650              	.LVL57:
 651              	.LBB232:
 652              		.loc 1 364 0
 653 0000 0229     		cmp	r1, #2
 654              	.LBE232:
 655              		.loc 1 363 0
 656 0002 70B5     		push	{r4, r5, r6, lr}
 657              		.save {r4, r5, r6, lr}
 658              		.cfi_def_cfa_offset 16
 659              		.cfi_offset 4, -16
 660              		.cfi_offset 5, -12
 661              		.cfi_offset 6, -8
 662              		.cfi_offset 14, -4
 663              		.loc 1 363 0
 664 0004 0C46     		mov	r4, r1
 665 0006 0546     		mov	r5, r0
 666 0008 1646     		mov	r6, r2
 667              	.LBB241:
 668              		.loc 1 364 0
 669 000a 00D9     		bls	.L65
 670 000c 70BD     		pop	{r4, r5, r6, pc}
 671              	.L65:
 672              	.LVL58:
 673              		.loc 1 368 0
 674 000e 4A00     		lsls	r2, r1, #1
 675              	.LVL59:
ARM GAS  /tmp/ccxMPRSl.s 			page 13


 676 0010 0532     		adds	r2, r2, #5
 677              	.LBB233:
 678              	.LBB234:
 679              		.loc 1 891 0
 680 0012 95F87210 		ldrb	r1, [r5, #114]	@ zero_extendqisi2
 681              	.LVL60:
 682 0016 F3B2     		uxtb	r3, r6
 683 0018 D2B2     		uxtb	r2, r2
 684 001a D0F88400 		ldr	r0, [r0, #132]
 685              	.LVL61:
 686              	.LBE234:
 687              	.LBE233:
 688              		.loc 1 369 0
 689 001e 0334     		adds	r4, r4, #3
 690              	.LVL62:
 691              	.LBB236:
 692              	.LBB235:
 693              		.loc 1 891 0
 694 0020 FFF7FEFF 		bl	_ZN7creator3I2C9WriteByteEhhh
 695              	.LVL63:
 696              	.LBE235:
 697              	.LBE236:
 698              		.loc 1 369 0
 699 0024 6200     		lsls	r2, r4, #1
 700              	.LBB237:
 701              	.LBB238:
 702              		.loc 1 891 0
 703 0026 C6F30723 		ubfx	r3, r6, #8, #8
 704 002a D5F88400 		ldr	r0, [r5, #132]
 705 002e 95F87210 		ldrb	r1, [r5, #114]	@ zero_extendqisi2
 706 0032 02F0FE02 		and	r2, r2, #254
 707              	.LBE238:
 708              	.LBE237:
 709              	.LBE241:
 710              		.loc 1 370 0
 711 0036 BDE87040 		pop	{r4, r5, r6, lr}
 712              	.LVL64:
 713              	.LBB242:
 714              	.LBB240:
 715              	.LBB239:
 716              		.loc 1 891 0
 717 003a FFF7FEBF 		b	_ZN7creator3I2C9WriteByteEhhh
 718              	.LVL65:
 719              	.LBE239:
 720              	.LBE240:
 721              	.LBE242:
 722              		.cfi_endproc
 723              	.LFE19:
 724              		.fnend
 725              		.size	_ZN7LSM9DS19magOffsetEhs, .-_ZN7LSM9DS19magOffsetEhs
 726 003e 00BF     		.section	.text._ZN7LSM9DS17initMagEv,"ax",%progbits
 727              		.align	2
 728              		.p2align 4,,15
 729              		.global	_ZN7LSM9DS17initMagEv
 730              		.thumb
 731              		.thumb_func
 732              		.type	_ZN7LSM9DS17initMagEv, %function
ARM GAS  /tmp/ccxMPRSl.s 			page 14


 733              	_ZN7LSM9DS17initMagEv:
 734              		.fnstart
 735              	.LFB20:
 736              		.loc 1 372 0
 737              		.cfi_startproc
 738              		@ args = 0, pretend = 0, frame = 0
 739              		@ frame_needed = 0, uses_anonymous_args = 0
 740              	.LVL66:
 741 0000 10B5     		push	{r4, lr}
 742              		.save {r4, lr}
 743              		.cfi_def_cfa_offset 8
 744              		.cfi_offset 4, -8
 745              		.cfi_offset 14, -4
 746              	.LBB243:
 747              		.loc 1 384 0
 748 0002 90F82310 		ldrb	r1, [r0, #35]	@ zero_extendqisi2
 749              		.loc 1 385 0
 750 0006 90F82120 		ldrb	r2, [r0, #33]	@ zero_extendqisi2
 751              		.loc 1 383 0
 752 000a 90F82230 		ldrb	r3, [r0, #34]	@ zero_extendqisi2
 753              		.loc 1 384 0
 754 000e 01F00301 		and	r1, r1, #3
 755 0012 4901     		lsls	r1, r1, #5
 756              		.loc 1 385 0
 757 0014 02F00702 		and	r2, r2, #7
 758              	.LBE243:
 759              		.loc 1 372 0
 760 0018 0446     		mov	r4, r0
 761              	.LBB260:
 762              		.loc 1 384 0
 763 001a 41EA8202 		orr	r2, r1, r2, lsl #2
 764              		.loc 1 383 0
 765 001e 002B     		cmp	r3, #0
 766 0020 14BF     		ite	ne
 767 0022 8023     		movne	r3, #128
 768 0024 0023     		moveq	r3, #0
 769              	.LVL67:
 770              	.LBB244:
 771              	.LBB245:
 772              		.loc 1 891 0
 773 0026 1343     		orrs	r3, r3, r2
 774              	.LVL68:
 775 0028 94F87210 		ldrb	r1, [r4, #114]	@ zero_extendqisi2
 776 002c 2022     		movs	r2, #32
 777 002e D0F88400 		ldr	r0, [r0, #132]
 778              	.LVL69:
 779 0032 FFF7FEFF 		bl	_ZN7creator3I2C9WriteByteEhhh
 780              	.LVL70:
 781 0036 94F82030 		ldrb	r3, [r4, #32]	@ zero_extendqisi2
 782              	.LBE245:
 783              	.LBE244:
 784              	.LBB246:
 785              	.LBB247:
 786 003a D4F88400 		ldr	r0, [r4, #132]
 787 003e 083B     		subs	r3, r3, #8
 788 0040 DBB2     		uxtb	r3, r3
 789 0042 082B     		cmp	r3, #8
ARM GAS  /tmp/ccxMPRSl.s 			page 15


 790 0044 9DBF     		ittte	ls
 791 0046 40F20002 		movwls	r2, #:lower16:.LANCHOR0
 792 004a C0F20002 		movtls	r2, #:upper16:.LANCHOR0
 793 004e D35C     		ldrbls	r3, [r2, r3]	@ zero_extendqisi2
 794              	.LBE247:
 795              	.LBE246:
 796              		.loc 1 394 0
 797 0050 0023     		movhi	r3, #0
 798              	.LVL71:
 799              	.LBB249:
 800              	.LBB248:
 801              		.loc 1 891 0
 802 0052 94F87210 		ldrb	r1, [r4, #114]	@ zero_extendqisi2
 803 0056 2122     		movs	r2, #33
 804 0058 FFF7FEFF 		bl	_ZN7creator3I2C9WriteByteEhhh
 805              	.LVL72:
 806              	.LBE248:
 807              	.LBE249:
 808              		.loc 1 417 0
 809 005c 94F82520 		ldrb	r2, [r4, #37]	@ zero_extendqisi2
 810              		.loc 1 418 0
 811 0060 94F82630 		ldrb	r3, [r4, #38]	@ zero_extendqisi2
 812              		.loc 1 417 0
 813 0064 002A     		cmp	r2, #0
 814 0066 14BF     		ite	ne
 815 0068 2022     		movne	r2, #32
 816 006a 0022     		moveq	r2, #0
 817              	.LVL73:
 818              		.loc 1 418 0
 819 006c 03F00303 		and	r3, r3, #3
 820              	.LBB250:
 821              	.LBB251:
 822              		.loc 1 891 0
 823 0070 1343     		orrs	r3, r3, r2
 824 0072 D4F88400 		ldr	r0, [r4, #132]
 825 0076 94F87210 		ldrb	r1, [r4, #114]	@ zero_extendqisi2
 826 007a 2222     		movs	r2, #34
 827              	.LVL74:
 828 007c FFF7FEFF 		bl	_ZN7creator3I2C9WriteByteEhhh
 829              	.LVL75:
 830              	.LBE251:
 831              	.LBE250:
 832              		.loc 1 428 0
 833 0080 94F82430 		ldrb	r3, [r4, #36]	@ zero_extendqisi2
 834              	.LBB252:
 835              	.LBB253:
 836              		.loc 1 891 0
 837 0084 D4F88400 		ldr	r0, [r4, #132]
 838              	.LBE253:
 839              	.LBE252:
 840              		.loc 1 428 0
 841 0088 03F00303 		and	r3, r3, #3
 842              	.LBB255:
 843              	.LBB254:
 844              		.loc 1 891 0
 845 008c 94F87210 		ldrb	r1, [r4, #114]	@ zero_extendqisi2
 846 0090 9B00     		lsls	r3, r3, #2
ARM GAS  /tmp/ccxMPRSl.s 			page 16


 847 0092 2322     		movs	r2, #35
 848 0094 FFF7FEFF 		bl	_ZN7creator3I2C9WriteByteEhhh
 849              	.LVL76:
 850              	.LBE254:
 851              	.LBE255:
 852              	.LBB256:
 853              	.LBB257:
 854 0098 D4F88400 		ldr	r0, [r4, #132]
 855 009c 94F87210 		ldrb	r1, [r4, #114]	@ zero_extendqisi2
 856 00a0 2422     		movs	r2, #36
 857 00a2 0023     		movs	r3, #0
 858              	.LBE257:
 859              	.LBE256:
 860              	.LBE260:
 861              		.loc 1 437 0
 862 00a4 BDE81040 		pop	{r4, lr}
 863              	.LVL77:
 864              	.LBB261:
 865              	.LBB259:
 866              	.LBB258:
 867              		.loc 1 891 0
 868 00a8 FFF7FEBF 		b	_ZN7creator3I2C9WriteByteEhhh
 869              	.LVL78:
 870              	.LBE258:
 871              	.LBE259:
 872              	.LBE261:
 873              		.cfi_endproc
 874              	.LFE20:
 875              		.fnend
 876              		.size	_ZN7LSM9DS17initMagEv, .-_ZN7LSM9DS17initMagEv
 877 00ac AFF30080 		.section	.text._ZN7LSM9DS114accelAvailableEv,"ax",%progbits
 878              		.align	2
 879              		.p2align 4,,15
 880              		.global	_ZN7LSM9DS114accelAvailableEv
 881              		.thumb
 882              		.thumb_func
 883              		.type	_ZN7LSM9DS114accelAvailableEv, %function
 884              	_ZN7LSM9DS114accelAvailableEv:
 885              		.fnstart
 886              	.LFB21:
 887              		.loc 1 439 0
 888              		.cfi_startproc
 889              		@ args = 0, pretend = 0, frame = 0
 890              		@ frame_needed = 0, uses_anonymous_args = 0
 891              	.LVL79:
 892 0000 08B5     		push	{r3, lr}
 893              		.save {r3, lr}
 894              		.cfi_def_cfa_offset 8
 895              		.cfi_offset 3, -8
 896              		.cfi_offset 14, -4
 897              		.loc 1 439 0
 898 0002 0346     		mov	r3, r0
 899              	.LVL80:
 900              	.LBB262:
 901              	.LBB263:
 902              	.LBB264:
 903              		.loc 1 895 0
ARM GAS  /tmp/ccxMPRSl.s 			page 17


 904 0004 93F87310 		ldrb	r1, [r3, #115]	@ zero_extendqisi2
 905 0008 2722     		movs	r2, #39
 906 000a D0F88400 		ldr	r0, [r0, #132]
 907              	.LVL81:
 908 000e FFF7FEFF 		bl	_ZN7creator3I2C8ReadByteEhh
 909              	.LVL82:
 910              	.LBE264:
 911              	.LBE263:
 912              	.LBE262:
 913              		.loc 1 443 0
 914 0012 00F00100 		and	r0, r0, #1
 915              	.LVL83:
 916 0016 08BD     		pop	{r3, pc}
 917              		.cfi_endproc
 918              	.LFE21:
 919              		.fnend
 920              		.size	_ZN7LSM9DS114accelAvailableEv, .-_ZN7LSM9DS114accelAvailableEv
 921 0018 AFF30080 		.section	.text._ZN7LSM9DS113gyroAvailableEv,"ax",%progbits
 921      AFF30080 
 922              		.align	2
 923              		.p2align 4,,15
 924              		.global	_ZN7LSM9DS113gyroAvailableEv
 925              		.thumb
 926              		.thumb_func
 927              		.type	_ZN7LSM9DS113gyroAvailableEv, %function
 928              	_ZN7LSM9DS113gyroAvailableEv:
 929              		.fnstart
 930              	.LFB22:
 931              		.loc 1 445 0
 932              		.cfi_startproc
 933              		@ args = 0, pretend = 0, frame = 0
 934              		@ frame_needed = 0, uses_anonymous_args = 0
 935              	.LVL84:
 936 0000 08B5     		push	{r3, lr}
 937              		.save {r3, lr}
 938              		.cfi_def_cfa_offset 8
 939              		.cfi_offset 3, -8
 940              		.cfi_offset 14, -4
 941              		.loc 1 445 0
 942 0002 0346     		mov	r3, r0
 943              	.LVL85:
 944              	.LBB265:
 945              	.LBB266:
 946              	.LBB267:
 947              		.loc 1 895 0
 948 0004 93F87310 		ldrb	r1, [r3, #115]	@ zero_extendqisi2
 949 0008 2722     		movs	r2, #39
 950 000a D0F88400 		ldr	r0, [r0, #132]
 951              	.LVL86:
 952 000e FFF7FEFF 		bl	_ZN7creator3I2C8ReadByteEhh
 953              	.LVL87:
 954              	.LBE267:
 955              	.LBE266:
 956              	.LBE265:
 957              		.loc 1 449 0
 958 0012 C0F34000 		ubfx	r0, r0, #1, #1
 959              	.LVL88:
ARM GAS  /tmp/ccxMPRSl.s 			page 18


 960 0016 08BD     		pop	{r3, pc}
 961              		.cfi_endproc
 962              	.LFE22:
 963              		.fnend
 964              		.size	_ZN7LSM9DS113gyroAvailableEv, .-_ZN7LSM9DS113gyroAvailableEv
 965 0018 AFF30080 		.section	.text._ZN7LSM9DS113tempAvailableEv,"ax",%progbits
 965      AFF30080 
 966              		.align	2
 967              		.p2align 4,,15
 968              		.global	_ZN7LSM9DS113tempAvailableEv
 969              		.thumb
 970              		.thumb_func
 971              		.type	_ZN7LSM9DS113tempAvailableEv, %function
 972              	_ZN7LSM9DS113tempAvailableEv:
 973              		.fnstart
 974              	.LFB23:
 975              		.loc 1 451 0
 976              		.cfi_startproc
 977              		@ args = 0, pretend = 0, frame = 0
 978              		@ frame_needed = 0, uses_anonymous_args = 0
 979              	.LVL89:
 980 0000 08B5     		push	{r3, lr}
 981              		.save {r3, lr}
 982              		.cfi_def_cfa_offset 8
 983              		.cfi_offset 3, -8
 984              		.cfi_offset 14, -4
 985              		.loc 1 451 0
 986 0002 0346     		mov	r3, r0
 987              	.LVL90:
 988              	.LBB268:
 989              	.LBB269:
 990              	.LBB270:
 991              		.loc 1 895 0
 992 0004 93F87310 		ldrb	r1, [r3, #115]	@ zero_extendqisi2
 993 0008 2722     		movs	r2, #39
 994 000a D0F88400 		ldr	r0, [r0, #132]
 995              	.LVL91:
 996 000e FFF7FEFF 		bl	_ZN7creator3I2C8ReadByteEhh
 997              	.LVL92:
 998              	.LBE270:
 999              	.LBE269:
 1000              	.LBE268:
 1001              		.loc 1 455 0
 1002 0012 C0F38000 		ubfx	r0, r0, #2, #1
 1003              	.LVL93:
 1004 0016 08BD     		pop	{r3, pc}
 1005              		.cfi_endproc
 1006              	.LFE23:
 1007              		.fnend
 1008              		.size	_ZN7LSM9DS113tempAvailableEv, .-_ZN7LSM9DS113tempAvailableEv
 1009 0018 AFF30080 		.section	.text._ZN7LSM9DS112magAvailableE12lsm9ds1_axis,"ax",%progbits
 1009      AFF30080 
 1010              		.align	2
 1011              		.p2align 4,,15
 1012              		.global	_ZN7LSM9DS112magAvailableE12lsm9ds1_axis
 1013              		.thumb
 1014              		.thumb_func
ARM GAS  /tmp/ccxMPRSl.s 			page 19


 1015              		.type	_ZN7LSM9DS112magAvailableE12lsm9ds1_axis, %function
 1016              	_ZN7LSM9DS112magAvailableE12lsm9ds1_axis:
 1017              		.fnstart
 1018              	.LFB24:
 1019              		.loc 1 457 0
 1020              		.cfi_startproc
 1021              		@ args = 0, pretend = 0, frame = 0
 1022              		@ frame_needed = 0, uses_anonymous_args = 0
 1023              	.LVL94:
 1024 0000 10B5     		push	{r4, lr}
 1025              		.save {r4, lr}
 1026              		.cfi_def_cfa_offset 8
 1027              		.cfi_offset 4, -8
 1028              		.cfi_offset 14, -4
 1029              		.loc 1 457 0
 1030 0002 0346     		mov	r3, r0
 1031              	.LVL95:
 1032 0004 0C46     		mov	r4, r1
 1033              	.LBB271:
 1034              	.LBB272:
 1035              	.LBB273:
 1036              		.loc 1 903 0
 1037 0006 2722     		movs	r2, #39
 1038 0008 93F87210 		ldrb	r1, [r3, #114]	@ zero_extendqisi2
 1039              	.LVL96:
 1040 000c D0F88400 		ldr	r0, [r0, #132]
 1041              	.LVL97:
 1042 0010 FFF7FEFF 		bl	_ZN7creator3I2C8ReadByteEhh
 1043              	.LVL98:
 1044              	.LBE273:
 1045              	.LBE272:
 1046              		.loc 1 461 0
 1047 0014 0123     		movs	r3, #1
 1048 0016 A340     		lsls	r3, r3, r4
 1049 0018 1840     		ands	r0, r0, r3
 1050              	.LVL99:
 1051 001a 2041     		asrs	r0, r0, r4
 1052              	.LBE271:
 1053              		.loc 1 462 0
 1054 001c C0B2     		uxtb	r0, r0
 1055 001e 10BD     		pop	{r4, pc}
 1056              		.cfi_endproc
 1057              	.LFE24:
 1058              		.fnend
 1059              		.size	_ZN7LSM9DS112magAvailableE12lsm9ds1_axis, .-_ZN7LSM9DS112magAvailableE12lsm9ds1_axis
 1060              		.section	.text._ZN7LSM9DS19readAccelEv,"ax",%progbits
 1061              		.align	2
 1062              		.p2align 4,,15
 1063              		.global	_ZN7LSM9DS19readAccelEv
 1064              		.thumb
 1065              		.thumb_func
 1066              		.type	_ZN7LSM9DS19readAccelEv, %function
 1067              	_ZN7LSM9DS19readAccelEv:
 1068              		.fnstart
 1069              	.LFB25:
 1070              		.loc 1 464 0
 1071              		.cfi_startproc
ARM GAS  /tmp/ccxMPRSl.s 			page 20


 1072              		@ args = 0, pretend = 0, frame = 8
 1073              		@ frame_needed = 0, uses_anonymous_args = 0
 1074              	.LVL100:
 1075 0000 F0B5     		push	{r4, r5, r6, r7, lr}
 1076              		.save {r4, r5, r6, r7, lr}
 1077              		.cfi_def_cfa_offset 20
 1078              		.cfi_offset 4, -20
 1079              		.cfi_offset 5, -16
 1080              		.cfi_offset 6, -12
 1081              		.cfi_offset 7, -8
 1082              		.cfi_offset 14, -4
 1083              	.LBB274:
 1084              	.LBB275:
 1085              	.LBB276:
 1086              		.loc 1 899 0
 1087 0002 0623     		movs	r3, #6
 1088              	.LBE276:
 1089              	.LBE275:
 1090              	.LBE274:
 1091              		.loc 1 464 0
 1092              		.pad #20
 1093 0004 85B0     		sub	sp, sp, #20
 1094              		.cfi_def_cfa_offset 40
 1095              		.loc 1 464 0
 1096 0006 0446     		mov	r4, r0
 1097              	.LVL101:
 1098              	.LBB279:
 1099              	.LBB278:
 1100              	.LBB277:
 1101              		.loc 1 899 0
 1102 0008 94F87310 		ldrb	r1, [r4, #115]	@ zero_extendqisi2
 1103 000c D0F88400 		ldr	r0, [r0, #132]
 1104              	.LVL102:
 1105 0010 2822     		movs	r2, #40
 1106 0012 0093     		str	r3, [sp]
 1107 0014 02AB     		add	r3, sp, #8
 1108              	.LVL103:
 1109 0016 FFF7FEFF 		bl	_ZN7creator3I2C9ReadBytesEhhPhh
 1110              	.LVL104:
 1111              	.LBE277:
 1112              	.LBE278:
 1113              		.loc 1 467 0
 1114 001a 9DF80970 		ldrb	r7, [sp, #9]	@ zero_extendqisi2
 1115 001e 9DF80810 		ldrb	r1, [sp, #8]	@ zero_extendqisi2
 1116              		.loc 1 468 0
 1117 0022 9DF80B60 		ldrb	r6, [sp, #11]	@ zero_extendqisi2
 1118 0026 9DF80A20 		ldrb	r2, [sp, #10]	@ zero_extendqisi2
 1119              		.loc 1 469 0
 1120 002a 9DF80D50 		ldrb	r5, [sp, #13]	@ zero_extendqisi2
 1121 002e 9DF80C30 		ldrb	r3, [sp, #12]	@ zero_extendqisi2
 1122              		.loc 1 470 0
 1123 0032 94F88000 		ldrb	r0, [r4, #128]	@ zero_extendqisi2
 1124              		.loc 1 467 0
 1125 0036 41EA0721 		orr	r1, r1, r7, lsl #8
 1126              		.loc 1 468 0
 1127 003a 42EA0622 		orr	r2, r2, r6, lsl #8
 1128              		.loc 1 469 0
ARM GAS  /tmp/ccxMPRSl.s 			page 21


 1129 003e 43EA0523 		orr	r3, r3, r5, lsl #8
 1130              		.loc 1 467 0
 1131 0042 E185     		strh	r1, [r4, #46]	@ movhi
 1132              		.loc 1 468 0
 1133 0044 2286     		strh	r2, [r4, #48]	@ movhi
 1134              		.loc 1 469 0
 1135 0046 6386     		strh	r3, [r4, #50]	@ movhi
 1136              		.loc 1 470 0
 1137 0048 58B1     		cbz	r0, .L77
 1138              		.loc 1 471 0
 1139 004a B4F86660 		ldrh	r6, [r4, #102]
 1140              		.loc 1 472 0
 1141 004e B4F86850 		ldrh	r5, [r4, #104]
 1142              		.loc 1 473 0
 1143 0052 B4F86A00 		ldrh	r0, [r4, #106]
 1144              		.loc 1 471 0
 1145 0056 891B     		subs	r1, r1, r6
 1146              		.loc 1 472 0
 1147 0058 521B     		subs	r2, r2, r5
 1148              		.loc 1 473 0
 1149 005a 1B1A     		subs	r3, r3, r0
 1150              		.loc 1 471 0
 1151 005c E185     		strh	r1, [r4, #46]	@ movhi
 1152              		.loc 1 472 0
 1153 005e 2286     		strh	r2, [r4, #48]	@ movhi
 1154              		.loc 1 473 0
 1155 0060 6386     		strh	r3, [r4, #50]	@ movhi
 1156              	.L77:
 1157              	.LBE279:
 1158              		.loc 1 475 0
 1159 0062 05B0     		add	sp, sp, #20
 1160              		@ sp needed
 1161 0064 F0BD     		pop	{r4, r5, r6, r7, pc}
 1162              		.cfi_endproc
 1163              	.LFE25:
 1164              		.fnend
 1165              		.size	_ZN7LSM9DS19readAccelEv, .-_ZN7LSM9DS19readAccelEv
 1166 0066 00BFAFF3 		.section	.text._ZN7LSM9DS19readAccelE12lsm9ds1_axis,"ax",%progbits
 1166      0080AFF3 
 1166      0080
 1167              		.align	2
 1168              		.p2align 4,,15
 1169              		.global	_ZN7LSM9DS19readAccelE12lsm9ds1_axis
 1170              		.thumb
 1171              		.thumb_func
 1172              		.type	_ZN7LSM9DS19readAccelE12lsm9ds1_axis, %function
 1173              	_ZN7LSM9DS19readAccelE12lsm9ds1_axis:
 1174              		.fnstart
 1175              	.LFB26:
 1176              		.loc 1 477 0
 1177              		.cfi_startproc
 1178              		@ args = 0, pretend = 0, frame = 8
 1179              		@ frame_needed = 0, uses_anonymous_args = 0
 1180              	.LVL105:
 1181 0000 30B5     		push	{r4, r5, lr}
 1182              		.save {r4, r5, lr}
 1183              		.cfi_def_cfa_offset 12
ARM GAS  /tmp/ccxMPRSl.s 			page 22


 1184              		.cfi_offset 4, -12
 1185              		.cfi_offset 5, -8
 1186              		.cfi_offset 14, -4
 1187              	.LBB280:
 1188              		.loc 1 480 0
 1189 0002 01F11402 		add	r2, r1, #20
 1190              	.LBE280:
 1191              		.loc 1 477 0
 1192              		.pad #20
 1193 0006 85B0     		sub	sp, sp, #20
 1194              		.cfi_def_cfa_offset 32
 1195              		.loc 1 477 0
 1196 0008 0446     		mov	r4, r0
 1197              	.LVL106:
 1198              	.LBB287:
 1199              	.LBB281:
 1200              	.LBB282:
 1201              		.loc 1 899 0
 1202 000a 0223     		movs	r3, #2
 1203              	.LBE282:
 1204              	.LBE281:
 1205              		.loc 1 480 0
 1206 000c 5200     		lsls	r2, r2, #1
 1207              	.LBB285:
 1208              	.LBB283:
 1209              		.loc 1 899 0
 1210 000e D0F88400 		ldr	r0, [r0, #132]
 1211              	.LVL107:
 1212 0012 02F0FE02 		and	r2, r2, #254
 1213              	.LBE283:
 1214              	.LBE285:
 1215              	.LBE287:
 1216              		.loc 1 477 0
 1217 0016 0D46     		mov	r5, r1
 1218              	.LBB288:
 1219              	.LBB286:
 1220              	.LBB284:
 1221              		.loc 1 899 0
 1222 0018 94F87310 		ldrb	r1, [r4, #115]	@ zero_extendqisi2
 1223              	.LVL108:
 1224 001c 0093     		str	r3, [sp]
 1225 001e 03AB     		add	r3, sp, #12
 1226              	.LVL109:
 1227 0020 FFF7FEFF 		bl	_ZN7creator3I2C9ReadBytesEhhPhh
 1228              	.LVL110:
 1229              	.LBE284:
 1230              	.LBE286:
 1231              		.loc 1 481 0
 1232 0024 9DF80D00 		ldrb	r0, [sp, #13]	@ zero_extendqisi2
 1233 0028 9DF80C20 		ldrb	r2, [sp, #12]	@ zero_extendqisi2
 1234              		.loc 1 483 0
 1235 002c 94F88030 		ldrb	r3, [r4, #128]	@ zero_extendqisi2
 1236              		.loc 1 481 0
 1237 0030 42EA0020 		orr	r0, r2, r0, lsl #8
 1238              	.LVL111:
 1239              		.loc 1 483 0
 1240 0034 2BB1     		cbz	r3, .L83
ARM GAS  /tmp/ccxMPRSl.s 			page 23


 1241              		.loc 1 483 0 is_stmt 0 discriminator 1
 1242 0036 04EB4504 		add	r4, r4, r5, lsl #1
 1243              	.LVL112:
 1244 003a B4F86630 		ldrh	r3, [r4, #102]
 1245 003e C01A     		subs	r0, r0, r3
 1246              	.LVL113:
 1247 0040 80B2     		uxth	r0, r0
 1248              	.LVL114:
 1249              	.L83:
 1250              	.LBE288:
 1251              		.loc 1 486 0 is_stmt 1
 1252 0042 00B2     		sxth	r0, r0
 1253              	.LVL115:
 1254 0044 05B0     		add	sp, sp, #20
 1255              		@ sp needed
 1256 0046 30BD     		pop	{r4, r5, pc}
 1257              		.cfi_endproc
 1258              	.LFE26:
 1259              		.fnend
 1260              		.size	_ZN7LSM9DS19readAccelE12lsm9ds1_axis, .-_ZN7LSM9DS19readAccelE12lsm9ds1_axis
 1261 0048 AFF30080 		.section	.text._ZN7LSM9DS17readMagEv,"ax",%progbits
 1261      AFF30080 
 1262              		.align	2
 1263              		.p2align 4,,15
 1264              		.global	_ZN7LSM9DS17readMagEv
 1265              		.thumb
 1266              		.thumb_func
 1267              		.type	_ZN7LSM9DS17readMagEv, %function
 1268              	_ZN7LSM9DS17readMagEv:
 1269              		.fnstart
 1270              	.LFB27:
 1271              		.loc 1 488 0
 1272              		.cfi_startproc
 1273              		@ args = 0, pretend = 0, frame = 8
 1274              		@ frame_needed = 0, uses_anonymous_args = 0
 1275              	.LVL116:
 1276 0000 70B5     		push	{r4, r5, r6, lr}
 1277              		.save {r4, r5, r6, lr}
 1278              		.cfi_def_cfa_offset 16
 1279              		.cfi_offset 4, -16
 1280              		.cfi_offset 5, -12
 1281              		.cfi_offset 6, -8
 1282              		.cfi_offset 14, -4
 1283              	.LBB289:
 1284              	.LBB290:
 1285              	.LBB291:
 1286              		.loc 1 907 0
 1287 0002 0623     		movs	r3, #6
 1288              	.LBE291:
 1289              	.LBE290:
 1290              	.LBE289:
 1291              		.loc 1 488 0
 1292              		.pad #16
 1293 0004 84B0     		sub	sp, sp, #16
 1294              		.cfi_def_cfa_offset 32
 1295              		.loc 1 488 0
 1296 0006 0446     		mov	r4, r0
ARM GAS  /tmp/ccxMPRSl.s 			page 24


 1297              	.LVL117:
 1298              	.LBB294:
 1299              	.LBB293:
 1300              	.LBB292:
 1301              		.loc 1 907 0
 1302 0008 94F87210 		ldrb	r1, [r4, #114]	@ zero_extendqisi2
 1303 000c D0F88400 		ldr	r0, [r0, #132]
 1304              	.LVL118:
 1305 0010 2822     		movs	r2, #40
 1306 0012 0093     		str	r3, [sp]
 1307 0014 02AB     		add	r3, sp, #8
 1308              	.LVL119:
 1309 0016 FFF7FEFF 		bl	_ZN7creator3I2C9ReadBytesEhhPhh
 1310              	.LVL120:
 1311              	.LBE292:
 1312              	.LBE293:
 1313              		.loc 1 491 0
 1314 001a 9DF80960 		ldrb	r6, [sp, #9]	@ zero_extendqisi2
 1315 001e 9DF80810 		ldrb	r1, [sp, #8]	@ zero_extendqisi2
 1316              		.loc 1 492 0
 1317 0022 9DF80B50 		ldrb	r5, [sp, #11]	@ zero_extendqisi2
 1318 0026 9DF80A20 		ldrb	r2, [sp, #10]	@ zero_extendqisi2
 1319              		.loc 1 493 0
 1320 002a 9DF80D00 		ldrb	r0, [sp, #13]	@ zero_extendqisi2
 1321 002e 9DF80C30 		ldrb	r3, [sp, #12]	@ zero_extendqisi2
 1322              		.loc 1 491 0
 1323 0032 41EA0621 		orr	r1, r1, r6, lsl #8
 1324              		.loc 1 492 0
 1325 0036 42EA0522 		orr	r2, r2, r5, lsl #8
 1326              		.loc 1 493 0
 1327 003a 43EA0023 		orr	r3, r3, r0, lsl #8
 1328              		.loc 1 491 0
 1329 003e A186     		strh	r1, [r4, #52]	@ movhi
 1330              		.loc 1 492 0
 1331 0040 E286     		strh	r2, [r4, #54]	@ movhi
 1332              		.loc 1 493 0
 1333 0042 2387     		strh	r3, [r4, #56]	@ movhi
 1334              	.LBE294:
 1335              		.loc 1 494 0
 1336 0044 04B0     		add	sp, sp, #16
 1337              		@ sp needed
 1338 0046 70BD     		pop	{r4, r5, r6, pc}
 1339              		.cfi_endproc
 1340              	.LFE27:
 1341              		.fnend
 1342              		.size	_ZN7LSM9DS17readMagEv, .-_ZN7LSM9DS17readMagEv
 1343              		.global	__aeabi_i2f
 1344              		.global	__aeabi_fmul
 1345 0048 AFF30080 		.section	.text._ZN7LSM9DS112calibrateMagEb,"ax",%progbits
 1345      AFF30080 
 1346              		.align	2
 1347              		.p2align 4,,15
 1348              		.global	_ZN7LSM9DS112calibrateMagEb
 1349              		.thumb
 1350              		.thumb_func
 1351              		.type	_ZN7LSM9DS112calibrateMagEb, %function
 1352              	_ZN7LSM9DS112calibrateMagEb:
ARM GAS  /tmp/ccxMPRSl.s 			page 25


 1353              		.fnstart
 1354              	.LFB18:
 1355              		.loc 1 339 0
 1356              		.cfi_startproc
 1357              		@ args = 0, pretend = 0, frame = 24
 1358              		@ frame_needed = 0, uses_anonymous_args = 0
 1359              	.LVL121:
 1360 0000 2DE9F047 		push	{r4, r5, r6, r7, r8, r9, r10, lr}
 1361              		.save {r4, r5, r6, r7, r8, r9, r10, lr}
 1362              		.cfi_def_cfa_offset 32
 1363              		.cfi_offset 4, -32
 1364              		.cfi_offset 5, -28
 1365              		.cfi_offset 6, -24
 1366              		.cfi_offset 7, -20
 1367              		.cfi_offset 8, -16
 1368              		.cfi_offset 9, -12
 1369              		.cfi_offset 10, -8
 1370              		.cfi_offset 14, -4
 1371              	.LBB295:
 1372              		.loc 1 341 0
 1373 0004 0023     		movs	r3, #0
 1374              	.LBE295:
 1375              		.loc 1 339 0
 1376              		.pad #24
 1377 0006 86B0     		sub	sp, sp, #24
 1378              		.cfi_def_cfa_offset 56
 1379              		.loc 1 339 0
 1380 0008 0446     		mov	r4, r0
 1381 000a 8846     		mov	r8, r1
 1382              	.LBB306:
 1383              		.loc 1 341 0
 1384 000c ADF80030 		strh	r3, [sp]	@ movhi
 1385 0010 ADF80230 		strh	r3, [sp, #2]	@ movhi
 1386 0014 ADF80430 		strh	r3, [sp, #4]	@ movhi
 1387              		.loc 1 342 0
 1388 0018 ADF80830 		strh	r3, [sp, #8]	@ movhi
 1389 001c ADF80A30 		strh	r3, [sp, #10]	@ movhi
 1390 0020 ADF80C30 		strh	r3, [sp, #12]	@ movhi
 1391              	.LVL122:
 1392 0024 8027     		movs	r7, #128
 1393 0026 02AE     		add	r6, sp, #8
 1394              	.LVL123:
 1395              	.L90:
 1396              	.LBB296:
 1397              	.LBB297:
 1398              	.LBB298:
 1399              	.LBB299:
 1400              	.LBB300:
 1401              	.LBB301:
 1402              		.loc 1 903 0 discriminator 1
 1403 0028 D4F88400 		ldr	r0, [r4, #132]
 1404 002c 94F87210 		ldrb	r1, [r4, #114]	@ zero_extendqisi2
 1405 0030 2722     		movs	r2, #39
 1406 0032 FFF7FEFF 		bl	_ZN7creator3I2C8ReadByteEhh
 1407              	.LVL124:
 1408              	.LBE301:
 1409              	.LBE300:
ARM GAS  /tmp/ccxMPRSl.s 			page 26


 1410              	.LBE299:
 1411              	.LBE298:
 1412              		.loc 1 345 0 discriminator 1
 1413 0036 0007     		lsls	r0, r0, #28
 1414              	.LVL125:
 1415 0038 F6D5     		bpl	.L90
 1416              		.loc 1 347 0
 1417 003a 2046     		mov	r0, r4
 1418 003c FFF7FEFF 		bl	_ZN7LSM9DS17readMagEv
 1419              	.LVL126:
 1420              		.loc 1 351 0
 1421 0040 238F     		ldrh	r3, [r4, #56]
 1422              		.loc 1 349 0
 1423 0042 A28E     		ldrh	r2, [r4, #52]
 1424              		.loc 1 350 0
 1425 0044 E18E     		ldrh	r1, [r4, #54]
 1426              		.loc 1 351 0
 1427 0046 ADF81430 		strh	r3, [sp, #20]	@ movhi
 1428              	.LVL127:
 1429              		.loc 1 349 0
 1430 004a ADF81020 		strh	r2, [sp, #16]	@ movhi
 1431              		.loc 1 350 0
 1432 004e ADF81210 		strh	r1, [sp, #18]	@ movhi
 1433              		.loc 1 351 0
 1434 0052 0023     		movs	r3, #0
 1435              	.LVL128:
 1436              	.L94:
 1437              		.loc 1 353 0
 1438 0054 F15E     		ldrsh	r1, [r6, r3]
 1439              		.loc 1 354 0
 1440 0056 3DF90350 		ldrsh	r5, [sp, r3]
 1441              		.loc 1 353 0
 1442 005a 10B2     		sxth	r0, r2
 1443 005c 8142     		cmp	r1, r0
 1444 005e B8BF     		it	lt
 1445 0060 F252     		strhlt	r2, [r6, r3]	@ movhi
 1446              		.loc 1 354 0
 1447 0062 8542     		cmp	r5, r0
 1448 0064 C8BF     		it	gt
 1449 0066 2DF80320 		strhgt	r2, [sp, r3]	@ movhi
 1450 006a 0233     		adds	r3, r3, #2
 1451              		.loc 1 352 0
 1452 006c 062B     		cmp	r3, #6
 1453 006e 04D0     		beq	.L93
 1454 0070 03F11001 		add	r1, r3, #16
 1455 0074 6846     		mov	r0, sp
 1456 0076 0A5A     		ldrh	r2, [r1, r0]
 1457 0078 ECE7     		b	.L94
 1458              	.L93:
 1459              	.LVL129:
 1460              	.LBE297:
 1461              		.loc 1 344 0
 1462 007a 013F     		subs	r7, r7, #1
 1463              	.LVL130:
 1464 007c D4D1     		bne	.L90
 1465 007e B946     		mov	r9, r7
 1466 0080 2546     		mov	r5, r4
ARM GAS  /tmp/ccxMPRSl.s 			page 27


 1467              	.LVL131:
 1468              	.L99:
 1469              	.LBE296:
 1470              		.loc 1 358 0
 1471 0082 F15F     		ldrsh	r1, [r6, r7]
 1472 0084 3DF90730 		ldrsh	r3, [sp, r7]
 1473 0088 E219     		adds	r2, r4, r7
 1474 008a 0B44     		add	r3, r3, r1
 1475 008c 03EBD373 		add	r3, r3, r3, lsr #31
 1476 0090 C3F34F03 		ubfx	r3, r3, #1, #16
 1477              	.LBB302:
 1478              	.LBB303:
 1479              		.loc 1 547 0
 1480 0094 0FFA83FA 		sxth	r10, r3
 1481              	.LBE303:
 1482              	.LBE302:
 1483              		.loc 1 358 0
 1484 0098 A2F86C30 		strh	r3, [r2, #108]	@ movhi
 1485              	.LVL132:
 1486              	.LBB305:
 1487              	.LBB304:
 1488              		.loc 1 547 0
 1489 009c 5046     		mov	r0, r10
 1490 009e FFF7FEFF 		bl	__aeabi_i2f
 1491              	.LVL133:
 1492 00a2 0146     		mov	r1, r0
 1493 00a4 E06F     		ldr	r0, [r4, #124]	@ float
 1494 00a6 FFF7FEFF 		bl	__aeabi_fmul
 1495              	.LVL134:
 1496 00aa 0237     		adds	r7, r7, #2
 1497              	.LBE304:
 1498              	.LBE305:
 1499              		.loc 1 359 0
 1500 00ac 6865     		str	r0, [r5, #84]	@ float
 1501 00ae 0435     		adds	r5, r5, #4
 1502              		.loc 1 360 0
 1503 00b0 B8F1000F 		cmp	r8, #0
 1504 00b4 06D1     		bne	.L103
 1505              	.L97:
 1506              		.loc 1 357 0
 1507 00b6 062F     		cmp	r7, #6
 1508 00b8 09F10109 		add	r9, r9, #1
 1509              	.LVL135:
 1510 00bc E1D1     		bne	.L99
 1511              	.LBE306:
 1512              		.loc 1 362 0
 1513 00be 06B0     		add	sp, sp, #24
 1514              		@ sp needed
 1515 00c0 BDE8F087 		pop	{r4, r5, r6, r7, r8, r9, r10, pc}
 1516              	.LVL136:
 1517              	.L103:
 1518              	.LBB307:
 1519              		.loc 1 360 0 discriminator 1
 1520 00c4 5246     		mov	r2, r10
 1521 00c6 2046     		mov	r0, r4
 1522 00c8 5FFA89F1 		uxtb	r1, r9
 1523 00cc FFF7FEFF 		bl	_ZN7LSM9DS19magOffsetEhs
ARM GAS  /tmp/ccxMPRSl.s 			page 28


 1524              	.LVL137:
 1525 00d0 F1E7     		b	.L97
 1526              	.LBE307:
 1527              		.cfi_endproc
 1528              	.LFE18:
 1529              		.fnend
 1530              		.size	_ZN7LSM9DS112calibrateMagEb, .-_ZN7LSM9DS112calibrateMagEb
 1531 00d2 00BFAFF3 		.section	.text._ZN7LSM9DS17readMagE12lsm9ds1_axis,"ax",%progbits
 1531      0080AFF3 
 1531      0080AFF3 
 1531      0080
 1532              		.align	2
 1533              		.p2align 4,,15
 1534              		.global	_ZN7LSM9DS17readMagE12lsm9ds1_axis
 1535              		.thumb
 1536              		.thumb_func
 1537              		.type	_ZN7LSM9DS17readMagE12lsm9ds1_axis, %function
 1538              	_ZN7LSM9DS17readMagE12lsm9ds1_axis:
 1539              		.fnstart
 1540              	.LFB28:
 1541              		.loc 1 496 0
 1542              		.cfi_startproc
 1543              		@ args = 0, pretend = 0, frame = 8
 1544              		@ frame_needed = 0, uses_anonymous_args = 0
 1545              	.LVL138:
 1546 0000 00B5     		push	{lr}
 1547              		.save {lr}
 1548              		.cfi_def_cfa_offset 4
 1549              		.cfi_offset 14, -4
 1550 0002 0346     		mov	r3, r0
 1551              	.LVL139:
 1552              	.LBB308:
 1553              		.loc 1 498 0
 1554 0004 01F11402 		add	r2, r1, #20
 1555              	.LBE308:
 1556              		.loc 1 496 0
 1557              		.pad #20
 1558 0008 85B0     		sub	sp, sp, #20
 1559              		.cfi_def_cfa_offset 24
 1560              	.LVL140:
 1561              	.LBB313:
 1562              	.LBB309:
 1563              	.LBB310:
 1564              		.loc 1 907 0
 1565 000a 93F87210 		ldrb	r1, [r3, #114]	@ zero_extendqisi2
 1566              	.LVL141:
 1567              	.LBE310:
 1568              	.LBE309:
 1569              		.loc 1 498 0
 1570 000e 5200     		lsls	r2, r2, #1
 1571              	.LBB312:
 1572              	.LBB311:
 1573              		.loc 1 907 0
 1574 0010 0223     		movs	r3, #2
 1575 0012 D0F88400 		ldr	r0, [r0, #132]
 1576              	.LVL142:
 1577 0016 02F0FE02 		and	r2, r2, #254
ARM GAS  /tmp/ccxMPRSl.s 			page 29


 1578 001a 0093     		str	r3, [sp]
 1579 001c 03AB     		add	r3, sp, #12
 1580              	.LVL143:
 1581 001e FFF7FEFF 		bl	_ZN7creator3I2C9ReadBytesEhhPhh
 1582              	.LVL144:
 1583              	.LBE311:
 1584              	.LBE312:
 1585              		.loc 1 499 0
 1586 0022 9DF80D00 		ldrb	r0, [sp, #13]	@ zero_extendqisi2
 1587 0026 9DF80C30 		ldrb	r3, [sp, #12]	@ zero_extendqisi2
 1588 002a 43EA0020 		orr	r0, r3, r0, lsl #8
 1589              	.LBE313:
 1590              		.loc 1 500 0
 1591 002e 00B2     		sxth	r0, r0
 1592 0030 05B0     		add	sp, sp, #20
 1593              		@ sp needed
 1594 0032 5DF804FB 		ldr	pc, [sp], #4
 1595              		.cfi_endproc
 1596              	.LFE28:
 1597              		.fnend
 1598              		.size	_ZN7LSM9DS17readMagE12lsm9ds1_axis, .-_ZN7LSM9DS17readMagE12lsm9ds1_axis
 1599 0036 00BFAFF3 		.section	.text._ZN7LSM9DS18readTempEv,"ax",%progbits
 1599      0080AFF3 
 1599      0080
 1600              		.align	2
 1601              		.p2align 4,,15
 1602              		.global	_ZN7LSM9DS18readTempEv
 1603              		.thumb
 1604              		.thumb_func
 1605              		.type	_ZN7LSM9DS18readTempEv, %function
 1606              	_ZN7LSM9DS18readTempEv:
 1607              		.fnstart
 1608              	.LFB29:
 1609              		.loc 1 502 0
 1610              		.cfi_startproc
 1611              		@ args = 0, pretend = 0, frame = 8
 1612              		@ frame_needed = 0, uses_anonymous_args = 0
 1613              	.LVL145:
 1614 0000 10B5     		push	{r4, lr}
 1615              		.save {r4, lr}
 1616              		.cfi_def_cfa_offset 8
 1617              		.cfi_offset 4, -8
 1618              		.cfi_offset 14, -4
 1619              	.LBB314:
 1620              	.LBB315:
 1621              	.LBB316:
 1622              		.loc 1 899 0
 1623 0002 0223     		movs	r3, #2
 1624              	.LBE316:
 1625              	.LBE315:
 1626              	.LBE314:
 1627              		.loc 1 502 0
 1628              		.pad #16
 1629 0004 84B0     		sub	sp, sp, #16
 1630              		.cfi_def_cfa_offset 24
 1631              		.loc 1 502 0
 1632 0006 0446     		mov	r4, r0
ARM GAS  /tmp/ccxMPRSl.s 			page 30


 1633              	.LVL146:
 1634              	.LBB319:
 1635              	.LBB318:
 1636              	.LBB317:
 1637              		.loc 1 899 0
 1638 0008 94F87310 		ldrb	r1, [r4, #115]	@ zero_extendqisi2
 1639 000c D0F88400 		ldr	r0, [r0, #132]
 1640              	.LVL147:
 1641 0010 1522     		movs	r2, #21
 1642 0012 0093     		str	r3, [sp]
 1643 0014 03AB     		add	r3, sp, #12
 1644              	.LVL148:
 1645 0016 FFF7FEFF 		bl	_ZN7creator3I2C9ReadBytesEhhPhh
 1646              	.LVL149:
 1647              	.LBE317:
 1648              	.LBE318:
 1649              		.loc 1 506 0
 1650 001a 9DF80D20 		ldrb	r2, [sp, #13]	@ zero_extendqisi2
 1651 001e 9DF80C30 		ldrb	r3, [sp, #12]	@ zero_extendqisi2
 1652 0022 43EA0223 		orr	r3, r3, r2, lsl #8
 1653 0026 6387     		strh	r3, [r4, #58]	@ movhi
 1654              	.LBE319:
 1655              		.loc 1 507 0
 1656 0028 04B0     		add	sp, sp, #16
 1657              		@ sp needed
 1658 002a 10BD     		pop	{r4, pc}
 1659              		.cfi_endproc
 1660              	.LFE29:
 1661              		.fnend
 1662              		.size	_ZN7LSM9DS18readTempEv, .-_ZN7LSM9DS18readTempEv
 1663 002c AFF30080 		.section	.text._ZN7LSM9DS18readGyroEv,"ax",%progbits
 1664              		.align	2
 1665              		.p2align 4,,15
 1666              		.global	_ZN7LSM9DS18readGyroEv
 1667              		.thumb
 1668              		.thumb_func
 1669              		.type	_ZN7LSM9DS18readGyroEv, %function
 1670              	_ZN7LSM9DS18readGyroEv:
 1671              		.fnstart
 1672              	.LFB30:
 1673              		.loc 1 509 0
 1674              		.cfi_startproc
 1675              		@ args = 0, pretend = 0, frame = 8
 1676              		@ frame_needed = 0, uses_anonymous_args = 0
 1677              	.LVL150:
 1678 0000 F0B5     		push	{r4, r5, r6, r7, lr}
 1679              		.save {r4, r5, r6, r7, lr}
 1680              		.cfi_def_cfa_offset 20
 1681              		.cfi_offset 4, -20
 1682              		.cfi_offset 5, -16
 1683              		.cfi_offset 6, -12
 1684              		.cfi_offset 7, -8
 1685              		.cfi_offset 14, -4
 1686              	.LBB320:
 1687              	.LBB321:
 1688              	.LBB322:
 1689              		.loc 1 899 0
ARM GAS  /tmp/ccxMPRSl.s 			page 31


 1690 0002 0623     		movs	r3, #6
 1691              	.LBE322:
 1692              	.LBE321:
 1693              	.LBE320:
 1694              		.loc 1 509 0
 1695              		.pad #20
 1696 0004 85B0     		sub	sp, sp, #20
 1697              		.cfi_def_cfa_offset 40
 1698              		.loc 1 509 0
 1699 0006 0446     		mov	r4, r0
 1700              	.LVL151:
 1701              	.LBB325:
 1702              	.LBB324:
 1703              	.LBB323:
 1704              		.loc 1 899 0
 1705 0008 94F87310 		ldrb	r1, [r4, #115]	@ zero_extendqisi2
 1706 000c D0F88400 		ldr	r0, [r0, #132]
 1707              	.LVL152:
 1708 0010 1822     		movs	r2, #24
 1709 0012 0093     		str	r3, [sp]
 1710 0014 02AB     		add	r3, sp, #8
 1711              	.LVL153:
 1712 0016 FFF7FEFF 		bl	_ZN7creator3I2C9ReadBytesEhhPhh
 1713              	.LVL154:
 1714              	.LBE323:
 1715              	.LBE324:
 1716              		.loc 1 512 0
 1717 001a 9DF80970 		ldrb	r7, [sp, #9]	@ zero_extendqisi2
 1718 001e 9DF80810 		ldrb	r1, [sp, #8]	@ zero_extendqisi2
 1719              		.loc 1 513 0
 1720 0022 9DF80B60 		ldrb	r6, [sp, #11]	@ zero_extendqisi2
 1721 0026 9DF80A20 		ldrb	r2, [sp, #10]	@ zero_extendqisi2
 1722              		.loc 1 514 0
 1723 002a 9DF80D50 		ldrb	r5, [sp, #13]	@ zero_extendqisi2
 1724 002e 9DF80C30 		ldrb	r3, [sp, #12]	@ zero_extendqisi2
 1725              		.loc 1 515 0
 1726 0032 94F88000 		ldrb	r0, [r4, #128]	@ zero_extendqisi2
 1727              		.loc 1 512 0
 1728 0036 41EA0721 		orr	r1, r1, r7, lsl #8
 1729              		.loc 1 513 0
 1730 003a 42EA0622 		orr	r2, r2, r6, lsl #8
 1731              		.loc 1 514 0
 1732 003e 43EA0523 		orr	r3, r3, r5, lsl #8
 1733              		.loc 1 512 0
 1734 0042 2185     		strh	r1, [r4, #40]	@ movhi
 1735              		.loc 1 513 0
 1736 0044 6285     		strh	r2, [r4, #42]	@ movhi
 1737              		.loc 1 514 0
 1738 0046 A385     		strh	r3, [r4, #44]	@ movhi
 1739              		.loc 1 515 0
 1740 0048 58B1     		cbz	r0, .L106
 1741              		.loc 1 516 0
 1742 004a B4F86060 		ldrh	r6, [r4, #96]
 1743              		.loc 1 517 0
 1744 004e B4F86250 		ldrh	r5, [r4, #98]
 1745              		.loc 1 518 0
 1746 0052 B4F86400 		ldrh	r0, [r4, #100]
ARM GAS  /tmp/ccxMPRSl.s 			page 32


 1747              		.loc 1 516 0
 1748 0056 891B     		subs	r1, r1, r6
 1749              		.loc 1 517 0
 1750 0058 521B     		subs	r2, r2, r5
 1751              		.loc 1 518 0
 1752 005a 1B1A     		subs	r3, r3, r0
 1753              		.loc 1 516 0
 1754 005c 2185     		strh	r1, [r4, #40]	@ movhi
 1755              		.loc 1 517 0
 1756 005e 6285     		strh	r2, [r4, #42]	@ movhi
 1757              		.loc 1 518 0
 1758 0060 A385     		strh	r3, [r4, #44]	@ movhi
 1759              	.L106:
 1760              	.LBE325:
 1761              		.loc 1 520 0
 1762 0062 05B0     		add	sp, sp, #20
 1763              		@ sp needed
 1764 0064 F0BD     		pop	{r4, r5, r6, r7, pc}
 1765              		.cfi_endproc
 1766              	.LFE30:
 1767              		.fnend
 1768              		.size	_ZN7LSM9DS18readGyroEv, .-_ZN7LSM9DS18readGyroEv
 1769 0066 00BFAFF3 		.section	.text._ZN7LSM9DS18readGyroE12lsm9ds1_axis,"ax",%progbits
 1769      0080AFF3 
 1769      0080
 1770              		.align	2
 1771              		.p2align 4,,15
 1772              		.global	_ZN7LSM9DS18readGyroE12lsm9ds1_axis
 1773              		.thumb
 1774              		.thumb_func
 1775              		.type	_ZN7LSM9DS18readGyroE12lsm9ds1_axis, %function
 1776              	_ZN7LSM9DS18readGyroE12lsm9ds1_axis:
 1777              		.fnstart
 1778              	.LFB31:
 1779              		.loc 1 522 0
 1780              		.cfi_startproc
 1781              		@ args = 0, pretend = 0, frame = 8
 1782              		@ frame_needed = 0, uses_anonymous_args = 0
 1783              	.LVL155:
 1784 0000 30B5     		push	{r4, r5, lr}
 1785              		.save {r4, r5, lr}
 1786              		.cfi_def_cfa_offset 12
 1787              		.cfi_offset 4, -12
 1788              		.cfi_offset 5, -8
 1789              		.cfi_offset 14, -4
 1790              	.LBB326:
 1791              		.loc 1 526 0
 1792 0002 01F10C02 		add	r2, r1, #12
 1793              	.LBE326:
 1794              		.loc 1 522 0
 1795              		.pad #20
 1796 0006 85B0     		sub	sp, sp, #20
 1797              		.cfi_def_cfa_offset 32
 1798              		.loc 1 522 0
 1799 0008 0446     		mov	r4, r0
 1800              	.LVL156:
 1801              	.LBB333:
ARM GAS  /tmp/ccxMPRSl.s 			page 33


 1802              	.LBB327:
 1803              	.LBB328:
 1804              		.loc 1 899 0
 1805 000a 0223     		movs	r3, #2
 1806              	.LBE328:
 1807              	.LBE327:
 1808              		.loc 1 526 0
 1809 000c 5200     		lsls	r2, r2, #1
 1810              	.LBB331:
 1811              	.LBB329:
 1812              		.loc 1 899 0
 1813 000e D0F88400 		ldr	r0, [r0, #132]
 1814              	.LVL157:
 1815 0012 02F0FE02 		and	r2, r2, #254
 1816              	.LBE329:
 1817              	.LBE331:
 1818              	.LBE333:
 1819              		.loc 1 522 0
 1820 0016 0D46     		mov	r5, r1
 1821              	.LBB334:
 1822              	.LBB332:
 1823              	.LBB330:
 1824              		.loc 1 899 0
 1825 0018 94F87310 		ldrb	r1, [r4, #115]	@ zero_extendqisi2
 1826              	.LVL158:
 1827 001c 0093     		str	r3, [sp]
 1828 001e 03AB     		add	r3, sp, #12
 1829              	.LVL159:
 1830 0020 FFF7FEFF 		bl	_ZN7creator3I2C9ReadBytesEhhPhh
 1831              	.LVL160:
 1832              	.LBE330:
 1833              	.LBE332:
 1834              		.loc 1 528 0
 1835 0024 9DF80D00 		ldrb	r0, [sp, #13]	@ zero_extendqisi2
 1836 0028 9DF80C20 		ldrb	r2, [sp, #12]	@ zero_extendqisi2
 1837              		.loc 1 530 0
 1838 002c 94F88030 		ldrb	r3, [r4, #128]	@ zero_extendqisi2
 1839              		.loc 1 528 0
 1840 0030 42EA0020 		orr	r0, r2, r0, lsl #8
 1841              	.LVL161:
 1842              		.loc 1 530 0
 1843 0034 23B1     		cbz	r3, .L112
 1844              		.loc 1 530 0 is_stmt 0 discriminator 1
 1845 0036 3035     		adds	r5, r5, #48
 1846              	.LVL162:
 1847 0038 34F81530 		ldrh	r3, [r4, r5, lsl #1]
 1848 003c C01A     		subs	r0, r0, r3
 1849              	.LVL163:
 1850 003e 80B2     		uxth	r0, r0
 1851              	.LVL164:
 1852              	.L112:
 1853              	.LBE334:
 1854              		.loc 1 533 0 is_stmt 1
 1855 0040 00B2     		sxth	r0, r0
 1856              	.LVL165:
 1857 0042 05B0     		add	sp, sp, #20
 1858              		@ sp needed
ARM GAS  /tmp/ccxMPRSl.s 			page 34


 1859 0044 30BD     		pop	{r4, r5, pc}
 1860              		.cfi_endproc
 1861              	.LFE31:
 1862              		.fnend
 1863              		.size	_ZN7LSM9DS18readGyroE12lsm9ds1_axis, .-_ZN7LSM9DS18readGyroE12lsm9ds1_axis
 1864 0046 00BFAFF3 		.section	.text._ZN7LSM9DS18calcGyroEs,"ax",%progbits
 1864      0080AFF3 
 1864      0080
 1865              		.align	2
 1866              		.p2align 4,,15
 1867              		.global	_ZN7LSM9DS18calcGyroEs
 1868              		.thumb
 1869              		.thumb_func
 1870              		.type	_ZN7LSM9DS18calcGyroEs, %function
 1871              	_ZN7LSM9DS18calcGyroEs:
 1872              		.fnstart
 1873              	.LFB32:
 1874              		.loc 1 535 0
 1875              		.cfi_startproc
 1876              		@ args = 0, pretend = 0, frame = 0
 1877              		@ frame_needed = 0, uses_anonymous_args = 0
 1878              	.LVL166:
 1879 0000 10B5     		push	{r4, lr}
 1880              		.cfi_def_cfa_offset 8
 1881              		.cfi_offset 4, -8
 1882              		.cfi_offset 14, -4
 1883              		.loc 1 535 0
 1884 0002 0446     		mov	r4, r0
 1885              		.loc 1 537 0
 1886 0004 0846     		mov	r0, r1
 1887              	.LVL167:
 1888 0006 FFF7FEFF 		bl	__aeabi_i2f
 1889              	.LVL168:
 1890 000a 616F     		ldr	r1, [r4, #116]	@ float
 1891 000c FFF7FEFF 		bl	__aeabi_fmul
 1892              	.LVL169:
 1893              		.loc 1 538 0
 1894 0010 10BD     		pop	{r4, pc}
 1895              		.cfi_endproc
 1896              	.LFE32:
 1897              		.cantunwind
 1898              		.fnend
 1899              		.size	_ZN7LSM9DS18calcGyroEs, .-_ZN7LSM9DS18calcGyroEs
 1900 0012 00BFAFF3 		.section	.text._ZN7LSM9DS19calcAccelEs,"ax",%progbits
 1900      0080AFF3 
 1900      0080AFF3 
 1900      0080
 1901              		.align	2
 1902              		.p2align 4,,15
 1903              		.global	_ZN7LSM9DS19calcAccelEs
 1904              		.thumb
 1905              		.thumb_func
 1906              		.type	_ZN7LSM9DS19calcAccelEs, %function
 1907              	_ZN7LSM9DS19calcAccelEs:
 1908              		.fnstart
 1909              	.LFB33:
 1910              		.loc 1 540 0
ARM GAS  /tmp/ccxMPRSl.s 			page 35


 1911              		.cfi_startproc
 1912              		@ args = 0, pretend = 0, frame = 0
 1913              		@ frame_needed = 0, uses_anonymous_args = 0
 1914              	.LVL170:
 1915 0000 10B5     		push	{r4, lr}
 1916              		.cfi_def_cfa_offset 8
 1917              		.cfi_offset 4, -8
 1918              		.cfi_offset 14, -4
 1919              		.loc 1 540 0
 1920 0002 0446     		mov	r4, r0
 1921              		.loc 1 542 0
 1922 0004 0846     		mov	r0, r1
 1923              	.LVL171:
 1924 0006 FFF7FEFF 		bl	__aeabi_i2f
 1925              	.LVL172:
 1926 000a A16F     		ldr	r1, [r4, #120]	@ float
 1927 000c FFF7FEFF 		bl	__aeabi_fmul
 1928              	.LVL173:
 1929              		.loc 1 543 0
 1930 0010 10BD     		pop	{r4, pc}
 1931              		.cfi_endproc
 1932              	.LFE33:
 1933              		.cantunwind
 1934              		.fnend
 1935              		.size	_ZN7LSM9DS19calcAccelEs, .-_ZN7LSM9DS19calcAccelEs
 1936 0012 00BFAFF3 		.section	.text._ZN7LSM9DS17calcMagEs,"ax",%progbits
 1936      0080AFF3 
 1936      0080AFF3 
 1936      0080
 1937              		.align	2
 1938              		.p2align 4,,15
 1939              		.global	_ZN7LSM9DS17calcMagEs
 1940              		.thumb
 1941              		.thumb_func
 1942              		.type	_ZN7LSM9DS17calcMagEs, %function
 1943              	_ZN7LSM9DS17calcMagEs:
 1944              		.fnstart
 1945              	.LFB34:
 1946              		.loc 1 545 0
 1947              		.cfi_startproc
 1948              		@ args = 0, pretend = 0, frame = 0
 1949              		@ frame_needed = 0, uses_anonymous_args = 0
 1950              	.LVL174:
 1951 0000 10B5     		push	{r4, lr}
 1952              		.cfi_def_cfa_offset 8
 1953              		.cfi_offset 4, -8
 1954              		.cfi_offset 14, -4
 1955              		.loc 1 545 0
 1956 0002 0446     		mov	r4, r0
 1957              		.loc 1 547 0
 1958 0004 0846     		mov	r0, r1
 1959              	.LVL175:
 1960 0006 FFF7FEFF 		bl	__aeabi_i2f
 1961              	.LVL176:
 1962 000a E16F     		ldr	r1, [r4, #124]	@ float
 1963 000c FFF7FEFF 		bl	__aeabi_fmul
 1964              	.LVL177:
ARM GAS  /tmp/ccxMPRSl.s 			page 36


 1965              		.loc 1 548 0
 1966 0010 10BD     		pop	{r4, pc}
 1967              		.cfi_endproc
 1968              	.LFE34:
 1969              		.cantunwind
 1970              		.fnend
 1971              		.size	_ZN7LSM9DS17calcMagEs, .-_ZN7LSM9DS17calcMagEs
 1972              		.global	__aeabi_ui2f
 1973 0012 00BFAFF3 		.section	.text._ZN7LSM9DS112setGyroScaleEt,"ax",%progbits
 1973      0080AFF3 
 1973      0080AFF3 
 1973      0080
 1974              		.align	2
 1975              		.p2align 4,,15
 1976              		.global	_ZN7LSM9DS112setGyroScaleEt
 1977              		.thumb
 1978              		.thumb_func
 1979              		.type	_ZN7LSM9DS112setGyroScaleEt, %function
 1980              	_ZN7LSM9DS112setGyroScaleEt:
 1981              		.fnstart
 1982              	.LFB35:
 1983              		.loc 1 550 0
 1984              		.cfi_startproc
 1985              		@ args = 0, pretend = 0, frame = 0
 1986              		@ frame_needed = 0, uses_anonymous_args = 0
 1987              	.LVL178:
 1988 0000 38B5     		push	{r3, r4, r5, lr}
 1989              		.save {r3, r4, r5, lr}
 1990              		.cfi_def_cfa_offset 16
 1991              		.cfi_offset 3, -16
 1992              		.cfi_offset 4, -12
 1993              		.cfi_offset 5, -8
 1994              		.cfi_offset 14, -4
 1995              		.loc 1 550 0
 1996 0002 0446     		mov	r4, r0
 1997              	.LVL179:
 1998 0004 0D46     		mov	r5, r1
 1999              	.LBB335:
 2000              	.LBB336:
 2001              	.LBB337:
 2002              		.loc 1 895 0
 2003 0006 D0F88400 		ldr	r0, [r0, #132]
 2004              	.LVL180:
 2005 000a 94F87310 		ldrb	r1, [r4, #115]	@ zero_extendqisi2
 2006              	.LVL181:
 2007 000e 1022     		movs	r2, #16
 2008 0010 FFF7FEFF 		bl	_ZN7creator3I2C8ReadByteEhh
 2009              	.LVL182:
 2010              	.LBE337:
 2011              	.LBE336:
 2012              		.loc 1 555 0
 2013 0014 B5F5FA7F 		cmp	r5, #500
 2014              		.loc 1 554 0
 2015 0018 00F0E703 		and	r3, r0, #231
 2016              	.LVL183:
 2017              		.loc 1 555 0
 2018 001c 19D0     		beq	.L121
ARM GAS  /tmp/ccxMPRSl.s 			page 37


 2019 001e B5F5FA6F 		cmp	r5, #2000
 2020              		.loc 1 561 0
 2021 0022 04BF     		itt	eq
 2022 0024 43F01803 		orreq	r3, r3, #24
 2023              	.LVL184:
 2024              		.loc 1 562 0
 2025 0028 E580     		strheq	r5, [r4, #6]	@ movhi
 2026              		.loc 1 555 0
 2027 002a 0FD1     		bne	.L125
 2028              	.LVL185:
 2029              	.L123:
 2030              	.LBB338:
 2031              	.LBB339:
 2032              		.loc 1 887 0
 2033 002c 94F87310 		ldrb	r1, [r4, #115]	@ zero_extendqisi2
 2034 0030 1022     		movs	r2, #16
 2035 0032 D4F88400 		ldr	r0, [r4, #132]
 2036 0036 FFF7FEFF 		bl	_ZN7creator3I2C9WriteByteEhhh
 2037              	.LVL186:
 2038              	.LBE339:
 2039              	.LBE338:
 2040              	.LBB340:
 2041              	.LBB341:
 2042              		.loc 1 678 0
 2043 003a E088     		ldrh	r0, [r4, #6]
 2044 003c FFF7FEFF 		bl	__aeabi_ui2f
 2045              	.LVL187:
 2046 0040 4FF06051 		mov	r1, #939524096
 2047 0044 FFF7FEFF 		bl	__aeabi_fmul
 2048              	.LVL188:
 2049 0048 6067     		str	r0, [r4, #116]	@ float
 2050 004a 38BD     		pop	{r3, r4, r5, pc}
 2051              	.LVL189:
 2052              	.L125:
 2053              	.LBE341:
 2054              	.LBE340:
 2055              		.loc 1 565 0
 2056 004c F522     		movs	r2, #245
 2057 004e E280     		strh	r2, [r4, #6]	@ movhi
 2058              		.loc 1 566 0
 2059 0050 ECE7     		b	.L123
 2060              	.L121:
 2061              		.loc 1 557 0
 2062 0052 43F00803 		orr	r3, r3, #8
 2063              	.LVL190:
 2064              		.loc 1 558 0
 2065 0056 E580     		strh	r5, [r4, #6]	@ movhi
 2066              		.loc 1 559 0
 2067 0058 E8E7     		b	.L123
 2068              	.LBE335:
 2069              		.cfi_endproc
 2070              	.LFE35:
 2071              		.fnend
 2072              		.size	_ZN7LSM9DS112setGyroScaleEt, .-_ZN7LSM9DS112setGyroScaleEt
 2073 005a 00BFAFF3 		.section	.text._ZN7LSM9DS113setAccelScaleEh,"ax",%progbits
 2073      0080
 2074              		.align	2
ARM GAS  /tmp/ccxMPRSl.s 			page 38


 2075              		.p2align 4,,15
 2076              		.global	_ZN7LSM9DS113setAccelScaleEh
 2077              		.thumb
 2078              		.thumb_func
 2079              		.type	_ZN7LSM9DS113setAccelScaleEh, %function
 2080              	_ZN7LSM9DS113setAccelScaleEh:
 2081              		.fnstart
 2082              	.LFB36:
 2083              		.loc 1 573 0
 2084              		.cfi_startproc
 2085              		@ args = 0, pretend = 0, frame = 0
 2086              		@ frame_needed = 0, uses_anonymous_args = 0
 2087              	.LVL191:
 2088 0000 38B5     		push	{r3, r4, r5, lr}
 2089              		.save {r3, r4, r5, lr}
 2090              		.cfi_def_cfa_offset 16
 2091              		.cfi_offset 3, -16
 2092              		.cfi_offset 4, -12
 2093              		.cfi_offset 5, -8
 2094              		.cfi_offset 14, -4
 2095              		.loc 1 573 0
 2096 0002 0446     		mov	r4, r0
 2097              	.LVL192:
 2098 0004 0D46     		mov	r5, r1
 2099              	.LBB342:
 2100              	.LBB343:
 2101              	.LBB344:
 2102              		.loc 1 895 0
 2103 0006 D0F88400 		ldr	r0, [r0, #132]
 2104              	.LVL193:
 2105 000a 94F87310 		ldrb	r1, [r4, #115]	@ zero_extendqisi2
 2106              	.LVL194:
 2107 000e 2022     		movs	r2, #32
 2108 0010 FFF7FEFF 		bl	_ZN7creator3I2C8ReadByteEhh
 2109              	.LVL195:
 2110              	.LBE344:
 2111              	.LBE343:
 2112              		.loc 1 579 0
 2113 0014 082D     		cmp	r5, #8
 2114              		.loc 1 577 0
 2115 0016 00F0E703 		and	r3, r0, #231
 2116              	.LVL196:
 2117              		.loc 1 579 0
 2118 001a 1DD0     		beq	.L128
 2119 001c 102D     		cmp	r5, #16
 2120 001e 17D0     		beq	.L129
 2121 0020 042D     		cmp	r5, #4
 2122              		.loc 1 581 0
 2123 0022 04BF     		itt	eq
 2124 0024 43F01003 		orreq	r3, r3, #16
 2125              	.LVL197:
 2126              		.loc 1 582 0
 2127 0028 E575     		strbeq	r5, [r4, #23]
 2128              		.loc 1 579 0
 2129 002a 01D0     		beq	.L131
 2130              		.loc 1 593 0
 2131 002c 0222     		movs	r2, #2
ARM GAS  /tmp/ccxMPRSl.s 			page 39


 2132 002e E275     		strb	r2, [r4, #23]
 2133              	.LVL198:
 2134              	.L131:
 2135              	.LBB345:
 2136              	.LBB346:
 2137              		.loc 1 887 0
 2138 0030 94F87310 		ldrb	r1, [r4, #115]	@ zero_extendqisi2
 2139 0034 2022     		movs	r2, #32
 2140 0036 D4F88400 		ldr	r0, [r4, #132]
 2141 003a FFF7FEFF 		bl	_ZN7creator3I2C9WriteByteEhhh
 2142              	.LVL199:
 2143              	.LBE346:
 2144              	.LBE345:
 2145              	.LBB347:
 2146              	.LBB348:
 2147              		.loc 1 680 0
 2148 003e E07D     		ldrb	r0, [r4, #23]	@ zero_extendqisi2
 2149 0040 FFF7FEFF 		bl	__aeabi_ui2f
 2150              	.LVL200:
 2151 0044 4FF06051 		mov	r1, #939524096
 2152 0048 FFF7FEFF 		bl	__aeabi_fmul
 2153              	.LVL201:
 2154 004c A067     		str	r0, [r4, #120]	@ float
 2155 004e 38BD     		pop	{r3, r4, r5, pc}
 2156              	.LVL202:
 2157              	.L129:
 2158              	.LBE348:
 2159              	.LBE347:
 2160              		.loc 1 589 0
 2161 0050 43F00803 		orr	r3, r3, #8
 2162              	.LVL203:
 2163              		.loc 1 590 0
 2164 0054 E575     		strb	r5, [r4, #23]
 2165              		.loc 1 591 0
 2166 0056 EBE7     		b	.L131
 2167              	.L128:
 2168              		.loc 1 585 0
 2169 0058 43F01803 		orr	r3, r3, #24
 2170              	.LVL204:
 2171              		.loc 1 586 0
 2172 005c E575     		strb	r5, [r4, #23]
 2173              		.loc 1 587 0
 2174 005e E7E7     		b	.L131
 2175              	.LBE342:
 2176              		.cfi_endproc
 2177              	.LFE36:
 2178              		.fnend
 2179              		.size	_ZN7LSM9DS113setAccelScaleEh, .-_ZN7LSM9DS113setAccelScaleEh
 2180              		.section	.text._ZN7LSM9DS110setGyroODREh,"ax",%progbits
 2181              		.align	2
 2182              		.p2align 4,,15
 2183              		.global	_ZN7LSM9DS110setGyroODREh
 2184              		.thumb
 2185              		.thumb_func
 2186              		.type	_ZN7LSM9DS110setGyroODREh, %function
 2187              	_ZN7LSM9DS110setGyroODREh:
 2188              		.fnstart
ARM GAS  /tmp/ccxMPRSl.s 			page 40


 2189              	.LFB38:
 2190              		.loc 1 636 0
 2191              		.cfi_startproc
 2192              		@ args = 0, pretend = 0, frame = 0
 2193              		@ frame_needed = 0, uses_anonymous_args = 0
 2194              	.LVL205:
 2195 0000 70B5     		push	{r4, r5, r6, lr}
 2196              		.save {r4, r5, r6, lr}
 2197              		.cfi_def_cfa_offset 16
 2198              		.cfi_offset 4, -16
 2199              		.cfi_offset 5, -12
 2200              		.cfi_offset 6, -8
 2201              		.cfi_offset 14, -4
 2202              	.LBB349:
 2203              		.loc 1 638 0
 2204 0002 11F00706 		ands	r6, r1, #7
 2205              	.LBE349:
 2206              		.loc 1 636 0
 2207 0006 0C46     		mov	r4, r1
 2208 0008 0546     		mov	r5, r0
 2209              	.LBB358:
 2210              		.loc 1 638 0
 2211 000a 00D1     		bne	.L135
 2212 000c 70BD     		pop	{r4, r5, r6, pc}
 2213              	.L135:
 2214              	.LVL206:
 2215              	.LBB350:
 2216              	.LBB351:
 2217              	.LBB352:
 2218              		.loc 1 895 0
 2219 000e 95F87310 		ldrb	r1, [r5, #115]	@ zero_extendqisi2
 2220              	.LVL207:
 2221 0012 1022     		movs	r2, #16
 2222 0014 D0F88400 		ldr	r0, [r0, #132]
 2223              	.LVL208:
 2224 0018 FFF7FEFF 		bl	_ZN7creator3I2C8ReadByteEhh
 2225              	.LVL209:
 2226              	.LBE352:
 2227              	.LBE351:
 2228              		.loc 1 642 0
 2229 001c 00F01F00 		and	r0, r0, #31
 2230              	.LVL210:
 2231              		.loc 1 643 0
 2232 0020 40EA4413 		orr	r3, r0, r4, lsl #5
 2233              	.LVL211:
 2234              		.loc 1 645 0
 2235 0024 2E72     		strb	r6, [r5, #8]
 2236              	.LVL212:
 2237              	.LBB353:
 2238              	.LBB354:
 2239              		.loc 1 887 0
 2240 0026 D5F88400 		ldr	r0, [r5, #132]
 2241 002a 95F87310 		ldrb	r1, [r5, #115]	@ zero_extendqisi2
 2242 002e DBB2     		uxtb	r3, r3
 2243              	.LVL213:
 2244 0030 1022     		movs	r2, #16
 2245              	.LBE354:
ARM GAS  /tmp/ccxMPRSl.s 			page 41


 2246              	.LBE353:
 2247              	.LBE350:
 2248              	.LBE358:
 2249              		.loc 1 649 0
 2250 0032 BDE87040 		pop	{r4, r5, r6, lr}
 2251              	.LVL214:
 2252              	.LBB359:
 2253              	.LBB357:
 2254              	.LBB356:
 2255              	.LBB355:
 2256              		.loc 1 887 0
 2257 0036 FFF7FEBF 		b	_ZN7creator3I2C9WriteByteEhhh
 2258              	.LVL215:
 2259              	.LBE355:
 2260              	.LBE356:
 2261              	.LBE357:
 2262              	.LBE359:
 2263              		.cfi_endproc
 2264              	.LFE38:
 2265              		.fnend
 2266              		.size	_ZN7LSM9DS110setGyroODREh, .-_ZN7LSM9DS110setGyroODREh
 2267 003a 00BFAFF3 		.section	.text._ZN7LSM9DS111setAccelODREh,"ax",%progbits
 2267      0080
 2268              		.align	2
 2269              		.p2align 4,,15
 2270              		.global	_ZN7LSM9DS111setAccelODREh
 2271              		.thumb
 2272              		.thumb_func
 2273              		.type	_ZN7LSM9DS111setAccelODREh, %function
 2274              	_ZN7LSM9DS111setAccelODREh:
 2275              		.fnstart
 2276              	.LFB39:
 2277              		.loc 1 651 0
 2278              		.cfi_startproc
 2279              		@ args = 0, pretend = 0, frame = 0
 2280              		@ frame_needed = 0, uses_anonymous_args = 0
 2281              	.LVL216:
 2282 0000 70B5     		push	{r4, r5, r6, lr}
 2283              		.save {r4, r5, r6, lr}
 2284              		.cfi_def_cfa_offset 16
 2285              		.cfi_offset 4, -16
 2286              		.cfi_offset 5, -12
 2287              		.cfi_offset 6, -8
 2288              		.cfi_offset 14, -4
 2289              	.LBB360:
 2290              		.loc 1 653 0
 2291 0002 11F00706 		ands	r6, r1, #7
 2292              	.LBE360:
 2293              		.loc 1 651 0
 2294 0006 0C46     		mov	r4, r1
 2295 0008 0546     		mov	r5, r0
 2296              	.LBB369:
 2297              		.loc 1 653 0
 2298 000a 00D1     		bne	.L138
 2299 000c 70BD     		pop	{r4, r5, r6, pc}
 2300              	.L138:
 2301              	.LVL217:
ARM GAS  /tmp/ccxMPRSl.s 			page 42


 2302              	.LBB361:
 2303              	.LBB362:
 2304              	.LBB363:
 2305              		.loc 1 895 0
 2306 000e 95F87310 		ldrb	r1, [r5, #115]	@ zero_extendqisi2
 2307              	.LVL218:
 2308 0012 2022     		movs	r2, #32
 2309 0014 D0F88400 		ldr	r0, [r0, #132]
 2310              	.LVL219:
 2311 0018 FFF7FEFF 		bl	_ZN7creator3I2C8ReadByteEhh
 2312              	.LVL220:
 2313              	.LBE363:
 2314              	.LBE362:
 2315              		.loc 1 657 0
 2316 001c 00F01F00 		and	r0, r0, #31
 2317              	.LVL221:
 2318              		.loc 1 659 0
 2319 0020 40EA4413 		orr	r3, r0, r4, lsl #5
 2320              	.LVL222:
 2321              		.loc 1 660 0
 2322 0024 2E76     		strb	r6, [r5, #24]
 2323              	.LVL223:
 2324              	.LBB364:
 2325              	.LBB365:
 2326              		.loc 1 887 0
 2327 0026 D5F88400 		ldr	r0, [r5, #132]
 2328 002a 95F87310 		ldrb	r1, [r5, #115]	@ zero_extendqisi2
 2329 002e DBB2     		uxtb	r3, r3
 2330              	.LVL224:
 2331 0030 2022     		movs	r2, #32
 2332              	.LBE365:
 2333              	.LBE364:
 2334              	.LBE361:
 2335              	.LBE369:
 2336              		.loc 1 664 0
 2337 0032 BDE87040 		pop	{r4, r5, r6, lr}
 2338              	.LVL225:
 2339              	.LBB370:
 2340              	.LBB368:
 2341              	.LBB367:
 2342              	.LBB366:
 2343              		.loc 1 887 0
 2344 0036 FFF7FEBF 		b	_ZN7creator3I2C9WriteByteEhhh
 2345              	.LVL226:
 2346              	.LBE366:
 2347              	.LBE367:
 2348              	.LBE368:
 2349              	.LBE370:
 2350              		.cfi_endproc
 2351              	.LFE39:
 2352              		.fnend
 2353              		.size	_ZN7LSM9DS111setAccelODREh, .-_ZN7LSM9DS111setAccelODREh
 2354 003a 00BFAFF3 		.section	.text._ZN7LSM9DS19setMagODREh,"ax",%progbits
 2354      0080
 2355              		.align	2
 2356              		.p2align 4,,15
 2357              		.global	_ZN7LSM9DS19setMagODREh
ARM GAS  /tmp/ccxMPRSl.s 			page 43


 2358              		.thumb
 2359              		.thumb_func
 2360              		.type	_ZN7LSM9DS19setMagODREh, %function
 2361              	_ZN7LSM9DS19setMagODREh:
 2362              		.fnstart
 2363              	.LFB40:
 2364              		.loc 1 666 0
 2365              		.cfi_startproc
 2366              		@ args = 0, pretend = 0, frame = 0
 2367              		@ frame_needed = 0, uses_anonymous_args = 0
 2368              	.LVL227:
 2369 0000 70B5     		push	{r4, r5, r6, lr}
 2370              		.save {r4, r5, r6, lr}
 2371              		.cfi_def_cfa_offset 16
 2372              		.cfi_offset 4, -16
 2373              		.cfi_offset 5, -12
 2374              		.cfi_offset 6, -8
 2375              		.cfi_offset 14, -4
 2376              		.loc 1 666 0
 2377 0002 0446     		mov	r4, r0
 2378              	.LVL228:
 2379 0004 0D46     		mov	r5, r1
 2380              	.LBB371:
 2381              	.LBB372:
 2382              	.LBB373:
 2383              		.loc 1 903 0
 2384 0006 2022     		movs	r2, #32
 2385 0008 94F87210 		ldrb	r1, [r4, #114]	@ zero_extendqisi2
 2386              	.LVL229:
 2387 000c D0F88400 		ldr	r0, [r0, #132]
 2388              	.LVL230:
 2389 0010 FFF7FEFF 		bl	_ZN7creator3I2C8ReadByteEhh
 2390              	.LVL231:
 2391              	.LBE373:
 2392              	.LBE372:
 2393              		.loc 1 672 0
 2394 0014 05F00701 		and	r1, r5, #7
 2395              		.loc 1 670 0
 2396 0018 20F01C00 		bic	r0, r0, #28
 2397              	.LVL232:
 2398              		.loc 1 672 0
 2399 001c 40EA8103 		orr	r3, r0, r1, lsl #2
 2400              	.LVL233:
 2401              		.loc 1 673 0
 2402 0020 84F82110 		strb	r1, [r4, #33]
 2403              	.LVL234:
 2404              	.LBB374:
 2405              	.LBB375:
 2406              		.loc 1 891 0
 2407 0024 D4F88400 		ldr	r0, [r4, #132]
 2408 0028 94F87210 		ldrb	r1, [r4, #114]	@ zero_extendqisi2
 2409 002c DBB2     		uxtb	r3, r3
 2410              	.LVL235:
 2411 002e 2022     		movs	r2, #32
 2412              	.LBE375:
 2413              	.LBE374:
 2414              	.LBE371:
ARM GAS  /tmp/ccxMPRSl.s 			page 44


 2415              		.loc 1 676 0
 2416 0030 BDE87040 		pop	{r4, r5, r6, lr}
 2417              	.LVL236:
 2418              	.LBB378:
 2419              	.LBB377:
 2420              	.LBB376:
 2421              		.loc 1 891 0
 2422 0034 FFF7FEBF 		b	_ZN7creator3I2C9WriteByteEhhh
 2423              	.LVL237:
 2424              	.LBE376:
 2425              	.LBE377:
 2426              	.LBE378:
 2427              		.cfi_endproc
 2428              	.LFE40:
 2429              		.fnend
 2430              		.size	_ZN7LSM9DS19setMagODREh, .-_ZN7LSM9DS19setMagODREh
 2431 0038 AFF30080 		.section	.text._ZN7LSM9DS18calcgResEv,"ax",%progbits
 2431      AFF30080 
 2432              		.align	2
 2433              		.p2align 4,,15
 2434              		.global	_ZN7LSM9DS18calcgResEv
 2435              		.thumb
 2436              		.thumb_func
 2437              		.type	_ZN7LSM9DS18calcgResEv, %function
 2438              	_ZN7LSM9DS18calcgResEv:
 2439              		.fnstart
 2440              	.LFB41:
 2441              		.loc 1 678 0
 2442              		.cfi_startproc
 2443              		@ args = 0, pretend = 0, frame = 0
 2444              		@ frame_needed = 0, uses_anonymous_args = 0
 2445              	.LVL238:
 2446 0000 10B5     		push	{r4, lr}
 2447              		.cfi_def_cfa_offset 8
 2448              		.cfi_offset 4, -8
 2449              		.cfi_offset 14, -4
 2450              		.loc 1 678 0
 2451 0002 0446     		mov	r4, r0
 2452 0004 C088     		ldrh	r0, [r0, #6]
 2453              	.LVL239:
 2454 0006 FFF7FEFF 		bl	__aeabi_ui2f
 2455              	.LVL240:
 2456 000a 4FF06051 		mov	r1, #939524096
 2457 000e FFF7FEFF 		bl	__aeabi_fmul
 2458              	.LVL241:
 2459 0012 6067     		str	r0, [r4, #116]	@ float
 2460 0014 10BD     		pop	{r4, pc}
 2461              		.cfi_endproc
 2462              	.LFE41:
 2463              		.cantunwind
 2464              		.fnend
 2465              		.size	_ZN7LSM9DS18calcgResEv, .-_ZN7LSM9DS18calcgResEv
 2466 0016 00BFAFF3 		.section	.text._ZN7LSM9DS18calcaResEv,"ax",%progbits
 2466      0080AFF3 
 2466      0080
 2467              		.align	2
 2468              		.p2align 4,,15
ARM GAS  /tmp/ccxMPRSl.s 			page 45


 2469              		.global	_ZN7LSM9DS18calcaResEv
 2470              		.thumb
 2471              		.thumb_func
 2472              		.type	_ZN7LSM9DS18calcaResEv, %function
 2473              	_ZN7LSM9DS18calcaResEv:
 2474              		.fnstart
 2475              	.LFB42:
 2476              		.loc 1 680 0
 2477              		.cfi_startproc
 2478              		@ args = 0, pretend = 0, frame = 0
 2479              		@ frame_needed = 0, uses_anonymous_args = 0
 2480              	.LVL242:
 2481 0000 10B5     		push	{r4, lr}
 2482              		.cfi_def_cfa_offset 8
 2483              		.cfi_offset 4, -8
 2484              		.cfi_offset 14, -4
 2485              		.loc 1 680 0
 2486 0002 0446     		mov	r4, r0
 2487 0004 C07D     		ldrb	r0, [r0, #23]	@ zero_extendqisi2
 2488              	.LVL243:
 2489 0006 FFF7FEFF 		bl	__aeabi_ui2f
 2490              	.LVL244:
 2491 000a 4FF06051 		mov	r1, #939524096
 2492 000e FFF7FEFF 		bl	__aeabi_fmul
 2493              	.LVL245:
 2494 0012 A067     		str	r0, [r4, #120]	@ float
 2495 0014 10BD     		pop	{r4, pc}
 2496              		.cfi_endproc
 2497              	.LFE42:
 2498              		.cantunwind
 2499              		.fnend
 2500              		.size	_ZN7LSM9DS18calcaResEv, .-_ZN7LSM9DS18calcaResEv
 2501 0016 00BFAFF3 		.section	.text._ZN7LSM9DS18calcmResEv,"ax",%progbits
 2501      0080AFF3 
 2501      0080
 2502              		.align	2
 2503              		.p2align 4,,15
 2504              		.global	_ZN7LSM9DS18calcmResEv
 2505              		.thumb
 2506              		.thumb_func
 2507              		.type	_ZN7LSM9DS18calcmResEv, %function
 2508              	_ZN7LSM9DS18calcmResEv:
 2509              		.fnstart
 2510              	.LFB43:
 2511              		.loc 1 682 0
 2512              		.cfi_startproc
 2513              		@ args = 0, pretend = 0, frame = 0
 2514              		@ frame_needed = 0, uses_anonymous_args = 0
 2515              		@ link register save eliminated.
 2516              	.LVL246:
 2517              		.loc 1 684 0
 2518 0000 90F82030 		ldrb	r3, [r0, #32]	@ zero_extendqisi2
 2519 0004 043B     		subs	r3, r3, #4
 2520 0006 0C2B     		cmp	r3, #12
 2521 0008 0ED8     		bhi	.L142
 2522 000a DFE803F0 		tbb	[pc, r3]
 2523              	.L145:
ARM GAS  /tmp/ccxMPRSl.s 			page 46


 2524 000e 1C       		.byte	(.L144-.L145)/2
 2525 000f 0D       		.byte	(.L142-.L145)/2
 2526 0010 0D       		.byte	(.L142-.L145)/2
 2527 0011 0D       		.byte	(.L142-.L145)/2
 2528 0012 15       		.byte	(.L146-.L145)/2
 2529 0013 0D       		.byte	(.L142-.L145)/2
 2530 0014 0D       		.byte	(.L142-.L145)/2
 2531 0015 0D       		.byte	(.L142-.L145)/2
 2532 0016 0E       		.byte	(.L147-.L145)/2
 2533 0017 0D       		.byte	(.L142-.L145)/2
 2534 0018 0D       		.byte	(.L142-.L145)/2
 2535 0019 0D       		.byte	(.L142-.L145)/2
 2536 001a 07       		.byte	(.L148-.L145)/2
 2537 001b 00       		.align	1
 2538              	.L148:
 2539              		.loc 1 695 0
 2540 001c 40F20003 		movw	r3, #:lower16:.LANCHOR1
 2541 0020 C0F20003 		movt	r3, #:upper16:.LANCHOR1
 2542 0024 DB68     		ldr	r3, [r3, #12]	@ float
 2543 0026 C367     		str	r3, [r0, #124]	@ float
 2544              	.L142:
 2545 0028 7047     		bx	lr
 2546              	.L147:
 2547              		.loc 1 692 0
 2548 002a 40F20003 		movw	r3, #:lower16:.LANCHOR1
 2549 002e C0F20003 		movt	r3, #:upper16:.LANCHOR1
 2550 0032 9B68     		ldr	r3, [r3, #8]	@ float
 2551 0034 C367     		str	r3, [r0, #124]	@ float
 2552              		.loc 1 693 0
 2553 0036 7047     		bx	lr
 2554              	.L146:
 2555              		.loc 1 689 0
 2556 0038 40F20003 		movw	r3, #:lower16:.LANCHOR1
 2557 003c C0F20003 		movt	r3, #:upper16:.LANCHOR1
 2558 0040 5B68     		ldr	r3, [r3, #4]	@ float
 2559 0042 C367     		str	r3, [r0, #124]	@ float
 2560              		.loc 1 690 0
 2561 0044 7047     		bx	lr
 2562              	.L144:
 2563              		.loc 1 686 0
 2564 0046 40F20003 		movw	r3, #:lower16:.LANCHOR1
 2565 004a C0F20003 		movt	r3, #:upper16:.LANCHOR1
 2566 004e 1B68     		ldr	r3, [r3]	@ float
 2567 0050 C367     		str	r3, [r0, #124]	@ float
 2568              		.loc 1 687 0
 2569 0052 7047     		bx	lr
 2570              		.cfi_endproc
 2571              	.LFE43:
 2572              		.cantunwind
 2573              		.fnend
 2574              		.size	_ZN7LSM9DS18calcmResEv, .-_ZN7LSM9DS18calcmResEv
 2575 0054 AFF30080 		.section	.text._ZN7LSM9DS111setMagScaleEh,"ax",%progbits
 2575      AFF30080 
 2575      AFF30080 
 2576              		.align	2
 2577              		.p2align 4,,15
 2578              		.global	_ZN7LSM9DS111setMagScaleEh
ARM GAS  /tmp/ccxMPRSl.s 			page 47


 2579              		.thumb
 2580              		.thumb_func
 2581              		.type	_ZN7LSM9DS111setMagScaleEh, %function
 2582              	_ZN7LSM9DS111setMagScaleEh:
 2583              		.fnstart
 2584              	.LFB37:
 2585              		.loc 1 602 0
 2586              		.cfi_startproc
 2587              		@ args = 0, pretend = 0, frame = 0
 2588              		@ frame_needed = 0, uses_anonymous_args = 0
 2589              	.LVL247:
 2590 0000 38B5     		push	{r3, r4, r5, lr}
 2591              		.save {r3, r4, r5, lr}
 2592              		.cfi_def_cfa_offset 16
 2593              		.cfi_offset 3, -16
 2594              		.cfi_offset 4, -12
 2595              		.cfi_offset 5, -8
 2596              		.cfi_offset 14, -4
 2597              		.loc 1 602 0
 2598 0002 0446     		mov	r4, r0
 2599              	.LVL248:
 2600 0004 0D46     		mov	r5, r1
 2601              	.LBB379:
 2602              	.LBB380:
 2603              	.LBB381:
 2604              		.loc 1 903 0
 2605 0006 D0F88400 		ldr	r0, [r0, #132]
 2606              	.LVL249:
 2607 000a 94F87210 		ldrb	r1, [r4, #114]	@ zero_extendqisi2
 2608              	.LVL250:
 2609 000e 2122     		movs	r2, #33
 2610 0010 FFF7FEFF 		bl	_ZN7creator3I2C8ReadByteEhh
 2611              	.LVL251:
 2612              	.LBE381:
 2613              	.LBE380:
 2614              		.loc 1 608 0
 2615 0014 0C2D     		cmp	r5, #12
 2616              		.loc 1 606 0
 2617 0016 00F09F03 		and	r3, r0, #159
 2618              	.LVL252:
 2619              		.loc 1 608 0
 2620 001a 1CD0     		beq	.L151
 2621 001c 102D     		cmp	r5, #16
 2622 001e 15D0     		beq	.L152
 2623 0020 082D     		cmp	r5, #8
 2624              		.loc 1 610 0
 2625 0022 04BF     		itt	eq
 2626 0024 43F02003 		orreq	r3, r3, #32
 2627              	.LVL253:
 2628              		.loc 1 611 0
 2629 0028 84F82050 		strbeq	r5, [r4, #32]
 2630              		.loc 1 608 0
 2631 002c 02D0     		beq	.L154
 2632              		.loc 1 622 0
 2633 002e 0422     		movs	r2, #4
 2634 0030 84F82020 		strb	r2, [r4, #32]
 2635              	.LVL254:
ARM GAS  /tmp/ccxMPRSl.s 			page 48


 2636              	.L154:
 2637              	.LBB382:
 2638              	.LBB383:
 2639              		.loc 1 891 0
 2640 0034 D4F88400 		ldr	r0, [r4, #132]
 2641 0038 94F87210 		ldrb	r1, [r4, #114]	@ zero_extendqisi2
 2642 003c 2122     		movs	r2, #33
 2643 003e FFF7FEFF 		bl	_ZN7creator3I2C9WriteByteEhhh
 2644              	.LVL255:
 2645              	.LBE383:
 2646              	.LBE382:
 2647              		.loc 1 633 0
 2648 0042 2046     		mov	r0, r4
 2649              	.LBE379:
 2650              		.loc 1 634 0
 2651 0044 BDE83840 		pop	{r3, r4, r5, lr}
 2652              	.LVL256:
 2653              	.LBB384:
 2654              		.loc 1 633 0
 2655 0048 FFF7FEBF 		b	_ZN7LSM9DS18calcmResEv
 2656              	.LVL257:
 2657              	.L152:
 2658              		.loc 1 618 0
 2659 004c 43F06003 		orr	r3, r3, #96
 2660              	.LVL258:
 2661              		.loc 1 619 0
 2662 0050 84F82050 		strb	r5, [r4, #32]
 2663              		.loc 1 620 0
 2664 0054 EEE7     		b	.L154
 2665              	.L151:
 2666              		.loc 1 614 0
 2667 0056 43F04003 		orr	r3, r3, #64
 2668              	.LVL259:
 2669              		.loc 1 615 0
 2670 005a 84F82050 		strb	r5, [r4, #32]
 2671              		.loc 1 616 0
 2672 005e E9E7     		b	.L154
 2673              	.LBE384:
 2674              		.cfi_endproc
 2675              	.LFE37:
 2676              		.fnend
 2677              		.size	_ZN7LSM9DS111setMagScaleEh, .-_ZN7LSM9DS111setMagScaleEh
 2678              		.section	.text._ZN7LSM9DS19configIntE16interrupt_selecth9h_lactive5pp_od,"ax",%progbits
 2679              		.align	2
 2680              		.p2align 4,,15
 2681              		.global	_ZN7LSM9DS19configIntE16interrupt_selecth9h_lactive5pp_od
 2682              		.thumb
 2683              		.thumb_func
 2684              		.type	_ZN7LSM9DS19configIntE16interrupt_selecth9h_lactive5pp_od, %function
 2685              	_ZN7LSM9DS19configIntE16interrupt_selecth9h_lactive5pp_od:
 2686              		.fnstart
 2687              	.LFB44:
 2688              		.loc 1 701 0
 2689              		.cfi_startproc
 2690              		@ args = 4, pretend = 0, frame = 0
 2691              		@ frame_needed = 0, uses_anonymous_args = 0
 2692              	.LVL260:
ARM GAS  /tmp/ccxMPRSl.s 			page 49


 2693 0000 70B5     		push	{r4, r5, r6, lr}
 2694              		.save {r4, r5, r6, lr}
 2695              		.cfi_def_cfa_offset 16
 2696              		.cfi_offset 4, -16
 2697              		.cfi_offset 5, -12
 2698              		.cfi_offset 6, -8
 2699              		.cfi_offset 14, -4
 2700              		.loc 1 701 0
 2701 0002 0446     		mov	r4, r0
 2702              	.LVL261:
 2703 0004 1046     		mov	r0, r2
 2704              	.LVL262:
 2705 0006 1E46     		mov	r6, r3
 2706              	.LBB385:
 2707              	.LBB386:
 2708              	.LBB387:
 2709              		.loc 1 887 0
 2710 0008 0A46     		mov	r2, r1
 2711              	.LVL263:
 2712 000a 0346     		mov	r3, r0
 2713              	.LVL264:
 2714 000c 94F87310 		ldrb	r1, [r4, #115]	@ zero_extendqisi2
 2715              	.LVL265:
 2716 0010 D4F88400 		ldr	r0, [r4, #132]
 2717              	.LVL266:
 2718              	.LBE387:
 2719              	.LBE386:
 2720              	.LBE385:
 2721              		.loc 1 701 0
 2722 0014 9DF81050 		ldrb	r5, [sp, #16]	@ zero_extendqisi2
 2723              	.LBB396:
 2724              	.LBB389:
 2725              	.LBB388:
 2726              		.loc 1 887 0
 2727 0018 FFF7FEFF 		bl	_ZN7creator3I2C9WriteByteEhhh
 2728              	.LVL267:
 2729              	.LBE388:
 2730              	.LBE389:
 2731              	.LBB390:
 2732              	.LBB391:
 2733              		.loc 1 895 0
 2734 001c D4F88400 		ldr	r0, [r4, #132]
 2735 0020 94F87310 		ldrb	r1, [r4, #115]	@ zero_extendqisi2
 2736 0024 2222     		movs	r2, #34
 2737 0026 FFF7FEFF 		bl	_ZN7creator3I2C8ReadByteEhh
 2738              	.LVL268:
 2739              	.LBE391:
 2740              	.LBE390:
 2741              		.loc 1 713 0
 2742 002a 40F02003 		orr	r3, r0, #32
 2743 002e DBB2     		uxtb	r3, r3
 2744              		.loc 1 712 0
 2745 0030 0EB9     		cbnz	r6, .L158
 2746              		.loc 1 715 0
 2747 0032 00F0DF03 		and	r3, r0, #223
 2748              	.LVL269:
 2749              	.L158:
ARM GAS  /tmp/ccxMPRSl.s 			page 50


 2750              		.loc 1 717 0
 2751 0036 55B9     		cbnz	r5, .L161
 2752              		.loc 1 720 0
 2753 0038 43F01003 		orr	r3, r3, #16
 2754              	.LVL270:
 2755              	.L160:
 2756              	.LBB392:
 2757              	.LBB393:
 2758              		.loc 1 887 0
 2759 003c D4F88400 		ldr	r0, [r4, #132]
 2760 0040 94F87310 		ldrb	r1, [r4, #115]	@ zero_extendqisi2
 2761 0044 2222     		movs	r2, #34
 2762              	.LBE393:
 2763              	.LBE392:
 2764              	.LBE396:
 2765              		.loc 1 723 0
 2766 0046 BDE87040 		pop	{r4, r5, r6, lr}
 2767              	.LVL271:
 2768              	.LBB397:
 2769              	.LBB395:
 2770              	.LBB394:
 2771              		.loc 1 887 0
 2772 004a FFF7FEBF 		b	_ZN7creator3I2C9WriteByteEhhh
 2773              	.LVL272:
 2774              	.L161:
 2775              	.LBE394:
 2776              	.LBE395:
 2777              		.loc 1 718 0
 2778 004e 03F0EF03 		and	r3, r3, #239
 2779              	.LVL273:
 2780 0052 F3E7     		b	.L160
 2781              	.LBE397:
 2782              		.cfi_endproc
 2783              	.LFE44:
 2784              		.fnend
 2785              		.size	_ZN7LSM9DS19configIntE16interrupt_selecth9h_lactive5pp_od, .-_ZN7LSM9DS19configIntE16interru
 2786 0054 AFF30080 		.section	.text._ZN7LSM9DS116configInactivityEhhb,"ax",%progbits
 2786      AFF30080 
 2786      AFF30080 
 2787              		.align	2
 2788              		.p2align 4,,15
 2789              		.global	_ZN7LSM9DS116configInactivityEhhb
 2790              		.thumb
 2791              		.thumb_func
 2792              		.type	_ZN7LSM9DS116configInactivityEhhb, %function
 2793              	_ZN7LSM9DS116configInactivityEhhb:
 2794              		.fnstart
 2795              	.LFB45:
 2796              		.loc 1 726 0
 2797              		.cfi_startproc
 2798              		@ args = 0, pretend = 0, frame = 0
 2799              		@ frame_needed = 0, uses_anonymous_args = 0
 2800              	.LVL274:
 2801 0000 70B5     		push	{r4, r5, r6, lr}
 2802              		.save {r4, r5, r6, lr}
 2803              		.cfi_def_cfa_offset 16
 2804              		.cfi_offset 4, -16
ARM GAS  /tmp/ccxMPRSl.s 			page 51


 2805              		.cfi_offset 5, -12
 2806              		.cfi_offset 6, -8
 2807              		.cfi_offset 14, -4
 2808              	.LBB398:
 2809              		.loc 1 729 0
 2810 0002 02F07F02 		and	r2, r2, #127
 2811              	.LVL275:
 2812              	.LBE398:
 2813              		.loc 1 726 0
 2814 0006 0446     		mov	r4, r0
 2815 0008 0D46     		mov	r5, r1
 2816              	.LBB405:
 2817              		.loc 1 730 0
 2818 000a 0BB1     		cbz	r3, .L163
 2819              		.loc 1 730 0 is_stmt 0 discriminator 1
 2820 000c 42F08002 		orr	r2, r2, #128
 2821              	.LVL276:
 2822              	.L163:
 2823              	.LBB399:
 2824              	.LBB400:
 2825              		.loc 1 887 0 is_stmt 1
 2826 0010 1346     		mov	r3, r2
 2827              	.LVL277:
 2828 0012 D4F88400 		ldr	r0, [r4, #132]
 2829              	.LVL278:
 2830 0016 94F87310 		ldrb	r1, [r4, #115]	@ zero_extendqisi2
 2831              	.LVL279:
 2832 001a 0422     		movs	r2, #4
 2833              	.LVL280:
 2834 001c FFF7FEFF 		bl	_ZN7creator3I2C9WriteByteEhhh
 2835              	.LVL281:
 2836              	.LBE400:
 2837              	.LBE399:
 2838              	.LBB401:
 2839              	.LBB402:
 2840 0020 2B46     		mov	r3, r5
 2841 0022 D4F88400 		ldr	r0, [r4, #132]
 2842 0026 94F87310 		ldrb	r1, [r4, #115]	@ zero_extendqisi2
 2843 002a 0522     		movs	r2, #5
 2844              	.LBE402:
 2845              	.LBE401:
 2846              	.LBE405:
 2847              		.loc 1 734 0
 2848 002c BDE87040 		pop	{r4, r5, r6, lr}
 2849              	.LVL282:
 2850              	.LBB406:
 2851              	.LBB404:
 2852              	.LBB403:
 2853              		.loc 1 887 0
 2854 0030 FFF7FEBF 		b	_ZN7creator3I2C9WriteByteEhhh
 2855              	.LVL283:
 2856              	.LBE403:
 2857              	.LBE404:
 2858              	.LBE406:
 2859              		.cfi_endproc
 2860              	.LFE45:
 2861              		.fnend
ARM GAS  /tmp/ccxMPRSl.s 			page 52


 2862              		.size	_ZN7LSM9DS116configInactivityEhhb, .-_ZN7LSM9DS116configInactivityEhhb
 2863 0034 AFF30080 		.section	.text._ZN7LSM9DS113getInactivityEv,"ax",%progbits
 2863      AFF30080 
 2863      AFF30080 
 2864              		.align	2
 2865              		.p2align 4,,15
 2866              		.global	_ZN7LSM9DS113getInactivityEv
 2867              		.thumb
 2868              		.thumb_func
 2869              		.type	_ZN7LSM9DS113getInactivityEv, %function
 2870              	_ZN7LSM9DS113getInactivityEv:
 2871              		.fnstart
 2872              	.LFB46:
 2873              		.loc 1 736 0
 2874              		.cfi_startproc
 2875              		@ args = 0, pretend = 0, frame = 0
 2876              		@ frame_needed = 0, uses_anonymous_args = 0
 2877              	.LVL284:
 2878 0000 08B5     		push	{r3, lr}
 2879              		.save {r3, lr}
 2880              		.cfi_def_cfa_offset 8
 2881              		.cfi_offset 3, -8
 2882              		.cfi_offset 14, -4
 2883              		.loc 1 736 0
 2884 0002 0346     		mov	r3, r0
 2885              	.LVL285:
 2886              	.LBB407:
 2887              	.LBB408:
 2888              	.LBB409:
 2889              		.loc 1 895 0
 2890 0004 93F87310 		ldrb	r1, [r3, #115]	@ zero_extendqisi2
 2891 0008 1722     		movs	r2, #23
 2892 000a D0F88400 		ldr	r0, [r0, #132]
 2893              	.LVL286:
 2894 000e FFF7FEFF 		bl	_ZN7creator3I2C8ReadByteEhh
 2895              	.LVL287:
 2896              	.LBE409:
 2897              	.LBE408:
 2898              	.LBE407:
 2899              		.loc 1 740 0
 2900 0012 00F01000 		and	r0, r0, #16
 2901              	.LVL288:
 2902 0016 08BD     		pop	{r3, pc}
 2903              		.cfi_endproc
 2904              	.LFE46:
 2905              		.fnend
 2906              		.size	_ZN7LSM9DS113getInactivityEv, .-_ZN7LSM9DS113getInactivityEv
 2907 0018 AFF30080 		.section	.text._ZN7LSM9DS114configAccelIntEhb,"ax",%progbits
 2907      AFF30080 
 2908              		.align	2
 2909              		.p2align 4,,15
 2910              		.global	_ZN7LSM9DS114configAccelIntEhb
 2911              		.thumb
 2912              		.thumb_func
 2913              		.type	_ZN7LSM9DS114configAccelIntEhb, %function
 2914              	_ZN7LSM9DS114configAccelIntEhb:
 2915              		.fnstart
ARM GAS  /tmp/ccxMPRSl.s 			page 53


 2916              	.LFB47:
 2917              		.loc 1 742 0
 2918              		.cfi_startproc
 2919              		@ args = 0, pretend = 0, frame = 0
 2920              		@ frame_needed = 0, uses_anonymous_args = 0
 2921              		@ link register save eliminated.
 2922              	.LVL289:
 2923 0000 10B4     		push	{r4}
 2924              		.cfi_def_cfa_offset 4
 2925              		.cfi_offset 4, -4
 2926              		.loc 1 742 0
 2927 0002 0B46     		mov	r3, r1
 2928              	.LVL290:
 2929 0004 0446     		mov	r4, r0
 2930              	.LBB410:
 2931              		.loc 1 746 0
 2932 0006 0AB1     		cbz	r2, .L169
 2933              		.loc 1 746 0 is_stmt 0 discriminator 1
 2934 0008 41F08003 		orr	r3, r1, #128
 2935              	.LVL291:
 2936              	.L169:
 2937              	.LBB411:
 2938              	.LBB412:
 2939              		.loc 1 887 0 is_stmt 1
 2940 000c D4F88400 		ldr	r0, [r4, #132]
 2941              	.LVL292:
 2942 0010 94F87310 		ldrb	r1, [r4, #115]	@ zero_extendqisi2
 2943              	.LVL293:
 2944 0014 0622     		movs	r2, #6
 2945              	.LVL294:
 2946              	.LBE412:
 2947              	.LBE411:
 2948              	.LBE410:
 2949              		.loc 1 748 0
 2950 0016 5DF8044B 		ldr	r4, [sp], #4
 2951              	.LVL295:
 2952              	.LBB415:
 2953              	.LBB414:
 2954              	.LBB413:
 2955              		.loc 1 887 0
 2956 001a FFF7FEBF 		b	_ZN7creator3I2C9WriteByteEhhh
 2957              	.LVL296:
 2958              	.LBE413:
 2959              	.LBE414:
 2960              	.LBE415:
 2961              		.cfi_endproc
 2962              	.LFE47:
 2963              		.cantunwind
 2964              		.fnend
 2965              		.size	_ZN7LSM9DS114configAccelIntEhb, .-_ZN7LSM9DS114configAccelIntEhb
 2966 001e 00BF     		.section	.text._ZN7LSM9DS114configAccelThsEh12lsm9ds1_axishb,"ax",%progbits
 2967              		.align	2
 2968              		.p2align 4,,15
 2969              		.global	_ZN7LSM9DS114configAccelThsEh12lsm9ds1_axishb
 2970              		.thumb
 2971              		.thumb_func
 2972              		.type	_ZN7LSM9DS114configAccelThsEh12lsm9ds1_axishb, %function
ARM GAS  /tmp/ccxMPRSl.s 			page 54


 2973              	_ZN7LSM9DS114configAccelThsEh12lsm9ds1_axishb:
 2974              		.fnstart
 2975              	.LFB48:
 2976              		.loc 1 751 0
 2977              		.cfi_startproc
 2978              		@ args = 4, pretend = 0, frame = 0
 2979              		@ frame_needed = 0, uses_anonymous_args = 0
 2980              	.LVL297:
 2981 0000 70B5     		push	{r4, r5, r6, lr}
 2982              		.save {r4, r5, r6, lr}
 2983              		.cfi_def_cfa_offset 16
 2984              		.cfi_offset 4, -16
 2985              		.cfi_offset 5, -12
 2986              		.cfi_offset 6, -8
 2987              		.cfi_offset 14, -4
 2988              	.LBB416:
 2989              		.loc 1 754 0
 2990 0002 0732     		adds	r2, r2, #7
 2991              	.LVL298:
 2992              	.LBE416:
 2993              		.loc 1 751 0
 2994 0004 0446     		mov	r4, r0
 2995              	.LVL299:
 2996 0006 9DF81050 		ldrb	r5, [sp, #16]	@ zero_extendqisi2
 2997 000a 1E46     		mov	r6, r3
 2998              	.LBB423:
 2999              	.LBB417:
 3000              	.LBB418:
 3001              		.loc 1 887 0
 3002 000c D2B2     		uxtb	r2, r2
 3003 000e 0B46     		mov	r3, r1
 3004              	.LVL300:
 3005 0010 D0F88400 		ldr	r0, [r0, #132]
 3006              	.LVL301:
 3007 0014 94F87310 		ldrb	r1, [r4, #115]	@ zero_extendqisi2
 3008              	.LVL302:
 3009 0018 FFF7FEFF 		bl	_ZN7creator3I2C9WriteByteEhhh
 3010              	.LVL303:
 3011              	.LBE418:
 3012              	.LBE417:
 3013              		.loc 1 758 0
 3014 001c 06F07F03 		and	r3, r6, #127
 3015              	.LVL304:
 3016              		.loc 1 759 0
 3017 0020 0DB1     		cbz	r5, .L174
 3018              		.loc 1 759 0 is_stmt 0 discriminator 1
 3019 0022 43F08003 		orr	r3, r3, #128
 3020              	.LVL305:
 3021              	.L174:
 3022              	.LBB419:
 3023              	.LBB420:
 3024              		.loc 1 887 0 is_stmt 1
 3025 0026 D4F88400 		ldr	r0, [r4, #132]
 3026 002a 94F87310 		ldrb	r1, [r4, #115]	@ zero_extendqisi2
 3027 002e 0A22     		movs	r2, #10
 3028              	.LBE420:
 3029              	.LBE419:
ARM GAS  /tmp/ccxMPRSl.s 			page 55


 3030              	.LBE423:
 3031              		.loc 1 761 0
 3032 0030 BDE87040 		pop	{r4, r5, r6, lr}
 3033              	.LVL306:
 3034              	.LBB424:
 3035              	.LBB422:
 3036              	.LBB421:
 3037              		.loc 1 887 0
 3038 0034 FFF7FEBF 		b	_ZN7creator3I2C9WriteByteEhhh
 3039              	.LVL307:
 3040              	.LBE421:
 3041              	.LBE422:
 3042              	.LBE424:
 3043              		.cfi_endproc
 3044              	.LFE48:
 3045              		.fnend
 3046              		.size	_ZN7LSM9DS114configAccelThsEh12lsm9ds1_axishb, .-_ZN7LSM9DS114configAccelThsEh12lsm9ds1_axis
 3047 0038 AFF30080 		.section	.text._ZN7LSM9DS114getAccelIntSrcEv,"ax",%progbits
 3047      AFF30080 
 3048              		.align	2
 3049              		.p2align 4,,15
 3050              		.global	_ZN7LSM9DS114getAccelIntSrcEv
 3051              		.thumb
 3052              		.thumb_func
 3053              		.type	_ZN7LSM9DS114getAccelIntSrcEv, %function
 3054              	_ZN7LSM9DS114getAccelIntSrcEv:
 3055              		.fnstart
 3056              	.LFB49:
 3057              		.loc 1 763 0
 3058              		.cfi_startproc
 3059              		@ args = 0, pretend = 0, frame = 0
 3060              		@ frame_needed = 0, uses_anonymous_args = 0
 3061              	.LVL308:
 3062 0000 08B5     		push	{r3, lr}
 3063              		.save {r3, lr}
 3064              		.cfi_def_cfa_offset 8
 3065              		.cfi_offset 3, -8
 3066              		.cfi_offset 14, -4
 3067              		.loc 1 763 0
 3068 0002 0346     		mov	r3, r0
 3069              	.LVL309:
 3070              	.LBB425:
 3071              	.LBB426:
 3072              	.LBB427:
 3073              		.loc 1 895 0
 3074 0004 93F87310 		ldrb	r1, [r3, #115]	@ zero_extendqisi2
 3075 0008 2622     		movs	r2, #38
 3076 000a D0F88400 		ldr	r0, [r0, #132]
 3077              	.LVL310:
 3078 000e FFF7FEFF 		bl	_ZN7creator3I2C8ReadByteEhh
 3079              	.LVL311:
 3080              	.LBE427:
 3081              	.LBE426:
 3082              		.loc 1 767 0
 3083 0012 00F04003 		and	r3, r0, #64
 3084 0016 03F0FF02 		and	r2, r3, #255
 3085 001a 0BB1     		cbz	r3, .L179
ARM GAS  /tmp/ccxMPRSl.s 			page 56


 3086              		.loc 1 768 0
 3087 001c 00F03F02 		and	r2, r0, #63
 3088              	.L179:
 3089              	.LBE425:
 3090              		.loc 1 772 0
 3091 0020 1046     		mov	r0, r2
 3092              	.LVL312:
 3093 0022 08BD     		pop	{r3, pc}
 3094              		.cfi_endproc
 3095              	.LFE49:
 3096              		.fnend
 3097              		.size	_ZN7LSM9DS114getAccelIntSrcEv, .-_ZN7LSM9DS114getAccelIntSrcEv
 3098 0024 AFF30080 		.section	.text._ZN7LSM9DS113configGyroIntEhbb,"ax",%progbits
 3098      AFF30080 
 3098      AFF30080 
 3099              		.align	2
 3100              		.p2align 4,,15
 3101              		.global	_ZN7LSM9DS113configGyroIntEhbb
 3102              		.thumb
 3103              		.thumb_func
 3104              		.type	_ZN7LSM9DS113configGyroIntEhbb, %function
 3105              	_ZN7LSM9DS113configGyroIntEhbb:
 3106              		.fnstart
 3107              	.LFB50:
 3108              		.loc 1 774 0
 3109              		.cfi_startproc
 3110              		@ args = 0, pretend = 0, frame = 0
 3111              		@ frame_needed = 0, uses_anonymous_args = 0
 3112              		@ link register save eliminated.
 3113              	.LVL313:
 3114 0000 10B4     		push	{r4}
 3115              		.cfi_def_cfa_offset 4
 3116              		.cfi_offset 4, -4
 3117              		.loc 1 774 0
 3118 0002 0446     		mov	r4, r0
 3119              	.LVL314:
 3120              	.LBB428:
 3121              		.loc 1 778 0
 3122 0004 0AB1     		cbz	r2, .L184
 3123              		.loc 1 778 0 is_stmt 0 discriminator 1
 3124 0006 41F08001 		orr	r1, r1, #128
 3125              	.LVL315:
 3126              	.L184:
 3127              		.loc 1 779 0 is_stmt 1
 3128 000a 0BB1     		cbz	r3, .L185
 3129              		.loc 1 779 0 is_stmt 0 discriminator 1
 3130 000c 41F04001 		orr	r1, r1, #64
 3131              	.LVL316:
 3132              	.L185:
 3133              	.LBB429:
 3134              	.LBB430:
 3135              		.loc 1 887 0 is_stmt 1
 3136 0010 0B46     		mov	r3, r1
 3137              	.LVL317:
 3138 0012 D4F88400 		ldr	r0, [r4, #132]
 3139              	.LVL318:
 3140 0016 94F87310 		ldrb	r1, [r4, #115]	@ zero_extendqisi2
ARM GAS  /tmp/ccxMPRSl.s 			page 57


 3141              	.LVL319:
 3142 001a 3022     		movs	r2, #48
 3143              	.LVL320:
 3144              	.LBE430:
 3145              	.LBE429:
 3146              	.LBE428:
 3147              		.loc 1 781 0
 3148 001c 5DF8044B 		ldr	r4, [sp], #4
 3149              	.LVL321:
 3150              	.LBB433:
 3151              	.LBB432:
 3152              	.LBB431:
 3153              		.loc 1 887 0
 3154 0020 FFF7FEBF 		b	_ZN7creator3I2C9WriteByteEhhh
 3155              	.LVL322:
 3156              	.LBE431:
 3157              	.LBE432:
 3158              	.LBE433:
 3159              		.cfi_endproc
 3160              	.LFE50:
 3161              		.cantunwind
 3162              		.fnend
 3163              		.size	_ZN7LSM9DS113configGyroIntEhbb, .-_ZN7LSM9DS113configGyroIntEhbb
 3164 0024 AFF30080 		.section	.text._ZN7LSM9DS113configGyroThsEs12lsm9ds1_axishb,"ax",%progbits
 3164      AFF30080 
 3164      AFF30080 
 3165              		.align	2
 3166              		.p2align 4,,15
 3167              		.global	_ZN7LSM9DS113configGyroThsEs12lsm9ds1_axishb
 3168              		.thumb
 3169              		.thumb_func
 3170              		.type	_ZN7LSM9DS113configGyroThsEs12lsm9ds1_axishb, %function
 3171              	_ZN7LSM9DS113configGyroThsEs12lsm9ds1_axishb:
 3172              		.fnstart
 3173              	.LFB51:
 3174              		.loc 1 784 0
 3175              		.cfi_startproc
 3176              		@ args = 4, pretend = 0, frame = 0
 3177              		@ frame_needed = 0, uses_anonymous_args = 0
 3178              	.LVL323:
 3179 0000 2DE9F041 		push	{r4, r5, r6, r7, r8, lr}
 3180              		.save {r4, r5, r6, r7, r8, lr}
 3181              		.cfi_def_cfa_offset 24
 3182              		.cfi_offset 4, -24
 3183              		.cfi_offset 5, -20
 3184              		.cfi_offset 6, -16
 3185              		.cfi_offset 7, -12
 3186              		.cfi_offset 8, -8
 3187              		.cfi_offset 14, -4
 3188              		.loc 1 784 0
 3189 0004 1646     		mov	r6, r2
 3190              	.LBB434:
 3191              		.loc 1 790 0
 3192 0006 5200     		lsls	r2, r2, #1
 3193              	.LVL324:
 3194              	.LBE434:
 3195              		.loc 1 784 0
ARM GAS  /tmp/ccxMPRSl.s 			page 58


 3196 0008 0446     		mov	r4, r0
 3197 000a 0D46     		mov	r5, r1
 3198              	.LVL325:
 3199              	.LBB445:
 3200              		.loc 1 790 0
 3201 000c 3132     		adds	r2, r2, #49
 3202              	.LBE445:
 3203              		.loc 1 784 0
 3204 000e 9846     		mov	r8, r3
 3205              	.LBB446:
 3206              	.LBB435:
 3207              	.LBB436:
 3208              		.loc 1 887 0
 3209 0010 D2B2     		uxtb	r2, r2
 3210 0012 D0F88400 		ldr	r0, [r0, #132]
 3211              	.LVL326:
 3212 0016 94F87310 		ldrb	r1, [r4, #115]	@ zero_extendqisi2
 3213              	.LVL327:
 3214 001a C5F30623 		ubfx	r3, r5, #8, #7
 3215              	.LVL328:
 3216              	.LBE436:
 3217              	.LBE435:
 3218              		.loc 1 791 0
 3219 001e 1936     		adds	r6, r6, #25
 3220              	.LVL329:
 3221              	.LBE446:
 3222              		.loc 1 784 0
 3223 0020 9DF81870 		ldrb	r7, [sp, #24]	@ zero_extendqisi2
 3224              	.LBB447:
 3225              	.LBB438:
 3226              	.LBB437:
 3227              		.loc 1 887 0
 3228 0024 FFF7FEFF 		bl	_ZN7creator3I2C9WriteByteEhhh
 3229              	.LVL330:
 3230              	.LBE437:
 3231              	.LBE438:
 3232              		.loc 1 791 0
 3233 0028 7200     		lsls	r2, r6, #1
 3234              	.LBB439:
 3235              	.LBB440:
 3236              		.loc 1 887 0
 3237 002a EBB2     		uxtb	r3, r5
 3238 002c 02F0FE02 		and	r2, r2, #254
 3239 0030 D4F88400 		ldr	r0, [r4, #132]
 3240 0034 94F87310 		ldrb	r1, [r4, #115]	@ zero_extendqisi2
 3241 0038 FFF7FEFF 		bl	_ZN7creator3I2C9WriteByteEhhh
 3242              	.LVL331:
 3243              	.LBE440:
 3244              	.LBE439:
 3245              		.loc 1 795 0
 3246 003c 08F07F03 		and	r3, r8, #127
 3247              	.LVL332:
 3248              		.loc 1 796 0
 3249 0040 0FB1     		cbz	r7, .L193
 3250              		.loc 1 796 0 is_stmt 0 discriminator 1
 3251 0042 43F08003 		orr	r3, r3, #128
 3252              	.LVL333:
ARM GAS  /tmp/ccxMPRSl.s 			page 59


 3253              	.L193:
 3254              	.LBB441:
 3255              	.LBB442:
 3256              		.loc 1 887 0 is_stmt 1
 3257 0046 D4F88400 		ldr	r0, [r4, #132]
 3258 004a 94F87310 		ldrb	r1, [r4, #115]	@ zero_extendqisi2
 3259 004e 3722     		movs	r2, #55
 3260              	.LBE442:
 3261              	.LBE441:
 3262              	.LBE447:
 3263              		.loc 1 798 0
 3264 0050 BDE8F041 		pop	{r4, r5, r6, r7, r8, lr}
 3265              	.LVL334:
 3266              	.LBB448:
 3267              	.LBB444:
 3268              	.LBB443:
 3269              		.loc 1 887 0
 3270 0054 FFF7FEBF 		b	_ZN7creator3I2C9WriteByteEhhh
 3271              	.LVL335:
 3272              	.LBE443:
 3273              	.LBE444:
 3274              	.LBE448:
 3275              		.cfi_endproc
 3276              	.LFE51:
 3277              		.fnend
 3278              		.size	_ZN7LSM9DS113configGyroThsEs12lsm9ds1_axishb, .-_ZN7LSM9DS113configGyroThsEs12lsm9ds1_axishb
 3279 0058 AFF30080 		.section	.text._ZN7LSM9DS113getGyroIntSrcEv,"ax",%progbits
 3279      AFF30080 
 3280              		.align	2
 3281              		.p2align 4,,15
 3282              		.global	_ZN7LSM9DS113getGyroIntSrcEv
 3283              		.thumb
 3284              		.thumb_func
 3285              		.type	_ZN7LSM9DS113getGyroIntSrcEv, %function
 3286              	_ZN7LSM9DS113getGyroIntSrcEv:
 3287              		.fnstart
 3288              	.LFB52:
 3289              		.loc 1 800 0
 3290              		.cfi_startproc
 3291              		@ args = 0, pretend = 0, frame = 0
 3292              		@ frame_needed = 0, uses_anonymous_args = 0
 3293              	.LVL336:
 3294 0000 08B5     		push	{r3, lr}
 3295              		.save {r3, lr}
 3296              		.cfi_def_cfa_offset 8
 3297              		.cfi_offset 3, -8
 3298              		.cfi_offset 14, -4
 3299              		.loc 1 800 0
 3300 0002 0346     		mov	r3, r0
 3301              	.LVL337:
 3302              	.LBB449:
 3303              	.LBB450:
 3304              	.LBB451:
 3305              		.loc 1 895 0
 3306 0004 93F87310 		ldrb	r1, [r3, #115]	@ zero_extendqisi2
 3307 0008 1422     		movs	r2, #20
 3308 000a D0F88400 		ldr	r0, [r0, #132]
ARM GAS  /tmp/ccxMPRSl.s 			page 60


 3309              	.LVL338:
 3310 000e FFF7FEFF 		bl	_ZN7creator3I2C8ReadByteEhh
 3311              	.LVL339:
 3312              	.LBE451:
 3313              	.LBE450:
 3314              		.loc 1 804 0
 3315 0012 00F04003 		and	r3, r0, #64
 3316 0016 03F0FF02 		and	r2, r3, #255
 3317 001a 0BB1     		cbz	r3, .L198
 3318              		.loc 1 805 0
 3319 001c 00F03F02 		and	r2, r0, #63
 3320              	.L198:
 3321              	.LBE449:
 3322              		.loc 1 809 0
 3323 0020 1046     		mov	r0, r2
 3324              	.LVL340:
 3325 0022 08BD     		pop	{r3, pc}
 3326              		.cfi_endproc
 3327              	.LFE52:
 3328              		.fnend
 3329              		.size	_ZN7LSM9DS113getGyroIntSrcEv, .-_ZN7LSM9DS113getGyroIntSrcEv
 3330 0024 AFF30080 		.section	.text._ZN7LSM9DS112configMagIntEh9h_lactiveb,"ax",%progbits
 3330      AFF30080 
 3330      AFF30080 
 3331              		.align	2
 3332              		.p2align 4,,15
 3333              		.global	_ZN7LSM9DS112configMagIntEh9h_lactiveb
 3334              		.thumb
 3335              		.thumb_func
 3336              		.type	_ZN7LSM9DS112configMagIntEh9h_lactiveb, %function
 3337              	_ZN7LSM9DS112configMagIntEh9h_lactiveb:
 3338              		.fnstart
 3339              	.LFB53:
 3340              		.loc 1 811 0
 3341              		.cfi_startproc
 3342              		@ args = 0, pretend = 0, frame = 0
 3343              		@ frame_needed = 0, uses_anonymous_args = 0
 3344              		@ link register save eliminated.
 3345              	.LVL341:
 3346 0000 10B4     		push	{r4}
 3347              		.cfi_def_cfa_offset 4
 3348              		.cfi_offset 4, -4
 3349              		.loc 1 811 0
 3350 0002 0446     		mov	r4, r0
 3351 0004 1846     		mov	r0, r3
 3352              	.LVL342:
 3353              	.LBB452:
 3354              		.loc 1 813 0
 3355 0006 01F0E003 		and	r3, r1, #224
 3356              	.LVL343:
 3357              		.loc 1 815 0
 3358 000a 0AB9     		cbnz	r2, .L203
 3359              		.loc 1 815 0 is_stmt 0 discriminator 1
 3360 000c 43F00403 		orr	r3, r3, #4
 3361              	.LVL344:
 3362              	.L203:
 3363              		.loc 1 817 0 is_stmt 1
ARM GAS  /tmp/ccxMPRSl.s 			page 61


 3364 0010 08B9     		cbnz	r0, .L204
 3365              		.loc 1 817 0 is_stmt 0 discriminator 1
 3366 0012 43F00203 		orr	r3, r3, #2
 3367              	.LVL345:
 3368              	.L204:
 3369              		.loc 1 819 0 is_stmt 1
 3370 0016 09B1     		cbz	r1, .L205
 3371              		.loc 1 819 0 is_stmt 0 discriminator 1
 3372 0018 43F00103 		orr	r3, r3, #1
 3373              	.LVL346:
 3374              	.L205:
 3375              	.LBB453:
 3376              	.LBB454:
 3377              		.loc 1 891 0 is_stmt 1
 3378 001c D4F88400 		ldr	r0, [r4, #132]
 3379 0020 94F87210 		ldrb	r1, [r4, #114]	@ zero_extendqisi2
 3380              	.LVL347:
 3381 0024 3022     		movs	r2, #48
 3382              	.LVL348:
 3383              	.LBE454:
 3384              	.LBE453:
 3385              	.LBE452:
 3386              		.loc 1 822 0
 3387 0026 5DF8044B 		ldr	r4, [sp], #4
 3388              	.LVL349:
 3389              	.LBB457:
 3390              	.LBB456:
 3391              	.LBB455:
 3392              		.loc 1 891 0
 3393 002a FFF7FEBF 		b	_ZN7creator3I2C9WriteByteEhhh
 3394              	.LVL350:
 3395              	.LBE455:
 3396              	.LBE456:
 3397              	.LBE457:
 3398              		.cfi_endproc
 3399              	.LFE53:
 3400              		.cantunwind
 3401              		.fnend
 3402              		.size	_ZN7LSM9DS112configMagIntEh9h_lactiveb, .-_ZN7LSM9DS112configMagIntEh9h_lactiveb
 3403 002e 00BF     		.section	.text._ZN7LSM9DS112configMagThsEt,"ax",%progbits
 3404              		.align	2
 3405              		.p2align 4,,15
 3406              		.global	_ZN7LSM9DS112configMagThsEt
 3407              		.thumb
 3408              		.thumb_func
 3409              		.type	_ZN7LSM9DS112configMagThsEt, %function
 3410              	_ZN7LSM9DS112configMagThsEt:
 3411              		.fnstart
 3412              	.LFB54:
 3413              		.loc 1 824 0
 3414              		.cfi_startproc
 3415              		@ args = 0, pretend = 0, frame = 0
 3416              		@ frame_needed = 0, uses_anonymous_args = 0
 3417              	.LVL351:
 3418 0000 70B5     		push	{r4, r5, r6, lr}
 3419              		.save {r4, r5, r6, lr}
 3420              		.cfi_def_cfa_offset 16
ARM GAS  /tmp/ccxMPRSl.s 			page 62


 3421              		.cfi_offset 4, -16
 3422              		.cfi_offset 5, -12
 3423              		.cfi_offset 6, -8
 3424              		.cfi_offset 14, -4
 3425              		.loc 1 824 0
 3426 0002 0446     		mov	r4, r0
 3427              	.LVL352:
 3428 0004 0D46     		mov	r5, r1
 3429              	.LVL353:
 3430              	.LBB458:
 3431              	.LBB459:
 3432              		.loc 1 891 0
 3433 0006 C5F30623 		ubfx	r3, r5, #8, #7
 3434 000a 94F87210 		ldrb	r1, [r4, #114]	@ zero_extendqisi2
 3435              	.LVL354:
 3436 000e D0F88400 		ldr	r0, [r0, #132]
 3437              	.LVL355:
 3438 0012 3322     		movs	r2, #51
 3439 0014 FFF7FEFF 		bl	_ZN7creator3I2C9WriteByteEhhh
 3440              	.LVL356:
 3441              	.LBE459:
 3442              	.LBE458:
 3443              	.LBB460:
 3444              	.LBB461:
 3445 0018 EBB2     		uxtb	r3, r5
 3446 001a D4F88400 		ldr	r0, [r4, #132]
 3447 001e 94F87210 		ldrb	r1, [r4, #114]	@ zero_extendqisi2
 3448 0022 3222     		movs	r2, #50
 3449              	.LBE461:
 3450              	.LBE460:
 3451              		.loc 1 829 0
 3452 0024 BDE87040 		pop	{r4, r5, r6, lr}
 3453              	.LVL357:
 3454              	.LBB463:
 3455              	.LBB462:
 3456              		.loc 1 891 0
 3457 0028 FFF7FEBF 		b	_ZN7creator3I2C9WriteByteEhhh
 3458              	.LVL358:
 3459              	.LBE462:
 3460              	.LBE463:
 3461              		.cfi_endproc
 3462              	.LFE54:
 3463              		.fnend
 3464              		.size	_ZN7LSM9DS112configMagThsEt, .-_ZN7LSM9DS112configMagThsEt
 3465 002c AFF30080 		.section	.text._ZN7LSM9DS112getMagIntSrcEv,"ax",%progbits
 3466              		.align	2
 3467              		.p2align 4,,15
 3468              		.global	_ZN7LSM9DS112getMagIntSrcEv
 3469              		.thumb
 3470              		.thumb_func
 3471              		.type	_ZN7LSM9DS112getMagIntSrcEv, %function
 3472              	_ZN7LSM9DS112getMagIntSrcEv:
 3473              		.fnstart
 3474              	.LFB55:
 3475              		.loc 1 831 0
 3476              		.cfi_startproc
 3477              		@ args = 0, pretend = 0, frame = 0
ARM GAS  /tmp/ccxMPRSl.s 			page 63


 3478              		@ frame_needed = 0, uses_anonymous_args = 0
 3479              	.LVL359:
 3480 0000 08B5     		push	{r3, lr}
 3481              		.save {r3, lr}
 3482              		.cfi_def_cfa_offset 8
 3483              		.cfi_offset 3, -8
 3484              		.cfi_offset 14, -4
 3485              		.loc 1 831 0
 3486 0002 0346     		mov	r3, r0
 3487              	.LVL360:
 3488              	.LBB464:
 3489              	.LBB465:
 3490              	.LBB466:
 3491              		.loc 1 903 0
 3492 0004 93F87210 		ldrb	r1, [r3, #114]	@ zero_extendqisi2
 3493 0008 3022     		movs	r2, #48
 3494 000a D0F88400 		ldr	r0, [r0, #132]
 3495              	.LVL361:
 3496 000e FFF7FEFF 		bl	_ZN7creator3I2C8ReadByteEhh
 3497              	.LVL362:
 3498 0012 0346     		mov	r3, r0
 3499              	.LVL363:
 3500              	.LBE466:
 3501              	.LBE465:
 3502              		.loc 1 835 0
 3503 0014 10F00100 		ands	r0, r0, #1
 3504              	.LVL364:
 3505              		.loc 1 836 0
 3506 0018 18BF     		it	ne
 3507 001a 03F0FE00 		andne	r0, r3, #254
 3508              	.LBE464:
 3509              		.loc 1 840 0
 3510 001e 08BD     		pop	{r3, pc}
 3511              		.cfi_endproc
 3512              	.LFE55:
 3513              		.fnend
 3514              		.size	_ZN7LSM9DS112getMagIntSrcEv, .-_ZN7LSM9DS112getMagIntSrcEv
 3515              		.section	.text._ZN7LSM9DS19sleepGyroEb,"ax",%progbits
 3516              		.align	2
 3517              		.p2align 4,,15
 3518              		.global	_ZN7LSM9DS19sleepGyroEb
 3519              		.thumb
 3520              		.thumb_func
 3521              		.type	_ZN7LSM9DS19sleepGyroEb, %function
 3522              	_ZN7LSM9DS19sleepGyroEb:
 3523              		.fnstart
 3524              	.LFB56:
 3525              		.loc 1 842 0
 3526              		.cfi_startproc
 3527              		@ args = 0, pretend = 0, frame = 0
 3528              		@ frame_needed = 0, uses_anonymous_args = 0
 3529              	.LVL365:
 3530 0000 70B5     		push	{r4, r5, r6, lr}
 3531              		.save {r4, r5, r6, lr}
 3532              		.cfi_def_cfa_offset 16
 3533              		.cfi_offset 4, -16
 3534              		.cfi_offset 5, -12
ARM GAS  /tmp/ccxMPRSl.s 			page 64


 3535              		.cfi_offset 6, -8
 3536              		.cfi_offset 14, -4
 3537              		.loc 1 842 0
 3538 0002 0446     		mov	r4, r0
 3539              	.LVL366:
 3540 0004 0D46     		mov	r5, r1
 3541              	.LBB467:
 3542              	.LBB468:
 3543              	.LBB469:
 3544              		.loc 1 895 0
 3545 0006 D0F88400 		ldr	r0, [r0, #132]
 3546              	.LVL367:
 3547 000a 94F87310 		ldrb	r1, [r4, #115]	@ zero_extendqisi2
 3548              	.LVL368:
 3549 000e 2322     		movs	r2, #35
 3550 0010 FFF7FEFF 		bl	_ZN7creator3I2C8ReadByteEhh
 3551              	.LVL369:
 3552              	.LBE469:
 3553              	.LBE468:
 3554              		.loc 1 845 0
 3555 0014 40F04003 		orr	r3, r0, #64
 3556 0018 DBB2     		uxtb	r3, r3
 3557              		.loc 1 844 0
 3558 001a 0DB9     		cbnz	r5, .L217
 3559              		.loc 1 847 0
 3560 001c 00F0BF03 		and	r3, r0, #191
 3561              	.LVL370:
 3562              	.L217:
 3563              	.LBB470:
 3564              	.LBB471:
 3565              		.loc 1 887 0
 3566 0020 D4F88400 		ldr	r0, [r4, #132]
 3567 0024 94F87310 		ldrb	r1, [r4, #115]	@ zero_extendqisi2
 3568 0028 2322     		movs	r2, #35
 3569              	.LBE471:
 3570              	.LBE470:
 3571              	.LBE467:
 3572              		.loc 1 849 0
 3573 002a BDE87040 		pop	{r4, r5, r6, lr}
 3574              	.LVL371:
 3575              	.LBB474:
 3576              	.LBB473:
 3577              	.LBB472:
 3578              		.loc 1 887 0
 3579 002e FFF7FEBF 		b	_ZN7creator3I2C9WriteByteEhhh
 3580              	.LVL372:
 3581              	.LBE472:
 3582              	.LBE473:
 3583              	.LBE474:
 3584              		.cfi_endproc
 3585              	.LFE56:
 3586              		.fnend
 3587              		.size	_ZN7LSM9DS19sleepGyroEb, .-_ZN7LSM9DS19sleepGyroEb
 3588 0032 00BFAFF3 		.section	.text._ZN7LSM9DS110enableFIFOEb,"ax",%progbits
 3588      0080AFF3 
 3588      0080AFF3 
 3588      0080
ARM GAS  /tmp/ccxMPRSl.s 			page 65


 3589              		.align	2
 3590              		.p2align 4,,15
 3591              		.global	_ZN7LSM9DS110enableFIFOEb
 3592              		.thumb
 3593              		.thumb_func
 3594              		.type	_ZN7LSM9DS110enableFIFOEb, %function
 3595              	_ZN7LSM9DS110enableFIFOEb:
 3596              		.fnstart
 3597              	.LFB57:
 3598              		.loc 1 851 0
 3599              		.cfi_startproc
 3600              		@ args = 0, pretend = 0, frame = 0
 3601              		@ frame_needed = 0, uses_anonymous_args = 0
 3602              	.LVL373:
 3603 0000 70B5     		push	{r4, r5, r6, lr}
 3604              		.save {r4, r5, r6, lr}
 3605              		.cfi_def_cfa_offset 16
 3606              		.cfi_offset 4, -16
 3607              		.cfi_offset 5, -12
 3608              		.cfi_offset 6, -8
 3609              		.cfi_offset 14, -4
 3610              		.loc 1 851 0
 3611 0002 0446     		mov	r4, r0
 3612              	.LVL374:
 3613 0004 0D46     		mov	r5, r1
 3614              	.LBB475:
 3615              	.LBB476:
 3616              	.LBB477:
 3617              		.loc 1 895 0
 3618 0006 D0F88400 		ldr	r0, [r0, #132]
 3619              	.LVL375:
 3620 000a 94F87310 		ldrb	r1, [r4, #115]	@ zero_extendqisi2
 3621              	.LVL376:
 3622 000e 2322     		movs	r2, #35
 3623 0010 FFF7FEFF 		bl	_ZN7creator3I2C8ReadByteEhh
 3624              	.LVL377:
 3625              	.LBE477:
 3626              	.LBE476:
 3627              		.loc 1 854 0
 3628 0014 40F00203 		orr	r3, r0, #2
 3629 0018 DBB2     		uxtb	r3, r3
 3630              		.loc 1 853 0
 3631 001a 0DB9     		cbnz	r5, .L220
 3632              		.loc 1 856 0
 3633 001c 00F0FD03 		and	r3, r0, #253
 3634              	.LVL378:
 3635              	.L220:
 3636              	.LBB478:
 3637              	.LBB479:
 3638              		.loc 1 887 0
 3639 0020 D4F88400 		ldr	r0, [r4, #132]
 3640 0024 94F87310 		ldrb	r1, [r4, #115]	@ zero_extendqisi2
 3641 0028 2322     		movs	r2, #35
 3642              	.LBE479:
 3643              	.LBE478:
 3644              	.LBE475:
 3645              		.loc 1 858 0
ARM GAS  /tmp/ccxMPRSl.s 			page 66


 3646 002a BDE87040 		pop	{r4, r5, r6, lr}
 3647              	.LVL379:
 3648              	.LBB482:
 3649              	.LBB481:
 3650              	.LBB480:
 3651              		.loc 1 887 0
 3652 002e FFF7FEBF 		b	_ZN7creator3I2C9WriteByteEhhh
 3653              	.LVL380:
 3654              	.LBE480:
 3655              	.LBE481:
 3656              	.LBE482:
 3657              		.cfi_endproc
 3658              	.LFE57:
 3659              		.fnend
 3660              		.size	_ZN7LSM9DS110enableFIFOEb, .-_ZN7LSM9DS110enableFIFOEb
 3661 0032 00BFAFF3 		.section	.text._ZN7LSM9DS17setFIFOE13fifoMode_typeh,"ax",%progbits
 3661      0080AFF3 
 3661      0080AFF3 
 3661      0080
 3662              		.align	2
 3663              		.p2align 4,,15
 3664              		.global	_ZN7LSM9DS17setFIFOE13fifoMode_typeh
 3665              		.thumb
 3666              		.thumb_func
 3667              		.type	_ZN7LSM9DS17setFIFOE13fifoMode_typeh, %function
 3668              	_ZN7LSM9DS17setFIFOE13fifoMode_typeh:
 3669              		.fnstart
 3670              	.LFB58:
 3671              		.loc 1 860 0
 3672              		.cfi_startproc
 3673              		@ args = 0, pretend = 0, frame = 0
 3674              		@ frame_needed = 0, uses_anonymous_args = 0
 3675              		@ link register save eliminated.
 3676              	.LVL381:
 3677 0000 10B4     		push	{r4}
 3678              		.cfi_def_cfa_offset 4
 3679              		.cfi_offset 4, -4
 3680              	.LBB483:
 3681              		.loc 1 864 0
 3682 0002 4901     		lsls	r1, r1, #5
 3683              	.LVL382:
 3684 0004 1F2A     		cmp	r2, #31
 3685 0006 94BF     		ite	ls
 3686 0008 41EA0203 		orrls	r3, r1, r2
 3687 000c 41F01F03 		orrhi	r3, r1, #31
 3688              	.LBE483:
 3689              		.loc 1 860 0
 3690 0010 0446     		mov	r4, r0
 3691              	.LVL383:
 3692              	.LBB488:
 3693              	.LBB484:
 3694              	.LBB485:
 3695              		.loc 1 887 0
 3696 0012 94F87310 		ldrb	r1, [r4, #115]	@ zero_extendqisi2
 3697 0016 DBB2     		uxtb	r3, r3
 3698 0018 D0F88400 		ldr	r0, [r0, #132]
 3699              	.LVL384:
ARM GAS  /tmp/ccxMPRSl.s 			page 67


 3700 001c 2E22     		movs	r2, #46
 3701              	.LVL385:
 3702              	.LBE485:
 3703              	.LBE484:
 3704              	.LBE488:
 3705              		.loc 1 865 0
 3706 001e 5DF8044B 		ldr	r4, [sp], #4
 3707              	.LVL386:
 3708              	.LBB489:
 3709              	.LBB487:
 3710              	.LBB486:
 3711              		.loc 1 887 0
 3712 0022 FFF7FEBF 		b	_ZN7creator3I2C9WriteByteEhhh
 3713              	.LVL387:
 3714              	.LBE486:
 3715              	.LBE487:
 3716              	.LBE489:
 3717              		.cfi_endproc
 3718              	.LFE58:
 3719              		.cantunwind
 3720              		.fnend
 3721              		.size	_ZN7LSM9DS17setFIFOE13fifoMode_typeh, .-_ZN7LSM9DS17setFIFOE13fifoMode_typeh
 3722              		.global	__aeabi_f2d
 3723              		.global	__aeabi_ddiv
 3724              		.global	__aeabi_d2iz
 3725 0026 00BFAFF3 		.section	.text._ZN7LSM9DS19calibrateEb,"ax",%progbits
 3725      0080AFF3 
 3725      0080
 3726              		.align	2
 3727              		.p2align 4,,15
 3728              		.global	_ZN7LSM9DS19calibrateEb
 3729              		.thumb
 3730              		.thumb_func
 3731              		.type	_ZN7LSM9DS19calibrateEb, %function
 3732              	_ZN7LSM9DS19calibrateEb:
 3733              		.fnstart
 3734              	.LFB17:
 3735              		.loc 1 304 0
 3736              		.cfi_startproc
 3737              		@ args = 0, pretend = 0, frame = 40
 3738              		@ frame_needed = 0, uses_anonymous_args = 0
 3739              	.LVL388:
 3740 0000 2DE9F04F 		push	{r4, r5, r6, r7, r8, r9, r10, fp, lr}
 3741              		.save {r4, r5, r6, r7, r8, r9, r10, fp, lr}
 3742              		.cfi_def_cfa_offset 36
 3743              		.cfi_offset 4, -36
 3744              		.cfi_offset 5, -32
 3745              		.cfi_offset 6, -28
 3746              		.cfi_offset 7, -24
 3747              		.cfi_offset 8, -20
 3748              		.cfi_offset 9, -16
 3749              		.cfi_offset 10, -12
 3750              		.cfi_offset 11, -8
 3751              		.cfi_offset 14, -4
 3752              		.pad #44
 3753 0004 8BB0     		sub	sp, sp, #44
 3754              		.cfi_def_cfa_offset 80
ARM GAS  /tmp/ccxMPRSl.s 			page 68


 3755              	.LBB490:
 3756              		.loc 1 307 0
 3757 0006 0023     		movs	r3, #0
 3758              	.LBE490:
 3759              		.loc 1 304 0
 3760 0008 0291     		str	r1, [sp, #8]
 3761 000a 0446     		mov	r4, r0
 3762              	.LBB497:
 3763              		.loc 1 311 0
 3764 000c 0121     		movs	r1, #1
 3765              	.LVL389:
 3766              		.loc 1 307 0
 3767 000e 0493     		str	r3, [sp, #16]
 3768 0010 0593     		str	r3, [sp, #20]
 3769 0012 0693     		str	r3, [sp, #24]
 3770              		.loc 1 308 0
 3771 0014 0793     		str	r3, [sp, #28]
 3772 0016 0893     		str	r3, [sp, #32]
 3773 0018 0993     		str	r3, [sp, #36]
 3774              		.loc 1 311 0
 3775 001a FFF7FEFF 		bl	_ZN7LSM9DS110enableFIFOEb
 3776              	.LVL390:
 3777              		.loc 1 312 0
 3778 001e 2046     		mov	r0, r4
 3779 0020 0121     		movs	r1, #1
 3780 0022 1F22     		movs	r2, #31
 3781 0024 FFF7FEFF 		bl	_ZN7LSM9DS17setFIFOE13fifoMode_typeh
 3782              	.LVL391:
 3783              	.L224:
 3784              	.LBB491:
 3785              	.LBB492:
 3786              		.loc 1 895 0
 3787 0028 D4F88400 		ldr	r0, [r4, #132]
 3788 002c 94F87310 		ldrb	r1, [r4, #115]	@ zero_extendqisi2
 3789 0030 2F22     		movs	r2, #47
 3790 0032 FFF7FEFF 		bl	_ZN7creator3I2C8ReadByteEhh
 3791              	.LVL392:
 3792              	.LBE492:
 3793              	.LBE491:
 3794              		.loc 1 314 0
 3795 0036 00F03F00 		and	r0, r0, #63
 3796              	.LVL393:
 3797              		.loc 1 313 0
 3798 003a 1E28     		cmp	r0, #30
 3799 003c F4D9     		bls	.L224
 3800              	.LVL394:
 3801              		.loc 1 316 0 discriminator 1
 3802 003e 4FF0000C 		mov	ip, #0
 3803 0042 421C     		adds	r2, r0, #1
 3804 0044 E246     		mov	r10, ip
 3805 0046 6746     		mov	r7, ip
 3806 0048 E146     		mov	r9, ip
 3807 004a E046     		mov	r8, ip
 3808 004c 6646     		mov	r6, ip
 3809 004e 0192     		str	r2, [sp, #4]
 3810 0050 0125     		movs	r5, #1
 3811 0052 0390     		str	r0, [sp, #12]
ARM GAS  /tmp/ccxMPRSl.s 			page 69


 3812 0054 E346     		mov	fp, ip
 3813 0056 00E0     		b	.L226
 3814              	.LVL395:
 3815              	.L233:
 3816              		.loc 1 316 0 is_stmt 0
 3817 0058 9B46     		mov	fp, r3
 3818              	.L226:
 3819              	.LVL396:
 3820              		.loc 1 317 0 is_stmt 1
 3821 005a 2046     		mov	r0, r4
 3822 005c FFF7FEFF 		bl	_ZN7LSM9DS18readGyroEv
 3823              	.LVL397:
 3824              		.loc 1 318 0
 3825 0060 B4F92810 		ldrsh	r1, [r4, #40]
 3826              		.loc 1 319 0
 3827 0064 B4F92A20 		ldrsh	r2, [r4, #42]
 3828              		.loc 1 320 0
 3829 0068 B4F92C30 		ldrsh	r3, [r4, #44]
 3830              		.loc 1 318 0
 3831 006c 0E44     		add	r6, r6, r1
 3832              		.loc 1 319 0
 3833 006e 9044     		add	r8, r8, r2
 3834              		.loc 1 320 0
 3835 0070 9944     		add	r9, r9, r3
 3836              		.loc 1 321 0
 3837 0072 2046     		mov	r0, r4
 3838              		.loc 1 318 0
 3839 0074 0796     		str	r6, [sp, #28]
 3840              		.loc 1 319 0
 3841 0076 CDF82080 		str	r8, [sp, #32]
 3842              		.loc 1 320 0
 3843 007a CDF82490 		str	r9, [sp, #36]
 3844              		.loc 1 321 0
 3845 007e FFF7FEFF 		bl	_ZN7LSM9DS19readAccelEv
 3846              	.LVL398:
 3847              		.loc 1 324 0
 3848 0082 D4F878C0 		ldr	ip, [r4, #120]	@ float
 3849              		.loc 1 322 0
 3850 0086 B4F92E20 		ldrsh	r2, [r4, #46]
 3851              		.loc 1 323 0
 3852 008a B4F93030 		ldrsh	r3, [r4, #48]
 3853              		.loc 1 324 0
 3854 008e 6046     		mov	r0, ip
 3855              		.loc 1 322 0
 3856 0090 1744     		add	r7, r7, r2
 3857              		.loc 1 323 0
 3858 0092 9A44     		add	r10, r10, r3
 3859              		.loc 1 324 0
 3860 0094 CDF800C0 		str	ip, [sp]
 3861              		.loc 1 322 0
 3862 0098 0497     		str	r7, [sp, #16]
 3863              		.loc 1 323 0
 3864 009a CDF814A0 		str	r10, [sp, #20]
 3865              		.loc 1 324 0
 3866 009e FFF7FEFF 		bl	__aeabi_f2d
 3867              	.LVL399:
 3868 00a2 0B46     		mov	r3, r1
ARM GAS  /tmp/ccxMPRSl.s 			page 70


 3869 00a4 0021     		movs	r1, #0
 3870 00a6 0246     		mov	r2, r0
 3871 00a8 C3F6F071 		movt	r1, 16368
 3872 00ac 0020     		movs	r0, #0
 3873 00ae FFF7FEFF 		bl	__aeabi_ddiv
 3874              	.LVL400:
 3875 00b2 FFF7FEFF 		bl	__aeabi_d2iz
 3876              	.LVL401:
 3877 00b6 B4F93230 		ldrsh	r3, [r4, #50]
 3878 00ba 00B2     		sxth	r0, r0
 3879              		.loc 1 316 0
 3880 00bc 019A     		ldr	r2, [sp, #4]
 3881              		.loc 1 324 0
 3882 00be 1B1A     		subs	r3, r3, r0
 3883 00c0 0135     		adds	r5, r5, #1
 3884              	.LVL402:
 3885 00c2 5B44     		add	r3, r3, fp
 3886              		.loc 1 316 0
 3887 00c4 9542     		cmp	r5, r2
 3888              		.loc 1 324 0
 3889 00c6 0693     		str	r3, [sp, #24]
 3890              	.LVL403:
 3891              		.loc 1 316 0
 3892 00c8 DDF800C0 		ldr	ip, [sp]
 3893 00cc C4D1     		bne	.L233
 3894 00ce D4F87480 		ldr	r8, [r4, #116]	@ float
 3895 00d2 DDF80CB0 		ldr	fp, [sp, #12]
 3896              	.LVL404:
 3897 00d6 3046     		mov	r0, r6
 3898 00d8 A246     		mov	r10, r4
 3899 00da 4646     		mov	r6, r8
 3900 00dc A146     		mov	r9, r4
 3901 00de 0025     		movs	r5, #0
 3902 00e0 E046     		mov	r8, ip
 3903              	.LVL405:
 3904              	.L228:
 3905              		.loc 1 327 0 discriminator 2
 3906 00e2 90FBFBF0 		sdiv	r0, r0, fp
 3907 00e6 80B2     		uxth	r0, r0
 3908 00e8 AAF86000 		strh	r0, [r10, #96]	@ movhi
 3909              	.LVL406:
 3910              	.LBB493:
 3911              	.LBB494:
 3912              		.loc 1 537 0 discriminator 2
 3913 00ec 00B2     		sxth	r0, r0
 3914              	.LVL407:
 3915 00ee FFF7FEFF 		bl	__aeabi_i2f
 3916              	.LVL408:
 3917 00f2 3146     		mov	r1, r6
 3918 00f4 FFF7FEFF 		bl	__aeabi_fmul
 3919              	.LVL409:
 3920              	.LBE494:
 3921              	.LBE493:
 3922              		.loc 1 329 0 discriminator 2
 3923 00f8 97FBFBF3 		sdiv	r3, r7, fp
 3924 00fc 9BB2     		uxth	r3, r3
 3925              		.loc 1 328 0 discriminator 2
ARM GAS  /tmp/ccxMPRSl.s 			page 71


 3926 00fe C9F83C00 		str	r0, [r9, #60]	@ float
 3927              		.loc 1 329 0 discriminator 2
 3928 0102 AAF86630 		strh	r3, [r10, #102]	@ movhi
 3929              	.LVL410:
 3930              	.LBB495:
 3931              	.LBB496:
 3932              		.loc 1 542 0 discriminator 2
 3933 0106 18B2     		sxth	r0, r3
 3934 0108 FFF7FEFF 		bl	__aeabi_i2f
 3935              	.LVL411:
 3936 010c 4146     		mov	r1, r8
 3937 010e FFF7FEFF 		bl	__aeabi_fmul
 3938              	.LVL412:
 3939 0112 0435     		adds	r5, r5, #4
 3940              	.LBE496:
 3941              	.LBE495:
 3942              		.loc 1 326 0 discriminator 2
 3943 0114 0C2D     		cmp	r5, #12
 3944              		.loc 1 330 0 discriminator 2
 3945 0116 C9F84800 		str	r0, [r9, #72]	@ float
 3946 011a 0AF1020A 		add	r10, r10, #2
 3947 011e 09F10409 		add	r9, r9, #4
 3948              		.loc 1 326 0 discriminator 2
 3949 0122 06D0     		beq	.L227
 3950 0124 07AB     		add	r3, sp, #28
 3951 0126 E858     		ldr	r0, [r5, r3]
 3952 0128 05F11002 		add	r2, r5, #16
 3953 012c 6B46     		mov	r3, sp
 3954 012e D758     		ldr	r7, [r2, r3]
 3955              	.LVL413:
 3956 0130 D7E7     		b	.L228
 3957              	.LVL414:
 3958              	.L227:
 3959              		.loc 1 333 0
 3960 0132 2046     		mov	r0, r4
 3961 0134 0021     		movs	r1, #0
 3962 0136 FFF7FEFF 		bl	_ZN7LSM9DS110enableFIFOEb
 3963              	.LVL415:
 3964              		.loc 1 334 0
 3965 013a 0021     		movs	r1, #0
 3966 013c 2046     		mov	r0, r4
 3967 013e 0A46     		mov	r2, r1
 3968 0140 FFF7FEFF 		bl	_ZN7LSM9DS17setFIFOE13fifoMode_typeh
 3969              	.LVL416:
 3970              		.loc 1 336 0
 3971 0144 029B     		ldr	r3, [sp, #8]
 3972 0146 13B1     		cbz	r3, .L222
 3973              		.loc 1 336 0 is_stmt 0 discriminator 1
 3974 0148 0123     		movs	r3, #1
 3975 014a 84F88030 		strb	r3, [r4, #128]
 3976              	.L222:
 3977              	.LBE497:
 3978              		.loc 1 337 0 is_stmt 1
 3979 014e 0BB0     		add	sp, sp, #44
 3980              		@ sp needed
 3981 0150 BDE8F08F 		pop	{r4, r5, r6, r7, r8, r9, r10, fp, pc}
 3982              		.cfi_endproc
ARM GAS  /tmp/ccxMPRSl.s 			page 72


 3983              	.LFE17:
 3984              		.fnend
 3985              		.size	_ZN7LSM9DS19calibrateEb, .-_ZN7LSM9DS19calibrateEb
 3986 0154 AFF30080 		.section	.text._ZN7LSM9DS114getFIFOSamplesEv,"ax",%progbits
 3986      AFF30080 
 3986      AFF30080 
 3987              		.align	2
 3988              		.p2align 4,,15
 3989              		.global	_ZN7LSM9DS114getFIFOSamplesEv
 3990              		.thumb
 3991              		.thumb_func
 3992              		.type	_ZN7LSM9DS114getFIFOSamplesEv, %function
 3993              	_ZN7LSM9DS114getFIFOSamplesEv:
 3994              		.fnstart
 3995              	.LFB59:
 3996              		.loc 1 867 0
 3997              		.cfi_startproc
 3998              		@ args = 0, pretend = 0, frame = 0
 3999              		@ frame_needed = 0, uses_anonymous_args = 0
 4000              	.LVL417:
 4001 0000 08B5     		push	{r3, lr}
 4002              		.save {r3, lr}
 4003              		.cfi_def_cfa_offset 8
 4004              		.cfi_offset 3, -8
 4005              		.cfi_offset 14, -4
 4006              		.loc 1 867 0
 4007 0002 0346     		mov	r3, r0
 4008              	.LVL418:
 4009              	.LBB498:
 4010              	.LBB499:
 4011              		.loc 1 895 0
 4012 0004 93F87310 		ldrb	r1, [r3, #115]	@ zero_extendqisi2
 4013 0008 2F22     		movs	r2, #47
 4014 000a D0F88400 		ldr	r0, [r0, #132]
 4015              	.LVL419:
 4016 000e FFF7FEFF 		bl	_ZN7creator3I2C8ReadByteEhh
 4017              	.LVL420:
 4018              	.LBE499:
 4019              	.LBE498:
 4020              		.loc 1 867 0
 4021 0012 00F03F00 		and	r0, r0, #63
 4022 0016 08BD     		pop	{r3, pc}
 4023              		.cfi_endproc
 4024              	.LFE59:
 4025              		.fnend
 4026              		.size	_ZN7LSM9DS114getFIFOSamplesEv, .-_ZN7LSM9DS114getFIFOSamplesEv
 4027 0018 AFF30080 		.section	.text._ZN7LSM9DS115constrainScalesEv,"ax",%progbits
 4027      AFF30080 
 4028              		.align	2
 4029              		.p2align 4,,15
 4030              		.global	_ZN7LSM9DS115constrainScalesEv
 4031              		.thumb
 4032              		.thumb_func
 4033              		.type	_ZN7LSM9DS115constrainScalesEv, %function
 4034              	_ZN7LSM9DS115constrainScalesEv:
 4035              		.fnstart
 4036              	.LFB60:
ARM GAS  /tmp/ccxMPRSl.s 			page 73


 4037              		.loc 1 869 0
 4038              		.cfi_startproc
 4039              		@ args = 0, pretend = 0, frame = 0
 4040              		@ frame_needed = 0, uses_anonymous_args = 0
 4041              		@ link register save eliminated.
 4042              	.LVL421:
 4043              		.loc 1 870 0
 4044 0000 C388     		ldrh	r3, [r0, #6]
 4045 0002 F52B     		cmp	r3, #245
 4046 0004 18BF     		it	ne
 4047 0006 B3F5FA7F 		cmpne	r3, #500
 4048 000a 04D0     		beq	.L236
 4049              		.loc 1 870 0 is_stmt 0 discriminator 1
 4050 000c B3F5FA6F 		cmp	r3, #2000
 4051              		.loc 1 872 0 is_stmt 1 discriminator 1
 4052 0010 1CBF     		itt	ne
 4053 0012 F523     		movne	r3, #245
 4054 0014 C380     		strhne	r3, [r0, #6]	@ movhi
 4055              	.L236:
 4056              		.loc 1 875 0
 4057 0016 C37D     		ldrb	r3, [r0, #23]	@ zero_extendqisi2
 4058              		.loc 1 876 0
 4059 0018 022B     		cmp	r3, #2
 4060 001a 18BF     		it	ne
 4061 001c 042B     		cmpne	r3, #4
 4062 001e 05D0     		beq	.L238
 4063              		.loc 1 875 0 discriminator 1
 4064 0020 082B     		cmp	r3, #8
 4065 0022 03D0     		beq	.L238
 4066              		.loc 1 876 0
 4067 0024 102B     		cmp	r3, #16
 4068              		.loc 1 877 0
 4069 0026 1CBF     		itt	ne
 4070 0028 0223     		movne	r3, #2
 4071 002a C375     		strbne	r3, [r0, #23]
 4072              	.L238:
 4073              		.loc 1 880 0
 4074 002c 90F82030 		ldrb	r3, [r0, #32]	@ zero_extendqisi2
 4075 0030 03F0F702 		and	r2, r3, #247
 4076              		.loc 1 881 0
 4077 0034 042A     		cmp	r2, #4
 4078 0036 18BF     		it	ne
 4079 0038 082B     		cmpne	r3, #8
 4080 003a 05D0     		beq	.L235
 4081 003c 102B     		cmp	r3, #16
 4082              		.loc 1 882 0
 4083 003e 1CBF     		itt	ne
 4084 0040 0423     		movne	r3, #4
 4085 0042 80F82030 		strbne	r3, [r0, #32]
 4086              		.loc 1 881 0
 4087 0046 00D0     		beq	.L254
 4088              	.L235:
 4089 0048 7047     		bx	lr
 4090              	.L254:
 4091 004a 7047     		bx	lr
 4092              		.cfi_endproc
 4093              	.LFE60:
ARM GAS  /tmp/ccxMPRSl.s 			page 74


 4094              		.cantunwind
 4095              		.fnend
 4096              		.size	_ZN7LSM9DS115constrainScalesEv, .-_ZN7LSM9DS115constrainScalesEv
 4097 004c AFF30080 		.section	.text._ZN7LSM9DS15beginEv,"ax",%progbits
 4098              		.align	2
 4099              		.p2align 4,,15
 4100              		.global	_ZN7LSM9DS15beginEv
 4101              		.thumb
 4102              		.thumb_func
 4103              		.type	_ZN7LSM9DS15beginEv, %function
 4104              	_ZN7LSM9DS15beginEv:
 4105              		.fnstart
 4106              	.LFB14:
 4107              		.loc 1 131 0
 4108              		.cfi_startproc
 4109              		@ args = 0, pretend = 0, frame = 0
 4110              		@ frame_needed = 0, uses_anonymous_args = 0
 4111              	.LVL422:
 4112 0000 38B5     		push	{r3, r4, r5, lr}
 4113              		.save {r3, r4, r5, lr}
 4114              		.cfi_def_cfa_offset 16
 4115              		.cfi_offset 3, -16
 4116              		.cfi_offset 4, -12
 4117              		.cfi_offset 5, -8
 4118              		.cfi_offset 14, -4
 4119              	.LBB500:
 4120              		.loc 1 134 0
 4121 0002 8378     		ldrb	r3, [r0, #2]	@ zero_extendqisi2
 4122              		.loc 1 133 0
 4123 0004 4278     		ldrb	r2, [r0, #1]	@ zero_extendqisi2
 4124              	.LBE500:
 4125              		.loc 1 131 0
 4126 0006 0446     		mov	r4, r0
 4127              	.LBB517:
 4128              		.loc 1 134 0
 4129 0008 80F87230 		strb	r3, [r0, #114]
 4130              		.loc 1 133 0
 4131 000c 80F87320 		strb	r2, [r0, #115]
 4132              		.loc 1 136 0
 4133 0010 FFF7FEFF 		bl	_ZN7LSM9DS115constrainScalesEv
 4134              	.LVL423:
 4135              	.LBB501:
 4136              	.LBB502:
 4137              		.loc 1 678 0
 4138 0014 E088     		ldrh	r0, [r4, #6]
 4139 0016 FFF7FEFF 		bl	__aeabi_ui2f
 4140              	.LVL424:
 4141 001a 4FF06051 		mov	r1, #939524096
 4142 001e FFF7FEFF 		bl	__aeabi_fmul
 4143              	.LVL425:
 4144 0022 6067     		str	r0, [r4, #116]	@ float
 4145              	.LBE502:
 4146              	.LBE501:
 4147              		.loc 1 140 0
 4148 0024 2046     		mov	r0, r4
 4149 0026 FFF7FEFF 		bl	_ZN7LSM9DS18calcmResEv
 4150              	.LVL426:
ARM GAS  /tmp/ccxMPRSl.s 			page 75


 4151              	.LBB503:
 4152              	.LBB504:
 4153              		.loc 1 680 0
 4154 002a E07D     		ldrb	r0, [r4, #23]	@ zero_extendqisi2
 4155 002c FFF7FEFF 		bl	__aeabi_ui2f
 4156              	.LVL427:
 4157 0030 4FF06051 		mov	r1, #939524096
 4158 0034 FFF7FEFF 		bl	__aeabi_fmul
 4159              	.LVL428:
 4160              	.LBE504:
 4161              	.LBE503:
 4162              	.LBB506:
 4163              	.LBB507:
 4164              		.loc 1 903 0
 4165 0038 94F87210 		ldrb	r1, [r4, #114]	@ zero_extendqisi2
 4166              	.LBE507:
 4167              	.LBE506:
 4168              	.LBB510:
 4169              	.LBB505:
 4170              		.loc 1 680 0
 4171 003c A067     		str	r0, [r4, #120]	@ float
 4172              	.LVL429:
 4173              	.LBE505:
 4174              	.LBE510:
 4175              	.LBB511:
 4176              	.LBB508:
 4177              		.loc 1 903 0
 4178 003e 0F22     		movs	r2, #15
 4179 0040 D4F88400 		ldr	r0, [r4, #132]
 4180 0044 FFF7FEFF 		bl	_ZN7creator3I2C8ReadByteEhh
 4181              	.LVL430:
 4182              	.LBE508:
 4183              	.LBE511:
 4184              	.LBB512:
 4185              	.LBB513:
 4186              		.loc 1 895 0
 4187 0048 94F87310 		ldrb	r1, [r4, #115]	@ zero_extendqisi2
 4188              	.LBE513:
 4189              	.LBE512:
 4190              	.LBB515:
 4191              	.LBB509:
 4192              		.loc 1 903 0
 4193 004c 0546     		mov	r5, r0
 4194              	.LVL431:
 4195              	.LBE509:
 4196              	.LBE515:
 4197              	.LBB516:
 4198              	.LBB514:
 4199              		.loc 1 895 0
 4200 004e 0F22     		movs	r2, #15
 4201 0050 D4F88400 		ldr	r0, [r4, #132]
 4202              	.LVL432:
 4203 0054 FFF7FEFF 		bl	_ZN7creator3I2C8ReadByteEhh
 4204              	.LVL433:
 4205              	.LBE514:
 4206              	.LBE516:
 4207              		.loc 1 147 0
ARM GAS  /tmp/ccxMPRSl.s 			page 76


 4208 0058 45EA0020 		orr	r0, r5, r0, lsl #8
 4209              	.LVL434:
 4210              		.loc 1 149 0
 4211 005c 05B2     		sxth	r5, r0
 4212              	.LVL435:
 4213 005e 46F63D03 		movw	r3, #26685
 4214 0062 9D42     		cmp	r5, r3
 4215 0064 01D0     		beq	.L258
 4216 0066 0020     		movs	r0, #0
 4217              	.LBE517:
 4218              		.loc 1 162 0
 4219 0068 38BD     		pop	{r3, r4, r5, pc}
 4220              	.LVL436:
 4221              	.L258:
 4222              	.LBB518:
 4223              		.loc 1 152 0
 4224 006a 2046     		mov	r0, r4
 4225 006c FFF7FEFF 		bl	_ZN7LSM9DS18initGyroEv
 4226              	.LVL437:
 4227              		.loc 1 155 0
 4228 0070 2046     		mov	r0, r4
 4229 0072 FFF7FEFF 		bl	_ZN7LSM9DS19initAccelEv
 4230              	.LVL438:
 4231              		.loc 1 158 0
 4232 0076 2046     		mov	r0, r4
 4233 0078 FFF7FEFF 		bl	_ZN7LSM9DS17initMagEv
 4234              	.LVL439:
 4235              		.loc 1 161 0
 4236 007c 2846     		mov	r0, r5
 4237 007e 38BD     		pop	{r3, r4, r5, pc}
 4238              	.LBE518:
 4239              		.cfi_endproc
 4240              	.LFE14:
 4241              		.fnend
 4242              		.size	_ZN7LSM9DS15beginEv, .-_ZN7LSM9DS15beginEv
 4243              		.section	.text._ZN7LSM9DS111xgWriteByteEhh,"ax",%progbits
 4244              		.align	2
 4245              		.p2align 4,,15
 4246              		.global	_ZN7LSM9DS111xgWriteByteEhh
 4247              		.thumb
 4248              		.thumb_func
 4249              		.type	_ZN7LSM9DS111xgWriteByteEhh, %function
 4250              	_ZN7LSM9DS111xgWriteByteEhh:
 4251              		.fnstart
 4252              	.LFB61:
 4253              		.loc 1 886 0
 4254              		.cfi_startproc
 4255              		@ args = 0, pretend = 0, frame = 0
 4256              		@ frame_needed = 0, uses_anonymous_args = 0
 4257              		@ link register save eliminated.
 4258              	.LVL440:
 4259 0000 10B4     		push	{r4}
 4260              		.cfi_def_cfa_offset 4
 4261              		.cfi_offset 4, -4
 4262              		.loc 1 886 0
 4263 0002 0446     		mov	r4, r0
 4264 0004 1346     		mov	r3, r2
ARM GAS  /tmp/ccxMPRSl.s 			page 77


 4265              		.loc 1 887 0
 4266 0006 D0F88400 		ldr	r0, [r0, #132]
 4267              	.LVL441:
 4268 000a 0A46     		mov	r2, r1
 4269              	.LVL442:
 4270 000c 94F87310 		ldrb	r1, [r4, #115]	@ zero_extendqisi2
 4271              	.LVL443:
 4272              		.loc 1 888 0
 4273 0010 5DF8044B 		ldr	r4, [sp], #4
 4274              	.LVL444:
 4275              		.loc 1 887 0
 4276 0014 FFF7FEBF 		b	_ZN7creator3I2C9WriteByteEhhh
 4277              	.LVL445:
 4278              		.cfi_endproc
 4279              	.LFE61:
 4280              		.cantunwind
 4281              		.fnend
 4282              		.size	_ZN7LSM9DS111xgWriteByteEhh, .-_ZN7LSM9DS111xgWriteByteEhh
 4283 0018 AFF30080 		.section	.text._ZN7LSM9DS110mWriteByteEhh,"ax",%progbits
 4283      AFF30080 
 4284              		.align	2
 4285              		.p2align 4,,15
 4286              		.global	_ZN7LSM9DS110mWriteByteEhh
 4287              		.thumb
 4288              		.thumb_func
 4289              		.type	_ZN7LSM9DS110mWriteByteEhh, %function
 4290              	_ZN7LSM9DS110mWriteByteEhh:
 4291              		.fnstart
 4292              	.LFB62:
 4293              		.loc 1 890 0
 4294              		.cfi_startproc
 4295              		@ args = 0, pretend = 0, frame = 0
 4296              		@ frame_needed = 0, uses_anonymous_args = 0
 4297              		@ link register save eliminated.
 4298              	.LVL446:
 4299 0000 10B4     		push	{r4}
 4300              		.cfi_def_cfa_offset 4
 4301              		.cfi_offset 4, -4
 4302              		.loc 1 890 0
 4303 0002 0446     		mov	r4, r0
 4304 0004 1346     		mov	r3, r2
 4305              		.loc 1 891 0
 4306 0006 D0F88400 		ldr	r0, [r0, #132]
 4307              	.LVL447:
 4308 000a 0A46     		mov	r2, r1
 4309              	.LVL448:
 4310 000c 94F87210 		ldrb	r1, [r4, #114]	@ zero_extendqisi2
 4311              	.LVL449:
 4312              		.loc 1 892 0
 4313 0010 5DF8044B 		ldr	r4, [sp], #4
 4314              	.LVL450:
 4315              		.loc 1 891 0
 4316 0014 FFF7FEBF 		b	_ZN7creator3I2C9WriteByteEhhh
 4317              	.LVL451:
 4318              		.cfi_endproc
 4319              	.LFE62:
 4320              		.cantunwind
ARM GAS  /tmp/ccxMPRSl.s 			page 78


 4321              		.fnend
 4322              		.size	_ZN7LSM9DS110mWriteByteEhh, .-_ZN7LSM9DS110mWriteByteEhh
 4323 0018 AFF30080 		.section	.text._ZN7LSM9DS110xgReadByteEh,"ax",%progbits
 4323      AFF30080 
 4324              		.align	2
 4325              		.p2align 4,,15
 4326              		.global	_ZN7LSM9DS110xgReadByteEh
 4327              		.thumb
 4328              		.thumb_func
 4329              		.type	_ZN7LSM9DS110xgReadByteEh, %function
 4330              	_ZN7LSM9DS110xgReadByteEh:
 4331              		.fnstart
 4332              	.LFB63:
 4333              		.loc 1 894 0
 4334              		.cfi_startproc
 4335              		@ args = 0, pretend = 0, frame = 0
 4336              		@ frame_needed = 0, uses_anonymous_args = 0
 4337              		@ link register save eliminated.
 4338              	.LVL452:
 4339              		.loc 1 894 0
 4340 0000 0346     		mov	r3, r0
 4341 0002 0A46     		mov	r2, r1
 4342              		.loc 1 895 0
 4343 0004 D0F88400 		ldr	r0, [r0, #132]
 4344              	.LVL453:
 4345 0008 93F87310 		ldrb	r1, [r3, #115]	@ zero_extendqisi2
 4346              	.LVL454:
 4347 000c FFF7FEBF 		b	_ZN7creator3I2C8ReadByteEhh
 4348              	.LVL455:
 4349              		.cfi_endproc
 4350              	.LFE63:
 4351              		.cantunwind
 4352              		.fnend
 4353              		.size	_ZN7LSM9DS110xgReadByteEh, .-_ZN7LSM9DS110xgReadByteEh
 4354              		.section	.text._ZN7LSM9DS111xgReadBytesEhPhh,"ax",%progbits
 4355              		.align	2
 4356              		.p2align 4,,15
 4357              		.global	_ZN7LSM9DS111xgReadBytesEhPhh
 4358              		.thumb
 4359              		.thumb_func
 4360              		.type	_ZN7LSM9DS111xgReadBytesEhPhh, %function
 4361              	_ZN7LSM9DS111xgReadBytesEhPhh:
 4362              		.fnstart
 4363              	.LFB64:
 4364              		.loc 1 898 0
 4365              		.cfi_startproc
 4366              		@ args = 0, pretend = 0, frame = 0
 4367              		@ frame_needed = 0, uses_anonymous_args = 0
 4368              	.LVL456:
 4369 0000 30B5     		push	{r4, r5, lr}
 4370              		.save {r4, r5, lr}
 4371              		.cfi_def_cfa_offset 12
 4372              		.cfi_offset 4, -12
 4373              		.cfi_offset 5, -8
 4374              		.cfi_offset 14, -4
 4375              		.loc 1 899 0
 4376 0002 D0F88450 		ldr	r5, [r0, #132]
ARM GAS  /tmp/ccxMPRSl.s 			page 79


 4377 0006 90F87340 		ldrb	r4, [r0, #115]	@ zero_extendqisi2
 4378              		.loc 1 898 0
 4379              		.pad #12
 4380 000a 83B0     		sub	sp, sp, #12
 4381              		.cfi_def_cfa_offset 24
 4382              		.loc 1 898 0
 4383 000c 1046     		mov	r0, r2
 4384              	.LVL457:
 4385              		.loc 1 899 0
 4386 000e 0093     		str	r3, [sp]
 4387 0010 0A46     		mov	r2, r1
 4388              	.LVL458:
 4389 0012 0346     		mov	r3, r0
 4390              	.LVL459:
 4391 0014 2146     		mov	r1, r4
 4392              	.LVL460:
 4393 0016 2846     		mov	r0, r5
 4394              	.LVL461:
 4395 0018 FFF7FEFF 		bl	_ZN7creator3I2C9ReadBytesEhhPhh
 4396              	.LVL462:
 4397              		.loc 1 900 0
 4398 001c 03B0     		add	sp, sp, #12
 4399              		@ sp needed
 4400 001e 30BD     		pop	{r4, r5, pc}
 4401              		.cfi_endproc
 4402              	.LFE64:
 4403              		.fnend
 4404              		.size	_ZN7LSM9DS111xgReadBytesEhPhh, .-_ZN7LSM9DS111xgReadBytesEhPhh
 4405              		.section	.text._ZN7LSM9DS19mReadByteEh,"ax",%progbits
 4406              		.align	2
 4407              		.p2align 4,,15
 4408              		.global	_ZN7LSM9DS19mReadByteEh
 4409              		.thumb
 4410              		.thumb_func
 4411              		.type	_ZN7LSM9DS19mReadByteEh, %function
 4412              	_ZN7LSM9DS19mReadByteEh:
 4413              		.fnstart
 4414              	.LFB65:
 4415              		.loc 1 902 0
 4416              		.cfi_startproc
 4417              		@ args = 0, pretend = 0, frame = 0
 4418              		@ frame_needed = 0, uses_anonymous_args = 0
 4419              		@ link register save eliminated.
 4420              	.LVL463:
 4421              		.loc 1 902 0
 4422 0000 0346     		mov	r3, r0
 4423 0002 0A46     		mov	r2, r1
 4424              		.loc 1 903 0
 4425 0004 D0F88400 		ldr	r0, [r0, #132]
 4426              	.LVL464:
 4427 0008 93F87210 		ldrb	r1, [r3, #114]	@ zero_extendqisi2
 4428              	.LVL465:
 4429 000c FFF7FEBF 		b	_ZN7creator3I2C8ReadByteEhh
 4430              	.LVL466:
 4431              		.cfi_endproc
 4432              	.LFE65:
 4433              		.cantunwind
ARM GAS  /tmp/ccxMPRSl.s 			page 80


 4434              		.fnend
 4435              		.size	_ZN7LSM9DS19mReadByteEh, .-_ZN7LSM9DS19mReadByteEh
 4436              		.section	.text._ZN7LSM9DS110mReadBytesEhPhh,"ax",%progbits
 4437              		.align	2
 4438              		.p2align 4,,15
 4439              		.global	_ZN7LSM9DS110mReadBytesEhPhh
 4440              		.thumb
 4441              		.thumb_func
 4442              		.type	_ZN7LSM9DS110mReadBytesEhPhh, %function
 4443              	_ZN7LSM9DS110mReadBytesEhPhh:
 4444              		.fnstart
 4445              	.LFB66:
 4446              		.loc 1 906 0
 4447              		.cfi_startproc
 4448              		@ args = 0, pretend = 0, frame = 0
 4449              		@ frame_needed = 0, uses_anonymous_args = 0
 4450              	.LVL467:
 4451 0000 30B5     		push	{r4, r5, lr}
 4452              		.save {r4, r5, lr}
 4453              		.cfi_def_cfa_offset 12
 4454              		.cfi_offset 4, -12
 4455              		.cfi_offset 5, -8
 4456              		.cfi_offset 14, -4
 4457              		.loc 1 907 0
 4458 0002 D0F88450 		ldr	r5, [r0, #132]
 4459 0006 90F87240 		ldrb	r4, [r0, #114]	@ zero_extendqisi2
 4460              		.loc 1 906 0
 4461              		.pad #12
 4462 000a 83B0     		sub	sp, sp, #12
 4463              		.cfi_def_cfa_offset 24
 4464              		.loc 1 906 0
 4465 000c 1046     		mov	r0, r2
 4466              	.LVL468:
 4467              		.loc 1 907 0
 4468 000e 0093     		str	r3, [sp]
 4469 0010 0A46     		mov	r2, r1
 4470              	.LVL469:
 4471 0012 0346     		mov	r3, r0
 4472              	.LVL470:
 4473 0014 2146     		mov	r1, r4
 4474              	.LVL471:
 4475 0016 2846     		mov	r0, r5
 4476              	.LVL472:
 4477 0018 FFF7FEFF 		bl	_ZN7creator3I2C9ReadBytesEhhPhh
 4478              	.LVL473:
 4479              		.loc 1 908 0
 4480 001c 03B0     		add	sp, sp, #12
 4481              		@ sp needed
 4482 001e 30BD     		pop	{r4, r5, pc}
 4483              		.cfi_endproc
 4484              	.LFE66:
 4485              		.fnend
 4486              		.size	_ZN7LSM9DS110mReadBytesEhPhh, .-_ZN7LSM9DS110mReadBytesEhPhh
 4487              		.global	magSensitivity
 4488              		.section	.rodata.CSWTCH.42,"a",%progbits
 4489              		.align	2
 4490              		.set	.LANCHOR0,. + 0
ARM GAS  /tmp/ccxMPRSl.s 			page 81


 4491              		.type	CSWTCH.42, %object
 4492              		.size	CSWTCH.42, 9
 4493              	CSWTCH.42:
 4494 0000 20       		.byte	32
 4495 0001 00       		.byte	0
 4496 0002 00       		.byte	0
 4497 0003 00       		.byte	0
 4498 0004 40       		.byte	64
 4499 0005 00       		.byte	0
 4500 0006 00       		.byte	0
 4501 0007 00       		.byte	0
 4502 0008 60       		.byte	96
 4503 0009 000000   		.section	.data.magSensitivity,"aw",%progbits
 4504              		.align	2
 4505              		.set	.LANCHOR1,. + 0
 4506              		.type	magSensitivity, %object
 4507              		.size	magSensitivity, 16
 4508              	magSensitivity:
 4509 0000 F7CC1239 		.word	957533431
 4510 0004 240B9839 		.word	966265636
 4511 0008 9F71E139 		.word	971075999
 4512 000c 240B183A 		.word	974654244
 4513              		.text
 4514              	.Letext0:
 4515              		.file 2 "/home/santi/arm-2013.11/arm-none-eabi/include/stdint.h"
 4516              		.file 3 "lsm9ds1_types.h"
 4517              		.file 4 "../third_party/ChibiOS/os/hal/platforms/AT91SAM3S/SAM3S.h"
 4518              		.file 5 "../third_party/ChibiOS/os/hal/platforms/AT91SAM3S/async.h"
 4519              		.file 6 "../third_party/ChibiOS/os/hal/platforms/AT91SAM3S/atmel_twid.h"
 4520              		.file 7 "./i2c.h"
 4521              		.file 8 "lsm9ds1.h"
 4522              		.section	.debug_info,"",%progbits
 4523              	.Ldebug_info0:
 4524 0000 65350000 		.4byte	0x3565
 4525 0004 0400     		.2byte	0x4
 4526 0006 00000000 		.4byte	.Ldebug_abbrev0
 4527 000a 04       		.byte	0x4
 4528 000b 01       		.uleb128 0x1
 4529 000c D60A0000 		.4byte	.LASF298
 4530 0010 04       		.byte	0x4
 4531 0011 2C020000 		.4byte	.LASF299
 4532 0015 F3000000 		.4byte	.LASF300
 4533 0019 98060000 		.4byte	.Ldebug_ranges0+0x698
 4534 001d 00000000 		.4byte	0
 4535 0021 00000000 		.4byte	.Ldebug_line0
 4536 0025 02       		.uleb128 0x2
 4537 0026 04       		.byte	0x4
 4538 0027 05       		.byte	0x5
 4539 0028 696E7400 		.ascii	"int\000"
 4540 002c 03       		.uleb128 0x3
 4541 002d 04       		.byte	0x4
 4542 002e 07       		.byte	0x7
 4543 002f 80090000 		.4byte	.LASF0
 4544 0033 04       		.uleb128 0x4
 4545 0034 51000000 		.4byte	.LASF2
 4546 0038 02       		.byte	0x2
 4547 0039 29       		.byte	0x29
ARM GAS  /tmp/ccxMPRSl.s 			page 82


 4548 003a 3E000000 		.4byte	0x3e
 4549 003e 03       		.uleb128 0x3
 4550 003f 01       		.byte	0x1
 4551 0040 06       		.byte	0x6
 4552 0041 7C030000 		.4byte	.LASF1
 4553 0045 04       		.uleb128 0x4
 4554 0046 88030000 		.4byte	.LASF3
 4555 004a 02       		.byte	0x2
 4556 004b 2A       		.byte	0x2a
 4557 004c 50000000 		.4byte	0x50
 4558 0050 03       		.uleb128 0x3
 4559 0051 01       		.byte	0x1
 4560 0052 08       		.byte	0x8
 4561 0053 EA030000 		.4byte	.LASF4
 4562 0057 04       		.uleb128 0x4
 4563 0058 2F0F0000 		.4byte	.LASF5
 4564 005c 02       		.byte	0x2
 4565 005d 35       		.byte	0x35
 4566 005e 62000000 		.4byte	0x62
 4567 0062 03       		.uleb128 0x3
 4568 0063 02       		.byte	0x2
 4569 0064 05       		.byte	0x5
 4570 0065 0A0F0000 		.4byte	.LASF6
 4571 0069 04       		.uleb128 0x4
 4572 006a 800C0000 		.4byte	.LASF7
 4573 006e 02       		.byte	0x2
 4574 006f 36       		.byte	0x36
 4575 0070 74000000 		.4byte	0x74
 4576 0074 03       		.uleb128 0x3
 4577 0075 02       		.byte	0x2
 4578 0076 07       		.byte	0x7
 4579 0077 41100000 		.4byte	.LASF8
 4580 007b 03       		.uleb128 0x3
 4581 007c 04       		.byte	0x4
 4582 007d 05       		.byte	0x5
 4583 007e 9B020000 		.4byte	.LASF9
 4584 0082 04       		.uleb128 0x4
 4585 0083 FF0F0000 		.4byte	.LASF10
 4586 0087 02       		.byte	0x2
 4587 0088 50       		.byte	0x50
 4588 0089 8D000000 		.4byte	0x8d
 4589 008d 03       		.uleb128 0x3
 4590 008e 04       		.byte	0x4
 4591 008f 07       		.byte	0x7
 4592 0090 80060000 		.4byte	.LASF11
 4593 0094 03       		.uleb128 0x3
 4594 0095 08       		.byte	0x8
 4595 0096 05       		.byte	0x5
 4596 0097 54080000 		.4byte	.LASF12
 4597 009b 03       		.uleb128 0x3
 4598 009c 08       		.byte	0x8
 4599 009d 07       		.byte	0x7
 4600 009e 4A0C0000 		.4byte	.LASF13
 4601 00a2 05       		.uleb128 0x5
 4602 00a3 230A0000 		.4byte	.LASF16
 4603 00a7 01       		.byte	0x1
 4604 00a8 03       		.byte	0x3
ARM GAS  /tmp/ccxMPRSl.s 			page 83


 4605 00a9 1E       		.byte	0x1e
 4606 00aa BB000000 		.4byte	0xbb
 4607 00ae 06       		.uleb128 0x6
 4608 00af DB0B0000 		.4byte	.LASF14
 4609 00b3 00       		.sleb128 0
 4610 00b4 06       		.uleb128 0x6
 4611 00b5 C80B0000 		.4byte	.LASF15
 4612 00b9 01       		.sleb128 1
 4613 00ba 00       		.byte	0
 4614 00bb 05       		.uleb128 0x5
 4615 00bc 1C110000 		.4byte	.LASF17
 4616 00c0 01       		.byte	0x1
 4617 00c1 03       		.byte	0x3
 4618 00c2 65       		.byte	0x65
 4619 00c3 D4000000 		.4byte	0xd4
 4620 00c7 06       		.uleb128 0x6
 4621 00c8 EB090000 		.4byte	.LASF18
 4622 00cc 0C       		.sleb128 12
 4623 00cd 06       		.uleb128 0x6
 4624 00ce F3090000 		.4byte	.LASF19
 4625 00d2 0D       		.sleb128 13
 4626 00d3 00       		.byte	0
 4627 00d4 05       		.uleb128 0x5
 4628 00d5 D2010000 		.4byte	.LASF20
 4629 00d9 01       		.byte	0x1
 4630 00da 03       		.byte	0x3
 4631 00db 8D       		.byte	0x8d
 4632 00dc ED000000 		.4byte	0xed
 4633 00e0 06       		.uleb128 0x6
 4634 00e1 CB040000 		.4byte	.LASF21
 4635 00e5 00       		.sleb128 0
 4636 00e6 06       		.uleb128 0x6
 4637 00e7 6F000000 		.4byte	.LASF22
 4638 00eb 01       		.sleb128 1
 4639 00ec 00       		.byte	0
 4640 00ed 05       		.uleb128 0x5
 4641 00ee B40A0000 		.4byte	.LASF23
 4642 00f2 01       		.byte	0x1
 4643 00f3 03       		.byte	0x3
 4644 00f4 8F       		.byte	0x8f
 4645 00f5 06010000 		.4byte	0x106
 4646 00f9 06       		.uleb128 0x6
 4647 00fa 940C0000 		.4byte	.LASF24
 4648 00fe 00       		.sleb128 0
 4649 00ff 06       		.uleb128 0x6
 4650 0100 6C0E0000 		.4byte	.LASF25
 4651 0104 01       		.sleb128 1
 4652 0105 00       		.byte	0
 4653 0106 05       		.uleb128 0x5
 4654 0107 CE090000 		.4byte	.LASF26
 4655 010b 01       		.byte	0x1
 4656 010c 03       		.byte	0x3
 4657 010d 91       		.byte	0x91
 4658 010e 31010000 		.4byte	0x131
 4659 0112 06       		.uleb128 0x6
 4660 0113 8A100000 		.4byte	.LASF27
 4661 0117 00       		.sleb128 0
ARM GAS  /tmp/ccxMPRSl.s 			page 84


 4662 0118 06       		.uleb128 0x6
 4663 0119 66000000 		.4byte	.LASF28
 4664 011d 01       		.sleb128 1
 4665 011e 06       		.uleb128 0x6
 4666 011f 3A070000 		.4byte	.LASF29
 4667 0123 03       		.sleb128 3
 4668 0124 06       		.uleb128 0x6
 4669 0125 0A0C0000 		.4byte	.LASF30
 4670 0129 04       		.sleb128 4
 4671 012a 06       		.uleb128 0x6
 4672 012b C7050000 		.4byte	.LASF31
 4673 012f 05       		.sleb128 5
 4674 0130 00       		.byte	0
 4675 0131 07       		.uleb128 0x7
 4676 0132 7D100000 		.4byte	.LASF47
 4677 0136 12       		.byte	0x12
 4678 0137 03       		.byte	0x3
 4679 0138 99       		.byte	0x99
 4680 0139 F2010000 		.4byte	0x1f2
 4681 013d 08       		.uleb128 0x8
 4682 013e 78060000 		.4byte	.LASF32
 4683 0142 03       		.byte	0x3
 4684 0143 9B       		.byte	0x9b
 4685 0144 45000000 		.4byte	0x45
 4686 0148 00       		.byte	0
 4687 0149 08       		.uleb128 0x8
 4688 014a BD030000 		.4byte	.LASF33
 4689 014e 03       		.byte	0x3
 4690 014f 9C       		.byte	0x9c
 4691 0150 69000000 		.4byte	0x69
 4692 0154 02       		.byte	0x2
 4693 0155 08       		.uleb128 0x8
 4694 0156 0B090000 		.4byte	.LASF34
 4695 015a 03       		.byte	0x3
 4696 015b 9D       		.byte	0x9d
 4697 015c 45000000 		.4byte	0x45
 4698 0160 04       		.byte	0x4
 4699 0161 08       		.uleb128 0x8
 4700 0162 FB090000 		.4byte	.LASF35
 4701 0166 03       		.byte	0x3
 4702 0167 9F       		.byte	0x9f
 4703 0168 45000000 		.4byte	0x45
 4704 016c 05       		.byte	0x5
 4705 016d 08       		.uleb128 0x8
 4706 016e 7E000000 		.4byte	.LASF36
 4707 0172 03       		.byte	0x3
 4708 0173 A0       		.byte	0xa0
 4709 0174 45000000 		.4byte	0x45
 4710 0178 06       		.byte	0x6
 4711 0179 08       		.uleb128 0x8
 4712 017a BA010000 		.4byte	.LASF37
 4713 017e 03       		.byte	0x3
 4714 017f A1       		.byte	0xa1
 4715 0180 45000000 		.4byte	0x45
 4716 0184 07       		.byte	0x7
 4717 0185 08       		.uleb128 0x8
 4718 0186 870E0000 		.4byte	.LASF38
ARM GAS  /tmp/ccxMPRSl.s 			page 85


 4719 018a 03       		.byte	0x3
 4720 018b A2       		.byte	0xa2
 4721 018c 45000000 		.4byte	0x45
 4722 0190 08       		.byte	0x8
 4723 0191 08       		.uleb128 0x8
 4724 0192 6A030000 		.4byte	.LASF39
 4725 0196 03       		.byte	0x3
 4726 0197 A3       		.byte	0xa3
 4727 0198 45000000 		.4byte	0x45
 4728 019c 09       		.byte	0x9
 4729 019d 08       		.uleb128 0x8
 4730 019e 70030000 		.4byte	.LASF40
 4731 01a2 03       		.byte	0x3
 4732 01a3 A4       		.byte	0xa4
 4733 01a4 45000000 		.4byte	0x45
 4734 01a8 0A       		.byte	0xa
 4735 01a9 08       		.uleb128 0x8
 4736 01aa 76030000 		.4byte	.LASF41
 4737 01ae 03       		.byte	0x3
 4738 01af A5       		.byte	0xa5
 4739 01b0 45000000 		.4byte	0x45
 4740 01b4 0B       		.byte	0xb
 4741 01b5 08       		.uleb128 0x8
 4742 01b6 1D0F0000 		.4byte	.LASF42
 4743 01ba 03       		.byte	0x3
 4744 01bb A6       		.byte	0xa6
 4745 01bc 45000000 		.4byte	0x45
 4746 01c0 0C       		.byte	0xc
 4747 01c1 08       		.uleb128 0x8
 4748 01c2 60060000 		.4byte	.LASF43
 4749 01c6 03       		.byte	0x3
 4750 01c7 A7       		.byte	0xa7
 4751 01c8 45000000 		.4byte	0x45
 4752 01cc 0D       		.byte	0xd
 4753 01cd 08       		.uleb128 0x8
 4754 01ce 68060000 		.4byte	.LASF44
 4755 01d2 03       		.byte	0x3
 4756 01d3 A8       		.byte	0xa8
 4757 01d4 45000000 		.4byte	0x45
 4758 01d8 0E       		.byte	0xe
 4759 01d9 08       		.uleb128 0x8
 4760 01da 70060000 		.4byte	.LASF45
 4761 01de 03       		.byte	0x3
 4762 01df A9       		.byte	0xa9
 4763 01e0 45000000 		.4byte	0x45
 4764 01e4 0F       		.byte	0xf
 4765 01e5 08       		.uleb128 0x8
 4766 01e6 DC090000 		.4byte	.LASF46
 4767 01ea 03       		.byte	0x3
 4768 01eb AA       		.byte	0xaa
 4769 01ec 45000000 		.4byte	0x45
 4770 01f0 10       		.byte	0x10
 4771 01f1 00       		.byte	0
 4772 01f2 07       		.uleb128 0x7
 4773 01f3 BC040000 		.4byte	.LASF48
 4774 01f7 03       		.byte	0x3
 4775 01f8 03       		.byte	0x3
ARM GAS  /tmp/ccxMPRSl.s 			page 86


 4776 01f9 AD       		.byte	0xad
 4777 01fa 23020000 		.4byte	0x223
 4778 01fe 08       		.uleb128 0x8
 4779 01ff 6A070000 		.4byte	.LASF49
 4780 0203 03       		.byte	0x3
 4781 0204 AE       		.byte	0xae
 4782 0205 45000000 		.4byte	0x45
 4783 0209 00       		.byte	0
 4784 020a 08       		.uleb128 0x8
 4785 020b F5100000 		.4byte	.LASF50
 4786 020f 03       		.byte	0x3
 4787 0210 AF       		.byte	0xaf
 4788 0211 45000000 		.4byte	0x45
 4789 0215 01       		.byte	0x1
 4790 0216 08       		.uleb128 0x8
 4791 0217 C50A0000 		.4byte	.LASF51
 4792 021b 03       		.byte	0x3
 4793 021c B0       		.byte	0xb0
 4794 021d 45000000 		.4byte	0x45
 4795 0221 02       		.byte	0x2
 4796 0222 00       		.byte	0
 4797 0223 07       		.uleb128 0x7
 4798 0224 C4010000 		.4byte	.LASF52
 4799 0228 09       		.byte	0x9
 4800 0229 03       		.byte	0x3
 4801 022a B3       		.byte	0xb3
 4802 022b 9C020000 		.4byte	0x29c
 4803 022f 08       		.uleb128 0x8
 4804 0230 78060000 		.4byte	.LASF32
 4805 0234 03       		.byte	0x3
 4806 0235 B5       		.byte	0xb5
 4807 0236 45000000 		.4byte	0x45
 4808 023a 00       		.byte	0
 4809 023b 08       		.uleb128 0x8
 4810 023c BD030000 		.4byte	.LASF33
 4811 0240 03       		.byte	0x3
 4812 0241 B6       		.byte	0xb6
 4813 0242 45000000 		.4byte	0x45
 4814 0246 01       		.byte	0x1
 4815 0247 08       		.uleb128 0x8
 4816 0248 0B090000 		.4byte	.LASF34
 4817 024c 03       		.byte	0x3
 4818 024d B7       		.byte	0xb7
 4819 024e 45000000 		.4byte	0x45
 4820 0252 02       		.byte	0x2
 4821 0253 08       		.uleb128 0x8
 4822 0254 60060000 		.4byte	.LASF43
 4823 0258 03       		.byte	0x3
 4824 0259 B9       		.byte	0xb9
 4825 025a 45000000 		.4byte	0x45
 4826 025e 03       		.byte	0x3
 4827 025f 08       		.uleb128 0x8
 4828 0260 68060000 		.4byte	.LASF44
 4829 0264 03       		.byte	0x3
 4830 0265 BA       		.byte	0xba
 4831 0266 45000000 		.4byte	0x45
 4832 026a 04       		.byte	0x4
ARM GAS  /tmp/ccxMPRSl.s 			page 87


 4833 026b 08       		.uleb128 0x8
 4834 026c 70060000 		.4byte	.LASF45
 4835 0270 03       		.byte	0x3
 4836 0271 BB       		.byte	0xbb
 4837 0272 45000000 		.4byte	0x45
 4838 0276 05       		.byte	0x5
 4839 0277 08       		.uleb128 0x8
 4840 0278 FB090000 		.4byte	.LASF35
 4841 027c 03       		.byte	0x3
 4842 027d BC       		.byte	0xbc
 4843 027e 33000000 		.4byte	0x33
 4844 0282 06       		.byte	0x6
 4845 0283 08       		.uleb128 0x8
 4846 0284 580F0000 		.4byte	.LASF53
 4847 0288 03       		.byte	0x3
 4848 0289 BD       		.byte	0xbd
 4849 028a 45000000 		.4byte	0x45
 4850 028e 07       		.byte	0x7
 4851 028f 08       		.uleb128 0x8
 4852 0290 7D040000 		.4byte	.LASF54
 4853 0294 03       		.byte	0x3
 4854 0295 BE       		.byte	0xbe
 4855 0296 45000000 		.4byte	0x45
 4856 029a 08       		.byte	0x8
 4857 029b 00       		.byte	0
 4858 029c 07       		.uleb128 0x7
 4859 029d F1020000 		.4byte	.LASF55
 4860 02a1 08       		.byte	0x8
 4861 02a2 03       		.byte	0x3
 4862 02a3 C1       		.byte	0xc1
 4863 02a4 09030000 		.4byte	0x309
 4864 02a8 08       		.uleb128 0x8
 4865 02a9 78060000 		.4byte	.LASF32
 4866 02ad 03       		.byte	0x3
 4867 02ae C3       		.byte	0xc3
 4868 02af 45000000 		.4byte	0x45
 4869 02b3 00       		.byte	0
 4870 02b4 08       		.uleb128 0x8
 4871 02b5 BD030000 		.4byte	.LASF33
 4872 02b9 03       		.byte	0x3
 4873 02ba C4       		.byte	0xc4
 4874 02bb 45000000 		.4byte	0x45
 4875 02bf 01       		.byte	0x1
 4876 02c0 08       		.uleb128 0x8
 4877 02c1 0B090000 		.4byte	.LASF34
 4878 02c5 03       		.byte	0x3
 4879 02c6 C5       		.byte	0xc5
 4880 02c7 45000000 		.4byte	0x45
 4881 02cb 02       		.byte	0x2
 4882 02cc 08       		.uleb128 0x8
 4883 02cd B00E0000 		.4byte	.LASF56
 4884 02d1 03       		.byte	0x3
 4885 02d2 C7       		.byte	0xc7
 4886 02d3 45000000 		.4byte	0x45
 4887 02d7 03       		.byte	0x3
 4888 02d8 08       		.uleb128 0x8
 4889 02d9 03060000 		.4byte	.LASF57
ARM GAS  /tmp/ccxMPRSl.s 			page 88


 4890 02dd 03       		.byte	0x3
 4891 02de C8       		.byte	0xc8
 4892 02df 45000000 		.4byte	0x45
 4893 02e3 04       		.byte	0x4
 4894 02e4 08       		.uleb128 0x8
 4895 02e5 BF020000 		.4byte	.LASF58
 4896 02e9 03       		.byte	0x3
 4897 02ea C9       		.byte	0xc9
 4898 02eb 45000000 		.4byte	0x45
 4899 02ef 05       		.byte	0x5
 4900 02f0 08       		.uleb128 0x8
 4901 02f1 7E000000 		.4byte	.LASF36
 4902 02f5 03       		.byte	0x3
 4903 02f6 CA       		.byte	0xca
 4904 02f7 45000000 		.4byte	0x45
 4905 02fb 06       		.byte	0x6
 4906 02fc 08       		.uleb128 0x8
 4907 02fd 93080000 		.4byte	.LASF59
 4908 0301 03       		.byte	0x3
 4909 0302 CB       		.byte	0xcb
 4910 0303 45000000 		.4byte	0x45
 4911 0307 07       		.byte	0x7
 4912 0308 00       		.byte	0
 4913 0309 07       		.uleb128 0x7
 4914 030a 03080000 		.4byte	.LASF60
 4915 030e 01       		.byte	0x1
 4916 030f 03       		.byte	0x3
 4917 0310 CE       		.byte	0xce
 4918 0311 22030000 		.4byte	0x322
 4919 0315 08       		.uleb128 0x8
 4920 0316 78060000 		.4byte	.LASF32
 4921 031a 03       		.byte	0x3
 4922 031b D0       		.byte	0xd0
 4923 031c 45000000 		.4byte	0x45
 4924 0320 00       		.byte	0
 4925 0321 00       		.byte	0
 4926 0322 07       		.uleb128 0x7
 4927 0323 9E0A0000 		.4byte	.LASF61
 4928 0327 28       		.byte	0x28
 4929 0328 03       		.byte	0x3
 4930 0329 D3       		.byte	0xd3
 4931 032a 6B030000 		.4byte	0x36b
 4932 032e 08       		.uleb128 0x8
 4933 032f 3A0C0000 		.4byte	.LASF62
 4934 0333 03       		.byte	0x3
 4935 0334 D4       		.byte	0xd4
 4936 0335 F2010000 		.4byte	0x1f2
 4937 0339 00       		.byte	0
 4938 033a 08       		.uleb128 0x8
 4939 033b B7040000 		.4byte	.LASF63
 4940 033f 03       		.byte	0x3
 4941 0340 D6       		.byte	0xd6
 4942 0341 31010000 		.4byte	0x131
 4943 0345 04       		.byte	0x4
 4944 0346 08       		.uleb128 0x8
 4945 0347 B80F0000 		.4byte	.LASF64
 4946 034b 03       		.byte	0x3
ARM GAS  /tmp/ccxMPRSl.s 			page 89


 4947 034c D7       		.byte	0xd7
 4948 034d 23020000 		.4byte	0x223
 4949 0351 16       		.byte	0x16
 4950 0352 09       		.uleb128 0x9
 4951 0353 6D616700 		.ascii	"mag\000"
 4952 0357 03       		.byte	0x3
 4953 0358 D8       		.byte	0xd8
 4954 0359 9C020000 		.4byte	0x29c
 4955 035d 1F       		.byte	0x1f
 4956 035e 08       		.uleb128 0x8
 4957 035f 08110000 		.4byte	.LASF65
 4958 0363 03       		.byte	0x3
 4959 0364 DA       		.byte	0xda
 4960 0365 09030000 		.4byte	0x309
 4961 0369 27       		.byte	0x27
 4962 036a 00       		.byte	0
 4963 036b 0A       		.uleb128 0xa
 4964 036c 04       		.byte	0x4
 4965 036d 0B       		.uleb128 0xb
 4966 036e 45000000 		.4byte	0x45
 4967 0372 0B       		.uleb128 0xb
 4968 0373 82000000 		.4byte	0x82
 4969 0377 03       		.uleb128 0x3
 4970 0378 04       		.byte	0x4
 4971 0379 07       		.byte	0x7
 4972 037a 58000000 		.4byte	.LASF66
 4973 037e 0C       		.uleb128 0xc
 4974 037f 8D000000 		.4byte	0x8d
 4975 0383 8E030000 		.4byte	0x38e
 4976 0387 0D       		.uleb128 0xd
 4977 0388 77030000 		.4byte	0x377
 4978 038c 02       		.byte	0x2
 4979 038d 00       		.byte	0
 4980 038e 0C       		.uleb128 0xc
 4981 038f 8D000000 		.4byte	0x8d
 4982 0393 9E030000 		.4byte	0x39e
 4983 0397 0D       		.uleb128 0xd
 4984 0398 77030000 		.4byte	0x377
 4985 039c 03       		.byte	0x3
 4986 039d 00       		.byte	0
 4987 039e 03       		.uleb128 0x3
 4988 039f 01       		.byte	0x1
 4989 03a0 08       		.byte	0x8
 4990 03a1 8E040000 		.4byte	.LASF67
 4991 03a5 0E       		.uleb128 0xe
 4992 03a6 04       		.byte	0x4
 4993 03a7 45000000 		.4byte	0x45
 4994 03ab 04       		.uleb128 0x4
 4995 03ac 290F0000 		.4byte	.LASF68
 4996 03b0 04       		.byte	0x4
 4997 03b1 37       		.byte	0x37
 4998 03b2 72030000 		.4byte	0x372
 4999 03b6 04       		.uleb128 0x4
 5000 03b7 BD000000 		.4byte	.LASF69
 5001 03bb 04       		.byte	0x4
 5002 03bc 39       		.byte	0x39
 5003 03bd 72030000 		.4byte	0x372
ARM GAS  /tmp/ccxMPRSl.s 			page 90


 5004 03c1 04       		.uleb128 0x4
 5005 03c2 B20F0000 		.4byte	.LASF70
 5006 03c6 04       		.byte	0x4
 5007 03c7 3A       		.byte	0x3a
 5008 03c8 72030000 		.4byte	0x372
 5009 03cc 0F       		.uleb128 0xf
 5010 03cd 2801     		.2byte	0x128
 5011 03cf 04       		.byte	0x4
 5012 03d0 5616     		.2byte	0x1656
 5013 03d2 E90C0000 		.4byte	.LASF301
 5014 03d6 10050000 		.4byte	0x510
 5015 03da 10       		.uleb128 0x10
 5016 03db 53050000 		.4byte	.LASF71
 5017 03df 04       		.byte	0x4
 5018 03e0 5716     		.2byte	0x1657
 5019 03e2 B6030000 		.4byte	0x3b6
 5020 03e6 00       		.byte	0
 5021 03e7 10       		.uleb128 0x10
 5022 03e8 CE0A0000 		.4byte	.LASF72
 5023 03ec 04       		.byte	0x4
 5024 03ed 5816     		.2byte	0x1658
 5025 03ef C1030000 		.4byte	0x3c1
 5026 03f3 04       		.byte	0x4
 5027 03f4 10       		.uleb128 0x10
 5028 03f5 8B0F0000 		.4byte	.LASF73
 5029 03f9 04       		.byte	0x4
 5030 03fa 5916     		.2byte	0x1659
 5031 03fc C1030000 		.4byte	0x3c1
 5032 0400 08       		.byte	0x8
 5033 0401 10       		.uleb128 0x10
 5034 0402 90030000 		.4byte	.LASF74
 5035 0406 04       		.byte	0x4
 5036 0407 5A16     		.2byte	0x165a
 5037 0409 C1030000 		.4byte	0x3c1
 5038 040d 0C       		.byte	0xc
 5039 040e 10       		.uleb128 0x10
 5040 040f F60C0000 		.4byte	.LASF75
 5041 0413 04       		.byte	0x4
 5042 0414 5B16     		.2byte	0x165b
 5043 0416 C1030000 		.4byte	0x3c1
 5044 041a 10       		.byte	0x10
 5045 041b 10       		.uleb128 0x10
 5046 041c 1B0E0000 		.4byte	.LASF76
 5047 0420 04       		.byte	0x4
 5048 0421 5C16     		.2byte	0x165c
 5049 0423 10050000 		.4byte	0x510
 5050 0427 14       		.byte	0x14
 5051 0428 10       		.uleb128 0x10
 5052 0429 EB010000 		.4byte	.LASF77
 5053 042d 04       		.byte	0x4
 5054 042e 5D16     		.2byte	0x165d
 5055 0430 AB030000 		.4byte	0x3ab
 5056 0434 20       		.byte	0x20
 5057 0435 10       		.uleb128 0x10
 5058 0436 9D090000 		.4byte	.LASF78
 5059 043a 04       		.byte	0x4
 5060 043b 5E16     		.2byte	0x165e
ARM GAS  /tmp/ccxMPRSl.s 			page 91


 5061 043d B6030000 		.4byte	0x3b6
 5062 0441 24       		.byte	0x24
 5063 0442 10       		.uleb128 0x10
 5064 0443 44090000 		.4byte	.LASF79
 5065 0447 04       		.byte	0x4
 5066 0448 5F16     		.2byte	0x165f
 5067 044a B6030000 		.4byte	0x3b6
 5068 044e 28       		.byte	0x28
 5069 044f 10       		.uleb128 0x10
 5070 0450 370F0000 		.4byte	.LASF80
 5071 0454 04       		.byte	0x4
 5072 0455 6016     		.2byte	0x1660
 5073 0457 AB030000 		.4byte	0x3ab
 5074 045b 2C       		.byte	0x2c
 5075 045c 10       		.uleb128 0x10
 5076 045d 17080000 		.4byte	.LASF81
 5077 0461 04       		.byte	0x4
 5078 0462 6116     		.2byte	0x1661
 5079 0464 AB030000 		.4byte	0x3ab
 5080 0468 30       		.byte	0x30
 5081 0469 10       		.uleb128 0x10
 5082 046a D60F0000 		.4byte	.LASF82
 5083 046e 04       		.byte	0x4
 5084 046f 6216     		.2byte	0x1662
 5085 0471 B6030000 		.4byte	0x3b6
 5086 0475 34       		.byte	0x34
 5087 0476 10       		.uleb128 0x10
 5088 0477 250E0000 		.4byte	.LASF83
 5089 047b 04       		.byte	0x4
 5090 047c 6316     		.2byte	0x1663
 5091 047e 25050000 		.4byte	0x525
 5092 0482 38       		.byte	0x38
 5093 0483 11       		.uleb128 0x11
 5094 0484 A00D0000 		.4byte	.LASF84
 5095 0488 04       		.byte	0x4
 5096 0489 6416     		.2byte	0x1664
 5097 048b C1030000 		.4byte	0x3c1
 5098 048f 0001     		.2byte	0x100
 5099 0491 11       		.uleb128 0x11
 5100 0492 5A050000 		.4byte	.LASF85
 5101 0496 04       		.byte	0x4
 5102 0497 6516     		.2byte	0x1665
 5103 0499 C1030000 		.4byte	0x3c1
 5104 049d 0401     		.2byte	0x104
 5105 049f 11       		.uleb128 0x11
 5106 04a0 A4020000 		.4byte	.LASF86
 5107 04a4 04       		.byte	0x4
 5108 04a5 6616     		.2byte	0x1666
 5109 04a7 C1030000 		.4byte	0x3c1
 5110 04ab 0801     		.2byte	0x108
 5111 04ad 11       		.uleb128 0x11
 5112 04ae 340D0000 		.4byte	.LASF87
 5113 04b2 04       		.byte	0x4
 5114 04b3 6716     		.2byte	0x1667
 5115 04b5 C1030000 		.4byte	0x3c1
 5116 04b9 0C01     		.2byte	0x10c
 5117 04bb 11       		.uleb128 0x11
ARM GAS  /tmp/ccxMPRSl.s 			page 92


 5118 04bc DA0D0000 		.4byte	.LASF88
 5119 04c0 04       		.byte	0x4
 5120 04c1 6816     		.2byte	0x1668
 5121 04c3 C1030000 		.4byte	0x3c1
 5122 04c7 1001     		.2byte	0x110
 5123 04c9 11       		.uleb128 0x11
 5124 04ca BE050000 		.4byte	.LASF89
 5125 04ce 04       		.byte	0x4
 5126 04cf 6916     		.2byte	0x1669
 5127 04d1 C1030000 		.4byte	0x3c1
 5128 04d5 1401     		.2byte	0x114
 5129 04d7 11       		.uleb128 0x11
 5130 04d8 3D0E0000 		.4byte	.LASF90
 5131 04dc 04       		.byte	0x4
 5132 04dd 6A16     		.2byte	0x166a
 5133 04df C1030000 		.4byte	0x3c1
 5134 04e3 1801     		.2byte	0x118
 5135 04e5 11       		.uleb128 0x11
 5136 04e6 E5050000 		.4byte	.LASF91
 5137 04ea 04       		.byte	0x4
 5138 04eb 6B16     		.2byte	0x166b
 5139 04ed C1030000 		.4byte	0x3c1
 5140 04f1 1C01     		.2byte	0x11c
 5141 04f3 11       		.uleb128 0x11
 5142 04f4 59090000 		.4byte	.LASF92
 5143 04f8 04       		.byte	0x4
 5144 04f9 6C16     		.2byte	0x166c
 5145 04fb B6030000 		.4byte	0x3b6
 5146 04ff 2001     		.2byte	0x120
 5147 0501 11       		.uleb128 0x11
 5148 0502 2F010000 		.4byte	.LASF93
 5149 0506 04       		.byte	0x4
 5150 0507 6D16     		.2byte	0x166d
 5151 0509 AB030000 		.4byte	0x3ab
 5152 050d 2401     		.2byte	0x124
 5153 050f 00       		.byte	0
 5154 0510 0B       		.uleb128 0xb
 5155 0511 7E030000 		.4byte	0x37e
 5156 0515 0C       		.uleb128 0xc
 5157 0516 8D000000 		.4byte	0x8d
 5158 051a 25050000 		.4byte	0x525
 5159 051e 0D       		.uleb128 0xd
 5160 051f 77030000 		.4byte	0x377
 5161 0523 31       		.byte	0x31
 5162 0524 00       		.byte	0
 5163 0525 0B       		.uleb128 0xb
 5164 0526 15050000 		.4byte	0x515
 5165 052a 12       		.uleb128 0x12
 5166 052b 54776900 		.ascii	"Twi\000"
 5167 052f 04       		.byte	0x4
 5168 0530 6E16     		.2byte	0x166e
 5169 0532 CC030000 		.4byte	0x3cc
 5170 0536 07       		.uleb128 0x7
 5171 0537 54100000 		.4byte	.LASF94
 5172 053b 18       		.byte	0x18
 5173 053c 05       		.byte	0x5
 5174 053d 3C       		.byte	0x3c
ARM GAS  /tmp/ccxMPRSl.s 			page 93


 5175 053e 67050000 		.4byte	0x567
 5176 0542 08       		.uleb128 0x8
 5177 0543 98060000 		.4byte	.LASF95
 5178 0547 05       		.byte	0x5
 5179 0548 3F       		.byte	0x3f
 5180 0549 6D030000 		.4byte	0x36d
 5181 054d 00       		.byte	0
 5182 054e 08       		.uleb128 0x8
 5183 054f 13020000 		.4byte	.LASF96
 5184 0553 05       		.byte	0x5
 5185 0554 41       		.byte	0x41
 5186 0555 6B030000 		.4byte	0x36b
 5187 0559 04       		.byte	0x4
 5188 055a 08       		.uleb128 0x8
 5189 055b 69050000 		.4byte	.LASF97
 5190 055f 05       		.byte	0x5
 5191 0560 43       		.byte	0x43
 5192 0561 8E030000 		.4byte	0x38e
 5193 0565 08       		.byte	0x8
 5194 0566 00       		.byte	0
 5195 0567 04       		.uleb128 0x4
 5196 0568 BF0A0000 		.4byte	.LASF98
 5197 056c 05       		.byte	0x5
 5198 056d 44       		.byte	0x44
 5199 056e 36050000 		.4byte	0x536
 5200 0572 07       		.uleb128 0x7
 5201 0573 C60D0000 		.4byte	.LASF99
 5202 0577 08       		.byte	0x8
 5203 0578 06       		.byte	0x6
 5204 0579 3B       		.byte	0x3b
 5205 057a 97050000 		.4byte	0x597
 5206 057e 08       		.uleb128 0x8
 5207 057f 06090000 		.4byte	.LASF100
 5208 0583 06       		.byte	0x6
 5209 0584 3E       		.byte	0x3e
 5210 0585 97050000 		.4byte	0x597
 5211 0589 00       		.byte	0
 5212 058a 08       		.uleb128 0x8
 5213 058b F9070000 		.4byte	.LASF101
 5214 058f 06       		.byte	0x6
 5215 0590 40       		.byte	0x40
 5216 0591 9D050000 		.4byte	0x59d
 5217 0595 04       		.byte	0x4
 5218 0596 00       		.byte	0
 5219 0597 0E       		.uleb128 0xe
 5220 0598 04       		.byte	0x4
 5221 0599 2A050000 		.4byte	0x52a
 5222 059d 0E       		.uleb128 0xe
 5223 059e 04       		.byte	0x4
 5224 059f 67050000 		.4byte	0x567
 5225 05a3 04       		.uleb128 0x4
 5226 05a4 FA0F0000 		.4byte	.LASF102
 5227 05a8 06       		.byte	0x6
 5228 05a9 41       		.byte	0x41
 5229 05aa 72050000 		.4byte	0x572
 5230 05ae 13       		.uleb128 0x13
 5231 05af 08100000 		.4byte	.LASF302
ARM GAS  /tmp/ccxMPRSl.s 			page 94


 5232 05b3 07       		.byte	0x7
 5233 05b4 1C       		.byte	0x1c
 5234 05b5 AF060000 		.4byte	0x6af
 5235 05b9 14       		.uleb128 0x14
 5236 05ba 49324300 		.ascii	"I2C\000"
 5237 05be 08       		.byte	0x8
 5238 05bf 07       		.byte	0x7
 5239 05c0 1E       		.byte	0x1e
 5240 05c1 08       		.uleb128 0x8
 5241 05c2 00090000 		.4byte	.LASF103
 5242 05c6 07       		.byte	0x7
 5243 05c7 2C       		.byte	0x2c
 5244 05c8 A3050000 		.4byte	0x5a3
 5245 05cc 00       		.byte	0
 5246 05cd 15       		.uleb128 0x15
 5247 05ce 320A0000 		.4byte	.LASF104
 5248 05d2 07       		.byte	0x7
 5249 05d3 20       		.byte	0x20
 5250 05d4 C5060000 		.4byte	.LASF106
 5251 05d8 01       		.byte	0x1
 5252 05d9 E1050000 		.4byte	0x5e1
 5253 05dd E7050000 		.4byte	0x5e7
 5254 05e1 16       		.uleb128 0x16
 5255 05e2 AF060000 		.4byte	0x6af
 5256 05e6 00       		.byte	0
 5257 05e7 15       		.uleb128 0x15
 5258 05e8 AC020000 		.4byte	.LASF105
 5259 05ec 07       		.byte	0x7
 5260 05ed 22       		.byte	0x22
 5261 05ee 6A0D0000 		.4byte	.LASF107
 5262 05f2 01       		.byte	0x1
 5263 05f3 FB050000 		.4byte	0x5fb
 5264 05f7 10060000 		.4byte	0x610
 5265 05fb 16       		.uleb128 0x16
 5266 05fc AF060000 		.4byte	0x6af
 5267 0600 17       		.uleb128 0x17
 5268 0601 45000000 		.4byte	0x45
 5269 0605 17       		.uleb128 0x17
 5270 0606 45000000 		.4byte	0x45
 5271 060a 17       		.uleb128 0x17
 5272 060b 45000000 		.4byte	0x45
 5273 060f 00       		.byte	0
 5274 0610 15       		.uleb128 0x15
 5275 0611 AC020000 		.4byte	.LASF105
 5276 0615 07       		.byte	0x7
 5277 0616 24       		.byte	0x24
 5278 0617 810A0000 		.4byte	.LASF108
 5279 061b 01       		.byte	0x1
 5280 061c 24060000 		.4byte	0x624
 5281 0620 34060000 		.4byte	0x634
 5282 0624 16       		.uleb128 0x16
 5283 0625 AF060000 		.4byte	0x6af
 5284 0629 17       		.uleb128 0x17
 5285 062a 45000000 		.4byte	0x45
 5286 062e 17       		.uleb128 0x17
 5287 062f 45000000 		.4byte	0x45
 5288 0633 00       		.byte	0
ARM GAS  /tmp/ccxMPRSl.s 			page 95


 5289 0634 18       		.uleb128 0x18
 5290 0635 94090000 		.4byte	.LASF109
 5291 0639 07       		.byte	0x7
 5292 063a 26       		.byte	0x26
 5293 063b A1080000 		.4byte	.LASF110
 5294 063f 45000000 		.4byte	0x45
 5295 0643 01       		.byte	0x1
 5296 0644 4C060000 		.4byte	0x64c
 5297 0648 5C060000 		.4byte	0x65c
 5298 064c 16       		.uleb128 0x16
 5299 064d AF060000 		.4byte	0x6af
 5300 0651 17       		.uleb128 0x17
 5301 0652 45000000 		.4byte	0x45
 5302 0656 17       		.uleb128 0x17
 5303 0657 45000000 		.4byte	0x45
 5304 065b 00       		.byte	0
 5305 065c 18       		.uleb128 0x18
 5306 065d 94090000 		.4byte	.LASF109
 5307 0661 07       		.byte	0x7
 5308 0662 27       		.byte	0x27
 5309 0663 EF0E0000 		.4byte	.LASF111
 5310 0667 45000000 		.4byte	0x45
 5311 066b 01       		.byte	0x1
 5312 066c 74060000 		.4byte	0x674
 5313 0670 7F060000 		.4byte	0x67f
 5314 0674 16       		.uleb128 0x16
 5315 0675 AF060000 		.4byte	0x6af
 5316 0679 17       		.uleb128 0x17
 5317 067a 45000000 		.4byte	0x45
 5318 067e 00       		.byte	0
 5319 067f 19       		.uleb128 0x19
 5320 0680 37110000 		.4byte	.LASF112
 5321 0684 07       		.byte	0x7
 5322 0685 28       		.byte	0x28
 5323 0686 7F0B0000 		.4byte	.LASF113
 5324 068a 45000000 		.4byte	0x45
 5325 068e 01       		.byte	0x1
 5326 068f 93060000 		.4byte	0x693
 5327 0693 16       		.uleb128 0x16
 5328 0694 AF060000 		.4byte	0x6af
 5329 0698 17       		.uleb128 0x17
 5330 0699 45000000 		.4byte	0x45
 5331 069d 17       		.uleb128 0x17
 5332 069e 45000000 		.4byte	0x45
 5333 06a2 17       		.uleb128 0x17
 5334 06a3 A5030000 		.4byte	0x3a5
 5335 06a7 17       		.uleb128 0x17
 5336 06a8 45000000 		.4byte	0x45
 5337 06ac 00       		.byte	0
 5338 06ad 00       		.byte	0
 5339 06ae 00       		.byte	0
 5340 06af 0E       		.uleb128 0xe
 5341 06b0 04       		.byte	0x4
 5342 06b1 B9050000 		.4byte	0x5b9
 5343 06b5 05       		.uleb128 0x5
 5344 06b6 93100000 		.4byte	.LASF114
 5345 06ba 01       		.byte	0x1
ARM GAS  /tmp/ccxMPRSl.s 			page 96


 5346 06bb 08       		.byte	0x8
 5347 06bc 21       		.byte	0x21
 5348 06bd DA060000 		.4byte	0x6da
 5349 06c1 06       		.uleb128 0x6
 5350 06c2 42030000 		.4byte	.LASF115
 5351 06c6 00       		.sleb128 0
 5352 06c7 06       		.uleb128 0x6
 5353 06c8 E80E0000 		.4byte	.LASF116
 5354 06cc 01       		.sleb128 1
 5355 06cd 06       		.uleb128 0x6
 5356 06ce A7060000 		.4byte	.LASF117
 5357 06d2 02       		.sleb128 2
 5358 06d3 06       		.uleb128 0x6
 5359 06d4 16090000 		.4byte	.LASF118
 5360 06d8 03       		.sleb128 3
 5361 06d9 00       		.byte	0
 5362 06da 1A       		.uleb128 0x1a
 5363 06db 00000000 		.4byte	.LASF134
 5364 06df 88       		.byte	0x88
 5365 06e0 08       		.byte	0x8
 5366 06e1 23       		.byte	0x23
 5367 06e2 11100000 		.4byte	0x1011
 5368 06e6 1B       		.uleb128 0x1b
 5369 06e7 5D010000 		.4byte	.LASF119
 5370 06eb 08       		.byte	0x8
 5371 06ec 25       		.byte	0x25
 5372 06ed 22030000 		.4byte	0x322
 5373 06f1 00       		.byte	0
 5374 06f2 01       		.byte	0x1
 5375 06f3 1C       		.uleb128 0x1c
 5376 06f4 677800   		.ascii	"gx\000"
 5377 06f7 08       		.byte	0x8
 5378 06f8 2C       		.byte	0x2c
 5379 06f9 57000000 		.4byte	0x57
 5380 06fd 28       		.byte	0x28
 5381 06fe 01       		.byte	0x1
 5382 06ff 1C       		.uleb128 0x1c
 5383 0700 677900   		.ascii	"gy\000"
 5384 0703 08       		.byte	0x8
 5385 0704 2C       		.byte	0x2c
 5386 0705 57000000 		.4byte	0x57
 5387 0709 2A       		.byte	0x2a
 5388 070a 01       		.byte	0x1
 5389 070b 1C       		.uleb128 0x1c
 5390 070c 677A00   		.ascii	"gz\000"
 5391 070f 08       		.byte	0x8
 5392 0710 2C       		.byte	0x2c
 5393 0711 57000000 		.4byte	0x57
 5394 0715 2C       		.byte	0x2c
 5395 0716 01       		.byte	0x1
 5396 0717 1C       		.uleb128 0x1c
 5397 0718 617800   		.ascii	"ax\000"
 5398 071b 08       		.byte	0x8
 5399 071c 2D       		.byte	0x2d
 5400 071d 57000000 		.4byte	0x57
 5401 0721 2E       		.byte	0x2e
 5402 0722 01       		.byte	0x1
ARM GAS  /tmp/ccxMPRSl.s 			page 97


 5403 0723 1C       		.uleb128 0x1c
 5404 0724 617900   		.ascii	"ay\000"
 5405 0727 08       		.byte	0x8
 5406 0728 2D       		.byte	0x2d
 5407 0729 57000000 		.4byte	0x57
 5408 072d 30       		.byte	0x30
 5409 072e 01       		.byte	0x1
 5410 072f 1C       		.uleb128 0x1c
 5411 0730 617A00   		.ascii	"az\000"
 5412 0733 08       		.byte	0x8
 5413 0734 2D       		.byte	0x2d
 5414 0735 57000000 		.4byte	0x57
 5415 0739 32       		.byte	0x32
 5416 073a 01       		.byte	0x1
 5417 073b 1C       		.uleb128 0x1c
 5418 073c 6D7800   		.ascii	"mx\000"
 5419 073f 08       		.byte	0x8
 5420 0740 2E       		.byte	0x2e
 5421 0741 57000000 		.4byte	0x57
 5422 0745 34       		.byte	0x34
 5423 0746 01       		.byte	0x1
 5424 0747 1C       		.uleb128 0x1c
 5425 0748 6D7900   		.ascii	"my\000"
 5426 074b 08       		.byte	0x8
 5427 074c 2E       		.byte	0x2e
 5428 074d 57000000 		.4byte	0x57
 5429 0751 36       		.byte	0x36
 5430 0752 01       		.byte	0x1
 5431 0753 1C       		.uleb128 0x1c
 5432 0754 6D7A00   		.ascii	"mz\000"
 5433 0757 08       		.byte	0x8
 5434 0758 2E       		.byte	0x2e
 5435 0759 57000000 		.4byte	0x57
 5436 075d 38       		.byte	0x38
 5437 075e 01       		.byte	0x1
 5438 075f 1B       		.uleb128 0x1b
 5439 0760 A80D0000 		.4byte	.LASF120
 5440 0764 08       		.byte	0x8
 5441 0765 2F       		.byte	0x2f
 5442 0766 57000000 		.4byte	0x57
 5443 076a 3A       		.byte	0x3a
 5444 076b 01       		.byte	0x1
 5445 076c 1B       		.uleb128 0x1b
 5446 076d DF050000 		.4byte	.LASF121
 5447 0771 08       		.byte	0x8
 5448 0772 30       		.byte	0x30
 5449 0773 11100000 		.4byte	0x1011
 5450 0777 3C       		.byte	0x3c
 5451 0778 01       		.byte	0x1
 5452 0779 1B       		.uleb128 0x1b
 5453 077a 89050000 		.4byte	.LASF122
 5454 077e 08       		.byte	0x8
 5455 077f 30       		.byte	0x30
 5456 0780 11100000 		.4byte	0x1011
 5457 0784 48       		.byte	0x48
 5458 0785 01       		.byte	0x1
 5459 0786 1B       		.uleb128 0x1b
ARM GAS  /tmp/ccxMPRSl.s 			page 98


 5460 0787 92060000 		.4byte	.LASF123
 5461 078b 08       		.byte	0x8
 5462 078c 30       		.byte	0x30
 5463 078d 11100000 		.4byte	0x1011
 5464 0791 54       		.byte	0x54
 5465 0792 01       		.byte	0x1
 5466 0793 1B       		.uleb128 0x1b
 5467 0794 140F0000 		.4byte	.LASF124
 5468 0798 08       		.byte	0x8
 5469 0799 31       		.byte	0x31
 5470 079a 28100000 		.4byte	0x1028
 5471 079e 60       		.byte	0x60
 5472 079f 01       		.byte	0x1
 5473 07a0 1B       		.uleb128 0x1b
 5474 07a1 270C0000 		.4byte	.LASF125
 5475 07a5 08       		.byte	0x8
 5476 07a6 31       		.byte	0x31
 5477 07a7 28100000 		.4byte	0x1028
 5478 07ab 66       		.byte	0x66
 5479 07ac 01       		.byte	0x1
 5480 07ad 1B       		.uleb128 0x1b
 5481 07ae FF100000 		.4byte	.LASF126
 5482 07b2 08       		.byte	0x8
 5483 07b3 31       		.byte	0x31
 5484 07b4 28100000 		.4byte	0x1028
 5485 07b8 6C       		.byte	0x6c
 5486 07b9 01       		.byte	0x1
 5487 07ba 1D       		.uleb128 0x1d
 5488 07bb 9F0B0000 		.4byte	.LASF127
 5489 07bf 08       		.byte	0x8
 5490 07c0 5601     		.2byte	0x156
 5491 07c2 45000000 		.4byte	0x45
 5492 07c6 72       		.byte	0x72
 5493 07c7 02       		.byte	0x2
 5494 07c8 1D       		.uleb128 0x1d
 5495 07c9 5B100000 		.4byte	.LASF128
 5496 07cd 08       		.byte	0x8
 5497 07ce 5601     		.2byte	0x156
 5498 07d0 45000000 		.4byte	0x45
 5499 07d4 73       		.byte	0x73
 5500 07d5 02       		.byte	0x2
 5501 07d6 1D       		.uleb128 0x1d
 5502 07d7 41110000 		.4byte	.LASF129
 5503 07db 08       		.byte	0x8
 5504 07dc 5B01     		.2byte	0x15b
 5505 07de 21100000 		.4byte	0x1021
 5506 07e2 74       		.byte	0x74
 5507 07e3 02       		.byte	0x2
 5508 07e4 1D       		.uleb128 0x1d
 5509 07e5 E4100000 		.4byte	.LASF130
 5510 07e9 08       		.byte	0x8
 5511 07ea 5B01     		.2byte	0x15b
 5512 07ec 21100000 		.4byte	0x1021
 5513 07f0 78       		.byte	0x78
 5514 07f1 02       		.byte	0x2
 5515 07f2 1D       		.uleb128 0x1d
 5516 07f3 61000000 		.4byte	.LASF131
ARM GAS  /tmp/ccxMPRSl.s 			page 99


 5517 07f7 08       		.byte	0x8
 5518 07f8 5B01     		.2byte	0x15b
 5519 07fa 21100000 		.4byte	0x1021
 5520 07fe 7C       		.byte	0x7c
 5521 07ff 02       		.byte	0x2
 5522 0800 1D       		.uleb128 0x1d
 5523 0801 36040000 		.4byte	.LASF132
 5524 0805 08       		.byte	0x8
 5525 0806 5F01     		.2byte	0x15f
 5526 0808 38100000 		.4byte	0x1038
 5527 080c 80       		.byte	0x80
 5528 080d 02       		.byte	0x2
 5529 080e 10       		.uleb128 0x10
 5530 080f E7070000 		.4byte	.LASF133
 5531 0813 08       		.byte	0x8
 5532 0814 F201     		.2byte	0x1f2
 5533 0816 AF060000 		.4byte	0x6af
 5534 081a 84       		.byte	0x84
 5535 081b 1E       		.uleb128 0x1e
 5536 081c 00000000 		.4byte	.LASF134
 5537 0820 08       		.byte	0x8
 5538 0821 44       		.byte	0x44
 5539 0822 3F100000 		.4byte	0x103f
 5540 0826 01       		.byte	0x1
 5541 0827 2F080000 		.4byte	0x82f
 5542 082b 49080000 		.4byte	0x849
 5543 082f 16       		.uleb128 0x16
 5544 0830 3F100000 		.4byte	0x103f
 5545 0834 17       		.uleb128 0x17
 5546 0835 AF060000 		.4byte	0x6af
 5547 0839 17       		.uleb128 0x17
 5548 083a A2000000 		.4byte	0xa2
 5549 083e 17       		.uleb128 0x17
 5550 083f 45000000 		.4byte	0x45
 5551 0843 17       		.uleb128 0x17
 5552 0844 45000000 		.4byte	0x45
 5553 0848 00       		.byte	0
 5554 0849 1E       		.uleb128 0x1e
 5555 084a 00000000 		.4byte	.LASF134
 5556 084e 08       		.byte	0x8
 5557 084f 46       		.byte	0x46
 5558 0850 3F100000 		.4byte	0x103f
 5559 0854 01       		.byte	0x1
 5560 0855 5D080000 		.4byte	0x85d
 5561 0859 68080000 		.4byte	0x868
 5562 085d 16       		.uleb128 0x16
 5563 085e 3F100000 		.4byte	0x103f
 5564 0862 17       		.uleb128 0x17
 5565 0863 AF060000 		.4byte	0x6af
 5566 0867 00       		.byte	0
 5567 0868 18       		.uleb128 0x18
 5568 0869 D50B0000 		.4byte	.LASF135
 5569 086d 08       		.byte	0x8
 5570 086e 4B       		.byte	0x4b
 5571 086f 050A0000 		.4byte	.LASF136
 5572 0873 69000000 		.4byte	0x69
 5573 0877 01       		.byte	0x1
ARM GAS  /tmp/ccxMPRSl.s 			page 100


 5574 0878 80080000 		.4byte	0x880
 5575 087c 86080000 		.4byte	0x886
 5576 0880 16       		.uleb128 0x16
 5577 0881 3F100000 		.4byte	0x103f
 5578 0885 00       		.byte	0
 5579 0886 15       		.uleb128 0x15
 5580 0887 AA0A0000 		.4byte	.LASF137
 5581 088b 08       		.byte	0x8
 5582 088c 4D       		.byte	0x4d
 5583 088d 10100000 		.4byte	.LASF138
 5584 0891 01       		.byte	0x1
 5585 0892 9A080000 		.4byte	0x89a
 5586 0896 A5080000 		.4byte	0x8a5
 5587 089a 16       		.uleb128 0x16
 5588 089b 3F100000 		.4byte	0x103f
 5589 089f 17       		.uleb128 0x17
 5590 08a0 38100000 		.4byte	0x1038
 5591 08a4 00       		.byte	0
 5592 08a5 15       		.uleb128 0x15
 5593 08a6 3F0F0000 		.4byte	.LASF139
 5594 08aa 08       		.byte	0x8
 5595 08ab 4E       		.byte	0x4e
 5596 08ac 26030000 		.4byte	.LASF140
 5597 08b0 01       		.byte	0x1
 5598 08b1 B9080000 		.4byte	0x8b9
 5599 08b5 C4080000 		.4byte	0x8c4
 5600 08b9 16       		.uleb128 0x16
 5601 08ba 3F100000 		.4byte	0x103f
 5602 08be 17       		.uleb128 0x17
 5603 08bf 38100000 		.4byte	0x1038
 5604 08c3 00       		.byte	0
 5605 08c4 15       		.uleb128 0x15
 5606 08c5 65020000 		.4byte	.LASF141
 5607 08c9 08       		.byte	0x8
 5608 08ca 4F       		.byte	0x4f
 5609 08cb A4000000 		.4byte	.LASF142
 5610 08cf 01       		.byte	0x1
 5611 08d0 D8080000 		.4byte	0x8d8
 5612 08d4 E8080000 		.4byte	0x8e8
 5613 08d8 16       		.uleb128 0x16
 5614 08d9 3F100000 		.4byte	0x103f
 5615 08dd 17       		.uleb128 0x17
 5616 08de 45000000 		.4byte	0x45
 5617 08e2 17       		.uleb128 0x17
 5618 08e3 57000000 		.4byte	0x57
 5619 08e7 00       		.byte	0
 5620 08e8 18       		.uleb128 0x18
 5621 08e9 21050000 		.4byte	.LASF143
 5622 08ed 08       		.byte	0x8
 5623 08ee 55       		.byte	0x55
 5624 08ef 38020000 		.4byte	.LASF144
 5625 08f3 45000000 		.4byte	0x45
 5626 08f7 01       		.byte	0x1
 5627 08f8 00090000 		.4byte	0x900
 5628 08fc 06090000 		.4byte	0x906
 5629 0900 16       		.uleb128 0x16
 5630 0901 3F100000 		.4byte	0x103f
ARM GAS  /tmp/ccxMPRSl.s 			page 101


 5631 0905 00       		.byte	0
 5632 0906 18       		.uleb128 0x18
 5633 0907 11060000 		.4byte	.LASF145
 5634 090b 08       		.byte	0x8
 5635 090c 5B       		.byte	0x5b
 5636 090d 98010000 		.4byte	.LASF146
 5637 0911 45000000 		.4byte	0x45
 5638 0915 01       		.byte	0x1
 5639 0916 1E090000 		.4byte	0x91e
 5640 091a 24090000 		.4byte	0x924
 5641 091e 16       		.uleb128 0x16
 5642 091f 3F100000 		.4byte	0x103f
 5643 0923 00       		.byte	0
 5644 0924 18       		.uleb128 0x18
 5645 0925 D1050000 		.4byte	.LASF147
 5646 0929 08       		.byte	0x8
 5647 092a 61       		.byte	0x61
 5648 092b FF0C0000 		.4byte	.LASF148
 5649 092f 45000000 		.4byte	0x45
 5650 0933 01       		.byte	0x1
 5651 0934 3C090000 		.4byte	0x93c
 5652 0938 42090000 		.4byte	0x942
 5653 093c 16       		.uleb128 0x16
 5654 093d 3F100000 		.4byte	0x103f
 5655 0941 00       		.byte	0
 5656 0942 18       		.uleb128 0x18
 5657 0943 EC070000 		.4byte	.LASF149
 5658 0947 08       		.byte	0x8
 5659 0948 6B       		.byte	0x6b
 5660 0949 FD020000 		.4byte	.LASF150
 5661 094d 45000000 		.4byte	0x45
 5662 0951 01       		.byte	0x1
 5663 0952 5A090000 		.4byte	0x95a
 5664 0956 65090000 		.4byte	0x965
 5665 095a 16       		.uleb128 0x16
 5666 095b 3F100000 		.4byte	0x103f
 5667 095f 17       		.uleb128 0x17
 5668 0960 B5060000 		.4byte	0x6b5
 5669 0964 00       		.byte	0
 5670 0965 15       		.uleb128 0x15
 5671 0966 410C0000 		.4byte	.LASF151
 5672 096a 08       		.byte	0x8
 5673 096b 71       		.byte	0x71
 5674 096c 4D0E0000 		.4byte	.LASF152
 5675 0970 01       		.byte	0x1
 5676 0971 79090000 		.4byte	0x979
 5677 0975 7F090000 		.4byte	0x97f
 5678 0979 16       		.uleb128 0x16
 5679 097a 3F100000 		.4byte	0x103f
 5680 097e 00       		.byte	0
 5681 097f 18       		.uleb128 0x18
 5682 0980 410C0000 		.4byte	.LASF151
 5683 0984 08       		.byte	0x8
 5684 0985 79       		.byte	0x79
 5685 0986 93040000 		.4byte	.LASF153
 5686 098a 57000000 		.4byte	0x57
 5687 098e 01       		.byte	0x1
ARM GAS  /tmp/ccxMPRSl.s 			page 102


 5688 098f 97090000 		.4byte	0x997
 5689 0993 A2090000 		.4byte	0x9a2
 5690 0997 16       		.uleb128 0x16
 5691 0998 3F100000 		.4byte	0x103f
 5692 099c 17       		.uleb128 0x17
 5693 099d B5060000 		.4byte	0x6b5
 5694 09a1 00       		.byte	0
 5695 09a2 15       		.uleb128 0x15
 5696 09a3 F20B0000 		.4byte	.LASF154
 5697 09a7 08       		.byte	0x8
 5698 09a8 7F       		.byte	0x7f
 5699 09a9 CC100000 		.4byte	.LASF155
 5700 09ad 01       		.byte	0x1
 5701 09ae B6090000 		.4byte	0x9b6
 5702 09b2 BC090000 		.4byte	0x9bc
 5703 09b6 16       		.uleb128 0x16
 5704 09b7 3F100000 		.4byte	0x103f
 5705 09bb 00       		.byte	0
 5706 09bc 18       		.uleb128 0x18
 5707 09bd F20B0000 		.4byte	.LASF154
 5708 09c1 08       		.byte	0x8
 5709 09c2 87       		.byte	0x87
 5710 09c3 2C000000 		.4byte	.LASF156
 5711 09c7 57000000 		.4byte	0x57
 5712 09cb 01       		.byte	0x1
 5713 09cc D4090000 		.4byte	0x9d4
 5714 09d0 DF090000 		.4byte	0x9df
 5715 09d4 16       		.uleb128 0x16
 5716 09d5 3F100000 		.4byte	0x103f
 5717 09d9 17       		.uleb128 0x17
 5718 09da B5060000 		.4byte	0x6b5
 5719 09de 00       		.byte	0
 5720 09df 15       		.uleb128 0x15
 5721 09e0 4C080000 		.4byte	.LASF157
 5722 09e4 08       		.byte	0x8
 5723 09e5 8D       		.byte	0x8d
 5724 09e6 DB040000 		.4byte	.LASF158
 5725 09ea 01       		.byte	0x1
 5726 09eb F3090000 		.4byte	0x9f3
 5727 09ef F9090000 		.4byte	0x9f9
 5728 09f3 16       		.uleb128 0x16
 5729 09f4 3F100000 		.4byte	0x103f
 5730 09f8 00       		.byte	0
 5731 09f9 18       		.uleb128 0x18
 5732 09fa 4C080000 		.4byte	.LASF157
 5733 09fe 08       		.byte	0x8
 5734 09ff 95       		.byte	0x95
 5735 0a00 A6070000 		.4byte	.LASF159
 5736 0a04 57000000 		.4byte	0x57
 5737 0a08 01       		.byte	0x1
 5738 0a09 110A0000 		.4byte	0xa11
 5739 0a0d 1C0A0000 		.4byte	0xa1c
 5740 0a11 16       		.uleb128 0x16
 5741 0a12 3F100000 		.4byte	0x103f
 5742 0a16 17       		.uleb128 0x17
 5743 0a17 B5060000 		.4byte	0x6b5
 5744 0a1b 00       		.byte	0
ARM GAS  /tmp/ccxMPRSl.s 			page 103


 5745 0a1c 15       		.uleb128 0x15
 5746 0a1d D0000000 		.4byte	.LASF160
 5747 0a21 08       		.byte	0x8
 5748 0a22 9B       		.byte	0x9b
 5749 0a23 9B0F0000 		.4byte	.LASF161
 5750 0a27 01       		.byte	0x1
 5751 0a28 300A0000 		.4byte	0xa30
 5752 0a2c 360A0000 		.4byte	0xa36
 5753 0a30 16       		.uleb128 0x16
 5754 0a31 3F100000 		.4byte	0x103f
 5755 0a35 00       		.byte	0
 5756 0a36 18       		.uleb128 0x18
 5757 0a37 61030000 		.4byte	.LASF162
 5758 0a3b 08       		.byte	0x8
 5759 0a3c A2       		.byte	0xa2
 5760 0a3d 72050000 		.4byte	.LASF163
 5761 0a41 21100000 		.4byte	0x1021
 5762 0a45 01       		.byte	0x1
 5763 0a46 4E0A0000 		.4byte	0xa4e
 5764 0a4a 590A0000 		.4byte	0xa59
 5765 0a4e 16       		.uleb128 0x16
 5766 0a4f 3F100000 		.4byte	0x103f
 5767 0a53 17       		.uleb128 0x17
 5768 0a54 57000000 		.4byte	0x57
 5769 0a58 00       		.byte	0
 5770 0a59 18       		.uleb128 0x18
 5771 0a5a 580D0000 		.4byte	.LASF164
 5772 0a5e 08       		.byte	0x8
 5773 0a5f A9       		.byte	0xa9
 5774 0a60 49030000 		.4byte	.LASF165
 5775 0a64 21100000 		.4byte	0x1021
 5776 0a68 01       		.byte	0x1
 5777 0a69 710A0000 		.4byte	0xa71
 5778 0a6d 7C0A0000 		.4byte	0xa7c
 5779 0a71 16       		.uleb128 0x16
 5780 0a72 3F100000 		.4byte	0x103f
 5781 0a76 17       		.uleb128 0x17
 5782 0a77 57000000 		.4byte	0x57
 5783 0a7b 00       		.byte	0
 5784 0a7c 18       		.uleb128 0x18
 5785 0a7d 9F060000 		.4byte	.LASF166
 5786 0a81 08       		.byte	0x8
 5787 0a82 B0       		.byte	0xb0
 5788 0a83 BD080000 		.4byte	.LASF167
 5789 0a87 21100000 		.4byte	0x1021
 5790 0a8b 01       		.byte	0x1
 5791 0a8c 940A0000 		.4byte	0xa94
 5792 0a90 9F0A0000 		.4byte	0xa9f
 5793 0a94 16       		.uleb128 0x16
 5794 0a95 3F100000 		.4byte	0x103f
 5795 0a99 17       		.uleb128 0x17
 5796 0a9a 57000000 		.4byte	0x57
 5797 0a9e 00       		.byte	0
 5798 0a9f 15       		.uleb128 0x15
 5799 0aa0 B40D0000 		.4byte	.LASF168
 5800 0aa4 08       		.byte	0x8
 5801 0aa5 B8       		.byte	0xb8
ARM GAS  /tmp/ccxMPRSl.s 			page 104


 5802 0aa6 CC0E0000 		.4byte	.LASF169
 5803 0aaa 01       		.byte	0x1
 5804 0aab B30A0000 		.4byte	0xab3
 5805 0aaf BE0A0000 		.4byte	0xabe
 5806 0ab3 16       		.uleb128 0x16
 5807 0ab4 3F100000 		.4byte	0x103f
 5808 0ab8 17       		.uleb128 0x17
 5809 0ab9 69000000 		.4byte	0x69
 5810 0abd 00       		.byte	0
 5811 0abe 15       		.uleb128 0x15
 5812 0abf 8D000000 		.4byte	.LASF170
 5813 0ac3 08       		.byte	0x8
 5814 0ac4 C0       		.byte	0xc0
 5815 0ac5 4D040000 		.4byte	.LASF171
 5816 0ac9 01       		.byte	0x1
 5817 0aca D20A0000 		.4byte	0xad2
 5818 0ace DD0A0000 		.4byte	0xadd
 5819 0ad2 16       		.uleb128 0x16
 5820 0ad3 3F100000 		.4byte	0x103f
 5821 0ad7 17       		.uleb128 0x17
 5822 0ad8 45000000 		.4byte	0x45
 5823 0adc 00       		.byte	0
 5824 0add 15       		.uleb128 0x15
 5825 0ade 4C0F0000 		.4byte	.LASF172
 5826 0ae2 08       		.byte	0x8
 5827 0ae3 C8       		.byte	0xc8
 5828 0ae4 7D010000 		.4byte	.LASF173
 5829 0ae8 01       		.byte	0x1
 5830 0ae9 F10A0000 		.4byte	0xaf1
 5831 0aed FC0A0000 		.4byte	0xafc
 5832 0af1 16       		.uleb128 0x16
 5833 0af2 3F100000 		.4byte	0x103f
 5834 0af6 17       		.uleb128 0x17
 5835 0af7 45000000 		.4byte	0x45
 5836 0afb 00       		.byte	0
 5837 0afc 15       		.uleb128 0x15
 5838 0afd 99030000 		.4byte	.LASF174
 5839 0b01 08       		.byte	0x8
 5840 0b02 CD       		.byte	0xcd
 5841 0b03 660F0000 		.4byte	.LASF175
 5842 0b07 01       		.byte	0x1
 5843 0b08 100B0000 		.4byte	0xb10
 5844 0b0c 1B0B0000 		.4byte	0xb1b
 5845 0b10 16       		.uleb128 0x16
 5846 0b11 3F100000 		.4byte	0x103f
 5847 0b15 17       		.uleb128 0x17
 5848 0b16 45000000 		.4byte	0x45
 5849 0b1a 00       		.byte	0
 5850 0b1b 15       		.uleb128 0x15
 5851 0b1c 1B0C0000 		.4byte	.LASF176
 5852 0b20 08       		.byte	0x8
 5853 0b21 D2       		.byte	0xd2
 5854 0b22 A5090000 		.4byte	.LASF177
 5855 0b26 01       		.byte	0x1
 5856 0b27 2F0B0000 		.4byte	0xb2f
 5857 0b2b 3A0B0000 		.4byte	0xb3a
 5858 0b2f 16       		.uleb128 0x16
ARM GAS  /tmp/ccxMPRSl.s 			page 105


 5859 0b30 3F100000 		.4byte	0x103f
 5860 0b34 17       		.uleb128 0x17
 5861 0b35 45000000 		.4byte	0x45
 5862 0b39 00       		.byte	0
 5863 0b3a 15       		.uleb128 0x15
 5864 0b3b E80B0000 		.4byte	.LASF178
 5865 0b3f 08       		.byte	0x8
 5866 0b40 D7       		.byte	0xd7
 5867 0b41 880D0000 		.4byte	.LASF179
 5868 0b45 01       		.byte	0x1
 5869 0b46 4E0B0000 		.4byte	0xb4e
 5870 0b4a 590B0000 		.4byte	0xb59
 5871 0b4e 16       		.uleb128 0x16
 5872 0b4f 3F100000 		.4byte	0x103f
 5873 0b53 17       		.uleb128 0x17
 5874 0b54 45000000 		.4byte	0x45
 5875 0b58 00       		.byte	0
 5876 0b59 15       		.uleb128 0x15
 5877 0b5a E30D0000 		.4byte	.LASF180
 5878 0b5e 08       		.byte	0x8
 5879 0b5f E0       		.byte	0xe0
 5880 0b60 D3080000 		.4byte	.LASF181
 5881 0b64 01       		.byte	0x1
 5882 0b65 6D0B0000 		.4byte	0xb6d
 5883 0b69 820B0000 		.4byte	0xb82
 5884 0b6d 16       		.uleb128 0x16
 5885 0b6e 3F100000 		.4byte	0x103f
 5886 0b72 17       		.uleb128 0x17
 5887 0b73 45000000 		.4byte	0x45
 5888 0b77 17       		.uleb128 0x17
 5889 0b78 45000000 		.4byte	0x45
 5890 0b7c 17       		.uleb128 0x17
 5891 0b7d 38100000 		.4byte	0x1038
 5892 0b81 00       		.byte	0
 5893 0b82 15       		.uleb128 0x15
 5894 0b83 BD100000 		.4byte	.LASF182
 5895 0b87 08       		.byte	0x8
 5896 0b88 EA       		.byte	0xea
 5897 0b89 610C0000 		.4byte	.LASF183
 5898 0b8d 01       		.byte	0x1
 5899 0b8e 960B0000 		.4byte	0xb96
 5900 0b92 A60B0000 		.4byte	0xba6
 5901 0b96 16       		.uleb128 0x16
 5902 0b97 3F100000 		.4byte	0x103f
 5903 0b9b 17       		.uleb128 0x17
 5904 0b9c 45000000 		.4byte	0x45
 5905 0ba0 17       		.uleb128 0x17
 5906 0ba1 38100000 		.4byte	0x1038
 5907 0ba5 00       		.byte	0
 5908 0ba6 15       		.uleb128 0x15
 5909 0ba7 0D110000 		.4byte	.LASF184
 5910 0bab 08       		.byte	0x8
 5911 0bac F6       		.byte	0xf6
 5912 0bad 78070000 		.4byte	.LASF185
 5913 0bb1 01       		.byte	0x1
 5914 0bb2 BA0B0000 		.4byte	0xbba
 5915 0bb6 D40B0000 		.4byte	0xbd4
ARM GAS  /tmp/ccxMPRSl.s 			page 106


 5916 0bba 16       		.uleb128 0x16
 5917 0bbb 3F100000 		.4byte	0x103f
 5918 0bbf 17       		.uleb128 0x17
 5919 0bc0 45000000 		.4byte	0x45
 5920 0bc4 17       		.uleb128 0x17
 5921 0bc5 B5060000 		.4byte	0x6b5
 5922 0bc9 17       		.uleb128 0x17
 5923 0bca 45000000 		.4byte	0x45
 5924 0bce 17       		.uleb128 0x17
 5925 0bcf 38100000 		.4byte	0x1038
 5926 0bd3 00       		.byte	0
 5927 0bd4 1F       		.uleb128 0x1f
 5928 0bd5 CC0D0000 		.4byte	.LASF186
 5929 0bd9 08       		.byte	0x8
 5930 0bda 0101     		.2byte	0x101
 5931 0bdc 7C020000 		.4byte	.LASF188
 5932 0be0 01       		.byte	0x1
 5933 0be1 E90B0000 		.4byte	0xbe9
 5934 0be5 FE0B0000 		.4byte	0xbfe
 5935 0be9 16       		.uleb128 0x16
 5936 0bea 3F100000 		.4byte	0x103f
 5937 0bee 17       		.uleb128 0x17
 5938 0bef 45000000 		.4byte	0x45
 5939 0bf3 17       		.uleb128 0x17
 5940 0bf4 38100000 		.4byte	0x1038
 5941 0bf8 17       		.uleb128 0x17
 5942 0bf9 38100000 		.4byte	0x1038
 5943 0bfd 00       		.byte	0
 5944 0bfe 1F       		.uleb128 0x1f
 5945 0bff 2F0E0000 		.4byte	.LASF187
 5946 0c03 08       		.byte	0x8
 5947 0c04 0D01     		.2byte	0x10d
 5948 0c06 1F080000 		.4byte	.LASF189
 5949 0c0a 01       		.byte	0x1
 5950 0c0b 130C0000 		.4byte	0xc13
 5951 0c0f 2D0C0000 		.4byte	0xc2d
 5952 0c13 16       		.uleb128 0x16
 5953 0c14 3F100000 		.4byte	0x103f
 5954 0c18 17       		.uleb128 0x17
 5955 0c19 57000000 		.4byte	0x57
 5956 0c1d 17       		.uleb128 0x17
 5957 0c1e B5060000 		.4byte	0x6b5
 5958 0c22 17       		.uleb128 0x17
 5959 0c23 45000000 		.4byte	0x45
 5960 0c27 17       		.uleb128 0x17
 5961 0c28 38100000 		.4byte	0x1038
 5962 0c2c 00       		.byte	0
 5963 0c2d 1F       		.uleb128 0x1f
 5964 0c2e 30070000 		.4byte	.LASF190
 5965 0c32 08       		.byte	0x8
 5966 0c33 1D01     		.2byte	0x11d
 5967 0c35 F1060000 		.4byte	.LASF191
 5968 0c39 01       		.byte	0x1
 5969 0c3a 420C0000 		.4byte	0xc42
 5970 0c3e 5C0C0000 		.4byte	0xc5c
 5971 0c42 16       		.uleb128 0x16
 5972 0c43 3F100000 		.4byte	0x103f
ARM GAS  /tmp/ccxMPRSl.s 			page 107


 5973 0c47 17       		.uleb128 0x17
 5974 0c48 BB000000 		.4byte	0xbb
 5975 0c4c 17       		.uleb128 0x17
 5976 0c4d 45000000 		.4byte	0x45
 5977 0c51 17       		.uleb128 0x17
 5978 0c52 D4000000 		.4byte	0xd4
 5979 0c56 17       		.uleb128 0x17
 5980 0c57 ED000000 		.4byte	0xed
 5981 0c5b 00       		.byte	0
 5982 0c5c 1F       		.uleb128 0x1f
 5983 0c5d C3000000 		.4byte	.LASF192
 5984 0c61 08       		.byte	0x8
 5985 0c62 2801     		.2byte	0x128
 5986 0c64 C3030000 		.4byte	.LASF193
 5987 0c68 01       		.byte	0x1
 5988 0c69 710C0000 		.4byte	0xc71
 5989 0c6d 860C0000 		.4byte	0xc86
 5990 0c71 16       		.uleb128 0x16
 5991 0c72 3F100000 		.4byte	0x103f
 5992 0c76 17       		.uleb128 0x17
 5993 0c77 45000000 		.4byte	0x45
 5994 0c7b 17       		.uleb128 0x17
 5995 0c7c D4000000 		.4byte	0xd4
 5996 0c80 17       		.uleb128 0x17
 5997 0c81 38100000 		.4byte	0x1038
 5998 0c85 00       		.byte	0
 5999 0c86 1F       		.uleb128 0x1f
 6000 0c87 3F010000 		.4byte	.LASF194
 6001 0c8b 08       		.byte	0x8
 6002 0c8c 2E01     		.2byte	0x12e
 6003 0c8e B00C0000 		.4byte	.LASF195
 6004 0c92 01       		.byte	0x1
 6005 0c93 9B0C0000 		.4byte	0xc9b
 6006 0c97 A60C0000 		.4byte	0xca6
 6007 0c9b 16       		.uleb128 0x16
 6008 0c9c 3F100000 		.4byte	0x103f
 6009 0ca0 17       		.uleb128 0x17
 6010 0ca1 69000000 		.4byte	0x69
 6011 0ca5 00       		.byte	0
 6012 0ca6 20       		.uleb128 0x20
 6013 0ca7 68090000 		.4byte	.LASF196
 6014 0cab 08       		.byte	0x8
 6015 0cac 3101     		.2byte	0x131
 6016 0cae A0100000 		.4byte	.LASF198
 6017 0cb2 45000000 		.4byte	0x45
 6018 0cb6 01       		.byte	0x1
 6019 0cb7 BF0C0000 		.4byte	0xcbf
 6020 0cbb C50C0000 		.4byte	0xcc5
 6021 0cbf 16       		.uleb128 0x16
 6022 0cc0 3F100000 		.4byte	0x103f
 6023 0cc4 00       		.byte	0
 6024 0cc5 20       		.uleb128 0x20
 6025 0cc6 42060000 		.4byte	.LASF197
 6026 0cca 08       		.byte	0x8
 6027 0ccb 3401     		.2byte	0x134
 6028 0ccd 08000000 		.4byte	.LASF199
 6029 0cd1 45000000 		.4byte	0x45
ARM GAS  /tmp/ccxMPRSl.s 			page 108


 6030 0cd5 01       		.byte	0x1
 6031 0cd6 DE0C0000 		.4byte	0xcde
 6032 0cda E40C0000 		.4byte	0xce4
 6033 0cde 16       		.uleb128 0x16
 6034 0cdf 3F100000 		.4byte	0x103f
 6035 0ce3 00       		.byte	0
 6036 0ce4 20       		.uleb128 0x20
 6037 0ce5 40040000 		.4byte	.LASF200
 6038 0ce9 08       		.byte	0x8
 6039 0cea 3701     		.2byte	0x137
 6040 0cec 8F050000 		.4byte	.LASF201
 6041 0cf0 45000000 		.4byte	0x45
 6042 0cf4 01       		.byte	0x1
 6043 0cf5 FD0C0000 		.4byte	0xcfd
 6044 0cf9 030D0000 		.4byte	0xd03
 6045 0cfd 16       		.uleb128 0x16
 6046 0cfe 3F100000 		.4byte	0x103f
 6047 0d02 00       		.byte	0
 6048 0d03 20       		.uleb128 0x20
 6049 0d04 FC0B0000 		.4byte	.LASF202
 6050 0d08 08       		.byte	0x8
 6051 0d09 3A01     		.2byte	0x13a
 6052 0d0b CC0C0000 		.4byte	.LASF203
 6053 0d0f 45000000 		.4byte	0x45
 6054 0d13 01       		.byte	0x1
 6055 0d14 1C0D0000 		.4byte	0xd1c
 6056 0d18 220D0000 		.4byte	0xd22
 6057 0d1c 16       		.uleb128 0x16
 6058 0d1d 3F100000 		.4byte	0x103f
 6059 0d21 00       		.byte	0
 6060 0d22 1F       		.uleb128 0x1f
 6061 0d23 32100000 		.4byte	.LASF204
 6062 0d27 08       		.byte	0x8
 6063 0d28 3F01     		.2byte	0x13f
 6064 0d2a F2010000 		.4byte	.LASF205
 6065 0d2e 01       		.byte	0x1
 6066 0d2f 370D0000 		.4byte	0xd37
 6067 0d33 420D0000 		.4byte	0xd42
 6068 0d37 16       		.uleb128 0x16
 6069 0d38 3F100000 		.4byte	0x103f
 6070 0d3c 17       		.uleb128 0x17
 6071 0d3d 38100000 		.4byte	0x1038
 6072 0d41 00       		.byte	0
 6073 0d42 1F       		.uleb128 0x1f
 6074 0d43 800F0000 		.4byte	.LASF206
 6075 0d47 08       		.byte	0x8
 6076 0d48 4401     		.2byte	0x144
 6077 0d4a D9000000 		.4byte	.LASF207
 6078 0d4e 01       		.byte	0x1
 6079 0d4f 570D0000 		.4byte	0xd57
 6080 0d53 620D0000 		.4byte	0xd62
 6081 0d57 16       		.uleb128 0x16
 6082 0d58 3F100000 		.4byte	0x103f
 6083 0d5c 17       		.uleb128 0x17
 6084 0d5d 38100000 		.4byte	0x1038
 6085 0d61 00       		.byte	0
 6086 0d62 1F       		.uleb128 0x1f
ARM GAS  /tmp/ccxMPRSl.s 			page 109


 6087 0d63 620D0000 		.4byte	.LASF208
 6088 0d67 08       		.byte	0x8
 6089 0d68 4E01     		.2byte	0x14e
 6090 0d6a 1F090000 		.4byte	.LASF209
 6091 0d6e 01       		.byte	0x1
 6092 0d6f 770D0000 		.4byte	0xd77
 6093 0d73 870D0000 		.4byte	0xd87
 6094 0d77 16       		.uleb128 0x16
 6095 0d78 3F100000 		.4byte	0x103f
 6096 0d7c 17       		.uleb128 0x17
 6097 0d7d 06010000 		.4byte	0x106
 6098 0d81 17       		.uleb128 0x17
 6099 0d82 45000000 		.4byte	0x45
 6100 0d86 00       		.byte	0
 6101 0d87 20       		.uleb128 0x20
 6102 0d88 DC010000 		.4byte	.LASF210
 6103 0d8c 08       		.byte	0x8
 6104 0d8d 5101     		.2byte	0x151
 6105 0d8f 4C070000 		.4byte	.LASF211
 6106 0d93 45000000 		.4byte	0x45
 6107 0d97 01       		.byte	0x1
 6108 0d98 A00D0000 		.4byte	0xda0
 6109 0d9c A60D0000 		.4byte	0xda6
 6110 0da0 16       		.uleb128 0x16
 6111 0da1 3F100000 		.4byte	0x103f
 6112 0da5 00       		.byte	0
 6113 0da6 1F       		.uleb128 0x1f
 6114 0da7 160E0000 		.4byte	.LASF212
 6115 0dab 08       		.byte	0x8
 6116 0dac 6701     		.2byte	0x167
 6117 0dae F8030000 		.4byte	.LASF213
 6118 0db2 02       		.byte	0x2
 6119 0db3 BB0D0000 		.4byte	0xdbb
 6120 0db7 D00D0000 		.4byte	0xdd0
 6121 0dbb 16       		.uleb128 0x16
 6122 0dbc 3F100000 		.4byte	0x103f
 6123 0dc0 17       		.uleb128 0x17
 6124 0dc1 A2000000 		.4byte	0xa2
 6125 0dc5 17       		.uleb128 0x17
 6126 0dc6 45000000 		.4byte	0x45
 6127 0dca 17       		.uleb128 0x17
 6128 0dcb 45000000 		.4byte	0x45
 6129 0dcf 00       		.byte	0
 6130 0dd0 1F       		.uleb128 0x1f
 6131 0dd1 62080000 		.4byte	.LASF214
 6132 0dd5 08       		.byte	0x8
 6133 0dd6 7501     		.2byte	0x175
 6134 0dd8 66100000 		.4byte	.LASF215
 6135 0ddc 02       		.byte	0x2
 6136 0ddd E50D0000 		.4byte	0xde5
 6137 0de1 EB0D0000 		.4byte	0xdeb
 6138 0de5 16       		.uleb128 0x16
 6139 0de6 3F100000 		.4byte	0x103f
 6140 0dea 00       		.byte	0
 6141 0deb 1F       		.uleb128 0x1f
 6142 0dec 190A0000 		.4byte	.LASF216
 6143 0df0 08       		.byte	0x8
ARM GAS  /tmp/ccxMPRSl.s 			page 110


 6144 0df1 7F01     		.2byte	0x17f
 6145 0df3 910E0000 		.4byte	.LASF217
 6146 0df7 02       		.byte	0x2
 6147 0df8 000E0000 		.4byte	0xe00
 6148 0dfc 060E0000 		.4byte	0xe06
 6149 0e00 16       		.uleb128 0x16
 6150 0e01 3F100000 		.4byte	0x103f
 6151 0e05 00       		.byte	0
 6152 0e06 1F       		.uleb128 0x1f
 6153 0e07 55010000 		.4byte	.LASF218
 6154 0e0b 08       		.byte	0x8
 6155 0e0c 8A01     		.2byte	0x18a
 6156 0e0e 2C060000 		.4byte	.LASF219
 6157 0e12 02       		.byte	0x2
 6158 0e13 1B0E0000 		.4byte	0xe1b
 6159 0e17 210E0000 		.4byte	0xe21
 6160 0e1b 16       		.uleb128 0x16
 6161 0e1c 3F100000 		.4byte	0x103f
 6162 0e20 00       		.byte	0
 6163 0e21 20       		.uleb128 0x20
 6164 0e22 300C0000 		.4byte	.LASF220
 6165 0e26 08       		.byte	0x8
 6166 0e27 9101     		.2byte	0x191
 6167 0e29 1C0D0000 		.4byte	.LASF221
 6168 0e2d 45000000 		.4byte	0x45
 6169 0e31 02       		.byte	0x2
 6170 0e32 3A0E0000 		.4byte	0xe3a
 6171 0e36 450E0000 		.4byte	0xe45
 6172 0e3a 16       		.uleb128 0x16
 6173 0e3b 3F100000 		.4byte	0x103f
 6174 0e3f 17       		.uleb128 0x17
 6175 0e40 45000000 		.4byte	0x45
 6176 0e44 00       		.byte	0
 6177 0e45 1F       		.uleb128 0x1f
 6178 0e46 890C0000 		.4byte	.LASF222
 6179 0e4a 08       		.byte	0x8
 6180 0e4b 9C01     		.2byte	0x19c
 6181 0e4d 30050000 		.4byte	.LASF223
 6182 0e51 02       		.byte	0x2
 6183 0e52 5A0E0000 		.4byte	0xe5a
 6184 0e56 6F0E0000 		.4byte	0xe6f
 6185 0e5a 16       		.uleb128 0x16
 6186 0e5b 3F100000 		.4byte	0x103f
 6187 0e5f 17       		.uleb128 0x17
 6188 0e60 45000000 		.4byte	0x45
 6189 0e64 17       		.uleb128 0x17
 6190 0e65 A5030000 		.4byte	0x3a5
 6191 0e69 17       		.uleb128 0x17
 6192 0e6a 45000000 		.4byte	0x45
 6193 0e6e 00       		.byte	0
 6194 0e6f 1F       		.uleb128 0x1f
 6195 0e70 CB0F0000 		.4byte	.LASF224
 6196 0e74 08       		.byte	0x8
 6197 0e75 A201     		.2byte	0x1a2
 6198 0e77 6B080000 		.4byte	.LASF225
 6199 0e7b 02       		.byte	0x2
 6200 0e7c 840E0000 		.4byte	0xe84
ARM GAS  /tmp/ccxMPRSl.s 			page 111


 6201 0e80 940E0000 		.4byte	0xe94
 6202 0e84 16       		.uleb128 0x16
 6203 0e85 3F100000 		.4byte	0x103f
 6204 0e89 17       		.uleb128 0x17
 6205 0e8a 45000000 		.4byte	0x45
 6206 0e8e 17       		.uleb128 0x17
 6207 0e8f 45000000 		.4byte	0x45
 6208 0e93 00       		.byte	0
 6209 0e94 20       		.uleb128 0x20
 6210 0e95 0B0E0000 		.4byte	.LASF226
 6211 0e99 08       		.byte	0x8
 6212 0e9a A901     		.2byte	0x1a9
 6213 0e9c 1C040000 		.4byte	.LASF227
 6214 0ea0 45000000 		.4byte	0x45
 6215 0ea4 02       		.byte	0x2
 6216 0ea5 AD0E0000 		.4byte	0xead
 6217 0ea9 B80E0000 		.4byte	0xeb8
 6218 0ead 16       		.uleb128 0x16
 6219 0eae 3F100000 		.4byte	0x103f
 6220 0eb2 17       		.uleb128 0x17
 6221 0eb3 45000000 		.4byte	0x45
 6222 0eb7 00       		.byte	0
 6223 0eb8 1F       		.uleb128 0x1f
 6224 0eb9 370A0000 		.4byte	.LASF228
 6225 0ebd 08       		.byte	0x8
 6226 0ebe B401     		.2byte	0x1b4
 6227 0ec0 C9070000 		.4byte	.LASF229
 6228 0ec4 02       		.byte	0x2
 6229 0ec5 CD0E0000 		.4byte	0xecd
 6230 0ec9 E20E0000 		.4byte	0xee2
 6231 0ecd 16       		.uleb128 0x16
 6232 0ece 3F100000 		.4byte	0x103f
 6233 0ed2 17       		.uleb128 0x17
 6234 0ed3 45000000 		.4byte	0x45
 6235 0ed7 17       		.uleb128 0x17
 6236 0ed8 A5030000 		.4byte	0x3a5
 6237 0edc 17       		.uleb128 0x17
 6238 0edd 45000000 		.4byte	0x45
 6239 0ee1 00       		.byte	0
 6240 0ee2 1F       		.uleb128 0x1f
 6241 0ee3 7B0E0000 		.4byte	.LASF230
 6242 0ee7 08       		.byte	0x8
 6243 0ee8 BA01     		.2byte	0x1ba
 6244 0eea CC020000 		.4byte	.LASF231
 6245 0eee 02       		.byte	0x2
 6246 0eef F70E0000 		.4byte	0xef7
 6247 0ef3 070F0000 		.4byte	0xf07
 6248 0ef7 16       		.uleb128 0x16
 6249 0ef8 3F100000 		.4byte	0x103f
 6250 0efc 17       		.uleb128 0x17
 6251 0efd 45000000 		.4byte	0x45
 6252 0f01 17       		.uleb128 0x17
 6253 0f02 45000000 		.4byte	0x45
 6254 0f06 00       		.byte	0
 6255 0f07 1F       		.uleb128 0x1f
 6256 0f08 4C010000 		.4byte	.LASF232
 6257 0f0c 08       		.byte	0x8
ARM GAS  /tmp/ccxMPRSl.s 			page 112


 6258 0f0d BF01     		.2byte	0x1bf
 6259 0f0f AE060000 		.4byte	.LASF233
 6260 0f13 02       		.byte	0x2
 6261 0f14 1C0F0000 		.4byte	0xf1c
 6262 0f18 220F0000 		.4byte	0xf22
 6263 0f1c 16       		.uleb128 0x16
 6264 0f1d 3F100000 		.4byte	0x103f
 6265 0f21 00       		.byte	0
 6266 0f22 1F       		.uleb128 0x1f
 6267 0f23 0A020000 		.4byte	.LASF234
 6268 0f27 08       		.byte	0x8
 6269 0f28 C401     		.2byte	0x1c4
 6270 0f2a F40D0000 		.4byte	.LASF235
 6271 0f2e 02       		.byte	0x2
 6272 0f2f 370F0000 		.4byte	0xf37
 6273 0f33 3D0F0000 		.4byte	0xf3d
 6274 0f37 16       		.uleb128 0x16
 6275 0f38 3F100000 		.4byte	0x103f
 6276 0f3c 00       		.byte	0
 6277 0f3d 1F       		.uleb128 0x1f
 6278 0f3e 9B000000 		.4byte	.LASF236
 6279 0f42 08       		.byte	0x8
 6280 0f43 C901     		.2byte	0x1c9
 6281 0f45 66010000 		.4byte	.LASF237
 6282 0f49 02       		.byte	0x2
 6283 0f4a 520F0000 		.4byte	0xf52
 6284 0f4e 580F0000 		.4byte	0xf58
 6285 0f52 16       		.uleb128 0x16
 6286 0f53 3F100000 		.4byte	0x103f
 6287 0f57 00       		.byte	0
 6288 0f58 1F       		.uleb128 0x1f
 6289 0f59 1C020000 		.4byte	.LASF238
 6290 0f5d 08       		.byte	0x8
 6291 0f5e CE01     		.2byte	0x1ce
 6292 0f60 A90B0000 		.4byte	.LASF239
 6293 0f64 02       		.byte	0x2
 6294 0f65 6D0F0000 		.4byte	0xf6d
 6295 0f69 730F0000 		.4byte	0xf73
 6296 0f6d 16       		.uleb128 0x16
 6297 0f6e 3F100000 		.4byte	0x103f
 6298 0f72 00       		.byte	0
 6299 0f73 1F       		.uleb128 0x1f
 6300 0f74 EE0C0000 		.4byte	.LASF240
 6301 0f78 08       		.byte	0x8
 6302 0f79 D501     		.2byte	0x1d5
 6303 0f7b 64110000 		.4byte	.LASF241
 6304 0f7f 02       		.byte	0x2
 6305 0f80 880F0000 		.4byte	0xf88
 6306 0f84 8E0F0000 		.4byte	0xf8e
 6307 0f88 16       		.uleb128 0x16
 6308 0f89 3F100000 		.4byte	0x103f
 6309 0f8d 00       		.byte	0
 6310 0f8e 1F       		.uleb128 0x1f
 6311 0f8f 70040000 		.4byte	.LASF242
 6312 0f93 08       		.byte	0x8
 6313 0f94 DC01     		.2byte	0x1dc
 6314 0f96 46110000 		.4byte	.LASF243
ARM GAS  /tmp/ccxMPRSl.s 			page 113


 6315 0f9a 02       		.byte	0x2
 6316 0f9b A30F0000 		.4byte	0xfa3
 6317 0f9f B80F0000 		.4byte	0xfb8
 6318 0fa3 16       		.uleb128 0x16
 6319 0fa4 3F100000 		.4byte	0x103f
 6320 0fa8 17       		.uleb128 0x17
 6321 0fa9 45000000 		.4byte	0x45
 6322 0fad 17       		.uleb128 0x17
 6323 0fae 45000000 		.4byte	0x45
 6324 0fb2 17       		.uleb128 0x17
 6325 0fb3 45000000 		.4byte	0x45
 6326 0fb7 00       		.byte	0
 6327 0fb8 20       		.uleb128 0x20
 6328 0fb9 E9100000 		.4byte	.LASF244
 6329 0fbd 08       		.byte	0x8
 6330 0fbe E401     		.2byte	0x1e4
 6331 0fc0 3C0D0000 		.4byte	.LASF245
 6332 0fc4 45000000 		.4byte	0x45
 6333 0fc8 02       		.byte	0x2
 6334 0fc9 D10F0000 		.4byte	0xfd1
 6335 0fcd E10F0000 		.4byte	0xfe1
 6336 0fd1 16       		.uleb128 0x16
 6337 0fd2 3F100000 		.4byte	0x103f
 6338 0fd6 17       		.uleb128 0x17
 6339 0fd7 45000000 		.4byte	0x45
 6340 0fdb 17       		.uleb128 0x17
 6341 0fdc 45000000 		.4byte	0x45
 6342 0fe0 00       		.byte	0
 6343 0fe1 21       		.uleb128 0x21
 6344 0fe2 1F060000 		.4byte	.LASF246
 6345 0fe6 08       		.byte	0x8
 6346 0fe7 EE01     		.2byte	0x1ee
 6347 0fe9 430A0000 		.4byte	.LASF247
 6348 0fed 45000000 		.4byte	0x45
 6349 0ff1 02       		.byte	0x2
 6350 0ff2 F60F0000 		.4byte	0xff6
 6351 0ff6 16       		.uleb128 0x16
 6352 0ff7 3F100000 		.4byte	0x103f
 6353 0ffb 17       		.uleb128 0x17
 6354 0ffc 45000000 		.4byte	0x45
 6355 1000 17       		.uleb128 0x17
 6356 1001 45000000 		.4byte	0x45
 6357 1005 17       		.uleb128 0x17
 6358 1006 A5030000 		.4byte	0x3a5
 6359 100a 17       		.uleb128 0x17
 6360 100b 45000000 		.4byte	0x45
 6361 100f 00       		.byte	0
 6362 1010 00       		.byte	0
 6363 1011 0C       		.uleb128 0xc
 6364 1012 21100000 		.4byte	0x1021
 6365 1016 21100000 		.4byte	0x1021
 6366 101a 0D       		.uleb128 0xd
 6367 101b 77030000 		.4byte	0x377
 6368 101f 02       		.byte	0x2
 6369 1020 00       		.byte	0
 6370 1021 03       		.uleb128 0x3
 6371 1022 04       		.byte	0x4
ARM GAS  /tmp/ccxMPRSl.s 			page 114


 6372 1023 04       		.byte	0x4
 6373 1024 53090000 		.4byte	.LASF248
 6374 1028 0C       		.uleb128 0xc
 6375 1029 62000000 		.4byte	0x62
 6376 102d 38100000 		.4byte	0x1038
 6377 1031 0D       		.uleb128 0xd
 6378 1032 77030000 		.4byte	0x377
 6379 1036 02       		.byte	0x2
 6380 1037 00       		.byte	0
 6381 1038 03       		.uleb128 0x3
 6382 1039 01       		.byte	0x1
 6383 103a 02       		.byte	0x2
 6384 103b BA0A0000 		.4byte	.LASF249
 6385 103f 0E       		.uleb128 0xe
 6386 1040 04       		.byte	0x4
 6387 1041 DA060000 		.4byte	0x6da
 6388 1045 22       		.uleb128 0x22
 6389 1046 E20E0000 		.4byte	0xee2
 6390 104a 01       		.byte	0x1
 6391 104b 7603     		.2byte	0x376
 6392 104d 01       		.byte	0x1
 6393 104e 56100000 		.4byte	0x1056
 6394 1052 78100000 		.4byte	0x1078
 6395 1056 23       		.uleb128 0x23
 6396 1057 2B070000 		.4byte	.LASF252
 6397 105b 78100000 		.4byte	0x1078
 6398 105f 24       		.uleb128 0x24
 6399 1060 F5080000 		.4byte	.LASF250
 6400 1064 01       		.byte	0x1
 6401 1065 7603     		.2byte	0x376
 6402 1067 45000000 		.4byte	0x45
 6403 106b 24       		.uleb128 0x24
 6404 106c 5B060000 		.4byte	.LASF251
 6405 1070 01       		.byte	0x1
 6406 1071 7603     		.2byte	0x376
 6407 1073 45000000 		.4byte	0x45
 6408 1077 00       		.byte	0
 6409 1078 25       		.uleb128 0x25
 6410 1079 3F100000 		.4byte	0x103f
 6411 107d 22       		.uleb128 0x22
 6412 107e 6F0E0000 		.4byte	0xe6f
 6413 1082 01       		.byte	0x1
 6414 1083 7A03     		.2byte	0x37a
 6415 1085 01       		.byte	0x1
 6416 1086 8E100000 		.4byte	0x108e
 6417 108a B0100000 		.4byte	0x10b0
 6418 108e 23       		.uleb128 0x23
 6419 108f 2B070000 		.4byte	.LASF252
 6420 1093 78100000 		.4byte	0x1078
 6421 1097 24       		.uleb128 0x24
 6422 1098 F5080000 		.4byte	.LASF250
 6423 109c 01       		.byte	0x1
 6424 109d 7A03     		.2byte	0x37a
 6425 109f 45000000 		.4byte	0x45
 6426 10a3 24       		.uleb128 0x24
 6427 10a4 5B060000 		.4byte	.LASF251
 6428 10a8 01       		.byte	0x1
ARM GAS  /tmp/ccxMPRSl.s 			page 115


 6429 10a9 7A03     		.2byte	0x37a
 6430 10ab 45000000 		.4byte	0x45
 6431 10af 00       		.byte	0
 6432 10b0 22       		.uleb128 0x22
 6433 10b1 940E0000 		.4byte	0xe94
 6434 10b5 01       		.byte	0x1
 6435 10b6 7E03     		.2byte	0x37e
 6436 10b8 01       		.byte	0x1
 6437 10b9 C1100000 		.4byte	0x10c1
 6438 10bd D7100000 		.4byte	0x10d7
 6439 10c1 23       		.uleb128 0x23
 6440 10c2 2B070000 		.4byte	.LASF252
 6441 10c6 78100000 		.4byte	0x1078
 6442 10ca 24       		.uleb128 0x24
 6443 10cb F5080000 		.4byte	.LASF250
 6444 10cf 01       		.byte	0x1
 6445 10d0 7E03     		.2byte	0x37e
 6446 10d2 45000000 		.4byte	0x45
 6447 10d6 00       		.byte	0
 6448 10d7 22       		.uleb128 0x22
 6449 10d8 070F0000 		.4byte	0xf07
 6450 10dc 01       		.byte	0x1
 6451 10dd A602     		.2byte	0x2a6
 6452 10df 01       		.byte	0x1
 6453 10e0 E8100000 		.4byte	0x10e8
 6454 10e4 F2100000 		.4byte	0x10f2
 6455 10e8 23       		.uleb128 0x23
 6456 10e9 2B070000 		.4byte	.LASF252
 6457 10ed 78100000 		.4byte	0x1078
 6458 10f1 00       		.byte	0
 6459 10f2 22       		.uleb128 0x22
 6460 10f3 3D0F0000 		.4byte	0xf3d
 6461 10f7 01       		.byte	0x1
 6462 10f8 A802     		.2byte	0x2a8
 6463 10fa 01       		.byte	0x1
 6464 10fb 03110000 		.4byte	0x1103
 6465 10ff 0D110000 		.4byte	0x110d
 6466 1103 23       		.uleb128 0x23
 6467 1104 2B070000 		.4byte	.LASF252
 6468 1108 78100000 		.4byte	0x1078
 6469 110c 00       		.byte	0
 6470 110d 22       		.uleb128 0x22
 6471 110e B80E0000 		.4byte	0xeb8
 6472 1112 01       		.byte	0x1
 6473 1113 8203     		.2byte	0x382
 6474 1115 01       		.byte	0x1
 6475 1116 1E110000 		.4byte	0x111e
 6476 111a 4C110000 		.4byte	0x114c
 6477 111e 23       		.uleb128 0x23
 6478 111f 2B070000 		.4byte	.LASF252
 6479 1123 78100000 		.4byte	0x1078
 6480 1127 24       		.uleb128 0x24
 6481 1128 F5080000 		.4byte	.LASF250
 6482 112c 01       		.byte	0x1
 6483 112d 8203     		.2byte	0x382
 6484 112f 45000000 		.4byte	0x45
 6485 1133 24       		.uleb128 0x24
ARM GAS  /tmp/ccxMPRSl.s 			page 116


 6486 1134 C10D0000 		.4byte	.LASF253
 6487 1138 01       		.byte	0x1
 6488 1139 8203     		.2byte	0x382
 6489 113b A5030000 		.4byte	0x3a5
 6490 113f 24       		.uleb128 0x24
 6491 1140 62090000 		.4byte	.LASF254
 6492 1144 01       		.byte	0x1
 6493 1145 8203     		.2byte	0x382
 6494 1147 45000000 		.4byte	0x45
 6495 114b 00       		.byte	0
 6496 114c 22       		.uleb128 0x22
 6497 114d 360A0000 		.4byte	0xa36
 6498 1151 01       		.byte	0x1
 6499 1152 1702     		.2byte	0x217
 6500 1154 01       		.byte	0x1
 6501 1155 5D110000 		.4byte	0x115d
 6502 1159 73110000 		.4byte	0x1173
 6503 115d 23       		.uleb128 0x23
 6504 115e 2B070000 		.4byte	.LASF252
 6505 1162 78100000 		.4byte	0x1078
 6506 1166 24       		.uleb128 0x24
 6507 1167 B7040000 		.4byte	.LASF63
 6508 116b 01       		.byte	0x1
 6509 116c 1702     		.2byte	0x217
 6510 116e 57000000 		.4byte	0x57
 6511 1172 00       		.byte	0
 6512 1173 22       		.uleb128 0x22
 6513 1174 590A0000 		.4byte	0xa59
 6514 1178 01       		.byte	0x1
 6515 1179 1C02     		.2byte	0x21c
 6516 117b 01       		.byte	0x1
 6517 117c 84110000 		.4byte	0x1184
 6518 1180 9A110000 		.4byte	0x119a
 6519 1184 23       		.uleb128 0x23
 6520 1185 2B070000 		.4byte	.LASF252
 6521 1189 78100000 		.4byte	0x1078
 6522 118d 24       		.uleb128 0x24
 6523 118e B80F0000 		.4byte	.LASF64
 6524 1192 01       		.byte	0x1
 6525 1193 1C02     		.2byte	0x21c
 6526 1195 57000000 		.4byte	0x57
 6527 1199 00       		.byte	0
 6528 119a 22       		.uleb128 0x22
 6529 119b 210E0000 		.4byte	0xe21
 6530 119f 01       		.byte	0x1
 6531 11a0 8603     		.2byte	0x386
 6532 11a2 01       		.byte	0x1
 6533 11a3 AB110000 		.4byte	0x11ab
 6534 11a7 C1110000 		.4byte	0x11c1
 6535 11ab 23       		.uleb128 0x23
 6536 11ac 2B070000 		.4byte	.LASF252
 6537 11b0 78100000 		.4byte	0x1078
 6538 11b4 24       		.uleb128 0x24
 6539 11b5 F5080000 		.4byte	.LASF250
 6540 11b9 01       		.byte	0x1
 6541 11ba 8603     		.2byte	0x386
 6542 11bc 45000000 		.4byte	0x45
ARM GAS  /tmp/ccxMPRSl.s 			page 117


 6543 11c0 00       		.byte	0
 6544 11c1 22       		.uleb128 0x22
 6545 11c2 450E0000 		.4byte	0xe45
 6546 11c6 01       		.byte	0x1
 6547 11c7 8A03     		.2byte	0x38a
 6548 11c9 01       		.byte	0x1
 6549 11ca D2110000 		.4byte	0x11d2
 6550 11ce 00120000 		.4byte	0x1200
 6551 11d2 23       		.uleb128 0x23
 6552 11d3 2B070000 		.4byte	.LASF252
 6553 11d7 78100000 		.4byte	0x1078
 6554 11db 24       		.uleb128 0x24
 6555 11dc F5080000 		.4byte	.LASF250
 6556 11e0 01       		.byte	0x1
 6557 11e1 8A03     		.2byte	0x38a
 6558 11e3 45000000 		.4byte	0x45
 6559 11e7 24       		.uleb128 0x24
 6560 11e8 C10D0000 		.4byte	.LASF253
 6561 11ec 01       		.byte	0x1
 6562 11ed 8A03     		.2byte	0x38a
 6563 11ef A5030000 		.4byte	0x3a5
 6564 11f3 24       		.uleb128 0x24
 6565 11f4 62090000 		.4byte	.LASF254
 6566 11f8 01       		.byte	0x1
 6567 11f9 8A03     		.2byte	0x38a
 6568 11fb 45000000 		.4byte	0x45
 6569 11ff 00       		.byte	0
 6570 1200 22       		.uleb128 0x22
 6571 1201 42090000 		.4byte	0x942
 6572 1205 01       		.byte	0x1
 6573 1206 C901     		.2byte	0x1c9
 6574 1208 01       		.byte	0x1
 6575 1209 11120000 		.4byte	0x1211
 6576 120d 35120000 		.4byte	0x1235
 6577 1211 23       		.uleb128 0x23
 6578 1212 2B070000 		.4byte	.LASF252
 6579 1216 78100000 		.4byte	0x1078
 6580 121a 24       		.uleb128 0x24
 6581 121b AB050000 		.4byte	.LASF255
 6582 121f 01       		.byte	0x1
 6583 1220 C901     		.2byte	0x1c9
 6584 1222 B5060000 		.4byte	0x6b5
 6585 1226 26       		.uleb128 0x26
 6586 1227 27       		.uleb128 0x27
 6587 1228 98060000 		.4byte	.LASF95
 6588 122c 01       		.byte	0x1
 6589 122d CA01     		.2byte	0x1ca
 6590 122f 45000000 		.4byte	0x45
 6591 1233 00       		.byte	0
 6592 1234 00       		.byte	0
 6593 1235 22       		.uleb128 0x22
 6594 1236 7C0A0000 		.4byte	0xa7c
 6595 123a 01       		.byte	0x1
 6596 123b 2102     		.2byte	0x221
 6597 123d 01       		.byte	0x1
 6598 123e 46120000 		.4byte	0x1246
 6599 1242 5C120000 		.4byte	0x125c
ARM GAS  /tmp/ccxMPRSl.s 			page 118


 6600 1246 23       		.uleb128 0x23
 6601 1247 2B070000 		.4byte	.LASF252
 6602 124b 78100000 		.4byte	0x1078
 6603 124f 28       		.uleb128 0x28
 6604 1250 6D616700 		.ascii	"mag\000"
 6605 1254 01       		.byte	0x1
 6606 1255 2102     		.2byte	0x221
 6607 1257 57000000 		.4byte	0x57
 6608 125b 00       		.byte	0
 6609 125c 29       		.uleb128 0x29
 6610 125d A60D0000 		.4byte	0xda6
 6611 1261 01       		.byte	0x1
 6612 1262 2A       		.byte	0x2a
 6613 1263 00000000 		.4byte	.LFB13
 6614 1267 B2000000 		.4byte	.LFE13-.LFB13
 6615 126b 01       		.uleb128 0x1
 6616 126c 9C       		.byte	0x9c
 6617 126d 75120000 		.4byte	0x1275
 6618 1271 C1120000 		.4byte	0x12c1
 6619 1275 2A       		.uleb128 0x2a
 6620 1276 2B070000 		.4byte	.LASF252
 6621 127a 78100000 		.4byte	0x1078
 6622 127e 01       		.uleb128 0x1
 6623 127f 50       		.byte	0x50
 6624 1280 2B       		.uleb128 0x2b
 6625 1281 51060000 		.4byte	.LASF256
 6626 1285 01       		.byte	0x1
 6627 1286 2A       		.byte	0x2a
 6628 1287 A2000000 		.4byte	0xa2
 6629 128b 00000000 		.4byte	.LLST0
 6630 128f 2B       		.uleb128 0x2b
 6631 1290 A4030000 		.4byte	.LASF257
 6632 1294 01       		.byte	0x1
 6633 1295 2A       		.byte	0x2a
 6634 1296 45000000 		.4byte	0x45
 6635 129a 2D000000 		.4byte	.LLST1
 6636 129e 2B       		.uleb128 0x2b
 6637 129f 26000000 		.4byte	.LASF258
 6638 12a3 01       		.byte	0x1
 6639 12a4 2A       		.byte	0x2a
 6640 12a5 45000000 		.4byte	0x45
 6641 12a9 5A000000 		.4byte	.LLST2
 6642 12ad 2C       		.uleb128 0x2c
 6643 12ae 00000000 		.4byte	.Ldebug_ranges0+0
 6644 12b2 2D       		.uleb128 0x2d
 6645 12b3 6900     		.ascii	"i\000"
 6646 12b5 01       		.byte	0x1
 6647 12b6 78       		.byte	0x78
 6648 12b7 25000000 		.4byte	0x25
 6649 12bb 7B000000 		.4byte	.LLST3
 6650 12bf 00       		.byte	0
 6651 12c0 00       		.byte	0
 6652 12c1 2E       		.uleb128 0x2e
 6653 12c2 49080000 		.4byte	0x849
 6654 12c6 01       		.byte	0x1
 6655 12c7 20       		.byte	0x20
 6656 12c8 00       		.byte	0
ARM GAS  /tmp/ccxMPRSl.s 			page 119


 6657 12c9 D1120000 		.4byte	0x12d1
 6658 12cd E6120000 		.4byte	0x12e6
 6659 12d1 23       		.uleb128 0x23
 6660 12d2 2B070000 		.4byte	.LASF252
 6661 12d6 78100000 		.4byte	0x1078
 6662 12da 2F       		.uleb128 0x2f
 6663 12db 69326300 		.ascii	"i2c\000"
 6664 12df 01       		.byte	0x1
 6665 12e0 20       		.byte	0x20
 6666 12e1 AF060000 		.4byte	0x6af
 6667 12e5 00       		.byte	0
 6668 12e6 30       		.uleb128 0x30
 6669 12e7 C1120000 		.4byte	0x12c1
 6670 12eb 630A0000 		.4byte	.LASF259
 6671 12ef 00000000 		.4byte	.LFB8
 6672 12f3 16000000 		.4byte	.LFE8-.LFB8
 6673 12f7 01       		.uleb128 0x1
 6674 12f8 9C       		.byte	0x9c
 6675 12f9 01130000 		.4byte	0x1301
 6676 12fd 34130000 		.4byte	0x1334
 6677 1301 31       		.uleb128 0x31
 6678 1302 D1120000 		.4byte	0x12d1
 6679 1306 AD000000 		.4byte	.LLST4
 6680 130a 31       		.uleb128 0x31
 6681 130b DA120000 		.4byte	0x12da
 6682 130f CB000000 		.4byte	.LLST5
 6683 1313 32       		.uleb128 0x32
 6684 1314 12000000 		.4byte	.LVL9
 6685 1318 5C120000 		.4byte	0x125c
 6686 131c 33       		.uleb128 0x33
 6687 131d 01       		.uleb128 0x1
 6688 131e 53       		.byte	0x53
 6689 131f 01       		.uleb128 0x1
 6690 1320 4E       		.byte	0x4e
 6691 1321 33       		.uleb128 0x33
 6692 1322 01       		.uleb128 0x1
 6693 1323 52       		.byte	0x52
 6694 1324 02       		.uleb128 0x2
 6695 1325 08       		.byte	0x8
 6696 1326 6B       		.byte	0x6b
 6697 1327 33       		.uleb128 0x33
 6698 1328 01       		.uleb128 0x1
 6699 1329 51       		.byte	0x51
 6700 132a 01       		.uleb128 0x1
 6701 132b 31       		.byte	0x31
 6702 132c 33       		.uleb128 0x33
 6703 132d 01       		.uleb128 0x1
 6704 132e 50       		.byte	0x50
 6705 132f 02       		.uleb128 0x2
 6706 1330 74       		.byte	0x74
 6707 1331 00       		.sleb128 0
 6708 1332 00       		.byte	0
 6709 1333 00       		.byte	0
 6710 1334 2E       		.uleb128 0x2e
 6711 1335 1B080000 		.4byte	0x81b
 6712 1339 01       		.byte	0x1
 6713 133a 24       		.byte	0x24
ARM GAS  /tmp/ccxMPRSl.s 			page 120


 6714 133b 00       		.byte	0
 6715 133c 44130000 		.4byte	0x1344
 6716 1340 7A130000 		.4byte	0x137a
 6717 1344 23       		.uleb128 0x23
 6718 1345 2B070000 		.4byte	.LASF252
 6719 1349 78100000 		.4byte	0x1078
 6720 134d 2F       		.uleb128 0x2f
 6721 134e 69326300 		.ascii	"i2c\000"
 6722 1352 01       		.byte	0x1
 6723 1353 24       		.byte	0x24
 6724 1354 AF060000 		.4byte	0x6af
 6725 1358 34       		.uleb128 0x34
 6726 1359 51060000 		.4byte	.LASF256
 6727 135d 01       		.byte	0x1
 6728 135e 24       		.byte	0x24
 6729 135f A2000000 		.4byte	0xa2
 6730 1363 34       		.uleb128 0x34
 6731 1364 A4030000 		.4byte	.LASF257
 6732 1368 01       		.byte	0x1
 6733 1369 24       		.byte	0x24
 6734 136a 45000000 		.4byte	0x45
 6735 136e 34       		.uleb128 0x34
 6736 136f 26000000 		.4byte	.LASF258
 6737 1373 01       		.byte	0x1
 6738 1374 25       		.byte	0x25
 6739 1375 45000000 		.4byte	0x45
 6740 1379 00       		.byte	0
 6741 137a 30       		.uleb128 0x30
 6742 137b 34130000 		.4byte	0x1334
 6743 137f F1040000 		.4byte	.LASF260
 6744 1383 00000000 		.4byte	.LFB11
 6745 1387 1A000000 		.4byte	.LFE11-.LFB11
 6746 138b 01       		.uleb128 0x1
 6747 138c 9C       		.byte	0x9c
 6748 138d 95130000 		.4byte	0x1395
 6749 1391 D8130000 		.4byte	0x13d8
 6750 1395 31       		.uleb128 0x31
 6751 1396 44130000 		.4byte	0x1344
 6752 139a F9000000 		.4byte	.LLST6
 6753 139e 31       		.uleb128 0x31
 6754 139f 4D130000 		.4byte	0x134d
 6755 13a3 17010000 		.4byte	.LLST7
 6756 13a7 31       		.uleb128 0x31
 6757 13a8 58130000 		.4byte	0x1358
 6758 13ac 45010000 		.4byte	.LLST8
 6759 13b0 31       		.uleb128 0x31
 6760 13b1 63130000 		.4byte	0x1363
 6761 13b5 66010000 		.4byte	.LLST9
 6762 13b9 35       		.uleb128 0x35
 6763 13ba 6E130000 		.4byte	0x136e
 6764 13be 02       		.uleb128 0x2
 6765 13bf 91       		.byte	0x91
 6766 13c0 00       		.sleb128 0
 6767 13c1 32       		.uleb128 0x32
 6768 13c2 16000000 		.4byte	.LVL14
 6769 13c6 5C120000 		.4byte	0x125c
 6770 13ca 33       		.uleb128 0x33
ARM GAS  /tmp/ccxMPRSl.s 			page 121


 6771 13cb 01       		.uleb128 0x1
 6772 13cc 53       		.byte	0x53
 6773 13cd 02       		.uleb128 0x2
 6774 13ce 75       		.byte	0x75
 6775 13cf 00       		.sleb128 0
 6776 13d0 33       		.uleb128 0x33
 6777 13d1 01       		.uleb128 0x1
 6778 13d2 50       		.byte	0x50
 6779 13d3 02       		.uleb128 0x2
 6780 13d4 74       		.byte	0x74
 6781 13d5 00       		.sleb128 0
 6782 13d6 00       		.byte	0
 6783 13d7 00       		.byte	0
 6784 13d8 29       		.uleb128 0x29
 6785 13d9 D00D0000 		.4byte	0xdd0
 6786 13dd 01       		.byte	0x1
 6787 13de A4       		.byte	0xa4
 6788 13df 00000000 		.4byte	.LFB15
 6789 13e3 D4000000 		.4byte	.LFE15-.LFB15
 6790 13e7 01       		.uleb128 0x1
 6791 13e8 9C       		.byte	0x9c
 6792 13e9 F1130000 		.4byte	0x13f1
 6793 13ed 39150000 		.4byte	0x1539
 6794 13f1 36       		.uleb128 0x36
 6795 13f2 2B070000 		.4byte	.LASF252
 6796 13f6 78100000 		.4byte	0x1078
 6797 13fa 87010000 		.4byte	.LLST10
 6798 13fe 2C       		.uleb128 0x2c
 6799 13ff 20000000 		.4byte	.Ldebug_ranges0+0x20
 6800 1403 37       		.uleb128 0x37
 6801 1404 ED0F0000 		.4byte	.LASF261
 6802 1408 01       		.byte	0x1
 6803 1409 A5       		.byte	0xa5
 6804 140a 45000000 		.4byte	0x45
 6805 140e B3010000 		.4byte	.LLST11
 6806 1412 38       		.uleb128 0x38
 6807 1413 45100000 		.4byte	0x1045
 6808 1417 28000000 		.4byte	.LBB203
 6809 141b 40000000 		.4byte	.Ldebug_ranges0+0x40
 6810 141f 01       		.byte	0x1
 6811 1420 BC       		.byte	0xbc
 6812 1421 4D140000 		.4byte	0x144d
 6813 1425 31       		.uleb128 0x31
 6814 1426 6B100000 		.4byte	0x106b
 6815 142a 8B020000 		.4byte	.LLST12
 6816 142e 39       		.uleb128 0x39
 6817 142f 5F100000 		.4byte	0x105f
 6818 1433 10       		.byte	0x10
 6819 1434 31       		.uleb128 0x31
 6820 1435 56100000 		.4byte	0x1056
 6821 1439 BA020000 		.4byte	.LLST13
 6822 143d 32       		.uleb128 0x32
 6823 143e 3C000000 		.4byte	.LVL23
 6824 1442 E7050000 		.4byte	0x5e7
 6825 1446 33       		.uleb128 0x33
 6826 1447 01       		.uleb128 0x1
 6827 1448 52       		.byte	0x52
ARM GAS  /tmp/ccxMPRSl.s 			page 122


 6828 1449 01       		.uleb128 0x1
 6829 144a 40       		.byte	0x40
 6830 144b 00       		.byte	0
 6831 144c 00       		.byte	0
 6832 144d 3A       		.uleb128 0x3a
 6833 144e 45100000 		.4byte	0x1045
 6834 1452 3C000000 		.4byte	.LBB207
 6835 1456 10000000 		.4byte	.LBE207-.LBB207
 6836 145a 01       		.byte	0x1
 6837 145b C2       		.byte	0xc2
 6838 145c 8A140000 		.4byte	0x148a
 6839 1460 39       		.uleb128 0x39
 6840 1461 6B100000 		.4byte	0x106b
 6841 1465 00       		.byte	0
 6842 1466 39       		.uleb128 0x39
 6843 1467 5F100000 		.4byte	0x105f
 6844 146b 11       		.byte	0x11
 6845 146c 31       		.uleb128 0x31
 6846 146d 56100000 		.4byte	0x1056
 6847 1471 DB020000 		.4byte	.LLST14
 6848 1475 32       		.uleb128 0x32
 6849 1476 4C000000 		.4byte	.LVL24
 6850 147a E7050000 		.4byte	0x5e7
 6851 147e 33       		.uleb128 0x33
 6852 147f 01       		.uleb128 0x1
 6853 1480 53       		.byte	0x53
 6854 1481 01       		.uleb128 0x1
 6855 1482 30       		.byte	0x30
 6856 1483 33       		.uleb128 0x33
 6857 1484 01       		.uleb128 0x1
 6858 1485 52       		.byte	0x52
 6859 1486 01       		.uleb128 0x1
 6860 1487 41       		.byte	0x41
 6861 1488 00       		.byte	0
 6862 1489 00       		.byte	0
 6863 148a 3A       		.uleb128 0x3a
 6864 148b 45100000 		.4byte	0x1045
 6865 148f 66000000 		.4byte	.LBB209
 6866 1493 0E000000 		.4byte	.LBE209-.LBB209
 6867 1497 01       		.byte	0x1
 6868 1498 CD       		.byte	0xcd
 6869 1499 C5140000 		.4byte	0x14c5
 6870 149d 31       		.uleb128 0x31
 6871 149e 6B100000 		.4byte	0x106b
 6872 14a2 FC020000 		.4byte	.LLST15
 6873 14a6 39       		.uleb128 0x39
 6874 14a7 5F100000 		.4byte	0x105f
 6875 14ab 12       		.byte	0x12
 6876 14ac 31       		.uleb128 0x31
 6877 14ad 56100000 		.4byte	0x1056
 6878 14b1 0F030000 		.4byte	.LLST16
 6879 14b5 32       		.uleb128 0x32
 6880 14b6 74000000 		.4byte	.LVL27
 6881 14ba E7050000 		.4byte	0x5e7
 6882 14be 33       		.uleb128 0x33
 6883 14bf 01       		.uleb128 0x1
 6884 14c0 52       		.byte	0x52
ARM GAS  /tmp/ccxMPRSl.s 			page 123


 6885 14c1 01       		.uleb128 0x1
 6886 14c2 42       		.byte	0x42
 6887 14c3 00       		.byte	0
 6888 14c4 00       		.byte	0
 6889 14c5 3A       		.uleb128 0x3a
 6890 14c6 45100000 		.4byte	0x1045
 6891 14ca 98000000 		.4byte	.LBB211
 6892 14ce 0E000000 		.4byte	.LBE211-.LBB211
 6893 14d2 01       		.byte	0x1
 6894 14d3 DB       		.byte	0xdb
 6895 14d4 00150000 		.4byte	0x1500
 6896 14d8 31       		.uleb128 0x31
 6897 14d9 6B100000 		.4byte	0x106b
 6898 14dd 30030000 		.4byte	.LLST17
 6899 14e1 39       		.uleb128 0x39
 6900 14e2 5F100000 		.4byte	0x105f
 6901 14e6 1E       		.byte	0x1e
 6902 14e7 31       		.uleb128 0x31
 6903 14e8 56100000 		.4byte	0x1056
 6904 14ec 43030000 		.4byte	.LLST18
 6905 14f0 32       		.uleb128 0x32
 6906 14f1 A6000000 		.4byte	.LVL33
 6907 14f5 E7050000 		.4byte	0x5e7
 6908 14f9 33       		.uleb128 0x33
 6909 14fa 01       		.uleb128 0x1
 6910 14fb 52       		.byte	0x52
 6911 14fc 01       		.uleb128 0x1
 6912 14fd 4E       		.byte	0x4e
 6913 14fe 00       		.byte	0
 6914 14ff 00       		.byte	0
 6915 1500 3B       		.uleb128 0x3b
 6916 1501 45100000 		.4byte	0x1045
 6917 1505 C2000000 		.4byte	.LBB213
 6918 1509 58000000 		.4byte	.Ldebug_ranges0+0x58
 6919 150d 01       		.byte	0x1
 6920 150e E5       		.byte	0xe5
 6921 150f 31       		.uleb128 0x31
 6922 1510 6B100000 		.4byte	0x106b
 6923 1514 64030000 		.4byte	.LLST19
 6924 1518 39       		.uleb128 0x39
 6925 1519 5F100000 		.4byte	0x105f
 6926 151d 13       		.byte	0x13
 6927 151e 31       		.uleb128 0x31
 6928 151f 56100000 		.4byte	0x1056
 6929 1523 77030000 		.4byte	.LLST20
 6930 1527 3C       		.uleb128 0x3c
 6931 1528 D4000000 		.4byte	.LVL39
 6932 152c E7050000 		.4byte	0x5e7
 6933 1530 33       		.uleb128 0x33
 6934 1531 01       		.uleb128 0x1
 6935 1532 52       		.byte	0x52
 6936 1533 01       		.uleb128 0x1
 6937 1534 43       		.byte	0x43
 6938 1535 00       		.byte	0
 6939 1536 00       		.byte	0
 6940 1537 00       		.byte	0
 6941 1538 00       		.byte	0
ARM GAS  /tmp/ccxMPRSl.s 			page 124


 6942 1539 29       		.uleb128 0x29
 6943 153a EB0D0000 		.4byte	0xdeb
 6944 153e 01       		.byte	0x1
 6945 153f E8       		.byte	0xe8
 6946 1540 00000000 		.4byte	.LFB16
 6947 1544 98000000 		.4byte	.LFE16-.LFB16
 6948 1548 01       		.uleb128 0x1
 6949 1549 9C       		.byte	0x9c
 6950 154a 52150000 		.4byte	0x1552
 6951 154e 26160000 		.4byte	0x1626
 6952 1552 36       		.uleb128 0x36
 6953 1553 2B070000 		.4byte	.LASF252
 6954 1557 78100000 		.4byte	0x1078
 6955 155b 98030000 		.4byte	.LLST21
 6956 155f 2C       		.uleb128 0x2c
 6957 1560 70000000 		.4byte	.Ldebug_ranges0+0x70
 6958 1564 37       		.uleb128 0x37
 6959 1565 ED0F0000 		.4byte	.LASF261
 6960 1569 01       		.byte	0x1
 6961 156a E9       		.byte	0xe9
 6962 156b 45000000 		.4byte	0x45
 6963 156f C4030000 		.4byte	.LLST22
 6964 1573 3A       		.uleb128 0x3a
 6965 1574 45100000 		.4byte	0x1045
 6966 1578 20000000 		.4byte	.LBB220
 6967 157c 0E000000 		.4byte	.LBE220-.LBB220
 6968 1580 01       		.byte	0x1
 6969 1581 F6       		.byte	0xf6
 6970 1582 AE150000 		.4byte	0x15ae
 6971 1586 31       		.uleb128 0x31
 6972 1587 6B100000 		.4byte	0x106b
 6973 158b 5F040000 		.4byte	.LLST23
 6974 158f 39       		.uleb128 0x39
 6975 1590 5F100000 		.4byte	0x105f
 6976 1594 1F       		.byte	0x1f
 6977 1595 31       		.uleb128 0x31
 6978 1596 56100000 		.4byte	0x1056
 6979 159a 72040000 		.4byte	.LLST24
 6980 159e 32       		.uleb128 0x32
 6981 159f 2E000000 		.4byte	.LVL46
 6982 15a3 E7050000 		.4byte	0x5e7
 6983 15a7 33       		.uleb128 0x33
 6984 15a8 01       		.uleb128 0x1
 6985 15a9 52       		.byte	0x52
 6986 15aa 01       		.uleb128 0x1
 6987 15ab 4F       		.byte	0x4f
 6988 15ac 00       		.byte	0
 6989 15ad 00       		.byte	0
 6990 15ae 3D       		.uleb128 0x3d
 6991 15af 45100000 		.4byte	0x1045
 6992 15b3 58000000 		.4byte	.LBB222
 6993 15b7 90000000 		.4byte	.Ldebug_ranges0+0x90
 6994 15bb 01       		.byte	0x1
 6995 15bc 1301     		.2byte	0x113
 6996 15be EB150000 		.4byte	0x15eb
 6997 15c2 31       		.uleb128 0x31
 6998 15c3 6B100000 		.4byte	0x106b
ARM GAS  /tmp/ccxMPRSl.s 			page 125


 6999 15c7 9E040000 		.4byte	.LLST25
 7000 15cb 39       		.uleb128 0x39
 7001 15cc 5F100000 		.4byte	0x105f
 7002 15d0 20       		.byte	0x20
 7003 15d1 31       		.uleb128 0x31
 7004 15d2 56100000 		.4byte	0x1056
 7005 15d6 B1040000 		.4byte	.LLST26
 7006 15da 32       		.uleb128 0x32
 7007 15db 76000000 		.4byte	.LVL52
 7008 15df E7050000 		.4byte	0x5e7
 7009 15e3 33       		.uleb128 0x33
 7010 15e4 01       		.uleb128 0x1
 7011 15e5 52       		.byte	0x52
 7012 15e6 02       		.uleb128 0x2
 7013 15e7 08       		.byte	0x8
 7014 15e8 20       		.byte	0x20
 7015 15e9 00       		.byte	0
 7016 15ea 00       		.byte	0
 7017 15eb 3E       		.uleb128 0x3e
 7018 15ec 45100000 		.4byte	0x1045
 7019 15f0 86000000 		.4byte	.LBB226
 7020 15f4 A8000000 		.4byte	.Ldebug_ranges0+0xa8
 7021 15f8 01       		.byte	0x1
 7022 15f9 2001     		.2byte	0x120
 7023 15fb 31       		.uleb128 0x31
 7024 15fc 6B100000 		.4byte	0x106b
 7025 1600 D2040000 		.4byte	.LLST27
 7026 1604 39       		.uleb128 0x39
 7027 1605 5F100000 		.4byte	0x105f
 7028 1609 21       		.byte	0x21
 7029 160a 31       		.uleb128 0x31
 7030 160b 56100000 		.4byte	0x1056
 7031 160f E5040000 		.4byte	.LLST28
 7032 1613 3C       		.uleb128 0x3c
 7033 1614 98000000 		.4byte	.LVL56
 7034 1618 E7050000 		.4byte	0x5e7
 7035 161c 33       		.uleb128 0x33
 7036 161d 01       		.uleb128 0x1
 7037 161e 52       		.byte	0x52
 7038 161f 02       		.uleb128 0x2
 7039 1620 08       		.byte	0x8
 7040 1621 21       		.byte	0x21
 7041 1622 00       		.byte	0
 7042 1623 00       		.byte	0
 7043 1624 00       		.byte	0
 7044 1625 00       		.byte	0
 7045 1626 3F       		.uleb128 0x3f
 7046 1627 C4080000 		.4byte	0x8c4
 7047 162b 01       		.byte	0x1
 7048 162c 6B01     		.2byte	0x16b
 7049 162e 00000000 		.4byte	.LFB19
 7050 1632 3E000000 		.4byte	.LFE19-.LFB19
 7051 1636 01       		.uleb128 0x1
 7052 1637 9C       		.byte	0x9c
 7053 1638 40160000 		.4byte	0x1640
 7054 163c 0F170000 		.4byte	0x170f
 7055 1640 36       		.uleb128 0x36
ARM GAS  /tmp/ccxMPRSl.s 			page 126


 7056 1641 2B070000 		.4byte	.LASF252
 7057 1645 78100000 		.4byte	0x1078
 7058 1649 06050000 		.4byte	.LLST29
 7059 164d 40       		.uleb128 0x40
 7060 164e AB050000 		.4byte	.LASF255
 7061 1652 01       		.byte	0x1
 7062 1653 6B01     		.2byte	0x16b
 7063 1655 45000000 		.4byte	0x45
 7064 1659 32050000 		.4byte	.LLST30
 7065 165d 40       		.uleb128 0x40
 7066 165e 460E0000 		.4byte	.LASF262
 7067 1662 01       		.byte	0x1
 7068 1663 6B01     		.2byte	0x16b
 7069 1665 57000000 		.4byte	0x57
 7070 1669 53050000 		.4byte	.LLST31
 7071 166d 2C       		.uleb128 0x2c
 7072 166e C0000000 		.4byte	.Ldebug_ranges0+0xc0
 7073 1672 41       		.uleb128 0x41
 7074 1673 6D736200 		.ascii	"msb\000"
 7075 1677 01       		.byte	0x1
 7076 1678 6D01     		.2byte	0x16d
 7077 167a 45000000 		.4byte	0x45
 7078 167e 74050000 		.4byte	.LLST32
 7079 1682 41       		.uleb128 0x41
 7080 1683 6C736200 		.ascii	"lsb\000"
 7081 1687 01       		.byte	0x1
 7082 1688 6D01     		.2byte	0x16d
 7083 168a 45000000 		.4byte	0x45
 7084 168e AA050000 		.4byte	.LLST33
 7085 1692 3D       		.uleb128 0x3d
 7086 1693 7D100000 		.4byte	0x107d
 7087 1697 12000000 		.4byte	.LBB233
 7088 169b E0000000 		.4byte	.Ldebug_ranges0+0xe0
 7089 169f 01       		.byte	0x1
 7090 16a0 7001     		.2byte	0x170
 7091 16a2 DC160000 		.4byte	0x16dc
 7092 16a6 31       		.uleb128 0x31
 7093 16a7 A3100000 		.4byte	0x10a3
 7094 16ab AA050000 		.4byte	.LLST33
 7095 16af 31       		.uleb128 0x31
 7096 16b0 97100000 		.4byte	0x1097
 7097 16b4 C8050000 		.4byte	.LLST35
 7098 16b8 31       		.uleb128 0x31
 7099 16b9 8E100000 		.4byte	0x108e
 7100 16bd 03060000 		.4byte	.LLST36
 7101 16c1 32       		.uleb128 0x32
 7102 16c2 24000000 		.4byte	.LVL63
 7103 16c6 E7050000 		.4byte	0x5e7
 7104 16ca 33       		.uleb128 0x33
 7105 16cb 01       		.uleb128 0x1
 7106 16cc 53       		.byte	0x53
 7107 16cd 02       		.uleb128 0x2
 7108 16ce 76       		.byte	0x76
 7109 16cf 00       		.sleb128 0
 7110 16d0 33       		.uleb128 0x33
 7111 16d1 01       		.uleb128 0x1
 7112 16d2 52       		.byte	0x52
ARM GAS  /tmp/ccxMPRSl.s 			page 127


 7113 16d3 06       		.uleb128 0x6
 7114 16d4 74       		.byte	0x74
 7115 16d5 7D       		.sleb128 -3
 7116 16d6 31       		.byte	0x31
 7117 16d7 24       		.byte	0x24
 7118 16d8 23       		.byte	0x23
 7119 16d9 05       		.uleb128 0x5
 7120 16da 00       		.byte	0
 7121 16db 00       		.byte	0
 7122 16dc 3E       		.uleb128 0x3e
 7123 16dd 7D100000 		.4byte	0x107d
 7124 16e1 26000000 		.4byte	.LBB237
 7125 16e5 F8000000 		.4byte	.Ldebug_ranges0+0xf8
 7126 16e9 01       		.byte	0x1
 7127 16ea 7101     		.2byte	0x171
 7128 16ec 31       		.uleb128 0x31
 7129 16ed A3100000 		.4byte	0x10a3
 7130 16f1 2F060000 		.4byte	.LLST37
 7131 16f5 42       		.uleb128 0x42
 7132 16f6 97100000 		.4byte	0x1097
 7133 16fa 31       		.uleb128 0x31
 7134 16fb 8E100000 		.4byte	0x108e
 7135 16ff 4E060000 		.4byte	.LLST38
 7136 1703 43       		.uleb128 0x43
 7137 1704 3E000000 		.4byte	.LVL65
 7138 1708 E7050000 		.4byte	0x5e7
 7139 170c 00       		.byte	0
 7140 170d 00       		.byte	0
 7141 170e 00       		.byte	0
 7142 170f 3F       		.uleb128 0x3f
 7143 1710 060E0000 		.4byte	0xe06
 7144 1714 01       		.byte	0x1
 7145 1715 7401     		.2byte	0x174
 7146 1717 00000000 		.4byte	.LFB20
 7147 171b AC000000 		.4byte	.LFE20-.LFB20
 7148 171f 01       		.uleb128 0x1
 7149 1720 9C       		.byte	0x9c
 7150 1721 29170000 		.4byte	0x1729
 7151 1725 7C180000 		.4byte	0x187c
 7152 1729 36       		.uleb128 0x36
 7153 172a 2B070000 		.4byte	.LASF252
 7154 172e 78100000 		.4byte	0x1078
 7155 1732 6F060000 		.4byte	.LLST39
 7156 1736 2C       		.uleb128 0x2c
 7157 1737 10010000 		.4byte	.Ldebug_ranges0+0x110
 7158 173b 44       		.uleb128 0x44
 7159 173c ED0F0000 		.4byte	.LASF261
 7160 1740 01       		.byte	0x1
 7161 1741 7501     		.2byte	0x175
 7162 1743 45000000 		.4byte	0x45
 7163 1747 9B060000 		.4byte	.LLST40
 7164 174b 45       		.uleb128 0x45
 7165 174c 7D100000 		.4byte	0x107d
 7166 1750 26000000 		.4byte	.LBB244
 7167 1754 14000000 		.4byte	.LBE244-.LBB244
 7168 1758 01       		.byte	0x1
 7169 1759 8201     		.2byte	0x182
ARM GAS  /tmp/ccxMPRSl.s 			page 128


 7170 175b 88170000 		.4byte	0x1788
 7171 175f 31       		.uleb128 0x31
 7172 1760 A3100000 		.4byte	0x10a3
 7173 1764 A3070000 		.4byte	.LLST41
 7174 1768 39       		.uleb128 0x39
 7175 1769 97100000 		.4byte	0x1097
 7176 176d 20       		.byte	0x20
 7177 176e 31       		.uleb128 0x31
 7178 176f 8E100000 		.4byte	0x108e
 7179 1773 26080000 		.4byte	.LLST42
 7180 1777 32       		.uleb128 0x32
 7181 1778 36000000 		.4byte	.LVL70
 7182 177c E7050000 		.4byte	0x5e7
 7183 1780 33       		.uleb128 0x33
 7184 1781 01       		.uleb128 0x1
 7185 1782 52       		.byte	0x52
 7186 1783 02       		.uleb128 0x2
 7187 1784 08       		.byte	0x8
 7188 1785 20       		.byte	0x20
 7189 1786 00       		.byte	0
 7190 1787 00       		.byte	0
 7191 1788 3D       		.uleb128 0x3d
 7192 1789 7D100000 		.4byte	0x107d
 7193 178d 3A000000 		.4byte	.LBB246
 7194 1791 30010000 		.4byte	.Ldebug_ranges0+0x130
 7195 1795 01       		.byte	0x1
 7196 1796 9601     		.2byte	0x196
 7197 1798 C5170000 		.4byte	0x17c5
 7198 179c 31       		.uleb128 0x31
 7199 179d A3100000 		.4byte	0x10a3
 7200 17a1 52080000 		.4byte	.LLST43
 7201 17a5 39       		.uleb128 0x39
 7202 17a6 97100000 		.4byte	0x1097
 7203 17aa 21       		.byte	0x21
 7204 17ab 31       		.uleb128 0x31
 7205 17ac 8E100000 		.4byte	0x108e
 7206 17b0 65080000 		.4byte	.LLST44
 7207 17b4 32       		.uleb128 0x32
 7208 17b5 5C000000 		.4byte	.LVL72
 7209 17b9 E7050000 		.4byte	0x5e7
 7210 17bd 33       		.uleb128 0x33
 7211 17be 01       		.uleb128 0x1
 7212 17bf 52       		.byte	0x52
 7213 17c0 02       		.uleb128 0x2
 7214 17c1 08       		.byte	0x8
 7215 17c2 21       		.byte	0x21
 7216 17c3 00       		.byte	0
 7217 17c4 00       		.byte	0
 7218 17c5 45       		.uleb128 0x45
 7219 17c6 7D100000 		.4byte	0x107d
 7220 17ca 70000000 		.4byte	.LBB250
 7221 17ce 10000000 		.4byte	.LBE250-.LBB250
 7222 17d2 01       		.byte	0x1
 7223 17d3 A301     		.2byte	0x1a3
 7224 17d5 02180000 		.4byte	0x1802
 7225 17d9 31       		.uleb128 0x31
 7226 17da A3100000 		.4byte	0x10a3
ARM GAS  /tmp/ccxMPRSl.s 			page 129


 7227 17de 86080000 		.4byte	.LLST45
 7228 17e2 39       		.uleb128 0x39
 7229 17e3 97100000 		.4byte	0x1097
 7230 17e7 22       		.byte	0x22
 7231 17e8 31       		.uleb128 0x31
 7232 17e9 8E100000 		.4byte	0x108e
 7233 17ed C5080000 		.4byte	.LLST46
 7234 17f1 32       		.uleb128 0x32
 7235 17f2 80000000 		.4byte	.LVL75
 7236 17f6 E7050000 		.4byte	0x5e7
 7237 17fa 33       		.uleb128 0x33
 7238 17fb 01       		.uleb128 0x1
 7239 17fc 52       		.byte	0x52
 7240 17fd 02       		.uleb128 0x2
 7241 17fe 08       		.byte	0x8
 7242 17ff 22       		.byte	0x22
 7243 1800 00       		.byte	0
 7244 1801 00       		.byte	0
 7245 1802 3D       		.uleb128 0x3d
 7246 1803 7D100000 		.4byte	0x107d
 7247 1807 84000000 		.4byte	.LBB252
 7248 180b 48010000 		.4byte	.Ldebug_ranges0+0x148
 7249 180f 01       		.byte	0x1
 7250 1810 AD01     		.2byte	0x1ad
 7251 1812 3F180000 		.4byte	0x183f
 7252 1816 31       		.uleb128 0x31
 7253 1817 A3100000 		.4byte	0x10a3
 7254 181b E6080000 		.4byte	.LLST47
 7255 181f 39       		.uleb128 0x39
 7256 1820 97100000 		.4byte	0x1097
 7257 1824 23       		.byte	0x23
 7258 1825 31       		.uleb128 0x31
 7259 1826 8E100000 		.4byte	0x108e
 7260 182a 01090000 		.4byte	.LLST48
 7261 182e 32       		.uleb128 0x32
 7262 182f 98000000 		.4byte	.LVL76
 7263 1833 E7050000 		.4byte	0x5e7
 7264 1837 33       		.uleb128 0x33
 7265 1838 01       		.uleb128 0x1
 7266 1839 52       		.byte	0x52
 7267 183a 02       		.uleb128 0x2
 7268 183b 08       		.byte	0x8
 7269 183c 23       		.byte	0x23
 7270 183d 00       		.byte	0
 7271 183e 00       		.byte	0
 7272 183f 3E       		.uleb128 0x3e
 7273 1840 7D100000 		.4byte	0x107d
 7274 1844 98000000 		.4byte	.LBB256
 7275 1848 60010000 		.4byte	.Ldebug_ranges0+0x160
 7276 184c 01       		.byte	0x1
 7277 184d B401     		.2byte	0x1b4
 7278 184f 39       		.uleb128 0x39
 7279 1850 A3100000 		.4byte	0x10a3
 7280 1854 00       		.byte	0
 7281 1855 39       		.uleb128 0x39
 7282 1856 97100000 		.4byte	0x1097
 7283 185a 24       		.byte	0x24
ARM GAS  /tmp/ccxMPRSl.s 			page 130


 7284 185b 31       		.uleb128 0x31
 7285 185c 8E100000 		.4byte	0x108e
 7286 1860 22090000 		.4byte	.LLST49
 7287 1864 3C       		.uleb128 0x3c
 7288 1865 AC000000 		.4byte	.LVL78
 7289 1869 E7050000 		.4byte	0x5e7
 7290 186d 33       		.uleb128 0x33
 7291 186e 01       		.uleb128 0x1
 7292 186f 53       		.byte	0x53
 7293 1870 01       		.uleb128 0x1
 7294 1871 30       		.byte	0x30
 7295 1872 33       		.uleb128 0x33
 7296 1873 01       		.uleb128 0x1
 7297 1874 52       		.byte	0x52
 7298 1875 02       		.uleb128 0x2
 7299 1876 08       		.byte	0x8
 7300 1877 24       		.byte	0x24
 7301 1878 00       		.byte	0
 7302 1879 00       		.byte	0
 7303 187a 00       		.byte	0
 7304 187b 00       		.byte	0
 7305 187c 3F       		.uleb128 0x3f
 7306 187d E8080000 		.4byte	0x8e8
 7307 1881 01       		.byte	0x1
 7308 1882 B701     		.2byte	0x1b7
 7309 1884 00000000 		.4byte	.LFB21
 7310 1888 18000000 		.4byte	.LFE21-.LFB21
 7311 188c 01       		.uleb128 0x1
 7312 188d 9C       		.byte	0x9c
 7313 188e 96180000 		.4byte	0x1896
 7314 1892 EE180000 		.4byte	0x18ee
 7315 1896 36       		.uleb128 0x36
 7316 1897 2B070000 		.4byte	.LASF252
 7317 189b 78100000 		.4byte	0x1078
 7318 189f 43090000 		.4byte	.LLST50
 7319 18a3 46       		.uleb128 0x46
 7320 18a4 04000000 		.4byte	.LBB262
 7321 18a8 0E000000 		.4byte	.LBE262-.LBB262
 7322 18ac 44       		.uleb128 0x44
 7323 18ad 98060000 		.4byte	.LASF95
 7324 18b1 01       		.byte	0x1
 7325 18b2 B801     		.2byte	0x1b8
 7326 18b4 45000000 		.4byte	0x45
 7327 18b8 6F090000 		.4byte	.LLST51
 7328 18bc 47       		.uleb128 0x47
 7329 18bd B0100000 		.4byte	0x10b0
 7330 18c1 04000000 		.4byte	.LBB263
 7331 18c5 0E000000 		.4byte	.LBE263-.LBB263
 7332 18c9 01       		.byte	0x1
 7333 18ca B801     		.2byte	0x1b8
 7334 18cc 39       		.uleb128 0x39
 7335 18cd CA100000 		.4byte	0x10ca
 7336 18d1 27       		.byte	0x27
 7337 18d2 31       		.uleb128 0x31
 7338 18d3 C1100000 		.4byte	0x10c1
 7339 18d7 82090000 		.4byte	.LLST52
 7340 18db 32       		.uleb128 0x32
ARM GAS  /tmp/ccxMPRSl.s 			page 131


 7341 18dc 12000000 		.4byte	.LVL82
 7342 18e0 34060000 		.4byte	0x634
 7343 18e4 33       		.uleb128 0x33
 7344 18e5 01       		.uleb128 0x1
 7345 18e6 52       		.byte	0x52
 7346 18e7 02       		.uleb128 0x2
 7347 18e8 08       		.byte	0x8
 7348 18e9 27       		.byte	0x27
 7349 18ea 00       		.byte	0
 7350 18eb 00       		.byte	0
 7351 18ec 00       		.byte	0
 7352 18ed 00       		.byte	0
 7353 18ee 3F       		.uleb128 0x3f
 7354 18ef 06090000 		.4byte	0x906
 7355 18f3 01       		.byte	0x1
 7356 18f4 BD01     		.2byte	0x1bd
 7357 18f6 00000000 		.4byte	.LFB22
 7358 18fa 18000000 		.4byte	.LFE22-.LFB22
 7359 18fe 01       		.uleb128 0x1
 7360 18ff 9C       		.byte	0x9c
 7361 1900 08190000 		.4byte	0x1908
 7362 1904 60190000 		.4byte	0x1960
 7363 1908 36       		.uleb128 0x36
 7364 1909 2B070000 		.4byte	.LASF252
 7365 190d 78100000 		.4byte	0x1078
 7366 1911 AE090000 		.4byte	.LLST53
 7367 1915 46       		.uleb128 0x46
 7368 1916 04000000 		.4byte	.LBB265
 7369 191a 0E000000 		.4byte	.LBE265-.LBB265
 7370 191e 44       		.uleb128 0x44
 7371 191f 98060000 		.4byte	.LASF95
 7372 1923 01       		.byte	0x1
 7373 1924 BE01     		.2byte	0x1be
 7374 1926 45000000 		.4byte	0x45
 7375 192a DA090000 		.4byte	.LLST54
 7376 192e 47       		.uleb128 0x47
 7377 192f B0100000 		.4byte	0x10b0
 7378 1933 04000000 		.4byte	.LBB266
 7379 1937 0E000000 		.4byte	.LBE266-.LBB266
 7380 193b 01       		.byte	0x1
 7381 193c BE01     		.2byte	0x1be
 7382 193e 39       		.uleb128 0x39
 7383 193f CA100000 		.4byte	0x10ca
 7384 1943 27       		.byte	0x27
 7385 1944 31       		.uleb128 0x31
 7386 1945 C1100000 		.4byte	0x10c1
 7387 1949 ED090000 		.4byte	.LLST55
 7388 194d 32       		.uleb128 0x32
 7389 194e 12000000 		.4byte	.LVL87
 7390 1952 34060000 		.4byte	0x634
 7391 1956 33       		.uleb128 0x33
 7392 1957 01       		.uleb128 0x1
 7393 1958 52       		.byte	0x52
 7394 1959 02       		.uleb128 0x2
 7395 195a 08       		.byte	0x8
 7396 195b 27       		.byte	0x27
 7397 195c 00       		.byte	0
ARM GAS  /tmp/ccxMPRSl.s 			page 132


 7398 195d 00       		.byte	0
 7399 195e 00       		.byte	0
 7400 195f 00       		.byte	0
 7401 1960 3F       		.uleb128 0x3f
 7402 1961 24090000 		.4byte	0x924
 7403 1965 01       		.byte	0x1
 7404 1966 C301     		.2byte	0x1c3
 7405 1968 00000000 		.4byte	.LFB23
 7406 196c 18000000 		.4byte	.LFE23-.LFB23
 7407 1970 01       		.uleb128 0x1
 7408 1971 9C       		.byte	0x9c
 7409 1972 7A190000 		.4byte	0x197a
 7410 1976 D2190000 		.4byte	0x19d2
 7411 197a 36       		.uleb128 0x36
 7412 197b 2B070000 		.4byte	.LASF252
 7413 197f 78100000 		.4byte	0x1078
 7414 1983 190A0000 		.4byte	.LLST56
 7415 1987 46       		.uleb128 0x46
 7416 1988 04000000 		.4byte	.LBB268
 7417 198c 0E000000 		.4byte	.LBE268-.LBB268
 7418 1990 44       		.uleb128 0x44
 7419 1991 98060000 		.4byte	.LASF95
 7420 1995 01       		.byte	0x1
 7421 1996 C401     		.2byte	0x1c4
 7422 1998 45000000 		.4byte	0x45
 7423 199c 450A0000 		.4byte	.LLST57
 7424 19a0 47       		.uleb128 0x47
 7425 19a1 B0100000 		.4byte	0x10b0
 7426 19a5 04000000 		.4byte	.LBB269
 7427 19a9 0E000000 		.4byte	.LBE269-.LBB269
 7428 19ad 01       		.byte	0x1
 7429 19ae C401     		.2byte	0x1c4
 7430 19b0 39       		.uleb128 0x39
 7431 19b1 CA100000 		.4byte	0x10ca
 7432 19b5 27       		.byte	0x27
 7433 19b6 31       		.uleb128 0x31
 7434 19b7 C1100000 		.4byte	0x10c1
 7435 19bb 580A0000 		.4byte	.LLST58
 7436 19bf 32       		.uleb128 0x32
 7437 19c0 12000000 		.4byte	.LVL92
 7438 19c4 34060000 		.4byte	0x634
 7439 19c8 33       		.uleb128 0x33
 7440 19c9 01       		.uleb128 0x1
 7441 19ca 52       		.byte	0x52
 7442 19cb 02       		.uleb128 0x2
 7443 19cc 08       		.byte	0x8
 7444 19cd 27       		.byte	0x27
 7445 19ce 00       		.byte	0
 7446 19cf 00       		.byte	0
 7447 19d0 00       		.byte	0
 7448 19d1 00       		.byte	0
 7449 19d2 30       		.uleb128 0x30
 7450 19d3 00120000 		.4byte	0x1200
 7451 19d7 FD020000 		.4byte	.LASF150
 7452 19db 00000000 		.4byte	.LFB24
 7453 19df 20000000 		.4byte	.LFE24-.LFB24
 7454 19e3 01       		.uleb128 0x1
ARM GAS  /tmp/ccxMPRSl.s 			page 133


 7455 19e4 9C       		.byte	0x9c
 7456 19e5 ED190000 		.4byte	0x19ed
 7457 19e9 431A0000 		.4byte	0x1a43
 7458 19ed 31       		.uleb128 0x31
 7459 19ee 11120000 		.4byte	0x1211
 7460 19f2 840A0000 		.4byte	.LLST59
 7461 19f6 31       		.uleb128 0x31
 7462 19f7 1A120000 		.4byte	0x121a
 7463 19fb B00A0000 		.4byte	.LLST60
 7464 19ff 46       		.uleb128 0x46
 7465 1a00 06000000 		.4byte	.LBB271
 7466 1a04 16000000 		.4byte	.LBE271-.LBB271
 7467 1a08 48       		.uleb128 0x48
 7468 1a09 27120000 		.4byte	0x1227
 7469 1a0d D10A0000 		.4byte	.LLST61
 7470 1a11 47       		.uleb128 0x47
 7471 1a12 9A110000 		.4byte	0x119a
 7472 1a16 06000000 		.4byte	.LBB272
 7473 1a1a 0E000000 		.4byte	.LBE272-.LBB272
 7474 1a1e 01       		.byte	0x1
 7475 1a1f CB01     		.2byte	0x1cb
 7476 1a21 39       		.uleb128 0x39
 7477 1a22 B4110000 		.4byte	0x11b4
 7478 1a26 27       		.byte	0x27
 7479 1a27 31       		.uleb128 0x31
 7480 1a28 AB110000 		.4byte	0x11ab
 7481 1a2c E40A0000 		.4byte	.LLST62
 7482 1a30 32       		.uleb128 0x32
 7483 1a31 14000000 		.4byte	.LVL98
 7484 1a35 34060000 		.4byte	0x634
 7485 1a39 33       		.uleb128 0x33
 7486 1a3a 01       		.uleb128 0x1
 7487 1a3b 52       		.byte	0x52
 7488 1a3c 02       		.uleb128 0x2
 7489 1a3d 08       		.byte	0x8
 7490 1a3e 27       		.byte	0x27
 7491 1a3f 00       		.byte	0
 7492 1a40 00       		.byte	0
 7493 1a41 00       		.byte	0
 7494 1a42 00       		.byte	0
 7495 1a43 3F       		.uleb128 0x3f
 7496 1a44 A2090000 		.4byte	0x9a2
 7497 1a48 01       		.byte	0x1
 7498 1a49 D001     		.2byte	0x1d0
 7499 1a4b 00000000 		.4byte	.LFB25
 7500 1a4f 66000000 		.4byte	.LFE25-.LFB25
 7501 1a53 01       		.uleb128 0x1
 7502 1a54 9C       		.byte	0x9c
 7503 1a55 5D1A0000 		.4byte	0x1a5d
 7504 1a59 CB1A0000 		.4byte	0x1acb
 7505 1a5d 36       		.uleb128 0x36
 7506 1a5e 2B070000 		.4byte	.LASF252
 7507 1a62 78100000 		.4byte	0x1078
 7508 1a66 100B0000 		.4byte	.LLST63
 7509 1a6a 2C       		.uleb128 0x2c
 7510 1a6b 78010000 		.4byte	.Ldebug_ranges0+0x178
 7511 1a6f 49       		.uleb128 0x49
ARM GAS  /tmp/ccxMPRSl.s 			page 134


 7512 1a70 08110000 		.4byte	.LASF65
 7513 1a74 01       		.byte	0x1
 7514 1a75 D101     		.2byte	0x1d1
 7515 1a77 CB1A0000 		.4byte	0x1acb
 7516 1a7b 02       		.uleb128 0x2
 7517 1a7c 91       		.byte	0x91
 7518 1a7d 60       		.sleb128 -32
 7519 1a7e 3E       		.uleb128 0x3e
 7520 1a7f 0D110000 		.4byte	0x110d
 7521 1a83 02000000 		.4byte	.LBB275
 7522 1a87 90010000 		.4byte	.Ldebug_ranges0+0x190
 7523 1a8b 01       		.byte	0x1
 7524 1a8c D201     		.2byte	0x1d2
 7525 1a8e 39       		.uleb128 0x39
 7526 1a8f 3F110000 		.4byte	0x113f
 7527 1a93 06       		.byte	0x6
 7528 1a94 31       		.uleb128 0x31
 7529 1a95 33110000 		.4byte	0x1133
 7530 1a99 2E0B0000 		.4byte	.LLST64
 7531 1a9d 39       		.uleb128 0x39
 7532 1a9e 27110000 		.4byte	0x1127
 7533 1aa2 28       		.byte	0x28
 7534 1aa3 31       		.uleb128 0x31
 7535 1aa4 1E110000 		.4byte	0x111e
 7536 1aa8 5B0B0000 		.4byte	.LLST65
 7537 1aac 32       		.uleb128 0x32
 7538 1aad 1A000000 		.4byte	.LVL104
 7539 1ab1 7F060000 		.4byte	0x67f
 7540 1ab5 33       		.uleb128 0x33
 7541 1ab6 01       		.uleb128 0x1
 7542 1ab7 53       		.byte	0x53
 7543 1ab8 02       		.uleb128 0x2
 7544 1ab9 91       		.byte	0x91
 7545 1aba 60       		.sleb128 -32
 7546 1abb 33       		.uleb128 0x33
 7547 1abc 01       		.uleb128 0x1
 7548 1abd 52       		.byte	0x52
 7549 1abe 02       		.uleb128 0x2
 7550 1abf 08       		.byte	0x8
 7551 1ac0 28       		.byte	0x28
 7552 1ac1 33       		.uleb128 0x33
 7553 1ac2 02       		.uleb128 0x2
 7554 1ac3 7D       		.byte	0x7d
 7555 1ac4 00       		.sleb128 0
 7556 1ac5 01       		.uleb128 0x1
 7557 1ac6 36       		.byte	0x36
 7558 1ac7 00       		.byte	0
 7559 1ac8 00       		.byte	0
 7560 1ac9 00       		.byte	0
 7561 1aca 00       		.byte	0
 7562 1acb 0C       		.uleb128 0xc
 7563 1acc 50000000 		.4byte	0x50
 7564 1ad0 DB1A0000 		.4byte	0x1adb
 7565 1ad4 0D       		.uleb128 0xd
 7566 1ad5 77030000 		.4byte	0x377
 7567 1ad9 05       		.byte	0x5
 7568 1ada 00       		.byte	0
ARM GAS  /tmp/ccxMPRSl.s 			page 135


 7569 1adb 3F       		.uleb128 0x3f
 7570 1adc BC090000 		.4byte	0x9bc
 7571 1ae0 01       		.byte	0x1
 7572 1ae1 DD01     		.2byte	0x1dd
 7573 1ae3 00000000 		.4byte	.LFB26
 7574 1ae7 48000000 		.4byte	.LFE26-.LFB26
 7575 1aeb 01       		.uleb128 0x1
 7576 1aec 9C       		.byte	0x9c
 7577 1aed F51A0000 		.4byte	0x1af5
 7578 1af1 8B1B0000 		.4byte	0x1b8b
 7579 1af5 36       		.uleb128 0x36
 7580 1af6 2B070000 		.4byte	.LASF252
 7581 1afa 78100000 		.4byte	0x1078
 7582 1afe 790B0000 		.4byte	.LLST66
 7583 1b02 40       		.uleb128 0x40
 7584 1b03 AB050000 		.4byte	.LASF255
 7585 1b07 01       		.byte	0x1
 7586 1b08 DD01     		.2byte	0x1dd
 7587 1b0a B5060000 		.4byte	0x6b5
 7588 1b0e A50B0000 		.4byte	.LLST67
 7589 1b12 2C       		.uleb128 0x2c
 7590 1b13 A8010000 		.4byte	.Ldebug_ranges0+0x1a8
 7591 1b17 49       		.uleb128 0x49
 7592 1b18 08110000 		.4byte	.LASF65
 7593 1b1c 01       		.byte	0x1
 7594 1b1d DE01     		.2byte	0x1de
 7595 1b1f 8B1B0000 		.4byte	0x1b8b
 7596 1b23 02       		.uleb128 0x2
 7597 1b24 91       		.byte	0x91
 7598 1b25 6C       		.sleb128 -20
 7599 1b26 44       		.uleb128 0x44
 7600 1b27 6A040000 		.4byte	.LASF263
 7601 1b2b 01       		.byte	0x1
 7602 1b2c DF01     		.2byte	0x1df
 7603 1b2e 57000000 		.4byte	0x57
 7604 1b32 C60B0000 		.4byte	.LLST68
 7605 1b36 3E       		.uleb128 0x3e
 7606 1b37 0D110000 		.4byte	0x110d
 7607 1b3b 0A000000 		.4byte	.LBB281
 7608 1b3f C8010000 		.4byte	.Ldebug_ranges0+0x1c8
 7609 1b43 01       		.byte	0x1
 7610 1b44 E001     		.2byte	0x1e0
 7611 1b46 39       		.uleb128 0x39
 7612 1b47 3F110000 		.4byte	0x113f
 7613 1b4b 02       		.byte	0x2
 7614 1b4c 31       		.uleb128 0x31
 7615 1b4d 33110000 		.4byte	0x1133
 7616 1b51 FB0B0000 		.4byte	.LLST69
 7617 1b55 31       		.uleb128 0x31
 7618 1b56 27110000 		.4byte	0x1127
 7619 1b5a 280C0000 		.4byte	.LLST70
 7620 1b5e 31       		.uleb128 0x31
 7621 1b5f 1E110000 		.4byte	0x111e
 7622 1b63 4E0C0000 		.4byte	.LLST71
 7623 1b67 32       		.uleb128 0x32
 7624 1b68 24000000 		.4byte	.LVL110
 7625 1b6c 7F060000 		.4byte	0x67f
ARM GAS  /tmp/ccxMPRSl.s 			page 136


 7626 1b70 33       		.uleb128 0x33
 7627 1b71 01       		.uleb128 0x1
 7628 1b72 53       		.byte	0x53
 7629 1b73 02       		.uleb128 0x2
 7630 1b74 91       		.byte	0x91
 7631 1b75 6C       		.sleb128 -20
 7632 1b76 33       		.uleb128 0x33
 7633 1b77 01       		.uleb128 0x1
 7634 1b78 52       		.byte	0x52
 7635 1b79 07       		.uleb128 0x7
 7636 1b7a 75       		.byte	0x75
 7637 1b7b 14       		.sleb128 20
 7638 1b7c 31       		.byte	0x31
 7639 1b7d 24       		.byte	0x24
 7640 1b7e 08       		.byte	0x8
 7641 1b7f FE       		.byte	0xfe
 7642 1b80 1A       		.byte	0x1a
 7643 1b81 33       		.uleb128 0x33
 7644 1b82 02       		.uleb128 0x2
 7645 1b83 7D       		.byte	0x7d
 7646 1b84 00       		.sleb128 0
 7647 1b85 01       		.uleb128 0x1
 7648 1b86 32       		.byte	0x32
 7649 1b87 00       		.byte	0
 7650 1b88 00       		.byte	0
 7651 1b89 00       		.byte	0
 7652 1b8a 00       		.byte	0
 7653 1b8b 0C       		.uleb128 0xc
 7654 1b8c 50000000 		.4byte	0x50
 7655 1b90 9B1B0000 		.4byte	0x1b9b
 7656 1b94 0D       		.uleb128 0xd
 7657 1b95 77030000 		.4byte	0x377
 7658 1b99 01       		.byte	0x1
 7659 1b9a 00       		.byte	0
 7660 1b9b 3F       		.uleb128 0x3f
 7661 1b9c DF090000 		.4byte	0x9df
 7662 1ba0 01       		.byte	0x1
 7663 1ba1 E801     		.2byte	0x1e8
 7664 1ba3 00000000 		.4byte	.LFB27
 7665 1ba7 48000000 		.4byte	.LFE27-.LFB27
 7666 1bab 01       		.uleb128 0x1
 7667 1bac 9C       		.byte	0x9c
 7668 1bad B51B0000 		.4byte	0x1bb5
 7669 1bb1 231C0000 		.4byte	0x1c23
 7670 1bb5 36       		.uleb128 0x36
 7671 1bb6 2B070000 		.4byte	.LASF252
 7672 1bba 78100000 		.4byte	0x1078
 7673 1bbe 7A0C0000 		.4byte	.LLST72
 7674 1bc2 2C       		.uleb128 0x2c
 7675 1bc3 E8010000 		.4byte	.Ldebug_ranges0+0x1e8
 7676 1bc7 49       		.uleb128 0x49
 7677 1bc8 08110000 		.4byte	.LASF65
 7678 1bcc 01       		.byte	0x1
 7679 1bcd E901     		.2byte	0x1e9
 7680 1bcf CB1A0000 		.4byte	0x1acb
 7681 1bd3 02       		.uleb128 0x2
 7682 1bd4 91       		.byte	0x91
ARM GAS  /tmp/ccxMPRSl.s 			page 137


 7683 1bd5 68       		.sleb128 -24
 7684 1bd6 3E       		.uleb128 0x3e
 7685 1bd7 C1110000 		.4byte	0x11c1
 7686 1bdb 02000000 		.4byte	.LBB290
 7687 1bdf 00020000 		.4byte	.Ldebug_ranges0+0x200
 7688 1be3 01       		.byte	0x1
 7689 1be4 EA01     		.2byte	0x1ea
 7690 1be6 39       		.uleb128 0x39
 7691 1be7 F3110000 		.4byte	0x11f3
 7692 1beb 06       		.byte	0x6
 7693 1bec 31       		.uleb128 0x31
 7694 1bed E7110000 		.4byte	0x11e7
 7695 1bf1 980C0000 		.4byte	.LLST73
 7696 1bf5 39       		.uleb128 0x39
 7697 1bf6 DB110000 		.4byte	0x11db
 7698 1bfa 28       		.byte	0x28
 7699 1bfb 31       		.uleb128 0x31
 7700 1bfc D2110000 		.4byte	0x11d2
 7701 1c00 C50C0000 		.4byte	.LLST74
 7702 1c04 32       		.uleb128 0x32
 7703 1c05 1A000000 		.4byte	.LVL120
 7704 1c09 7F060000 		.4byte	0x67f
 7705 1c0d 33       		.uleb128 0x33
 7706 1c0e 01       		.uleb128 0x1
 7707 1c0f 53       		.byte	0x53
 7708 1c10 02       		.uleb128 0x2
 7709 1c11 91       		.byte	0x91
 7710 1c12 68       		.sleb128 -24
 7711 1c13 33       		.uleb128 0x33
 7712 1c14 01       		.uleb128 0x1
 7713 1c15 52       		.byte	0x52
 7714 1c16 02       		.uleb128 0x2
 7715 1c17 08       		.byte	0x8
 7716 1c18 28       		.byte	0x28
 7717 1c19 33       		.uleb128 0x33
 7718 1c1a 02       		.uleb128 0x2
 7719 1c1b 7D       		.byte	0x7d
 7720 1c1c 00       		.sleb128 0
 7721 1c1d 01       		.uleb128 0x1
 7722 1c1e 36       		.byte	0x36
 7723 1c1f 00       		.byte	0
 7724 1c20 00       		.byte	0
 7725 1c21 00       		.byte	0
 7726 1c22 00       		.byte	0
 7727 1c23 4A       		.uleb128 0x4a
 7728 1c24 A5080000 		.4byte	0x8a5
 7729 1c28 01       		.byte	0x1
 7730 1c29 5301     		.2byte	0x153
 7731 1c2b 00000000 		.4byte	.LFB18
 7732 1c2f D2000000 		.4byte	.LFE18-.LFB18
 7733 1c33 01       		.uleb128 0x1
 7734 1c34 9C       		.byte	0x9c
 7735 1c35 3D1C0000 		.4byte	0x1c3d
 7736 1c39 6C1D0000 		.4byte	0x1d6c
 7737 1c3d 36       		.uleb128 0x36
 7738 1c3e 2B070000 		.4byte	.LASF252
 7739 1c42 78100000 		.4byte	0x1078
ARM GAS  /tmp/ccxMPRSl.s 			page 138


 7740 1c46 E30C0000 		.4byte	.LLST75
 7741 1c4a 40       		.uleb128 0x40
 7742 1c4b 8D090000 		.4byte	.LASF264
 7743 1c4f 01       		.byte	0x1
 7744 1c50 5301     		.2byte	0x153
 7745 1c52 38100000 		.4byte	0x1038
 7746 1c56 010D0000 		.4byte	.LLST76
 7747 1c5a 2C       		.uleb128 0x2c
 7748 1c5b 18020000 		.4byte	.Ldebug_ranges0+0x218
 7749 1c5f 41       		.uleb128 0x41
 7750 1c60 6900     		.ascii	"i\000"
 7751 1c62 01       		.byte	0x1
 7752 1c63 5401     		.2byte	0x154
 7753 1c65 25000000 		.4byte	0x25
 7754 1c69 220D0000 		.4byte	.LLST77
 7755 1c6d 41       		.uleb128 0x41
 7756 1c6e 6A00     		.ascii	"j\000"
 7757 1c70 01       		.byte	0x1
 7758 1c71 5401     		.2byte	0x154
 7759 1c73 25000000 		.4byte	0x25
 7760 1c77 560D0000 		.4byte	.LLST78
 7761 1c7b 49       		.uleb128 0x49
 7762 1c7c A90E0000 		.4byte	.LASF265
 7763 1c80 01       		.byte	0x1
 7764 1c81 5501     		.2byte	0x155
 7765 1c83 28100000 		.4byte	0x1028
 7766 1c87 02       		.uleb128 0x2
 7767 1c88 91       		.byte	0x91
 7768 1c89 48       		.sleb128 -56
 7769 1c8a 49       		.uleb128 0x49
 7770 1c8b 4C090000 		.4byte	.LASF266
 7771 1c8f 01       		.byte	0x1
 7772 1c90 5601     		.2byte	0x156
 7773 1c92 28100000 		.4byte	0x1028
 7774 1c96 02       		.uleb128 0x2
 7775 1c97 91       		.byte	0x91
 7776 1c98 50       		.sleb128 -48
 7777 1c99 4B       		.uleb128 0x4b
 7778 1c9a 28000000 		.4byte	.LBB297
 7779 1c9e 52000000 		.4byte	.LBE297-.LBB297
 7780 1ca2 291D0000 		.4byte	0x1d29
 7781 1ca6 49       		.uleb128 0x49
 7782 1ca7 EE050000 		.4byte	.LASF267
 7783 1cab 01       		.byte	0x1
 7784 1cac 5C01     		.2byte	0x15c
 7785 1cae 28100000 		.4byte	0x1028
 7786 1cb2 02       		.uleb128 0x2
 7787 1cb3 91       		.byte	0x91
 7788 1cb4 58       		.sleb128 -40
 7789 1cb5 45       		.uleb128 0x45
 7790 1cb6 00120000 		.4byte	0x1200
 7791 1cba 28000000 		.4byte	.LBB298
 7792 1cbe 0E000000 		.4byte	.LBE298-.LBB298
 7793 1cc2 01       		.byte	0x1
 7794 1cc3 5901     		.2byte	0x159
 7795 1cc5 181D0000 		.4byte	0x1d18
 7796 1cc9 39       		.uleb128 0x39
ARM GAS  /tmp/ccxMPRSl.s 			page 139


 7797 1cca 1A120000 		.4byte	0x121a
 7798 1cce 03       		.byte	0x3
 7799 1ccf 35       		.uleb128 0x35
 7800 1cd0 11120000 		.4byte	0x1211
 7801 1cd4 01       		.uleb128 0x1
 7802 1cd5 54       		.byte	0x54
 7803 1cd6 46       		.uleb128 0x46
 7804 1cd7 28000000 		.4byte	.LBB299
 7805 1cdb 0E000000 		.4byte	.LBE299-.LBB299
 7806 1cdf 48       		.uleb128 0x48
 7807 1ce0 27120000 		.4byte	0x1227
 7808 1ce4 750D0000 		.4byte	.LLST79
 7809 1ce8 47       		.uleb128 0x47
 7810 1ce9 9A110000 		.4byte	0x119a
 7811 1ced 28000000 		.4byte	.LBB300
 7812 1cf1 0E000000 		.4byte	.LBE300-.LBB300
 7813 1cf5 01       		.byte	0x1
 7814 1cf6 CB01     		.2byte	0x1cb
 7815 1cf8 39       		.uleb128 0x39
 7816 1cf9 B4110000 		.4byte	0x11b4
 7817 1cfd 27       		.byte	0x27
 7818 1cfe 35       		.uleb128 0x35
 7819 1cff AB110000 		.4byte	0x11ab
 7820 1d03 01       		.uleb128 0x1
 7821 1d04 54       		.byte	0x54
 7822 1d05 32       		.uleb128 0x32
 7823 1d06 36000000 		.4byte	.LVL124
 7824 1d0a 34060000 		.4byte	0x634
 7825 1d0e 33       		.uleb128 0x33
 7826 1d0f 01       		.uleb128 0x1
 7827 1d10 52       		.byte	0x52
 7828 1d11 02       		.uleb128 0x2
 7829 1d12 08       		.byte	0x8
 7830 1d13 27       		.byte	0x27
 7831 1d14 00       		.byte	0
 7832 1d15 00       		.byte	0
 7833 1d16 00       		.byte	0
 7834 1d17 00       		.byte	0
 7835 1d18 32       		.uleb128 0x32
 7836 1d19 40000000 		.4byte	.LVL126
 7837 1d1d 9B1B0000 		.4byte	0x1b9b
 7838 1d21 33       		.uleb128 0x33
 7839 1d22 01       		.uleb128 0x1
 7840 1d23 50       		.byte	0x50
 7841 1d24 02       		.uleb128 0x2
 7842 1d25 74       		.byte	0x74
 7843 1d26 00       		.sleb128 0
 7844 1d27 00       		.byte	0
 7845 1d28 00       		.byte	0
 7846 1d29 3D       		.uleb128 0x3d
 7847 1d2a 35120000 		.4byte	0x1235
 7848 1d2e 94000000 		.4byte	.LBB302
 7849 1d32 38020000 		.4byte	.Ldebug_ranges0+0x238
 7850 1d36 01       		.byte	0x1
 7851 1d37 6701     		.2byte	0x167
 7852 1d39 4E1D0000 		.4byte	0x1d4e
 7853 1d3d 31       		.uleb128 0x31
ARM GAS  /tmp/ccxMPRSl.s 			page 140


 7854 1d3e 4F120000 		.4byte	0x124f
 7855 1d42 880D0000 		.4byte	.LLST80
 7856 1d46 35       		.uleb128 0x35
 7857 1d47 46120000 		.4byte	0x1246
 7858 1d4b 01       		.uleb128 0x1
 7859 1d4c 54       		.byte	0x54
 7860 1d4d 00       		.byte	0
 7861 1d4e 32       		.uleb128 0x32
 7862 1d4f D0000000 		.4byte	.LVL137
 7863 1d53 26160000 		.4byte	0x1626
 7864 1d57 33       		.uleb128 0x33
 7865 1d58 01       		.uleb128 0x1
 7866 1d59 52       		.byte	0x52
 7867 1d5a 02       		.uleb128 0x2
 7868 1d5b 7A       		.byte	0x7a
 7869 1d5c 00       		.sleb128 0
 7870 1d5d 33       		.uleb128 0x33
 7871 1d5e 01       		.uleb128 0x1
 7872 1d5f 51       		.byte	0x51
 7873 1d60 02       		.uleb128 0x2
 7874 1d61 79       		.byte	0x79
 7875 1d62 00       		.sleb128 0
 7876 1d63 33       		.uleb128 0x33
 7877 1d64 01       		.uleb128 0x1
 7878 1d65 50       		.byte	0x50
 7879 1d66 02       		.uleb128 0x2
 7880 1d67 74       		.byte	0x74
 7881 1d68 00       		.sleb128 0
 7882 1d69 00       		.byte	0
 7883 1d6a 00       		.byte	0
 7884 1d6b 00       		.byte	0
 7885 1d6c 3F       		.uleb128 0x3f
 7886 1d6d F9090000 		.4byte	0x9f9
 7887 1d71 01       		.byte	0x1
 7888 1d72 F001     		.2byte	0x1f0
 7889 1d74 00000000 		.4byte	.LFB28
 7890 1d78 36000000 		.4byte	.LFE28-.LFB28
 7891 1d7c 01       		.uleb128 0x1
 7892 1d7d 9C       		.byte	0x9c
 7893 1d7e 861D0000 		.4byte	0x1d86
 7894 1d82 011E0000 		.4byte	0x1e01
 7895 1d86 36       		.uleb128 0x36
 7896 1d87 2B070000 		.4byte	.LASF252
 7897 1d8b 78100000 		.4byte	0x1078
 7898 1d8f 9B0D0000 		.4byte	.LLST81
 7899 1d93 40       		.uleb128 0x40
 7900 1d94 AB050000 		.4byte	.LASF255
 7901 1d98 01       		.byte	0x1
 7902 1d99 F001     		.2byte	0x1f0
 7903 1d9b B5060000 		.4byte	0x6b5
 7904 1d9f BC0D0000 		.4byte	.LLST82
 7905 1da3 2C       		.uleb128 0x2c
 7906 1da4 50020000 		.4byte	.Ldebug_ranges0+0x250
 7907 1da8 49       		.uleb128 0x49
 7908 1da9 08110000 		.4byte	.LASF65
 7909 1dad 01       		.byte	0x1
 7910 1dae F101     		.2byte	0x1f1
ARM GAS  /tmp/ccxMPRSl.s 			page 141


 7911 1db0 8B1B0000 		.4byte	0x1b8b
 7912 1db4 02       		.uleb128 0x2
 7913 1db5 91       		.byte	0x91
 7914 1db6 74       		.sleb128 -12
 7915 1db7 3E       		.uleb128 0x3e
 7916 1db8 C1110000 		.4byte	0x11c1
 7917 1dbc 0A000000 		.4byte	.LBB309
 7918 1dc0 68020000 		.4byte	.Ldebug_ranges0+0x268
 7919 1dc4 01       		.byte	0x1
 7920 1dc5 F201     		.2byte	0x1f2
 7921 1dc7 39       		.uleb128 0x39
 7922 1dc8 F3110000 		.4byte	0x11f3
 7923 1dcc 02       		.byte	0x2
 7924 1dcd 31       		.uleb128 0x31
 7925 1dce E7110000 		.4byte	0x11e7
 7926 1dd2 DD0D0000 		.4byte	.LLST83
 7927 1dd6 31       		.uleb128 0x31
 7928 1dd7 DB110000 		.4byte	0x11db
 7929 1ddb 0A0E0000 		.4byte	.LLST84
 7930 1ddf 31       		.uleb128 0x31
 7931 1de0 D2110000 		.4byte	0x11d2
 7932 1de4 330E0000 		.4byte	.LLST85
 7933 1de8 32       		.uleb128 0x32
 7934 1de9 22000000 		.4byte	.LVL144
 7935 1ded 7F060000 		.4byte	0x67f
 7936 1df1 33       		.uleb128 0x33
 7937 1df2 01       		.uleb128 0x1
 7938 1df3 53       		.byte	0x53
 7939 1df4 02       		.uleb128 0x2
 7940 1df5 91       		.byte	0x91
 7941 1df6 74       		.sleb128 -12
 7942 1df7 33       		.uleb128 0x33
 7943 1df8 02       		.uleb128 0x2
 7944 1df9 7D       		.byte	0x7d
 7945 1dfa 00       		.sleb128 0
 7946 1dfb 01       		.uleb128 0x1
 7947 1dfc 32       		.byte	0x32
 7948 1dfd 00       		.byte	0
 7949 1dfe 00       		.byte	0
 7950 1dff 00       		.byte	0
 7951 1e00 00       		.byte	0
 7952 1e01 3F       		.uleb128 0x3f
 7953 1e02 1C0A0000 		.4byte	0xa1c
 7954 1e06 01       		.byte	0x1
 7955 1e07 F601     		.2byte	0x1f6
 7956 1e09 00000000 		.4byte	.LFB29
 7957 1e0d 2C000000 		.4byte	.LFE29-.LFB29
 7958 1e11 01       		.uleb128 0x1
 7959 1e12 9C       		.byte	0x9c
 7960 1e13 1B1E0000 		.4byte	0x1e1b
 7961 1e17 881E0000 		.4byte	0x1e88
 7962 1e1b 36       		.uleb128 0x36
 7963 1e1c 2B070000 		.4byte	.LASF252
 7964 1e20 78100000 		.4byte	0x1078
 7965 1e24 540E0000 		.4byte	.LLST86
 7966 1e28 2C       		.uleb128 0x2c
 7967 1e29 80020000 		.4byte	.Ldebug_ranges0+0x280
ARM GAS  /tmp/ccxMPRSl.s 			page 142


 7968 1e2d 49       		.uleb128 0x49
 7969 1e2e 08110000 		.4byte	.LASF65
 7970 1e32 01       		.byte	0x1
 7971 1e33 F801     		.2byte	0x1f8
 7972 1e35 8B1B0000 		.4byte	0x1b8b
 7973 1e39 02       		.uleb128 0x2
 7974 1e3a 91       		.byte	0x91
 7975 1e3b 74       		.sleb128 -12
 7976 1e3c 3E       		.uleb128 0x3e
 7977 1e3d 0D110000 		.4byte	0x110d
 7978 1e41 02000000 		.4byte	.LBB315
 7979 1e45 98020000 		.4byte	.Ldebug_ranges0+0x298
 7980 1e49 01       		.byte	0x1
 7981 1e4a F901     		.2byte	0x1f9
 7982 1e4c 39       		.uleb128 0x39
 7983 1e4d 3F110000 		.4byte	0x113f
 7984 1e51 02       		.byte	0x2
 7985 1e52 31       		.uleb128 0x31
 7986 1e53 33110000 		.4byte	0x1133
 7987 1e57 720E0000 		.4byte	.LLST87
 7988 1e5b 39       		.uleb128 0x39
 7989 1e5c 27110000 		.4byte	0x1127
 7990 1e60 15       		.byte	0x15
 7991 1e61 31       		.uleb128 0x31
 7992 1e62 1E110000 		.4byte	0x111e
 7993 1e66 9F0E0000 		.4byte	.LLST88
 7994 1e6a 32       		.uleb128 0x32
 7995 1e6b 1A000000 		.4byte	.LVL149
 7996 1e6f 7F060000 		.4byte	0x67f
 7997 1e73 33       		.uleb128 0x33
 7998 1e74 01       		.uleb128 0x1
 7999 1e75 53       		.byte	0x53
 8000 1e76 02       		.uleb128 0x2
 8001 1e77 91       		.byte	0x91
 8002 1e78 74       		.sleb128 -12
 8003 1e79 33       		.uleb128 0x33
 8004 1e7a 01       		.uleb128 0x1
 8005 1e7b 52       		.byte	0x52
 8006 1e7c 01       		.uleb128 0x1
 8007 1e7d 45       		.byte	0x45
 8008 1e7e 33       		.uleb128 0x33
 8009 1e7f 02       		.uleb128 0x2
 8010 1e80 7D       		.byte	0x7d
 8011 1e81 00       		.sleb128 0
 8012 1e82 01       		.uleb128 0x1
 8013 1e83 32       		.byte	0x32
 8014 1e84 00       		.byte	0
 8015 1e85 00       		.byte	0
 8016 1e86 00       		.byte	0
 8017 1e87 00       		.byte	0
 8018 1e88 3F       		.uleb128 0x3f
 8019 1e89 65090000 		.4byte	0x965
 8020 1e8d 01       		.byte	0x1
 8021 1e8e FD01     		.2byte	0x1fd
 8022 1e90 00000000 		.4byte	.LFB30
 8023 1e94 66000000 		.4byte	.LFE30-.LFB30
 8024 1e98 01       		.uleb128 0x1
ARM GAS  /tmp/ccxMPRSl.s 			page 143


 8025 1e99 9C       		.byte	0x9c
 8026 1e9a A21E0000 		.4byte	0x1ea2
 8027 1e9e 0F1F0000 		.4byte	0x1f0f
 8028 1ea2 36       		.uleb128 0x36
 8029 1ea3 2B070000 		.4byte	.LASF252
 8030 1ea7 78100000 		.4byte	0x1078
 8031 1eab BD0E0000 		.4byte	.LLST89
 8032 1eaf 2C       		.uleb128 0x2c
 8033 1eb0 B0020000 		.4byte	.Ldebug_ranges0+0x2b0
 8034 1eb4 49       		.uleb128 0x49
 8035 1eb5 08110000 		.4byte	.LASF65
 8036 1eb9 01       		.byte	0x1
 8037 1eba FE01     		.2byte	0x1fe
 8038 1ebc CB1A0000 		.4byte	0x1acb
 8039 1ec0 02       		.uleb128 0x2
 8040 1ec1 91       		.byte	0x91
 8041 1ec2 60       		.sleb128 -32
 8042 1ec3 3E       		.uleb128 0x3e
 8043 1ec4 0D110000 		.4byte	0x110d
 8044 1ec8 02000000 		.4byte	.LBB321
 8045 1ecc C8020000 		.4byte	.Ldebug_ranges0+0x2c8
 8046 1ed0 01       		.byte	0x1
 8047 1ed1 FF01     		.2byte	0x1ff
 8048 1ed3 39       		.uleb128 0x39
 8049 1ed4 3F110000 		.4byte	0x113f
 8050 1ed8 06       		.byte	0x6
 8051 1ed9 31       		.uleb128 0x31
 8052 1eda 33110000 		.4byte	0x1133
 8053 1ede DB0E0000 		.4byte	.LLST90
 8054 1ee2 39       		.uleb128 0x39
 8055 1ee3 27110000 		.4byte	0x1127
 8056 1ee7 18       		.byte	0x18
 8057 1ee8 31       		.uleb128 0x31
 8058 1ee9 1E110000 		.4byte	0x111e
 8059 1eed 080F0000 		.4byte	.LLST91
 8060 1ef1 32       		.uleb128 0x32
 8061 1ef2 1A000000 		.4byte	.LVL154
 8062 1ef6 7F060000 		.4byte	0x67f
 8063 1efa 33       		.uleb128 0x33
 8064 1efb 01       		.uleb128 0x1
 8065 1efc 53       		.byte	0x53
 8066 1efd 02       		.uleb128 0x2
 8067 1efe 91       		.byte	0x91
 8068 1eff 60       		.sleb128 -32
 8069 1f00 33       		.uleb128 0x33
 8070 1f01 01       		.uleb128 0x1
 8071 1f02 52       		.byte	0x52
 8072 1f03 01       		.uleb128 0x1
 8073 1f04 48       		.byte	0x48
 8074 1f05 33       		.uleb128 0x33
 8075 1f06 02       		.uleb128 0x2
 8076 1f07 7D       		.byte	0x7d
 8077 1f08 00       		.sleb128 0
 8078 1f09 01       		.uleb128 0x1
 8079 1f0a 36       		.byte	0x36
 8080 1f0b 00       		.byte	0
 8081 1f0c 00       		.byte	0
ARM GAS  /tmp/ccxMPRSl.s 			page 144


 8082 1f0d 00       		.byte	0
 8083 1f0e 00       		.byte	0
 8084 1f0f 3F       		.uleb128 0x3f
 8085 1f10 7F090000 		.4byte	0x97f
 8086 1f14 01       		.byte	0x1
 8087 1f15 0A02     		.2byte	0x20a
 8088 1f17 00000000 		.4byte	.LFB31
 8089 1f1b 46000000 		.4byte	.LFE31-.LFB31
 8090 1f1f 01       		.uleb128 0x1
 8091 1f20 9C       		.byte	0x9c
 8092 1f21 291F0000 		.4byte	0x1f29
 8093 1f25 BF1F0000 		.4byte	0x1fbf
 8094 1f29 36       		.uleb128 0x36
 8095 1f2a 2B070000 		.4byte	.LASF252
 8096 1f2e 78100000 		.4byte	0x1078
 8097 1f32 260F0000 		.4byte	.LLST92
 8098 1f36 40       		.uleb128 0x40
 8099 1f37 AB050000 		.4byte	.LASF255
 8100 1f3b 01       		.byte	0x1
 8101 1f3c 0A02     		.2byte	0x20a
 8102 1f3e B5060000 		.4byte	0x6b5
 8103 1f42 440F0000 		.4byte	.LLST93
 8104 1f46 2C       		.uleb128 0x2c
 8105 1f47 E0020000 		.4byte	.Ldebug_ranges0+0x2e0
 8106 1f4b 49       		.uleb128 0x49
 8107 1f4c 08110000 		.4byte	.LASF65
 8108 1f50 01       		.byte	0x1
 8109 1f51 0B02     		.2byte	0x20b
 8110 1f53 8B1B0000 		.4byte	0x1b8b
 8111 1f57 02       		.uleb128 0x2
 8112 1f58 91       		.byte	0x91
 8113 1f59 6C       		.sleb128 -20
 8114 1f5a 44       		.uleb128 0x44
 8115 1f5b 6A040000 		.4byte	.LASF263
 8116 1f5f 01       		.byte	0x1
 8117 1f60 0C02     		.2byte	0x20c
 8118 1f62 57000000 		.4byte	0x57
 8119 1f66 650F0000 		.4byte	.LLST94
 8120 1f6a 3E       		.uleb128 0x3e
 8121 1f6b 0D110000 		.4byte	0x110d
 8122 1f6f 0A000000 		.4byte	.LBB327
 8123 1f73 00030000 		.4byte	.Ldebug_ranges0+0x300
 8124 1f77 01       		.byte	0x1
 8125 1f78 0E02     		.2byte	0x20e
 8126 1f7a 39       		.uleb128 0x39
 8127 1f7b 3F110000 		.4byte	0x113f
 8128 1f7f 02       		.byte	0x2
 8129 1f80 31       		.uleb128 0x31
 8130 1f81 33110000 		.4byte	0x1133
 8131 1f85 9A0F0000 		.4byte	.LLST95
 8132 1f89 31       		.uleb128 0x31
 8133 1f8a 27110000 		.4byte	0x1127
 8134 1f8e C70F0000 		.4byte	.LLST96
 8135 1f92 31       		.uleb128 0x31
 8136 1f93 1E110000 		.4byte	0x111e
 8137 1f97 FC0F0000 		.4byte	.LLST97
 8138 1f9b 32       		.uleb128 0x32
ARM GAS  /tmp/ccxMPRSl.s 			page 145


 8139 1f9c 24000000 		.4byte	.LVL160
 8140 1fa0 7F060000 		.4byte	0x67f
 8141 1fa4 33       		.uleb128 0x33
 8142 1fa5 01       		.uleb128 0x1
 8143 1fa6 53       		.byte	0x53
 8144 1fa7 02       		.uleb128 0x2
 8145 1fa8 91       		.byte	0x91
 8146 1fa9 6C       		.sleb128 -20
 8147 1faa 33       		.uleb128 0x33
 8148 1fab 01       		.uleb128 0x1
 8149 1fac 52       		.byte	0x52
 8150 1fad 07       		.uleb128 0x7
 8151 1fae 75       		.byte	0x75
 8152 1faf 0C       		.sleb128 12
 8153 1fb0 31       		.byte	0x31
 8154 1fb1 24       		.byte	0x24
 8155 1fb2 08       		.byte	0x8
 8156 1fb3 FE       		.byte	0xfe
 8157 1fb4 1A       		.byte	0x1a
 8158 1fb5 33       		.uleb128 0x33
 8159 1fb6 02       		.uleb128 0x2
 8160 1fb7 7D       		.byte	0x7d
 8161 1fb8 00       		.sleb128 0
 8162 1fb9 01       		.uleb128 0x1
 8163 1fba 32       		.byte	0x32
 8164 1fbb 00       		.byte	0
 8165 1fbc 00       		.byte	0
 8166 1fbd 00       		.byte	0
 8167 1fbe 00       		.byte	0
 8168 1fbf 4C       		.uleb128 0x4c
 8169 1fc0 4C110000 		.4byte	0x114c
 8170 1fc4 72050000 		.4byte	.LASF163
 8171 1fc8 00000000 		.4byte	.LFB32
 8172 1fcc 12000000 		.4byte	.LFE32-.LFB32
 8173 1fd0 01       		.uleb128 0x1
 8174 1fd1 9C       		.byte	0x9c
 8175 1fd2 DA1F0000 		.4byte	0x1fda
 8176 1fd6 ED1F0000 		.4byte	0x1fed
 8177 1fda 31       		.uleb128 0x31
 8178 1fdb 5D110000 		.4byte	0x115d
 8179 1fdf 1A100000 		.4byte	.LLST98
 8180 1fe3 31       		.uleb128 0x31
 8181 1fe4 66110000 		.4byte	0x1166
 8182 1fe8 38100000 		.4byte	.LLST99
 8183 1fec 00       		.byte	0
 8184 1fed 4C       		.uleb128 0x4c
 8185 1fee 73110000 		.4byte	0x1173
 8186 1ff2 49030000 		.4byte	.LASF165
 8187 1ff6 00000000 		.4byte	.LFB33
 8188 1ffa 12000000 		.4byte	.LFE33-.LFB33
 8189 1ffe 01       		.uleb128 0x1
 8190 1fff 9C       		.byte	0x9c
 8191 2000 08200000 		.4byte	0x2008
 8192 2004 1B200000 		.4byte	0x201b
 8193 2008 31       		.uleb128 0x31
 8194 2009 84110000 		.4byte	0x1184
 8195 200d 59100000 		.4byte	.LLST100
ARM GAS  /tmp/ccxMPRSl.s 			page 146


 8196 2011 31       		.uleb128 0x31
 8197 2012 8D110000 		.4byte	0x118d
 8198 2016 77100000 		.4byte	.LLST101
 8199 201a 00       		.byte	0
 8200 201b 4C       		.uleb128 0x4c
 8201 201c 35120000 		.4byte	0x1235
 8202 2020 BD080000 		.4byte	.LASF167
 8203 2024 00000000 		.4byte	.LFB34
 8204 2028 12000000 		.4byte	.LFE34-.LFB34
 8205 202c 01       		.uleb128 0x1
 8206 202d 9C       		.byte	0x9c
 8207 202e 36200000 		.4byte	0x2036
 8208 2032 49200000 		.4byte	0x2049
 8209 2036 31       		.uleb128 0x31
 8210 2037 46120000 		.4byte	0x1246
 8211 203b 98100000 		.4byte	.LLST102
 8212 203f 31       		.uleb128 0x31
 8213 2040 4F120000 		.4byte	0x124f
 8214 2044 B6100000 		.4byte	.LLST103
 8215 2048 00       		.byte	0
 8216 2049 4A       		.uleb128 0x4a
 8217 204a 9F0A0000 		.4byte	0xa9f
 8218 204e 01       		.byte	0x1
 8219 204f 2602     		.2byte	0x226
 8220 2051 00000000 		.4byte	.LFB35
 8221 2055 5A000000 		.4byte	.LFE35-.LFB35
 8222 2059 01       		.uleb128 0x1
 8223 205a 9C       		.byte	0x9c
 8224 205b 63200000 		.4byte	0x2063
 8225 205f 27210000 		.4byte	0x2127
 8226 2063 36       		.uleb128 0x36
 8227 2064 2B070000 		.4byte	.LASF252
 8228 2068 78100000 		.4byte	0x1078
 8229 206c D7100000 		.4byte	.LLST104
 8230 2070 40       		.uleb128 0x40
 8231 2071 56020000 		.4byte	.LASF268
 8232 2075 01       		.byte	0x1
 8233 2076 2602     		.2byte	0x226
 8234 2078 69000000 		.4byte	0x69
 8235 207c F5100000 		.4byte	.LLST105
 8236 2080 46       		.uleb128 0x46
 8237 2081 06000000 		.4byte	.LBB335
 8238 2085 54000000 		.4byte	.LBE335-.LBB335
 8239 2089 44       		.uleb128 0x44
 8240 208a A20C0000 		.4byte	.LASF269
 8241 208e 01       		.byte	0x1
 8242 208f 2802     		.2byte	0x228
 8243 2091 45000000 		.4byte	0x45
 8244 2095 16110000 		.4byte	.LLST106
 8245 2099 45       		.uleb128 0x45
 8246 209a B0100000 		.4byte	0x10b0
 8247 209e 06000000 		.4byte	.LBB336
 8248 20a2 0E000000 		.4byte	.LBE336-.LBB336
 8249 20a6 01       		.byte	0x1
 8250 20a7 2802     		.2byte	0x228
 8251 20a9 CC200000 		.4byte	0x20cc
 8252 20ad 39       		.uleb128 0x39
ARM GAS  /tmp/ccxMPRSl.s 			page 147


 8253 20ae CA100000 		.4byte	0x10ca
 8254 20b2 10       		.byte	0x10
 8255 20b3 31       		.uleb128 0x31
 8256 20b4 C1100000 		.4byte	0x10c1
 8257 20b8 3F110000 		.4byte	.LLST107
 8258 20bc 32       		.uleb128 0x32
 8259 20bd 14000000 		.4byte	.LVL182
 8260 20c1 34060000 		.4byte	0x634
 8261 20c5 33       		.uleb128 0x33
 8262 20c6 01       		.uleb128 0x1
 8263 20c7 52       		.byte	0x52
 8264 20c8 01       		.uleb128 0x1
 8265 20c9 40       		.byte	0x40
 8266 20ca 00       		.byte	0
 8267 20cb 00       		.byte	0
 8268 20cc 45       		.uleb128 0x45
 8269 20cd 45100000 		.4byte	0x1045
 8270 20d1 2C000000 		.4byte	.LBB338
 8271 20d5 0E000000 		.4byte	.LBE338-.LBB338
 8272 20d9 01       		.byte	0x1
 8273 20da 3802     		.2byte	0x238
 8274 20dc 0B210000 		.4byte	0x210b
 8275 20e0 31       		.uleb128 0x31
 8276 20e1 6B100000 		.4byte	0x106b
 8277 20e5 5D110000 		.4byte	.LLST108
 8278 20e9 31       		.uleb128 0x31
 8279 20ea 5F100000 		.4byte	0x105f
 8280 20ee 70110000 		.4byte	.LLST109
 8281 20f2 31       		.uleb128 0x31
 8282 20f3 56100000 		.4byte	0x1056
 8283 20f7 84110000 		.4byte	.LLST110
 8284 20fb 32       		.uleb128 0x32
 8285 20fc 3A000000 		.4byte	.LVL186
 8286 2100 E7050000 		.4byte	0x5e7
 8287 2104 33       		.uleb128 0x33
 8288 2105 01       		.uleb128 0x1
 8289 2106 52       		.byte	0x52
 8290 2107 01       		.uleb128 0x1
 8291 2108 40       		.byte	0x40
 8292 2109 00       		.byte	0
 8293 210a 00       		.byte	0
 8294 210b 47       		.uleb128 0x47
 8295 210c D7100000 		.4byte	0x10d7
 8296 2110 3A000000 		.4byte	.LBB340
 8297 2114 12000000 		.4byte	.LBE340-.LBB340
 8298 2118 01       		.byte	0x1
 8299 2119 3A02     		.2byte	0x23a
 8300 211b 31       		.uleb128 0x31
 8301 211c E8100000 		.4byte	0x10e8
 8302 2120 97110000 		.4byte	.LLST111
 8303 2124 00       		.byte	0
 8304 2125 00       		.byte	0
 8305 2126 00       		.byte	0
 8306 2127 4A       		.uleb128 0x4a
 8307 2128 BE0A0000 		.4byte	0xabe
 8308 212c 01       		.byte	0x1
 8309 212d 3D02     		.2byte	0x23d
ARM GAS  /tmp/ccxMPRSl.s 			page 148


 8310 212f 00000000 		.4byte	.LFB36
 8311 2133 60000000 		.4byte	.LFE36-.LFB36
 8312 2137 01       		.uleb128 0x1
 8313 2138 9C       		.byte	0x9c
 8314 2139 41210000 		.4byte	0x2141
 8315 213d 07220000 		.4byte	0x2207
 8316 2141 36       		.uleb128 0x36
 8317 2142 2B070000 		.4byte	.LASF252
 8318 2146 78100000 		.4byte	0x1078
 8319 214a AA110000 		.4byte	.LLST112
 8320 214e 40       		.uleb128 0x40
 8321 214f B5010000 		.4byte	.LASF270
 8322 2153 01       		.byte	0x1
 8323 2154 3D02     		.2byte	0x23d
 8324 2156 45000000 		.4byte	0x45
 8325 215a C8110000 		.4byte	.LLST113
 8326 215e 46       		.uleb128 0x46
 8327 215f 06000000 		.4byte	.LBB342
 8328 2163 5A000000 		.4byte	.LBE342-.LBB342
 8329 2167 44       		.uleb128 0x44
 8330 2168 ED0F0000 		.4byte	.LASF261
 8331 216c 01       		.byte	0x1
 8332 216d 3F02     		.2byte	0x23f
 8333 216f 45000000 		.4byte	0x45
 8334 2173 E9110000 		.4byte	.LLST114
 8335 2177 45       		.uleb128 0x45
 8336 2178 B0100000 		.4byte	0x10b0
 8337 217c 06000000 		.4byte	.LBB343
 8338 2180 0E000000 		.4byte	.LBE343-.LBB343
 8339 2184 01       		.byte	0x1
 8340 2185 3F02     		.2byte	0x23f
 8341 2187 AB210000 		.4byte	0x21ab
 8342 218b 39       		.uleb128 0x39
 8343 218c CA100000 		.4byte	0x10ca
 8344 2190 20       		.byte	0x20
 8345 2191 31       		.uleb128 0x31
 8346 2192 C1100000 		.4byte	0x10c1
 8347 2196 12120000 		.4byte	.LLST115
 8348 219a 32       		.uleb128 0x32
 8349 219b 14000000 		.4byte	.LVL195
 8350 219f 34060000 		.4byte	0x634
 8351 21a3 33       		.uleb128 0x33
 8352 21a4 01       		.uleb128 0x1
 8353 21a5 52       		.byte	0x52
 8354 21a6 02       		.uleb128 0x2
 8355 21a7 08       		.byte	0x8
 8356 21a8 20       		.byte	0x20
 8357 21a9 00       		.byte	0
 8358 21aa 00       		.byte	0
 8359 21ab 45       		.uleb128 0x45
 8360 21ac 45100000 		.4byte	0x1045
 8361 21b0 30000000 		.4byte	.LBB345
 8362 21b4 0E000000 		.4byte	.LBE345-.LBB345
 8363 21b8 01       		.byte	0x1
 8364 21b9 5402     		.2byte	0x254
 8365 21bb EB210000 		.4byte	0x21eb
 8366 21bf 31       		.uleb128 0x31
ARM GAS  /tmp/ccxMPRSl.s 			page 149


 8367 21c0 6B100000 		.4byte	0x106b
 8368 21c4 30120000 		.4byte	.LLST116
 8369 21c8 31       		.uleb128 0x31
 8370 21c9 5F100000 		.4byte	0x105f
 8371 21cd 43120000 		.4byte	.LLST117
 8372 21d1 31       		.uleb128 0x31
 8373 21d2 56100000 		.4byte	0x1056
 8374 21d6 58120000 		.4byte	.LLST118
 8375 21da 32       		.uleb128 0x32
 8376 21db 3E000000 		.4byte	.LVL199
 8377 21df E7050000 		.4byte	0x5e7
 8378 21e3 33       		.uleb128 0x33
 8379 21e4 01       		.uleb128 0x1
 8380 21e5 52       		.byte	0x52
 8381 21e6 02       		.uleb128 0x2
 8382 21e7 08       		.byte	0x8
 8383 21e8 20       		.byte	0x20
 8384 21e9 00       		.byte	0
 8385 21ea 00       		.byte	0
 8386 21eb 47       		.uleb128 0x47
 8387 21ec F2100000 		.4byte	0x10f2
 8388 21f0 3E000000 		.4byte	.LBB347
 8389 21f4 12000000 		.4byte	.LBE347-.LBB347
 8390 21f8 01       		.byte	0x1
 8391 21f9 5702     		.2byte	0x257
 8392 21fb 31       		.uleb128 0x31
 8393 21fc 03110000 		.4byte	0x1103
 8394 2200 6B120000 		.4byte	.LLST119
 8395 2204 00       		.byte	0
 8396 2205 00       		.byte	0
 8397 2206 00       		.byte	0
 8398 2207 3F       		.uleb128 0x3f
 8399 2208 FC0A0000 		.4byte	0xafc
 8400 220c 01       		.byte	0x1
 8401 220d 7C02     		.2byte	0x27c
 8402 220f 00000000 		.4byte	.LFB38
 8403 2213 3A000000 		.4byte	.LFE38-.LFB38
 8404 2217 01       		.uleb128 0x1
 8405 2218 9C       		.byte	0x9c
 8406 2219 21220000 		.4byte	0x2221
 8407 221d C0220000 		.4byte	0x22c0
 8408 2221 36       		.uleb128 0x36
 8409 2222 2B070000 		.4byte	.LASF252
 8410 2226 78100000 		.4byte	0x1078
 8411 222a 7E120000 		.4byte	.LLST120
 8412 222e 40       		.uleb128 0x40
 8413 222f EB060000 		.4byte	.LASF271
 8414 2233 01       		.byte	0x1
 8415 2234 7C02     		.2byte	0x27c
 8416 2236 45000000 		.4byte	0x45
 8417 223a AA120000 		.4byte	.LLST121
 8418 223e 2C       		.uleb128 0x2c
 8419 223f 20030000 		.4byte	.Ldebug_ranges0+0x320
 8420 2243 44       		.uleb128 0x44
 8421 2244 08110000 		.4byte	.LASF65
 8422 2248 01       		.byte	0x1
 8423 2249 8002     		.2byte	0x280
ARM GAS  /tmp/ccxMPRSl.s 			page 150


 8424 224b 45000000 		.4byte	0x45
 8425 224f CB120000 		.4byte	.LLST122
 8426 2253 45       		.uleb128 0x45
 8427 2254 B0100000 		.4byte	0x10b0
 8428 2258 0E000000 		.4byte	.LBB351
 8429 225c 0E000000 		.4byte	.LBE351-.LBB351
 8430 2260 01       		.byte	0x1
 8431 2261 8002     		.2byte	0x280
 8432 2263 86220000 		.4byte	0x2286
 8433 2267 39       		.uleb128 0x39
 8434 2268 CA100000 		.4byte	0x10ca
 8435 226c 10       		.byte	0x10
 8436 226d 31       		.uleb128 0x31
 8437 226e C1100000 		.4byte	0x10c1
 8438 2272 ED120000 		.4byte	.LLST123
 8439 2276 32       		.uleb128 0x32
 8440 2277 1C000000 		.4byte	.LVL209
 8441 227b 34060000 		.4byte	0x634
 8442 227f 33       		.uleb128 0x33
 8443 2280 01       		.uleb128 0x1
 8444 2281 52       		.byte	0x52
 8445 2282 01       		.uleb128 0x1
 8446 2283 40       		.byte	0x40
 8447 2284 00       		.byte	0
 8448 2285 00       		.byte	0
 8449 2286 3E       		.uleb128 0x3e
 8450 2287 45100000 		.4byte	0x1045
 8451 228b 26000000 		.4byte	.LBB353
 8452 228f 38030000 		.4byte	.Ldebug_ranges0+0x338
 8453 2293 01       		.byte	0x1
 8454 2294 8702     		.2byte	0x287
 8455 2296 31       		.uleb128 0x31
 8456 2297 6B100000 		.4byte	0x106b
 8457 229b 19130000 		.4byte	.LLST124
 8458 229f 39       		.uleb128 0x39
 8459 22a0 5F100000 		.4byte	0x105f
 8460 22a4 10       		.byte	0x10
 8461 22a5 31       		.uleb128 0x31
 8462 22a6 56100000 		.4byte	0x1056
 8463 22aa 2C130000 		.4byte	.LLST125
 8464 22ae 3C       		.uleb128 0x3c
 8465 22af 3A000000 		.4byte	.LVL215
 8466 22b3 E7050000 		.4byte	0x5e7
 8467 22b7 33       		.uleb128 0x33
 8468 22b8 01       		.uleb128 0x1
 8469 22b9 52       		.byte	0x52
 8470 22ba 01       		.uleb128 0x1
 8471 22bb 40       		.byte	0x40
 8472 22bc 00       		.byte	0
 8473 22bd 00       		.byte	0
 8474 22be 00       		.byte	0
 8475 22bf 00       		.byte	0
 8476 22c0 3F       		.uleb128 0x3f
 8477 22c1 1B0B0000 		.4byte	0xb1b
 8478 22c5 01       		.byte	0x1
 8479 22c6 8B02     		.2byte	0x28b
 8480 22c8 00000000 		.4byte	.LFB39
ARM GAS  /tmp/ccxMPRSl.s 			page 151


 8481 22cc 3A000000 		.4byte	.LFE39-.LFB39
 8482 22d0 01       		.uleb128 0x1
 8483 22d1 9C       		.byte	0x9c
 8484 22d2 DA220000 		.4byte	0x22da
 8485 22d6 7B230000 		.4byte	0x237b
 8486 22da 36       		.uleb128 0x36
 8487 22db 2B070000 		.4byte	.LASF252
 8488 22df 78100000 		.4byte	0x1078
 8489 22e3 4D130000 		.4byte	.LLST126
 8490 22e7 40       		.uleb128 0x40
 8491 22e8 FD050000 		.4byte	.LASF272
 8492 22ec 01       		.byte	0x1
 8493 22ed 8B02     		.2byte	0x28b
 8494 22ef 45000000 		.4byte	0x45
 8495 22f3 79130000 		.4byte	.LLST127
 8496 22f7 2C       		.uleb128 0x2c
 8497 22f8 50030000 		.4byte	.Ldebug_ranges0+0x350
 8498 22fc 44       		.uleb128 0x44
 8499 22fd 08110000 		.4byte	.LASF65
 8500 2301 01       		.byte	0x1
 8501 2302 8F02     		.2byte	0x28f
 8502 2304 45000000 		.4byte	0x45
 8503 2308 9A130000 		.4byte	.LLST128
 8504 230c 45       		.uleb128 0x45
 8505 230d B0100000 		.4byte	0x10b0
 8506 2311 0E000000 		.4byte	.LBB362
 8507 2315 0E000000 		.4byte	.LBE362-.LBB362
 8508 2319 01       		.byte	0x1
 8509 231a 8F02     		.2byte	0x28f
 8510 231c 40230000 		.4byte	0x2340
 8511 2320 39       		.uleb128 0x39
 8512 2321 CA100000 		.4byte	0x10ca
 8513 2325 20       		.byte	0x20
 8514 2326 31       		.uleb128 0x31
 8515 2327 C1100000 		.4byte	0x10c1
 8516 232b BC130000 		.4byte	.LLST129
 8517 232f 32       		.uleb128 0x32
 8518 2330 1C000000 		.4byte	.LVL220
 8519 2334 34060000 		.4byte	0x634
 8520 2338 33       		.uleb128 0x33
 8521 2339 01       		.uleb128 0x1
 8522 233a 52       		.byte	0x52
 8523 233b 02       		.uleb128 0x2
 8524 233c 08       		.byte	0x8
 8525 233d 20       		.byte	0x20
 8526 233e 00       		.byte	0
 8527 233f 00       		.byte	0
 8528 2340 3E       		.uleb128 0x3e
 8529 2341 45100000 		.4byte	0x1045
 8530 2345 26000000 		.4byte	.LBB364
 8531 2349 68030000 		.4byte	.Ldebug_ranges0+0x368
 8532 234d 01       		.byte	0x1
 8533 234e 9602     		.2byte	0x296
 8534 2350 31       		.uleb128 0x31
 8535 2351 6B100000 		.4byte	0x106b
 8536 2355 E8130000 		.4byte	.LLST130
 8537 2359 39       		.uleb128 0x39
ARM GAS  /tmp/ccxMPRSl.s 			page 152


 8538 235a 5F100000 		.4byte	0x105f
 8539 235e 20       		.byte	0x20
 8540 235f 31       		.uleb128 0x31
 8541 2360 56100000 		.4byte	0x1056
 8542 2364 FB130000 		.4byte	.LLST131
 8543 2368 3C       		.uleb128 0x3c
 8544 2369 3A000000 		.4byte	.LVL226
 8545 236d E7050000 		.4byte	0x5e7
 8546 2371 33       		.uleb128 0x33
 8547 2372 01       		.uleb128 0x1
 8548 2373 52       		.byte	0x52
 8549 2374 02       		.uleb128 0x2
 8550 2375 08       		.byte	0x8
 8551 2376 20       		.byte	0x20
 8552 2377 00       		.byte	0
 8553 2378 00       		.byte	0
 8554 2379 00       		.byte	0
 8555 237a 00       		.byte	0
 8556 237b 3F       		.uleb128 0x3f
 8557 237c 3A0B0000 		.4byte	0xb3a
 8558 2380 01       		.byte	0x1
 8559 2381 9A02     		.2byte	0x29a
 8560 2383 00000000 		.4byte	.LFB40
 8561 2387 38000000 		.4byte	.LFE40-.LFB40
 8562 238b 01       		.uleb128 0x1
 8563 238c 9C       		.byte	0x9c
 8564 238d 95230000 		.4byte	0x2395
 8565 2391 36240000 		.4byte	0x2436
 8566 2395 36       		.uleb128 0x36
 8567 2396 2B070000 		.4byte	.LASF252
 8568 239a 78100000 		.4byte	0x1078
 8569 239e 1C140000 		.4byte	.LLST132
 8570 23a2 40       		.uleb128 0x40
 8571 23a3 8D080000 		.4byte	.LASF273
 8572 23a7 01       		.byte	0x1
 8573 23a8 9A02     		.2byte	0x29a
 8574 23aa 45000000 		.4byte	0x45
 8575 23ae 48140000 		.4byte	.LLST133
 8576 23b2 2C       		.uleb128 0x2c
 8577 23b3 80030000 		.4byte	.Ldebug_ranges0+0x380
 8578 23b7 44       		.uleb128 0x44
 8579 23b8 08110000 		.4byte	.LASF65
 8580 23bc 01       		.byte	0x1
 8581 23bd 9C02     		.2byte	0x29c
 8582 23bf 45000000 		.4byte	0x45
 8583 23c3 69140000 		.4byte	.LLST134
 8584 23c7 45       		.uleb128 0x45
 8585 23c8 9A110000 		.4byte	0x119a
 8586 23cc 06000000 		.4byte	.LBB372
 8587 23d0 0E000000 		.4byte	.LBE372-.LBB372
 8588 23d4 01       		.byte	0x1
 8589 23d5 9C02     		.2byte	0x29c
 8590 23d7 FB230000 		.4byte	0x23fb
 8591 23db 39       		.uleb128 0x39
 8592 23dc B4110000 		.4byte	0x11b4
 8593 23e0 20       		.byte	0x20
 8594 23e1 31       		.uleb128 0x31
ARM GAS  /tmp/ccxMPRSl.s 			page 153


 8595 23e2 AB110000 		.4byte	0x11ab
 8596 23e6 8C140000 		.4byte	.LLST135
 8597 23ea 32       		.uleb128 0x32
 8598 23eb 14000000 		.4byte	.LVL231
 8599 23ef 34060000 		.4byte	0x634
 8600 23f3 33       		.uleb128 0x33
 8601 23f4 01       		.uleb128 0x1
 8602 23f5 52       		.byte	0x52
 8603 23f6 02       		.uleb128 0x2
 8604 23f7 08       		.byte	0x8
 8605 23f8 20       		.byte	0x20
 8606 23f9 00       		.byte	0
 8607 23fa 00       		.byte	0
 8608 23fb 3E       		.uleb128 0x3e
 8609 23fc 7D100000 		.4byte	0x107d
 8610 2400 24000000 		.4byte	.LBB374
 8611 2404 98030000 		.4byte	.Ldebug_ranges0+0x398
 8612 2408 01       		.byte	0x1
 8613 2409 A302     		.2byte	0x2a3
 8614 240b 31       		.uleb128 0x31
 8615 240c A3100000 		.4byte	0x10a3
 8616 2410 B8140000 		.4byte	.LLST136
 8617 2414 39       		.uleb128 0x39
 8618 2415 97100000 		.4byte	0x1097
 8619 2419 20       		.byte	0x20
 8620 241a 31       		.uleb128 0x31
 8621 241b 8E100000 		.4byte	0x108e
 8622 241f CB140000 		.4byte	.LLST137
 8623 2423 3C       		.uleb128 0x3c
 8624 2424 38000000 		.4byte	.LVL237
 8625 2428 E7050000 		.4byte	0x5e7
 8626 242c 33       		.uleb128 0x33
 8627 242d 01       		.uleb128 0x1
 8628 242e 52       		.byte	0x52
 8629 242f 02       		.uleb128 0x2
 8630 2430 08       		.byte	0x8
 8631 2431 20       		.byte	0x20
 8632 2432 00       		.byte	0
 8633 2433 00       		.byte	0
 8634 2434 00       		.byte	0
 8635 2435 00       		.byte	0
 8636 2436 4C       		.uleb128 0x4c
 8637 2437 D7100000 		.4byte	0x10d7
 8638 243b AE060000 		.4byte	.LASF233
 8639 243f 00000000 		.4byte	.LFB41
 8640 2443 16000000 		.4byte	.LFE41-.LFB41
 8641 2447 01       		.uleb128 0x1
 8642 2448 9C       		.byte	0x9c
 8643 2449 51240000 		.4byte	0x2451
 8644 244d 5B240000 		.4byte	0x245b
 8645 2451 31       		.uleb128 0x31
 8646 2452 E8100000 		.4byte	0x10e8
 8647 2456 EC140000 		.4byte	.LLST138
 8648 245a 00       		.byte	0
 8649 245b 4C       		.uleb128 0x4c
 8650 245c F2100000 		.4byte	0x10f2
 8651 2460 66010000 		.4byte	.LASF237
ARM GAS  /tmp/ccxMPRSl.s 			page 154


 8652 2464 00000000 		.4byte	.LFB42
 8653 2468 16000000 		.4byte	.LFE42-.LFB42
 8654 246c 01       		.uleb128 0x1
 8655 246d 9C       		.byte	0x9c
 8656 246e 76240000 		.4byte	0x2476
 8657 2472 80240000 		.4byte	0x2480
 8658 2476 31       		.uleb128 0x31
 8659 2477 03110000 		.4byte	0x1103
 8660 247b 0A150000 		.4byte	.LLST139
 8661 247f 00       		.byte	0
 8662 2480 3F       		.uleb128 0x3f
 8663 2481 220F0000 		.4byte	0xf22
 8664 2485 01       		.byte	0x1
 8665 2486 AA02     		.2byte	0x2aa
 8666 2488 00000000 		.4byte	.LFB43
 8667 248c 54000000 		.4byte	.LFE43-.LFB43
 8668 2490 01       		.uleb128 0x1
 8669 2491 9C       		.byte	0x9c
 8670 2492 9A240000 		.4byte	0x249a
 8671 2496 A6240000 		.4byte	0x24a6
 8672 249a 2A       		.uleb128 0x2a
 8673 249b 2B070000 		.4byte	.LASF252
 8674 249f 78100000 		.4byte	0x1078
 8675 24a3 01       		.uleb128 0x1
 8676 24a4 50       		.byte	0x50
 8677 24a5 00       		.byte	0
 8678 24a6 3F       		.uleb128 0x3f
 8679 24a7 DD0A0000 		.4byte	0xadd
 8680 24ab 01       		.byte	0x1
 8681 24ac 5A02     		.2byte	0x25a
 8682 24ae 00000000 		.4byte	.LFB37
 8683 24b2 60000000 		.4byte	.LFE37-.LFB37
 8684 24b6 01       		.uleb128 0x1
 8685 24b7 9C       		.byte	0x9c
 8686 24b8 C0240000 		.4byte	0x24c0
 8687 24bc 79250000 		.4byte	0x2579
 8688 24c0 36       		.uleb128 0x36
 8689 24c1 2B070000 		.4byte	.LASF252
 8690 24c5 78100000 		.4byte	0x1078
 8691 24c9 28150000 		.4byte	.LLST140
 8692 24cd 40       		.uleb128 0x40
 8693 24ce C70E0000 		.4byte	.LASF274
 8694 24d2 01       		.byte	0x1
 8695 24d3 5A02     		.2byte	0x25a
 8696 24d5 45000000 		.4byte	0x45
 8697 24d9 6A150000 		.4byte	.LLST141
 8698 24dd 2C       		.uleb128 0x2c
 8699 24de B0030000 		.4byte	.Ldebug_ranges0+0x3b0
 8700 24e2 44       		.uleb128 0x44
 8701 24e3 08110000 		.4byte	.LASF65
 8702 24e7 01       		.byte	0x1
 8703 24e8 5C02     		.2byte	0x25c
 8704 24ea 45000000 		.4byte	0x45
 8705 24ee 8B150000 		.4byte	.LLST142
 8706 24f2 45       		.uleb128 0x45
 8707 24f3 9A110000 		.4byte	0x119a
 8708 24f7 06000000 		.4byte	.LBB380
ARM GAS  /tmp/ccxMPRSl.s 			page 155


 8709 24fb 0E000000 		.4byte	.LBE380-.LBB380
 8710 24ff 01       		.byte	0x1
 8711 2500 5C02     		.2byte	0x25c
 8712 2502 26250000 		.4byte	0x2526
 8713 2506 39       		.uleb128 0x39
 8714 2507 B4110000 		.4byte	0x11b4
 8715 250b 21       		.byte	0x21
 8716 250c 31       		.uleb128 0x31
 8717 250d AB110000 		.4byte	0x11ab
 8718 2511 B4150000 		.4byte	.LLST143
 8719 2515 32       		.uleb128 0x32
 8720 2516 14000000 		.4byte	.LVL251
 8721 251a 34060000 		.4byte	0x634
 8722 251e 33       		.uleb128 0x33
 8723 251f 01       		.uleb128 0x1
 8724 2520 52       		.byte	0x52
 8725 2521 02       		.uleb128 0x2
 8726 2522 08       		.byte	0x8
 8727 2523 21       		.byte	0x21
 8728 2524 00       		.byte	0
 8729 2525 00       		.byte	0
 8730 2526 45       		.uleb128 0x45
 8731 2527 7D100000 		.4byte	0x107d
 8732 252b 34000000 		.4byte	.LBB382
 8733 252f 0E000000 		.4byte	.LBE382-.LBB382
 8734 2533 01       		.byte	0x1
 8735 2534 7302     		.2byte	0x273
 8736 2536 66250000 		.4byte	0x2566
 8737 253a 31       		.uleb128 0x31
 8738 253b A3100000 		.4byte	0x10a3
 8739 253f F6150000 		.4byte	.LLST144
 8740 2543 31       		.uleb128 0x31
 8741 2544 97100000 		.4byte	0x1097
 8742 2548 09160000 		.4byte	.LLST145
 8743 254c 31       		.uleb128 0x31
 8744 254d 8E100000 		.4byte	0x108e
 8745 2551 1E160000 		.4byte	.LLST146
 8746 2555 32       		.uleb128 0x32
 8747 2556 42000000 		.4byte	.LVL255
 8748 255a E7050000 		.4byte	0x5e7
 8749 255e 33       		.uleb128 0x33
 8750 255f 01       		.uleb128 0x1
 8751 2560 52       		.byte	0x52
 8752 2561 02       		.uleb128 0x2
 8753 2562 08       		.byte	0x8
 8754 2563 21       		.byte	0x21
 8755 2564 00       		.byte	0
 8756 2565 00       		.byte	0
 8757 2566 3C       		.uleb128 0x3c
 8758 2567 4C000000 		.4byte	.LVL257
 8759 256b 80240000 		.4byte	0x2480
 8760 256f 33       		.uleb128 0x33
 8761 2570 01       		.uleb128 0x1
 8762 2571 50       		.byte	0x50
 8763 2572 03       		.uleb128 0x3
 8764 2573 F3       		.byte	0xf3
 8765 2574 01       		.uleb128 0x1
ARM GAS  /tmp/ccxMPRSl.s 			page 156


 8766 2575 50       		.byte	0x50
 8767 2576 00       		.byte	0
 8768 2577 00       		.byte	0
 8769 2578 00       		.byte	0
 8770 2579 3F       		.uleb128 0x3f
 8771 257a 2D0C0000 		.4byte	0xc2d
 8772 257e 01       		.byte	0x1
 8773 257f BC02     		.2byte	0x2bc
 8774 2581 00000000 		.4byte	.LFB44
 8775 2585 54000000 		.4byte	.LFE44-.LFB44
 8776 2589 01       		.uleb128 0x1
 8777 258a 9C       		.byte	0x9c
 8778 258b 93250000 		.4byte	0x2593
 8779 258f A0260000 		.4byte	0x26a0
 8780 2593 36       		.uleb128 0x36
 8781 2594 2B070000 		.4byte	.LASF252
 8782 2598 78100000 		.4byte	0x1078
 8783 259c 4A160000 		.4byte	.LLST147
 8784 25a0 40       		.uleb128 0x40
 8785 25a1 28100000 		.4byte	.LASF275
 8786 25a5 01       		.byte	0x1
 8787 25a6 BC02     		.2byte	0x2bc
 8788 25a8 BB000000 		.4byte	0xbb
 8789 25ac 81160000 		.4byte	.LLST148
 8790 25b0 40       		.uleb128 0x40
 8791 25b1 2D110000 		.4byte	.LASF276
 8792 25b5 01       		.byte	0x1
 8793 25b6 BC02     		.2byte	0x2bc
 8794 25b8 45000000 		.4byte	0x45
 8795 25bc A2160000 		.4byte	.LLST149
 8796 25c0 40       		.uleb128 0x40
 8797 25c1 5B020000 		.4byte	.LASF277
 8798 25c5 01       		.byte	0x1
 8799 25c6 BD02     		.2byte	0x2bd
 8800 25c8 D4000000 		.4byte	0xd4
 8801 25cc C3160000 		.4byte	.LLST150
 8802 25d0 40       		.uleb128 0x40
 8803 25d1 B6020000 		.4byte	.LASF278
 8804 25d5 01       		.byte	0x1
 8805 25d6 BD02     		.2byte	0x2bd
 8806 25d8 ED000000 		.4byte	0xed
 8807 25dc E4160000 		.4byte	.LLST151
 8808 25e0 2C       		.uleb128 0x2c
 8809 25e1 C8030000 		.4byte	.Ldebug_ranges0+0x3c8
 8810 25e5 44       		.uleb128 0x44
 8811 25e6 08110000 		.4byte	.LASF65
 8812 25ea 01       		.byte	0x1
 8813 25eb C502     		.2byte	0x2c5
 8814 25ed 45000000 		.4byte	0x45
 8815 25f1 10170000 		.4byte	.LLST152
 8816 25f5 3D       		.uleb128 0x3d
 8817 25f6 45100000 		.4byte	0x1045
 8818 25fa 08000000 		.4byte	.LBB386
 8819 25fe E8030000 		.4byte	.Ldebug_ranges0+0x3e8
 8820 2602 01       		.byte	0x1
 8821 2603 C202     		.2byte	0x2c2
 8822 2605 2E260000 		.4byte	0x262e
ARM GAS  /tmp/ccxMPRSl.s 			page 157


 8823 2609 31       		.uleb128 0x31
 8824 260a 6B100000 		.4byte	0x106b
 8825 260e 39170000 		.4byte	.LLST153
 8826 2612 31       		.uleb128 0x31
 8827 2613 5F100000 		.4byte	0x105f
 8828 2617 57170000 		.4byte	.LLST154
 8829 261b 31       		.uleb128 0x31
 8830 261c 56100000 		.4byte	0x1056
 8831 2620 75170000 		.4byte	.LLST155
 8832 2624 4D       		.uleb128 0x4d
 8833 2625 1C000000 		.4byte	.LVL267
 8834 2629 E7050000 		.4byte	0x5e7
 8835 262d 00       		.byte	0
 8836 262e 45       		.uleb128 0x45
 8837 262f B0100000 		.4byte	0x10b0
 8838 2633 1C000000 		.4byte	.LBB390
 8839 2637 0E000000 		.4byte	.LBE390-.LBB390
 8840 263b 01       		.byte	0x1
 8841 263c C602     		.2byte	0x2c6
 8842 263e 62260000 		.4byte	0x2662
 8843 2642 39       		.uleb128 0x39
 8844 2643 CA100000 		.4byte	0x10ca
 8845 2647 22       		.byte	0x22
 8846 2648 31       		.uleb128 0x31
 8847 2649 C1100000 		.4byte	0x10c1
 8848 264d AC170000 		.4byte	.LLST156
 8849 2651 32       		.uleb128 0x32
 8850 2652 2A000000 		.4byte	.LVL268
 8851 2656 34060000 		.4byte	0x634
 8852 265a 33       		.uleb128 0x33
 8853 265b 01       		.uleb128 0x1
 8854 265c 52       		.byte	0x52
 8855 265d 02       		.uleb128 0x2
 8856 265e 08       		.byte	0x8
 8857 265f 22       		.byte	0x22
 8858 2660 00       		.byte	0
 8859 2661 00       		.byte	0
 8860 2662 3E       		.uleb128 0x3e
 8861 2663 45100000 		.4byte	0x1045
 8862 2667 3C000000 		.4byte	.LBB392
 8863 266b 00040000 		.4byte	.Ldebug_ranges0+0x400
 8864 266f 01       		.byte	0x1
 8865 2670 D202     		.2byte	0x2d2
 8866 2672 31       		.uleb128 0x31
 8867 2673 6B100000 		.4byte	0x106b
 8868 2677 D8170000 		.4byte	.LLST157
 8869 267b 31       		.uleb128 0x31
 8870 267c 5F100000 		.4byte	0x105f
 8871 2680 EB170000 		.4byte	.LLST158
 8872 2684 31       		.uleb128 0x31
 8873 2685 56100000 		.4byte	0x1056
 8874 2689 00180000 		.4byte	.LLST159
 8875 268d 3C       		.uleb128 0x3c
 8876 268e 4E000000 		.4byte	.LVL272
 8877 2692 E7050000 		.4byte	0x5e7
 8878 2696 33       		.uleb128 0x33
 8879 2697 01       		.uleb128 0x1
ARM GAS  /tmp/ccxMPRSl.s 			page 158


 8880 2698 52       		.byte	0x52
 8881 2699 02       		.uleb128 0x2
 8882 269a 08       		.byte	0x8
 8883 269b 22       		.byte	0x22
 8884 269c 00       		.byte	0
 8885 269d 00       		.byte	0
 8886 269e 00       		.byte	0
 8887 269f 00       		.byte	0
 8888 26a0 3F       		.uleb128 0x3f
 8889 26a1 590B0000 		.4byte	0xb59
 8890 26a5 01       		.byte	0x1
 8891 26a6 D502     		.2byte	0x2d5
 8892 26a8 00000000 		.4byte	.LFB45
 8893 26ac 34000000 		.4byte	.LFE45-.LFB45
 8894 26b0 01       		.uleb128 0x1
 8895 26b1 9C       		.byte	0x9c
 8896 26b2 BA260000 		.4byte	0x26ba
 8897 26b6 82270000 		.4byte	0x2782
 8898 26ba 36       		.uleb128 0x36
 8899 26bb 2B070000 		.4byte	.LASF252
 8900 26bf 78100000 		.4byte	0x1078
 8901 26c3 21180000 		.4byte	.LLST160
 8902 26c7 40       		.uleb128 0x40
 8903 26c8 AB030000 		.4byte	.LASF279
 8904 26cc 01       		.byte	0x1
 8905 26cd D502     		.2byte	0x2d5
 8906 26cf 45000000 		.4byte	0x45
 8907 26d3 4D180000 		.4byte	.LLST161
 8908 26d7 40       		.uleb128 0x40
 8909 26d8 76090000 		.4byte	.LASF280
 8910 26dc 01       		.byte	0x1
 8911 26dd D502     		.2byte	0x2d5
 8912 26df 45000000 		.4byte	0x45
 8913 26e3 6E180000 		.4byte	.LLST162
 8914 26e7 40       		.uleb128 0x40
 8915 26e8 930F0000 		.4byte	.LASF281
 8916 26ec 01       		.byte	0x1
 8917 26ed D602     		.2byte	0x2d6
 8918 26ef 38100000 		.4byte	0x1038
 8919 26f3 8F180000 		.4byte	.LLST163
 8920 26f7 2C       		.uleb128 0x2c
 8921 26f8 18040000 		.4byte	.Ldebug_ranges0+0x418
 8922 26fc 44       		.uleb128 0x44
 8923 26fd 08110000 		.4byte	.LASF65
 8924 2701 01       		.byte	0x1
 8925 2702 D702     		.2byte	0x2d7
 8926 2704 45000000 		.4byte	0x45
 8927 2708 B0180000 		.4byte	.LLST164
 8928 270c 45       		.uleb128 0x45
 8929 270d 45100000 		.4byte	0x1045
 8930 2711 10000000 		.4byte	.LBB399
 8931 2715 10000000 		.4byte	.LBE399-.LBB399
 8932 2719 01       		.byte	0x1
 8933 271a DB02     		.2byte	0x2db
 8934 271c 48270000 		.4byte	0x2748
 8935 2720 31       		.uleb128 0x31
 8936 2721 6B100000 		.4byte	0x106b
ARM GAS  /tmp/ccxMPRSl.s 			page 159


 8937 2725 DA180000 		.4byte	.LLST165
 8938 2729 39       		.uleb128 0x39
 8939 272a 5F100000 		.4byte	0x105f
 8940 272e 04       		.byte	0x4
 8941 272f 31       		.uleb128 0x31
 8942 2730 56100000 		.4byte	0x1056
 8943 2734 F8180000 		.4byte	.LLST166
 8944 2738 32       		.uleb128 0x32
 8945 2739 20000000 		.4byte	.LVL281
 8946 273d E7050000 		.4byte	0x5e7
 8947 2741 33       		.uleb128 0x33
 8948 2742 01       		.uleb128 0x1
 8949 2743 52       		.byte	0x52
 8950 2744 01       		.uleb128 0x1
 8951 2745 34       		.byte	0x34
 8952 2746 00       		.byte	0
 8953 2747 00       		.byte	0
 8954 2748 3E       		.uleb128 0x3e
 8955 2749 45100000 		.4byte	0x1045
 8956 274d 20000000 		.4byte	.LBB401
 8957 2751 38040000 		.4byte	.Ldebug_ranges0+0x438
 8958 2755 01       		.byte	0x1
 8959 2756 DD02     		.2byte	0x2dd
 8960 2758 31       		.uleb128 0x31
 8961 2759 6B100000 		.4byte	0x106b
 8962 275d 24190000 		.4byte	.LLST167
 8963 2761 39       		.uleb128 0x39
 8964 2762 5F100000 		.4byte	0x105f
 8965 2766 05       		.byte	0x5
 8966 2767 31       		.uleb128 0x31
 8967 2768 56100000 		.4byte	0x1056
 8968 276c 42190000 		.4byte	.LLST168
 8969 2770 3C       		.uleb128 0x3c
 8970 2771 34000000 		.4byte	.LVL283
 8971 2775 E7050000 		.4byte	0x5e7
 8972 2779 33       		.uleb128 0x33
 8973 277a 01       		.uleb128 0x1
 8974 277b 52       		.byte	0x52
 8975 277c 01       		.uleb128 0x1
 8976 277d 35       		.byte	0x35
 8977 277e 00       		.byte	0
 8978 277f 00       		.byte	0
 8979 2780 00       		.byte	0
 8980 2781 00       		.byte	0
 8981 2782 3F       		.uleb128 0x3f
 8982 2783 030D0000 		.4byte	0xd03
 8983 2787 01       		.byte	0x1
 8984 2788 E002     		.2byte	0x2e0
 8985 278a 00000000 		.4byte	.LFB46
 8986 278e 18000000 		.4byte	.LFE46-.LFB46
 8987 2792 01       		.uleb128 0x1
 8988 2793 9C       		.byte	0x9c
 8989 2794 9C270000 		.4byte	0x279c
 8990 2798 F3270000 		.4byte	0x27f3
 8991 279c 36       		.uleb128 0x36
 8992 279d 2B070000 		.4byte	.LASF252
 8993 27a1 78100000 		.4byte	0x1078
ARM GAS  /tmp/ccxMPRSl.s 			page 160


 8994 27a5 63190000 		.4byte	.LLST169
 8995 27a9 46       		.uleb128 0x46
 8996 27aa 04000000 		.4byte	.LBB407
 8997 27ae 0E000000 		.4byte	.LBE407-.LBB407
 8998 27b2 44       		.uleb128 0x44
 8999 27b3 08110000 		.4byte	.LASF65
 9000 27b7 01       		.byte	0x1
 9001 27b8 E102     		.2byte	0x2e1
 9002 27ba 45000000 		.4byte	0x45
 9003 27be 8F190000 		.4byte	.LLST170
 9004 27c2 47       		.uleb128 0x47
 9005 27c3 B0100000 		.4byte	0x10b0
 9006 27c7 04000000 		.4byte	.LBB408
 9007 27cb 0E000000 		.4byte	.LBE408-.LBB408
 9008 27cf 01       		.byte	0x1
 9009 27d0 E102     		.2byte	0x2e1
 9010 27d2 39       		.uleb128 0x39
 9011 27d3 CA100000 		.4byte	0x10ca
 9012 27d7 17       		.byte	0x17
 9013 27d8 31       		.uleb128 0x31
 9014 27d9 C1100000 		.4byte	0x10c1
 9015 27dd A6190000 		.4byte	.LLST171
 9016 27e1 32       		.uleb128 0x32
 9017 27e2 12000000 		.4byte	.LVL287
 9018 27e6 34060000 		.4byte	0x634
 9019 27ea 33       		.uleb128 0x33
 9020 27eb 01       		.uleb128 0x1
 9021 27ec 52       		.byte	0x52
 9022 27ed 01       		.uleb128 0x1
 9023 27ee 47       		.byte	0x47
 9024 27ef 00       		.byte	0
 9025 27f0 00       		.byte	0
 9026 27f1 00       		.byte	0
 9027 27f2 00       		.byte	0
 9028 27f3 3F       		.uleb128 0x3f
 9029 27f4 820B0000 		.4byte	0xb82
 9030 27f8 01       		.byte	0x1
 9031 27f9 E602     		.2byte	0x2e6
 9032 27fb 00000000 		.4byte	.LFB47
 9033 27ff 1E000000 		.4byte	.LFE47-.LFB47
 9034 2803 01       		.uleb128 0x1
 9035 2804 9C       		.byte	0x9c
 9036 2805 0D280000 		.4byte	0x280d
 9037 2809 89280000 		.4byte	0x2889
 9038 280d 36       		.uleb128 0x36
 9039 280e 2B070000 		.4byte	.LASF252
 9040 2812 78100000 		.4byte	0x1078
 9041 2816 D2190000 		.4byte	.LLST172
 9042 281a 40       		.uleb128 0x40
 9043 281b 2D110000 		.4byte	.LASF276
 9044 281f 01       		.byte	0x1
 9045 2820 E602     		.2byte	0x2e6
 9046 2822 45000000 		.4byte	0x45
 9047 2826 FE190000 		.4byte	.LLST173
 9048 282a 40       		.uleb128 0x40
 9049 282b C0090000 		.4byte	.LASF282
 9050 282f 01       		.byte	0x1
ARM GAS  /tmp/ccxMPRSl.s 			page 161


 9051 2830 E602     		.2byte	0x2e6
 9052 2832 38100000 		.4byte	0x1038
 9053 2836 1F1A0000 		.4byte	.LLST174
 9054 283a 2C       		.uleb128 0x2c
 9055 283b 50040000 		.4byte	.Ldebug_ranges0+0x450
 9056 283f 44       		.uleb128 0x44
 9057 2840 08110000 		.4byte	.LASF65
 9058 2844 01       		.byte	0x1
 9059 2845 E902     		.2byte	0x2e9
 9060 2847 45000000 		.4byte	0x45
 9061 284b 401A0000 		.4byte	.LLST175
 9062 284f 3E       		.uleb128 0x3e
 9063 2850 45100000 		.4byte	0x1045
 9064 2854 0C000000 		.4byte	.LBB411
 9065 2858 68040000 		.4byte	.Ldebug_ranges0+0x468
 9066 285c 01       		.byte	0x1
 9067 285d EB02     		.2byte	0x2eb
 9068 285f 31       		.uleb128 0x31
 9069 2860 6B100000 		.4byte	0x106b
 9070 2864 5E1A0000 		.4byte	.LLST176
 9071 2868 39       		.uleb128 0x39
 9072 2869 5F100000 		.4byte	0x105f
 9073 286d 06       		.byte	0x6
 9074 286e 31       		.uleb128 0x31
 9075 286f 56100000 		.4byte	0x1056
 9076 2873 711A0000 		.4byte	.LLST177
 9077 2877 3C       		.uleb128 0x3c
 9078 2878 1E000000 		.4byte	.LVL296
 9079 287c E7050000 		.4byte	0x5e7
 9080 2880 33       		.uleb128 0x33
 9081 2881 01       		.uleb128 0x1
 9082 2882 52       		.byte	0x52
 9083 2883 01       		.uleb128 0x1
 9084 2884 36       		.byte	0x36
 9085 2885 00       		.byte	0
 9086 2886 00       		.byte	0
 9087 2887 00       		.byte	0
 9088 2888 00       		.byte	0
 9089 2889 3F       		.uleb128 0x3f
 9090 288a A60B0000 		.4byte	0xba6
 9091 288e 01       		.byte	0x1
 9092 288f EE02     		.2byte	0x2ee
 9093 2891 00000000 		.4byte	.LFB48
 9094 2895 38000000 		.4byte	.LFE48-.LFB48
 9095 2899 01       		.uleb128 0x1
 9096 289a 9C       		.byte	0x9c
 9097 289b A3280000 		.4byte	0x28a3
 9098 289f 74290000 		.4byte	0x2974
 9099 28a3 36       		.uleb128 0x36
 9100 28a4 2B070000 		.4byte	.LASF252
 9101 28a8 78100000 		.4byte	0x1078
 9102 28ac 9D1A0000 		.4byte	.LLST178
 9103 28b0 40       		.uleb128 0x40
 9104 28b1 76090000 		.4byte	.LASF280
 9105 28b5 01       		.byte	0x1
 9106 28b6 EE02     		.2byte	0x2ee
 9107 28b8 45000000 		.4byte	0x45
ARM GAS  /tmp/ccxMPRSl.s 			page 162


 9108 28bc C91A0000 		.4byte	.LLST179
 9109 28c0 40       		.uleb128 0x40
 9110 28c1 AB050000 		.4byte	.LASF255
 9111 28c5 01       		.byte	0x1
 9112 28c6 EE02     		.2byte	0x2ee
 9113 28c8 B5060000 		.4byte	0x6b5
 9114 28cc EA1A0000 		.4byte	.LLST180
 9115 28d0 40       		.uleb128 0x40
 9116 28d1 AB030000 		.4byte	.LASF279
 9117 28d5 01       		.byte	0x1
 9118 28d6 EF02     		.2byte	0x2ef
 9119 28d8 45000000 		.4byte	0x45
 9120 28dc 0B1B0000 		.4byte	.LLST181
 9121 28e0 40       		.uleb128 0x40
 9122 28e1 3C100000 		.4byte	.LASF283
 9123 28e5 01       		.byte	0x1
 9124 28e6 EF02     		.2byte	0x2ef
 9125 28e8 38100000 		.4byte	0x1038
 9126 28ec 2C1B0000 		.4byte	.LLST182
 9127 28f0 2C       		.uleb128 0x2c
 9128 28f1 80040000 		.4byte	.Ldebug_ranges0+0x480
 9129 28f5 44       		.uleb128 0x44
 9130 28f6 08110000 		.4byte	.LASF65
 9131 28fa 01       		.byte	0x1
 9132 28fb F502     		.2byte	0x2f5
 9133 28fd 45000000 		.4byte	0x45
 9134 2901 4C1B0000 		.4byte	.LLST183
 9135 2905 45       		.uleb128 0x45
 9136 2906 45100000 		.4byte	0x1045
 9137 290a 0C000000 		.4byte	.LBB417
 9138 290e 10000000 		.4byte	.LBE417-.LBB417
 9139 2912 01       		.byte	0x1
 9140 2913 F202     		.2byte	0x2f2
 9141 2915 3A290000 		.4byte	0x293a
 9142 2919 31       		.uleb128 0x31
 9143 291a 6B100000 		.4byte	0x106b
 9144 291e 5F1B0000 		.4byte	.LLST184
 9145 2922 42       		.uleb128 0x42
 9146 2923 5F100000 		.4byte	0x105f
 9147 2927 31       		.uleb128 0x31
 9148 2928 56100000 		.4byte	0x1056
 9149 292c 7D1B0000 		.4byte	.LLST185
 9150 2930 4D       		.uleb128 0x4d
 9151 2931 1C000000 		.4byte	.LVL303
 9152 2935 E7050000 		.4byte	0x5e7
 9153 2939 00       		.byte	0
 9154 293a 3E       		.uleb128 0x3e
 9155 293b 45100000 		.4byte	0x1045
 9156 293f 26000000 		.4byte	.LBB419
 9157 2943 A0040000 		.4byte	.Ldebug_ranges0+0x4a0
 9158 2947 01       		.byte	0x1
 9159 2948 F802     		.2byte	0x2f8
 9160 294a 31       		.uleb128 0x31
 9161 294b 6B100000 		.4byte	0x106b
 9162 294f A91B0000 		.4byte	.LLST186
 9163 2953 39       		.uleb128 0x39
 9164 2954 5F100000 		.4byte	0x105f
ARM GAS  /tmp/ccxMPRSl.s 			page 163


 9165 2958 0A       		.byte	0xa
 9166 2959 31       		.uleb128 0x31
 9167 295a 56100000 		.4byte	0x1056
 9168 295e BC1B0000 		.4byte	.LLST187
 9169 2962 3C       		.uleb128 0x3c
 9170 2963 38000000 		.4byte	.LVL307
 9171 2967 E7050000 		.4byte	0x5e7
 9172 296b 33       		.uleb128 0x33
 9173 296c 01       		.uleb128 0x1
 9174 296d 52       		.byte	0x52
 9175 296e 01       		.uleb128 0x1
 9176 296f 3A       		.byte	0x3a
 9177 2970 00       		.byte	0
 9178 2971 00       		.byte	0
 9179 2972 00       		.byte	0
 9180 2973 00       		.byte	0
 9181 2974 3F       		.uleb128 0x3f
 9182 2975 C50C0000 		.4byte	0xcc5
 9183 2979 01       		.byte	0x1
 9184 297a FB02     		.2byte	0x2fb
 9185 297c 00000000 		.4byte	.LFB49
 9186 2980 24000000 		.4byte	.LFE49-.LFB49
 9187 2984 01       		.uleb128 0x1
 9188 2985 9C       		.byte	0x9c
 9189 2986 8E290000 		.4byte	0x298e
 9190 298a E6290000 		.4byte	0x29e6
 9191 298e 36       		.uleb128 0x36
 9192 298f 2B070000 		.4byte	.LASF252
 9193 2993 78100000 		.4byte	0x1078
 9194 2997 DD1B0000 		.4byte	.LLST188
 9195 299b 46       		.uleb128 0x46
 9196 299c 04000000 		.4byte	.LBB425
 9197 29a0 1C000000 		.4byte	.LBE425-.LBB425
 9198 29a4 44       		.uleb128 0x44
 9199 29a5 28010000 		.4byte	.LASF284
 9200 29a9 01       		.byte	0x1
 9201 29aa FC02     		.2byte	0x2fc
 9202 29ac 45000000 		.4byte	0x45
 9203 29b0 091C0000 		.4byte	.LLST189
 9204 29b4 47       		.uleb128 0x47
 9205 29b5 B0100000 		.4byte	0x10b0
 9206 29b9 04000000 		.4byte	.LBB426
 9207 29bd 0E000000 		.4byte	.LBE426-.LBB426
 9208 29c1 01       		.byte	0x1
 9209 29c2 FC02     		.2byte	0x2fc
 9210 29c4 39       		.uleb128 0x39
 9211 29c5 CA100000 		.4byte	0x10ca
 9212 29c9 26       		.byte	0x26
 9213 29ca 31       		.uleb128 0x31
 9214 29cb C1100000 		.4byte	0x10c1
 9215 29cf 1C1C0000 		.4byte	.LLST190
 9216 29d3 32       		.uleb128 0x32
 9217 29d4 12000000 		.4byte	.LVL311
 9218 29d8 34060000 		.4byte	0x634
 9219 29dc 33       		.uleb128 0x33
 9220 29dd 01       		.uleb128 0x1
 9221 29de 52       		.byte	0x52
ARM GAS  /tmp/ccxMPRSl.s 			page 164


 9222 29df 02       		.uleb128 0x2
 9223 29e0 08       		.byte	0x8
 9224 29e1 26       		.byte	0x26
 9225 29e2 00       		.byte	0
 9226 29e3 00       		.byte	0
 9227 29e4 00       		.byte	0
 9228 29e5 00       		.byte	0
 9229 29e6 3F       		.uleb128 0x3f
 9230 29e7 D40B0000 		.4byte	0xbd4
 9231 29eb 01       		.byte	0x1
 9232 29ec 0603     		.2byte	0x306
 9233 29ee 00000000 		.4byte	.LFB50
 9234 29f2 24000000 		.4byte	.LFE50-.LFB50
 9235 29f6 01       		.uleb128 0x1
 9236 29f7 9C       		.byte	0x9c
 9237 29f8 002A0000 		.4byte	0x2a00
 9238 29fc 8D2A0000 		.4byte	0x2a8d
 9239 2a00 36       		.uleb128 0x36
 9240 2a01 2B070000 		.4byte	.LASF252
 9241 2a05 78100000 		.4byte	0x1078
 9242 2a09 481C0000 		.4byte	.LLST191
 9243 2a0d 40       		.uleb128 0x40
 9244 2a0e 2D110000 		.4byte	.LASF276
 9245 2a12 01       		.byte	0x1
 9246 2a13 0603     		.2byte	0x306
 9247 2a15 45000000 		.4byte	0x45
 9248 2a19 741C0000 		.4byte	.LLST192
 9249 2a1d 4E       		.uleb128 0x4e
 9250 2a1e 616F6900 		.ascii	"aoi\000"
 9251 2a22 01       		.byte	0x1
 9252 2a23 0603     		.2byte	0x306
 9253 2a25 38100000 		.4byte	0x1038
 9254 2a29 951C0000 		.4byte	.LLST193
 9255 2a2d 40       		.uleb128 0x40
 9256 2a2e B0050000 		.4byte	.LASF285
 9257 2a32 01       		.byte	0x1
 9258 2a33 0603     		.2byte	0x306
 9259 2a35 38100000 		.4byte	0x1038
 9260 2a39 B61C0000 		.4byte	.LLST194
 9261 2a3d 2C       		.uleb128 0x2c
 9262 2a3e B8040000 		.4byte	.Ldebug_ranges0+0x4b8
 9263 2a42 44       		.uleb128 0x44
 9264 2a43 08110000 		.4byte	.LASF65
 9265 2a47 01       		.byte	0x1
 9266 2a48 0903     		.2byte	0x309
 9267 2a4a 45000000 		.4byte	0x45
 9268 2a4e D71C0000 		.4byte	.LLST195
 9269 2a52 3E       		.uleb128 0x3e
 9270 2a53 45100000 		.4byte	0x1045
 9271 2a57 10000000 		.4byte	.LBB429
 9272 2a5b D0040000 		.4byte	.Ldebug_ranges0+0x4d0
 9273 2a5f 01       		.byte	0x1
 9274 2a60 0C03     		.2byte	0x30c
 9275 2a62 31       		.uleb128 0x31
 9276 2a63 6B100000 		.4byte	0x106b
 9277 2a67 F51C0000 		.4byte	.LLST196
 9278 2a6b 39       		.uleb128 0x39
ARM GAS  /tmp/ccxMPRSl.s 			page 165


 9279 2a6c 5F100000 		.4byte	0x105f
 9280 2a70 30       		.byte	0x30
 9281 2a71 31       		.uleb128 0x31
 9282 2a72 56100000 		.4byte	0x1056
 9283 2a76 131D0000 		.4byte	.LLST197
 9284 2a7a 3C       		.uleb128 0x3c
 9285 2a7b 24000000 		.4byte	.LVL322
 9286 2a7f E7050000 		.4byte	0x5e7
 9287 2a83 33       		.uleb128 0x33
 9288 2a84 01       		.uleb128 0x1
 9289 2a85 52       		.byte	0x52
 9290 2a86 02       		.uleb128 0x2
 9291 2a87 08       		.byte	0x8
 9292 2a88 30       		.byte	0x30
 9293 2a89 00       		.byte	0
 9294 2a8a 00       		.byte	0
 9295 2a8b 00       		.byte	0
 9296 2a8c 00       		.byte	0
 9297 2a8d 3F       		.uleb128 0x3f
 9298 2a8e FE0B0000 		.4byte	0xbfe
 9299 2a92 01       		.byte	0x1
 9300 2a93 0F03     		.2byte	0x30f
 9301 2a95 00000000 		.4byte	.LFB51
 9302 2a99 58000000 		.4byte	.LFE51-.LFB51
 9303 2a9d 01       		.uleb128 0x1
 9304 2a9e 9C       		.byte	0x9c
 9305 2a9f A72A0000 		.4byte	0x2aa7
 9306 2aa3 EB2B0000 		.4byte	0x2beb
 9307 2aa7 36       		.uleb128 0x36
 9308 2aa8 2B070000 		.4byte	.LASF252
 9309 2aac 78100000 		.4byte	0x1078
 9310 2ab0 3F1D0000 		.4byte	.LLST198
 9311 2ab4 40       		.uleb128 0x40
 9312 2ab5 76090000 		.4byte	.LASF280
 9313 2ab9 01       		.byte	0x1
 9314 2aba 0F03     		.2byte	0x30f
 9315 2abc 57000000 		.4byte	0x57
 9316 2ac0 6B1D0000 		.4byte	.LLST199
 9317 2ac4 40       		.uleb128 0x40
 9318 2ac5 AB050000 		.4byte	.LASF255
 9319 2ac9 01       		.byte	0x1
 9320 2aca 0F03     		.2byte	0x30f
 9321 2acc B5060000 		.4byte	0x6b5
 9322 2ad0 8C1D0000 		.4byte	.LLST200
 9323 2ad4 40       		.uleb128 0x40
 9324 2ad5 AB030000 		.4byte	.LASF279
 9325 2ad9 01       		.byte	0x1
 9326 2ada 1003     		.2byte	0x310
 9327 2adc 45000000 		.4byte	0x45
 9328 2ae0 AD1D0000 		.4byte	.LLST201
 9329 2ae4 40       		.uleb128 0x40
 9330 2ae5 3C100000 		.4byte	.LASF283
 9331 2ae9 01       		.byte	0x1
 9332 2aea 1003     		.2byte	0x310
 9333 2aec 38100000 		.4byte	0x1038
 9334 2af0 CE1D0000 		.4byte	.LLST202
 9335 2af4 2C       		.uleb128 0x2c
ARM GAS  /tmp/ccxMPRSl.s 			page 166


 9336 2af5 E8040000 		.4byte	.Ldebug_ranges0+0x4e8
 9337 2af9 44       		.uleb128 0x44
 9338 2afa F6050000 		.4byte	.LASF286
 9339 2afe 01       		.byte	0x1
 9340 2aff 1103     		.2byte	0x311
 9341 2b01 8B1B0000 		.4byte	0x1b8b
 9342 2b05 EE1D0000 		.4byte	.LLST203
 9343 2b09 44       		.uleb128 0x44
 9344 2b0a 08110000 		.4byte	.LASF65
 9345 2b0e 01       		.byte	0x1
 9346 2b0f 1A03     		.2byte	0x31a
 9347 2b11 45000000 		.4byte	0x45
 9348 2b15 2E1E0000 		.4byte	.LLST204
 9349 2b19 3D       		.uleb128 0x3d
 9350 2b1a 45100000 		.4byte	0x1045
 9351 2b1e 10000000 		.4byte	.LBB435
 9352 2b22 18050000 		.4byte	.Ldebug_ranges0+0x518
 9353 2b26 01       		.byte	0x1
 9354 2b27 1603     		.2byte	0x316
 9355 2b29 692B0000 		.4byte	0x2b69
 9356 2b2d 31       		.uleb128 0x31
 9357 2b2e 6B100000 		.4byte	0x106b
 9358 2b32 411E0000 		.4byte	.LLST205
 9359 2b36 31       		.uleb128 0x31
 9360 2b37 5F100000 		.4byte	0x105f
 9361 2b3b 771E0000 		.4byte	.LLST206
 9362 2b3f 31       		.uleb128 0x31
 9363 2b40 56100000 		.4byte	0x1056
 9364 2b44 A11E0000 		.4byte	.LLST207
 9365 2b48 32       		.uleb128 0x32
 9366 2b49 28000000 		.4byte	.LVL330
 9367 2b4d E7050000 		.4byte	0x5e7
 9368 2b51 33       		.uleb128 0x33
 9369 2b52 01       		.uleb128 0x1
 9370 2b53 53       		.byte	0x53
 9371 2b54 08       		.uleb128 0x8
 9372 2b55 75       		.byte	0x75
 9373 2b56 00       		.sleb128 0
 9374 2b57 09       		.byte	0x9
 9375 2b58 F5       		.byte	0xf5
 9376 2b59 24       		.byte	0x24
 9377 2b5a 09       		.byte	0x9
 9378 2b5b FD       		.byte	0xfd
 9379 2b5c 25       		.byte	0x25
 9380 2b5d 33       		.uleb128 0x33
 9381 2b5e 01       		.uleb128 0x1
 9382 2b5f 52       		.byte	0x52
 9383 2b60 06       		.uleb128 0x6
 9384 2b61 76       		.byte	0x76
 9385 2b62 67       		.sleb128 -25
 9386 2b63 31       		.byte	0x31
 9387 2b64 24       		.byte	0x24
 9388 2b65 23       		.byte	0x23
 9389 2b66 31       		.uleb128 0x31
 9390 2b67 00       		.byte	0
 9391 2b68 00       		.byte	0
 9392 2b69 45       		.uleb128 0x45
ARM GAS  /tmp/ccxMPRSl.s 			page 167


 9393 2b6a 45100000 		.4byte	0x1045
 9394 2b6e 2A000000 		.4byte	.LBB439
 9395 2b72 12000000 		.4byte	.LBE439-.LBB439
 9396 2b76 01       		.byte	0x1
 9397 2b77 1703     		.2byte	0x317
 9398 2b79 B02B0000 		.4byte	0x2bb0
 9399 2b7d 31       		.uleb128 0x31
 9400 2b7e 6B100000 		.4byte	0x106b
 9401 2b82 CD1E0000 		.4byte	.LLST208
 9402 2b86 42       		.uleb128 0x42
 9403 2b87 5F100000 		.4byte	0x105f
 9404 2b8b 31       		.uleb128 0x31
 9405 2b8c 56100000 		.4byte	0x1056
 9406 2b90 E01E0000 		.4byte	.LLST209
 9407 2b94 32       		.uleb128 0x32
 9408 2b95 3C000000 		.4byte	.LVL331
 9409 2b99 E7050000 		.4byte	0x5e7
 9410 2b9d 33       		.uleb128 0x33
 9411 2b9e 01       		.uleb128 0x1
 9412 2b9f 53       		.byte	0x53
 9413 2ba0 02       		.uleb128 0x2
 9414 2ba1 75       		.byte	0x75
 9415 2ba2 00       		.sleb128 0
 9416 2ba3 33       		.uleb128 0x33
 9417 2ba4 01       		.uleb128 0x1
 9418 2ba5 52       		.byte	0x52
 9419 2ba6 07       		.uleb128 0x7
 9420 2ba7 76       		.byte	0x76
 9421 2ba8 00       		.sleb128 0
 9422 2ba9 31       		.byte	0x31
 9423 2baa 24       		.byte	0x24
 9424 2bab 08       		.byte	0x8
 9425 2bac FE       		.byte	0xfe
 9426 2bad 1A       		.byte	0x1a
 9427 2bae 00       		.byte	0
 9428 2baf 00       		.byte	0
 9429 2bb0 3E       		.uleb128 0x3e
 9430 2bb1 45100000 		.4byte	0x1045
 9431 2bb5 46000000 		.4byte	.LBB441
 9432 2bb9 30050000 		.4byte	.Ldebug_ranges0+0x530
 9433 2bbd 01       		.byte	0x1
 9434 2bbe 1D03     		.2byte	0x31d
 9435 2bc0 31       		.uleb128 0x31
 9436 2bc1 6B100000 		.4byte	0x106b
 9437 2bc5 011F0000 		.4byte	.LLST210
 9438 2bc9 39       		.uleb128 0x39
 9439 2bca 5F100000 		.4byte	0x105f
 9440 2bce 37       		.byte	0x37
 9441 2bcf 31       		.uleb128 0x31
 9442 2bd0 56100000 		.4byte	0x1056
 9443 2bd4 141F0000 		.4byte	.LLST211
 9444 2bd8 3C       		.uleb128 0x3c
 9445 2bd9 58000000 		.4byte	.LVL335
 9446 2bdd E7050000 		.4byte	0x5e7
 9447 2be1 33       		.uleb128 0x33
 9448 2be2 01       		.uleb128 0x1
 9449 2be3 52       		.byte	0x52
ARM GAS  /tmp/ccxMPRSl.s 			page 168


 9450 2be4 02       		.uleb128 0x2
 9451 2be5 08       		.byte	0x8
 9452 2be6 37       		.byte	0x37
 9453 2be7 00       		.byte	0
 9454 2be8 00       		.byte	0
 9455 2be9 00       		.byte	0
 9456 2bea 00       		.byte	0
 9457 2beb 3F       		.uleb128 0x3f
 9458 2bec A60C0000 		.4byte	0xca6
 9459 2bf0 01       		.byte	0x1
 9460 2bf1 2003     		.2byte	0x320
 9461 2bf3 00000000 		.4byte	.LFB52
 9462 2bf7 24000000 		.4byte	.LFE52-.LFB52
 9463 2bfb 01       		.uleb128 0x1
 9464 2bfc 9C       		.byte	0x9c
 9465 2bfd 052C0000 		.4byte	0x2c05
 9466 2c01 5C2C0000 		.4byte	0x2c5c
 9467 2c05 36       		.uleb128 0x36
 9468 2c06 2B070000 		.4byte	.LASF252
 9469 2c0a 78100000 		.4byte	0x1078
 9470 2c0e 351F0000 		.4byte	.LLST212
 9471 2c12 46       		.uleb128 0x46
 9472 2c13 04000000 		.4byte	.LBB449
 9473 2c17 1C000000 		.4byte	.LBE449-.LBB449
 9474 2c1b 44       		.uleb128 0x44
 9475 2c1c 28010000 		.4byte	.LASF284
 9476 2c20 01       		.byte	0x1
 9477 2c21 2103     		.2byte	0x321
 9478 2c23 45000000 		.4byte	0x45
 9479 2c27 611F0000 		.4byte	.LLST213
 9480 2c2b 47       		.uleb128 0x47
 9481 2c2c B0100000 		.4byte	0x10b0
 9482 2c30 04000000 		.4byte	.LBB450
 9483 2c34 0E000000 		.4byte	.LBE450-.LBB450
 9484 2c38 01       		.byte	0x1
 9485 2c39 2103     		.2byte	0x321
 9486 2c3b 39       		.uleb128 0x39
 9487 2c3c CA100000 		.4byte	0x10ca
 9488 2c40 14       		.byte	0x14
 9489 2c41 31       		.uleb128 0x31
 9490 2c42 C1100000 		.4byte	0x10c1
 9491 2c46 741F0000 		.4byte	.LLST214
 9492 2c4a 32       		.uleb128 0x32
 9493 2c4b 12000000 		.4byte	.LVL339
 9494 2c4f 34060000 		.4byte	0x634
 9495 2c53 33       		.uleb128 0x33
 9496 2c54 01       		.uleb128 0x1
 9497 2c55 52       		.byte	0x52
 9498 2c56 01       		.uleb128 0x1
 9499 2c57 44       		.byte	0x44
 9500 2c58 00       		.byte	0
 9501 2c59 00       		.byte	0
 9502 2c5a 00       		.byte	0
 9503 2c5b 00       		.byte	0
 9504 2c5c 3F       		.uleb128 0x3f
 9505 2c5d 5C0C0000 		.4byte	0xc5c
 9506 2c61 01       		.byte	0x1
ARM GAS  /tmp/ccxMPRSl.s 			page 169


 9507 2c62 2B03     		.2byte	0x32b
 9508 2c64 00000000 		.4byte	.LFB53
 9509 2c68 2E000000 		.4byte	.LFE53-.LFB53
 9510 2c6c 01       		.uleb128 0x1
 9511 2c6d 9C       		.byte	0x9c
 9512 2c6e 762C0000 		.4byte	0x2c76
 9513 2c72 032D0000 		.4byte	0x2d03
 9514 2c76 36       		.uleb128 0x36
 9515 2c77 2B070000 		.4byte	.LASF252
 9516 2c7b 78100000 		.4byte	0x1078
 9517 2c7f A01F0000 		.4byte	.LLST215
 9518 2c83 40       		.uleb128 0x40
 9519 2c84 2D110000 		.4byte	.LASF276
 9520 2c88 01       		.byte	0x1
 9521 2c89 2B03     		.2byte	0x32b
 9522 2c8b 45000000 		.4byte	0x45
 9523 2c8f CC1F0000 		.4byte	.LLST216
 9524 2c93 40       		.uleb128 0x40
 9525 2c94 5B020000 		.4byte	.LASF277
 9526 2c98 01       		.byte	0x1
 9527 2c99 2B03     		.2byte	0x32b
 9528 2c9b D4000000 		.4byte	0xd4
 9529 2c9f ED1F0000 		.4byte	.LLST217
 9530 2ca3 40       		.uleb128 0x40
 9531 2ca4 B0050000 		.4byte	.LASF285
 9532 2ca8 01       		.byte	0x1
 9533 2ca9 2B03     		.2byte	0x32b
 9534 2cab 38100000 		.4byte	0x1038
 9535 2caf 0E200000 		.4byte	.LLST218
 9536 2cb3 2C       		.uleb128 0x2c
 9537 2cb4 48050000 		.4byte	.Ldebug_ranges0+0x548
 9538 2cb8 44       		.uleb128 0x44
 9539 2cb9 38010000 		.4byte	.LASF287
 9540 2cbd 01       		.byte	0x1
 9541 2cbe 2D03     		.2byte	0x32d
 9542 2cc0 45000000 		.4byte	0x45
 9543 2cc4 2F200000 		.4byte	.LLST219
 9544 2cc8 3E       		.uleb128 0x3e
 9545 2cc9 7D100000 		.4byte	0x107d
 9546 2ccd 1C000000 		.4byte	.LBB453
 9547 2cd1 60050000 		.4byte	.Ldebug_ranges0+0x560
 9548 2cd5 01       		.byte	0x1
 9549 2cd6 3503     		.2byte	0x335
 9550 2cd8 31       		.uleb128 0x31
 9551 2cd9 A3100000 		.4byte	0x10a3
 9552 2cdd 42200000 		.4byte	.LLST220
 9553 2ce1 39       		.uleb128 0x39
 9554 2ce2 97100000 		.4byte	0x1097
 9555 2ce6 30       		.byte	0x30
 9556 2ce7 31       		.uleb128 0x31
 9557 2ce8 8E100000 		.4byte	0x108e
 9558 2cec 55200000 		.4byte	.LLST221
 9559 2cf0 3C       		.uleb128 0x3c
 9560 2cf1 2E000000 		.4byte	.LVL350
 9561 2cf5 E7050000 		.4byte	0x5e7
 9562 2cf9 33       		.uleb128 0x33
 9563 2cfa 01       		.uleb128 0x1
ARM GAS  /tmp/ccxMPRSl.s 			page 170


 9564 2cfb 52       		.byte	0x52
 9565 2cfc 02       		.uleb128 0x2
 9566 2cfd 08       		.byte	0x8
 9567 2cfe 30       		.byte	0x30
 9568 2cff 00       		.byte	0
 9569 2d00 00       		.byte	0
 9570 2d01 00       		.byte	0
 9571 2d02 00       		.byte	0
 9572 2d03 3F       		.uleb128 0x3f
 9573 2d04 860C0000 		.4byte	0xc86
 9574 2d08 01       		.byte	0x1
 9575 2d09 3803     		.2byte	0x338
 9576 2d0b 00000000 		.4byte	.LFB54
 9577 2d0f 2C000000 		.4byte	.LFE54-.LFB54
 9578 2d13 01       		.uleb128 0x1
 9579 2d14 9C       		.byte	0x9c
 9580 2d15 1D2D0000 		.4byte	0x2d1d
 9581 2d19 BD2D0000 		.4byte	0x2dbd
 9582 2d1d 36       		.uleb128 0x36
 9583 2d1e 2B070000 		.4byte	.LASF252
 9584 2d22 78100000 		.4byte	0x1078
 9585 2d26 76200000 		.4byte	.LLST222
 9586 2d2a 40       		.uleb128 0x40
 9587 2d2b 76090000 		.4byte	.LASF280
 9588 2d2f 01       		.byte	0x1
 9589 2d30 3803     		.2byte	0x338
 9590 2d32 69000000 		.4byte	0x69
 9591 2d36 A2200000 		.4byte	.LLST223
 9592 2d3a 45       		.uleb128 0x45
 9593 2d3b 7D100000 		.4byte	0x107d
 9594 2d3f 06000000 		.4byte	.LBB458
 9595 2d43 12000000 		.4byte	.LBE458-.LBB458
 9596 2d47 01       		.byte	0x1
 9597 2d48 3A03     		.2byte	0x33a
 9598 2d4a 832D0000 		.4byte	0x2d83
 9599 2d4e 31       		.uleb128 0x31
 9600 2d4f A3100000 		.4byte	0x10a3
 9601 2d53 C3200000 		.4byte	.LLST224
 9602 2d57 39       		.uleb128 0x39
 9603 2d58 97100000 		.4byte	0x1097
 9604 2d5c 33       		.byte	0x33
 9605 2d5d 31       		.uleb128 0x31
 9606 2d5e 8E100000 		.4byte	0x108e
 9607 2d62 F9200000 		.4byte	.LLST225
 9608 2d66 32       		.uleb128 0x32
 9609 2d67 18000000 		.4byte	.LVL356
 9610 2d6b E7050000 		.4byte	0x5e7
 9611 2d6f 33       		.uleb128 0x33
 9612 2d70 01       		.uleb128 0x1
 9613 2d71 53       		.byte	0x53
 9614 2d72 08       		.uleb128 0x8
 9615 2d73 75       		.byte	0x75
 9616 2d74 00       		.sleb128 0
 9617 2d75 09       		.byte	0x9
 9618 2d76 F5       		.byte	0xf5
 9619 2d77 24       		.byte	0x24
 9620 2d78 09       		.byte	0x9
ARM GAS  /tmp/ccxMPRSl.s 			page 171


 9621 2d79 FD       		.byte	0xfd
 9622 2d7a 25       		.byte	0x25
 9623 2d7b 33       		.uleb128 0x33
 9624 2d7c 01       		.uleb128 0x1
 9625 2d7d 52       		.byte	0x52
 9626 2d7e 02       		.uleb128 0x2
 9627 2d7f 08       		.byte	0x8
 9628 2d80 33       		.byte	0x33
 9629 2d81 00       		.byte	0
 9630 2d82 00       		.byte	0
 9631 2d83 3E       		.uleb128 0x3e
 9632 2d84 7D100000 		.4byte	0x107d
 9633 2d88 18000000 		.4byte	.LBB460
 9634 2d8c 78050000 		.4byte	.Ldebug_ranges0+0x578
 9635 2d90 01       		.byte	0x1
 9636 2d91 3C03     		.2byte	0x33c
 9637 2d93 31       		.uleb128 0x31
 9638 2d94 A3100000 		.4byte	0x10a3
 9639 2d98 25210000 		.4byte	.LLST226
 9640 2d9c 39       		.uleb128 0x39
 9641 2d9d 97100000 		.4byte	0x1097
 9642 2da1 32       		.byte	0x32
 9643 2da2 31       		.uleb128 0x31
 9644 2da3 8E100000 		.4byte	0x108e
 9645 2da7 38210000 		.4byte	.LLST227
 9646 2dab 3C       		.uleb128 0x3c
 9647 2dac 2C000000 		.4byte	.LVL358
 9648 2db0 E7050000 		.4byte	0x5e7
 9649 2db4 33       		.uleb128 0x33
 9650 2db5 01       		.uleb128 0x1
 9651 2db6 52       		.byte	0x52
 9652 2db7 02       		.uleb128 0x2
 9653 2db8 08       		.byte	0x8
 9654 2db9 32       		.byte	0x32
 9655 2dba 00       		.byte	0
 9656 2dbb 00       		.byte	0
 9657 2dbc 00       		.byte	0
 9658 2dbd 3F       		.uleb128 0x3f
 9659 2dbe E40C0000 		.4byte	0xce4
 9660 2dc2 01       		.byte	0x1
 9661 2dc3 3F03     		.2byte	0x33f
 9662 2dc5 00000000 		.4byte	.LFB55
 9663 2dc9 20000000 		.4byte	.LFE55-.LFB55
 9664 2dcd 01       		.uleb128 0x1
 9665 2dce 9C       		.byte	0x9c
 9666 2dcf D72D0000 		.4byte	0x2dd7
 9667 2dd3 2F2E0000 		.4byte	0x2e2f
 9668 2dd7 36       		.uleb128 0x36
 9669 2dd8 2B070000 		.4byte	.LASF252
 9670 2ddc 78100000 		.4byte	0x1078
 9671 2de0 59210000 		.4byte	.LLST228
 9672 2de4 46       		.uleb128 0x46
 9673 2de5 04000000 		.4byte	.LBB464
 9674 2de9 1A000000 		.4byte	.LBE464-.LBB464
 9675 2ded 44       		.uleb128 0x44
 9676 2dee 28010000 		.4byte	.LASF284
 9677 2df2 01       		.byte	0x1
ARM GAS  /tmp/ccxMPRSl.s 			page 172


 9678 2df3 4003     		.2byte	0x340
 9679 2df5 45000000 		.4byte	0x45
 9680 2df9 85210000 		.4byte	.LLST229
 9681 2dfd 47       		.uleb128 0x47
 9682 2dfe 9A110000 		.4byte	0x119a
 9683 2e02 04000000 		.4byte	.LBB465
 9684 2e06 10000000 		.4byte	.LBE465-.LBB465
 9685 2e0a 01       		.byte	0x1
 9686 2e0b 4003     		.2byte	0x340
 9687 2e0d 39       		.uleb128 0x39
 9688 2e0e B4110000 		.4byte	0x11b4
 9689 2e12 30       		.byte	0x30
 9690 2e13 31       		.uleb128 0x31
 9691 2e14 AB110000 		.4byte	0x11ab
 9692 2e18 A3210000 		.4byte	.LLST230
 9693 2e1c 32       		.uleb128 0x32
 9694 2e1d 12000000 		.4byte	.LVL362
 9695 2e21 34060000 		.4byte	0x634
 9696 2e25 33       		.uleb128 0x33
 9697 2e26 01       		.uleb128 0x1
 9698 2e27 52       		.byte	0x52
 9699 2e28 02       		.uleb128 0x2
 9700 2e29 08       		.byte	0x8
 9701 2e2a 30       		.byte	0x30
 9702 2e2b 00       		.byte	0
 9703 2e2c 00       		.byte	0
 9704 2e2d 00       		.byte	0
 9705 2e2e 00       		.byte	0
 9706 2e2f 3F       		.uleb128 0x3f
 9707 2e30 220D0000 		.4byte	0xd22
 9708 2e34 01       		.byte	0x1
 9709 2e35 4A03     		.2byte	0x34a
 9710 2e37 00000000 		.4byte	.LFB56
 9711 2e3b 32000000 		.4byte	.LFE56-.LFB56
 9712 2e3f 01       		.uleb128 0x1
 9713 2e40 9C       		.byte	0x9c
 9714 2e41 492E0000 		.4byte	0x2e49
 9715 2e45 EA2E0000 		.4byte	0x2eea
 9716 2e49 36       		.uleb128 0x36
 9717 2e4a 2B070000 		.4byte	.LASF252
 9718 2e4e 78100000 		.4byte	0x1078
 9719 2e52 CF210000 		.4byte	.LLST231
 9720 2e56 40       		.uleb128 0x40
 9721 2e57 86080000 		.4byte	.LASF288
 9722 2e5b 01       		.byte	0x1
 9723 2e5c 4A03     		.2byte	0x34a
 9724 2e5e 38100000 		.4byte	0x1038
 9725 2e62 FB210000 		.4byte	.LLST232
 9726 2e66 2C       		.uleb128 0x2c
 9727 2e67 90050000 		.4byte	.Ldebug_ranges0+0x590
 9728 2e6b 44       		.uleb128 0x44
 9729 2e6c 08110000 		.4byte	.LASF65
 9730 2e70 01       		.byte	0x1
 9731 2e71 4B03     		.2byte	0x34b
 9732 2e73 45000000 		.4byte	0x45
 9733 2e77 1C220000 		.4byte	.LLST233
 9734 2e7b 45       		.uleb128 0x45
ARM GAS  /tmp/ccxMPRSl.s 			page 173


 9735 2e7c B0100000 		.4byte	0x10b0
 9736 2e80 06000000 		.4byte	.LBB468
 9737 2e84 0E000000 		.4byte	.LBE468-.LBB468
 9738 2e88 01       		.byte	0x1
 9739 2e89 4B03     		.2byte	0x34b
 9740 2e8b AF2E0000 		.4byte	0x2eaf
 9741 2e8f 39       		.uleb128 0x39
 9742 2e90 CA100000 		.4byte	0x10ca
 9743 2e94 23       		.byte	0x23
 9744 2e95 31       		.uleb128 0x31
 9745 2e96 C1100000 		.4byte	0x10c1
 9746 2e9a 3A220000 		.4byte	.LLST234
 9747 2e9e 32       		.uleb128 0x32
 9748 2e9f 14000000 		.4byte	.LVL369
 9749 2ea3 34060000 		.4byte	0x634
 9750 2ea7 33       		.uleb128 0x33
 9751 2ea8 01       		.uleb128 0x1
 9752 2ea9 52       		.byte	0x52
 9753 2eaa 02       		.uleb128 0x2
 9754 2eab 08       		.byte	0x8
 9755 2eac 23       		.byte	0x23
 9756 2ead 00       		.byte	0
 9757 2eae 00       		.byte	0
 9758 2eaf 3E       		.uleb128 0x3e
 9759 2eb0 45100000 		.4byte	0x1045
 9760 2eb4 20000000 		.4byte	.LBB470
 9761 2eb8 A8050000 		.4byte	.Ldebug_ranges0+0x5a8
 9762 2ebc 01       		.byte	0x1
 9763 2ebd 5003     		.2byte	0x350
 9764 2ebf 31       		.uleb128 0x31
 9765 2ec0 6B100000 		.4byte	0x106b
 9766 2ec4 66220000 		.4byte	.LLST235
 9767 2ec8 39       		.uleb128 0x39
 9768 2ec9 5F100000 		.4byte	0x105f
 9769 2ecd 23       		.byte	0x23
 9770 2ece 31       		.uleb128 0x31
 9771 2ecf 56100000 		.4byte	0x1056
 9772 2ed3 79220000 		.4byte	.LLST236
 9773 2ed7 3C       		.uleb128 0x3c
 9774 2ed8 32000000 		.4byte	.LVL372
 9775 2edc E7050000 		.4byte	0x5e7
 9776 2ee0 33       		.uleb128 0x33
 9777 2ee1 01       		.uleb128 0x1
 9778 2ee2 52       		.byte	0x52
 9779 2ee3 02       		.uleb128 0x2
 9780 2ee4 08       		.byte	0x8
 9781 2ee5 23       		.byte	0x23
 9782 2ee6 00       		.byte	0
 9783 2ee7 00       		.byte	0
 9784 2ee8 00       		.byte	0
 9785 2ee9 00       		.byte	0
 9786 2eea 3F       		.uleb128 0x3f
 9787 2eeb 420D0000 		.4byte	0xd42
 9788 2eef 01       		.byte	0x1
 9789 2ef0 5303     		.2byte	0x353
 9790 2ef2 00000000 		.4byte	.LFB57
 9791 2ef6 32000000 		.4byte	.LFE57-.LFB57
ARM GAS  /tmp/ccxMPRSl.s 			page 174


 9792 2efa 01       		.uleb128 0x1
 9793 2efb 9C       		.byte	0x9c
 9794 2efc 042F0000 		.4byte	0x2f04
 9795 2f00 A52F0000 		.4byte	0x2fa5
 9796 2f04 36       		.uleb128 0x36
 9797 2f05 2B070000 		.4byte	.LASF252
 9798 2f09 78100000 		.4byte	0x1078
 9799 2f0d 9A220000 		.4byte	.LLST237
 9800 2f11 40       		.uleb128 0x40
 9801 2f12 86080000 		.4byte	.LASF288
 9802 2f16 01       		.byte	0x1
 9803 2f17 5303     		.2byte	0x353
 9804 2f19 38100000 		.4byte	0x1038
 9805 2f1d C6220000 		.4byte	.LLST238
 9806 2f21 2C       		.uleb128 0x2c
 9807 2f22 C0050000 		.4byte	.Ldebug_ranges0+0x5c0
 9808 2f26 44       		.uleb128 0x44
 9809 2f27 08110000 		.4byte	.LASF65
 9810 2f2b 01       		.byte	0x1
 9811 2f2c 5403     		.2byte	0x354
 9812 2f2e 45000000 		.4byte	0x45
 9813 2f32 E7220000 		.4byte	.LLST239
 9814 2f36 45       		.uleb128 0x45
 9815 2f37 B0100000 		.4byte	0x10b0
 9816 2f3b 06000000 		.4byte	.LBB476
 9817 2f3f 0E000000 		.4byte	.LBE476-.LBB476
 9818 2f43 01       		.byte	0x1
 9819 2f44 5403     		.2byte	0x354
 9820 2f46 6A2F0000 		.4byte	0x2f6a
 9821 2f4a 39       		.uleb128 0x39
 9822 2f4b CA100000 		.4byte	0x10ca
 9823 2f4f 23       		.byte	0x23
 9824 2f50 31       		.uleb128 0x31
 9825 2f51 C1100000 		.4byte	0x10c1
 9826 2f55 05230000 		.4byte	.LLST240
 9827 2f59 32       		.uleb128 0x32
 9828 2f5a 14000000 		.4byte	.LVL377
 9829 2f5e 34060000 		.4byte	0x634
 9830 2f62 33       		.uleb128 0x33
 9831 2f63 01       		.uleb128 0x1
 9832 2f64 52       		.byte	0x52
 9833 2f65 02       		.uleb128 0x2
 9834 2f66 08       		.byte	0x8
 9835 2f67 23       		.byte	0x23
 9836 2f68 00       		.byte	0
 9837 2f69 00       		.byte	0
 9838 2f6a 3E       		.uleb128 0x3e
 9839 2f6b 45100000 		.4byte	0x1045
 9840 2f6f 20000000 		.4byte	.LBB478
 9841 2f73 D8050000 		.4byte	.Ldebug_ranges0+0x5d8
 9842 2f77 01       		.byte	0x1
 9843 2f78 5903     		.2byte	0x359
 9844 2f7a 31       		.uleb128 0x31
 9845 2f7b 6B100000 		.4byte	0x106b
 9846 2f7f 31230000 		.4byte	.LLST241
 9847 2f83 39       		.uleb128 0x39
 9848 2f84 5F100000 		.4byte	0x105f
ARM GAS  /tmp/ccxMPRSl.s 			page 175


 9849 2f88 23       		.byte	0x23
 9850 2f89 31       		.uleb128 0x31
 9851 2f8a 56100000 		.4byte	0x1056
 9852 2f8e 44230000 		.4byte	.LLST242
 9853 2f92 3C       		.uleb128 0x3c
 9854 2f93 32000000 		.4byte	.LVL380
 9855 2f97 E7050000 		.4byte	0x5e7
 9856 2f9b 33       		.uleb128 0x33
 9857 2f9c 01       		.uleb128 0x1
 9858 2f9d 52       		.byte	0x52
 9859 2f9e 02       		.uleb128 0x2
 9860 2f9f 08       		.byte	0x8
 9861 2fa0 23       		.byte	0x23
 9862 2fa1 00       		.byte	0
 9863 2fa2 00       		.byte	0
 9864 2fa3 00       		.byte	0
 9865 2fa4 00       		.byte	0
 9866 2fa5 3F       		.uleb128 0x3f
 9867 2fa6 620D0000 		.4byte	0xd62
 9868 2faa 01       		.byte	0x1
 9869 2fab 5C03     		.2byte	0x35c
 9870 2fad 00000000 		.4byte	.LFB58
 9871 2fb1 26000000 		.4byte	.LFE58-.LFB58
 9872 2fb5 01       		.uleb128 0x1
 9873 2fb6 9C       		.byte	0x9c
 9874 2fb7 BF2F0000 		.4byte	0x2fbf
 9875 2fbb 3C300000 		.4byte	0x303c
 9876 2fbf 36       		.uleb128 0x36
 9877 2fc0 2B070000 		.4byte	.LASF252
 9878 2fc4 78100000 		.4byte	0x1078
 9879 2fc8 65230000 		.4byte	.LLST243
 9880 2fcc 40       		.uleb128 0x40
 9881 2fcd E8020000 		.4byte	.LASF289
 9882 2fd1 01       		.byte	0x1
 9883 2fd2 5C03     		.2byte	0x35c
 9884 2fd4 06010000 		.4byte	0x106
 9885 2fd8 91230000 		.4byte	.LLST244
 9886 2fdc 40       		.uleb128 0x40
 9887 2fdd 640E0000 		.4byte	.LASF290
 9888 2fe1 01       		.byte	0x1
 9889 2fe2 5C03     		.2byte	0x35c
 9890 2fe4 45000000 		.4byte	0x45
 9891 2fe8 B2230000 		.4byte	.LLST245
 9892 2fec 2C       		.uleb128 0x2c
 9893 2fed F0050000 		.4byte	.Ldebug_ranges0+0x5f0
 9894 2ff1 44       		.uleb128 0x44
 9895 2ff2 76090000 		.4byte	.LASF280
 9896 2ff6 01       		.byte	0x1
 9897 2ff7 5F03     		.2byte	0x35f
 9898 2ff9 45000000 		.4byte	0x45
 9899 2ffd D3230000 		.4byte	.LLST246
 9900 3001 3E       		.uleb128 0x3e
 9901 3002 45100000 		.4byte	0x1045
 9902 3006 12000000 		.4byte	.LBB484
 9903 300a F8050000 		.4byte	.Ldebug_ranges0+0x5f8
 9904 300e 01       		.byte	0x1
 9905 300f 6003     		.2byte	0x360
ARM GAS  /tmp/ccxMPRSl.s 			page 176


 9906 3011 31       		.uleb128 0x31
 9907 3012 6B100000 		.4byte	0x106b
 9908 3016 16240000 		.4byte	.LLST247
 9909 301a 39       		.uleb128 0x39
 9910 301b 5F100000 		.4byte	0x105f
 9911 301f 2E       		.byte	0x2e
 9912 3020 31       		.uleb128 0x31
 9913 3021 56100000 		.4byte	0x1056
 9914 3025 65240000 		.4byte	.LLST248
 9915 3029 3C       		.uleb128 0x3c
 9916 302a 26000000 		.4byte	.LVL387
 9917 302e E7050000 		.4byte	0x5e7
 9918 3032 33       		.uleb128 0x33
 9919 3033 01       		.uleb128 0x1
 9920 3034 52       		.byte	0x52
 9921 3035 02       		.uleb128 0x2
 9922 3036 08       		.byte	0x8
 9923 3037 2E       		.byte	0x2e
 9924 3038 00       		.byte	0
 9925 3039 00       		.byte	0
 9926 303a 00       		.byte	0
 9927 303b 00       		.byte	0
 9928 303c 4A       		.uleb128 0x4a
 9929 303d 86080000 		.4byte	0x886
 9930 3041 01       		.byte	0x1
 9931 3042 3001     		.2byte	0x130
 9932 3044 00000000 		.4byte	.LFB17
 9933 3048 54010000 		.4byte	.LFE17-.LFB17
 9934 304c 01       		.uleb128 0x1
 9935 304d 9C       		.byte	0x9c
 9936 304e 56300000 		.4byte	0x3056
 9937 3052 C1310000 		.4byte	0x31c1
 9938 3056 36       		.uleb128 0x36
 9939 3057 2B070000 		.4byte	.LASF252
 9940 305b 78100000 		.4byte	0x1078
 9941 305f 91240000 		.4byte	.LLST249
 9942 3063 40       		.uleb128 0x40
 9943 3064 B4030000 		.4byte	.LASF291
 9944 3068 01       		.byte	0x1
 9945 3069 3001     		.2byte	0x130
 9946 306b 38100000 		.4byte	0x1038
 9947 306f AF240000 		.4byte	.LLST250
 9948 3073 2C       		.uleb128 0x2c
 9949 3074 10060000 		.4byte	.Ldebug_ranges0+0x610
 9950 3078 44       		.uleb128 0x44
 9951 3079 B6050000 		.4byte	.LASF292
 9952 307d 01       		.byte	0x1
 9953 307e 3101     		.2byte	0x131
 9954 3080 45000000 		.4byte	0x45
 9955 3084 D0240000 		.4byte	.LLST251
 9956 3088 41       		.uleb128 0x41
 9957 3089 696900   		.ascii	"ii\000"
 9958 308c 01       		.byte	0x1
 9959 308d 3201     		.2byte	0x132
 9960 308f 25000000 		.4byte	0x25
 9961 3093 FC240000 		.4byte	.LLST252
 9962 3097 49       		.uleb128 0x49
ARM GAS  /tmp/ccxMPRSl.s 			page 177


 9963 3098 BE0F0000 		.4byte	.LASF293
 9964 309c 01       		.byte	0x1
 9965 309d 3301     		.2byte	0x133
 9966 309f C1310000 		.4byte	0x31c1
 9967 30a3 02       		.uleb128 0x2
 9968 30a4 91       		.byte	0x91
 9969 30a5 40       		.sleb128 -64
 9970 30a6 49       		.uleb128 0x49
 9971 30a7 6F020000 		.4byte	.LASF294
 9972 30ab 01       		.byte	0x1
 9973 30ac 3401     		.2byte	0x134
 9974 30ae C1310000 		.4byte	0x31c1
 9975 30b2 02       		.uleb128 0x2
 9976 30b3 91       		.byte	0x91
 9977 30b4 4C       		.sleb128 -52
 9978 30b5 45       		.uleb128 0x45
 9979 30b6 B0100000 		.4byte	0x10b0
 9980 30ba 28000000 		.4byte	.LBB491
 9981 30be 0E000000 		.4byte	.LBE491-.LBB491
 9982 30c2 01       		.byte	0x1
 9983 30c3 3A01     		.2byte	0x13a
 9984 30c5 E7300000 		.4byte	0x30e7
 9985 30c9 39       		.uleb128 0x39
 9986 30ca CA100000 		.4byte	0x10ca
 9987 30ce 2F       		.byte	0x2f
 9988 30cf 35       		.uleb128 0x35
 9989 30d0 C1100000 		.4byte	0x10c1
 9990 30d4 01       		.uleb128 0x1
 9991 30d5 54       		.byte	0x54
 9992 30d6 32       		.uleb128 0x32
 9993 30d7 36000000 		.4byte	.LVL392
 9994 30db 34060000 		.4byte	0x634
 9995 30df 33       		.uleb128 0x33
 9996 30e0 01       		.uleb128 0x1
 9997 30e1 52       		.byte	0x52
 9998 30e2 02       		.uleb128 0x2
 9999 30e3 08       		.byte	0x8
 10000 30e4 2F       		.byte	0x2f
 10001 30e5 00       		.byte	0
 10002 30e6 00       		.byte	0
 10003 30e7 45       		.uleb128 0x45
 10004 30e8 4C110000 		.4byte	0x114c
 10005 30ec EC000000 		.4byte	.LBB493
 10006 30f0 0C000000 		.4byte	.LBE493-.LBB493
 10007 30f4 01       		.byte	0x1
 10008 30f5 4801     		.2byte	0x148
 10009 30f7 0A310000 		.4byte	0x310a
 10010 30fb 31       		.uleb128 0x31
 10011 30fc 66110000 		.4byte	0x1166
 10012 3100 36250000 		.4byte	.LLST253
 10013 3104 42       		.uleb128 0x42
 10014 3105 5D110000 		.4byte	0x115d
 10015 3109 00       		.byte	0
 10016 310a 45       		.uleb128 0x45
 10017 310b 73110000 		.4byte	0x1173
 10018 310f 06010000 		.4byte	.LBB495
 10019 3113 0E000000 		.4byte	.LBE495-.LBB495
ARM GAS  /tmp/ccxMPRSl.s 			page 178


 10020 3117 01       		.byte	0x1
 10021 3118 4A01     		.2byte	0x14a
 10022 311a 2D310000 		.4byte	0x312d
 10023 311e 31       		.uleb128 0x31
 10024 311f 8D110000 		.4byte	0x118d
 10025 3123 49250000 		.4byte	.LLST254
 10026 3127 42       		.uleb128 0x42
 10027 3128 84110000 		.4byte	0x1184
 10028 312c 00       		.byte	0
 10029 312d 4F       		.uleb128 0x4f
 10030 312e 1E000000 		.4byte	.LVL390
 10031 3132 EA2E0000 		.4byte	0x2eea
 10032 3136 46310000 		.4byte	0x3146
 10033 313a 33       		.uleb128 0x33
 10034 313b 01       		.uleb128 0x1
 10035 313c 51       		.byte	0x51
 10036 313d 01       		.uleb128 0x1
 10037 313e 31       		.byte	0x31
 10038 313f 33       		.uleb128 0x33
 10039 3140 01       		.uleb128 0x1
 10040 3141 50       		.byte	0x50
 10041 3142 02       		.uleb128 0x2
 10042 3143 74       		.byte	0x74
 10043 3144 00       		.sleb128 0
 10044 3145 00       		.byte	0
 10045 3146 4F       		.uleb128 0x4f
 10046 3147 28000000 		.4byte	.LVL391
 10047 314b A52F0000 		.4byte	0x2fa5
 10048 314f 64310000 		.4byte	0x3164
 10049 3153 33       		.uleb128 0x33
 10050 3154 01       		.uleb128 0x1
 10051 3155 52       		.byte	0x52
 10052 3156 01       		.uleb128 0x1
 10053 3157 4F       		.byte	0x4f
 10054 3158 33       		.uleb128 0x33
 10055 3159 01       		.uleb128 0x1
 10056 315a 51       		.byte	0x51
 10057 315b 01       		.uleb128 0x1
 10058 315c 31       		.byte	0x31
 10059 315d 33       		.uleb128 0x33
 10060 315e 01       		.uleb128 0x1
 10061 315f 50       		.byte	0x50
 10062 3160 02       		.uleb128 0x2
 10063 3161 74       		.byte	0x74
 10064 3162 00       		.sleb128 0
 10065 3163 00       		.byte	0
 10066 3164 4F       		.uleb128 0x4f
 10067 3165 60000000 		.4byte	.LVL397
 10068 3169 881E0000 		.4byte	0x1e88
 10069 316d 78310000 		.4byte	0x3178
 10070 3171 33       		.uleb128 0x33
 10071 3172 01       		.uleb128 0x1
 10072 3173 50       		.byte	0x50
 10073 3174 02       		.uleb128 0x2
 10074 3175 74       		.byte	0x74
 10075 3176 00       		.sleb128 0
 10076 3177 00       		.byte	0
ARM GAS  /tmp/ccxMPRSl.s 			page 179


 10077 3178 4F       		.uleb128 0x4f
 10078 3179 82000000 		.4byte	.LVL398
 10079 317d 431A0000 		.4byte	0x1a43
 10080 3181 8C310000 		.4byte	0x318c
 10081 3185 33       		.uleb128 0x33
 10082 3186 01       		.uleb128 0x1
 10083 3187 50       		.byte	0x50
 10084 3188 02       		.uleb128 0x2
 10085 3189 74       		.byte	0x74
 10086 318a 00       		.sleb128 0
 10087 318b 00       		.byte	0
 10088 318c 4F       		.uleb128 0x4f
 10089 318d 3A010000 		.4byte	.LVL415
 10090 3191 EA2E0000 		.4byte	0x2eea
 10091 3195 A5310000 		.4byte	0x31a5
 10092 3199 33       		.uleb128 0x33
 10093 319a 01       		.uleb128 0x1
 10094 319b 51       		.byte	0x51
 10095 319c 01       		.uleb128 0x1
 10096 319d 30       		.byte	0x30
 10097 319e 33       		.uleb128 0x33
 10098 319f 01       		.uleb128 0x1
 10099 31a0 50       		.byte	0x50
 10100 31a1 02       		.uleb128 0x2
 10101 31a2 74       		.byte	0x74
 10102 31a3 00       		.sleb128 0
 10103 31a4 00       		.byte	0
 10104 31a5 32       		.uleb128 0x32
 10105 31a6 44010000 		.4byte	.LVL416
 10106 31aa A52F0000 		.4byte	0x2fa5
 10107 31ae 33       		.uleb128 0x33
 10108 31af 01       		.uleb128 0x1
 10109 31b0 52       		.byte	0x52
 10110 31b1 01       		.uleb128 0x1
 10111 31b2 30       		.byte	0x30
 10112 31b3 33       		.uleb128 0x33
 10113 31b4 01       		.uleb128 0x1
 10114 31b5 51       		.byte	0x51
 10115 31b6 01       		.uleb128 0x1
 10116 31b7 30       		.byte	0x30
 10117 31b8 33       		.uleb128 0x33
 10118 31b9 01       		.uleb128 0x1
 10119 31ba 50       		.byte	0x50
 10120 31bb 02       		.uleb128 0x2
 10121 31bc 74       		.byte	0x74
 10122 31bd 00       		.sleb128 0
 10123 31be 00       		.byte	0
 10124 31bf 00       		.byte	0
 10125 31c0 00       		.byte	0
 10126 31c1 0C       		.uleb128 0xc
 10127 31c2 7B000000 		.4byte	0x7b
 10128 31c6 D1310000 		.4byte	0x31d1
 10129 31ca 0D       		.uleb128 0xd
 10130 31cb 77030000 		.4byte	0x377
 10131 31cf 02       		.byte	0x2
 10132 31d0 00       		.byte	0
 10133 31d1 3F       		.uleb128 0x3f
ARM GAS  /tmp/ccxMPRSl.s 			page 180


 10134 31d2 870D0000 		.4byte	0xd87
 10135 31d6 01       		.byte	0x1
 10136 31d7 6303     		.2byte	0x363
 10137 31d9 00000000 		.4byte	.LFB59
 10138 31dd 18000000 		.4byte	.LFE59-.LFB59
 10139 31e1 01       		.uleb128 0x1
 10140 31e2 9C       		.byte	0x9c
 10141 31e3 EB310000 		.4byte	0x31eb
 10142 31e7 29320000 		.4byte	0x3229
 10143 31eb 36       		.uleb128 0x36
 10144 31ec 2B070000 		.4byte	.LASF252
 10145 31f0 78100000 		.4byte	0x1078
 10146 31f4 7C250000 		.4byte	.LLST255
 10147 31f8 47       		.uleb128 0x47
 10148 31f9 B0100000 		.4byte	0x10b0
 10149 31fd 04000000 		.4byte	.LBB498
 10150 3201 0E000000 		.4byte	.LBE498-.LBB498
 10151 3205 01       		.byte	0x1
 10152 3206 6303     		.2byte	0x363
 10153 3208 39       		.uleb128 0x39
 10154 3209 CA100000 		.4byte	0x10ca
 10155 320d 2F       		.byte	0x2f
 10156 320e 31       		.uleb128 0x31
 10157 320f C1100000 		.4byte	0x10c1
 10158 3213 A8250000 		.4byte	.LLST256
 10159 3217 32       		.uleb128 0x32
 10160 3218 12000000 		.4byte	.LVL420
 10161 321c 34060000 		.4byte	0x634
 10162 3220 33       		.uleb128 0x33
 10163 3221 01       		.uleb128 0x1
 10164 3222 52       		.byte	0x52
 10165 3223 02       		.uleb128 0x2
 10166 3224 08       		.byte	0x8
 10167 3225 2F       		.byte	0x2f
 10168 3226 00       		.byte	0
 10169 3227 00       		.byte	0
 10170 3228 00       		.byte	0
 10171 3229 3F       		.uleb128 0x3f
 10172 322a 580F0000 		.4byte	0xf58
 10173 322e 01       		.byte	0x1
 10174 322f 6503     		.2byte	0x365
 10175 3231 00000000 		.4byte	.LFB60
 10176 3235 4C000000 		.4byte	.LFE60-.LFB60
 10177 3239 01       		.uleb128 0x1
 10178 323a 9C       		.byte	0x9c
 10179 323b 43320000 		.4byte	0x3243
 10180 323f 4F320000 		.4byte	0x324f
 10181 3243 2A       		.uleb128 0x2a
 10182 3244 2B070000 		.4byte	.LASF252
 10183 3248 78100000 		.4byte	0x1078
 10184 324c 01       		.uleb128 0x1
 10185 324d 50       		.byte	0x50
 10186 324e 00       		.byte	0
 10187 324f 50       		.uleb128 0x50
 10188 3250 68080000 		.4byte	0x868
 10189 3254 01       		.byte	0x1
 10190 3255 83       		.byte	0x83
ARM GAS  /tmp/ccxMPRSl.s 			page 181


 10191 3256 00000000 		.4byte	.LFB14
 10192 325a 80000000 		.4byte	.LFE14-.LFB14
 10193 325e 01       		.uleb128 0x1
 10194 325f 9C       		.byte	0x9c
 10195 3260 68320000 		.4byte	0x3268
 10196 3264 9F330000 		.4byte	0x339f
 10197 3268 36       		.uleb128 0x36
 10198 3269 2B070000 		.4byte	.LASF252
 10199 326d 78100000 		.4byte	0x1078
 10200 3271 D4250000 		.4byte	.LLST257
 10201 3275 2C       		.uleb128 0x2c
 10202 3276 28060000 		.4byte	.Ldebug_ranges0+0x628
 10203 327a 37       		.uleb128 0x37
 10204 327b 4D050000 		.4byte	.LASF295
 10205 327f 01       		.byte	0x1
 10206 3280 91       		.byte	0x91
 10207 3281 45000000 		.4byte	0x45
 10208 3285 F2250000 		.4byte	.LLST258
 10209 3289 37       		.uleb128 0x37
 10210 328a 62050000 		.4byte	.LASF296
 10211 328e 01       		.byte	0x1
 10212 328f 92       		.byte	0x92
 10213 3290 45000000 		.4byte	0x45
 10214 3294 10260000 		.4byte	.LLST259
 10215 3298 37       		.uleb128 0x37
 10216 3299 DE0F0000 		.4byte	.LASF297
 10217 329d 01       		.byte	0x1
 10218 329e 93       		.byte	0x93
 10219 329f 69000000 		.4byte	0x69
 10220 32a3 23260000 		.4byte	.LLST260
 10221 32a7 3A       		.uleb128 0x3a
 10222 32a8 D7100000 		.4byte	0x10d7
 10223 32ac 14000000 		.4byte	.LBB501
 10224 32b0 10000000 		.4byte	.LBE501-.LBB501
 10225 32b4 01       		.byte	0x1
 10226 32b5 8B       		.byte	0x8b
 10227 32b6 C2320000 		.4byte	0x32c2
 10228 32ba 35       		.uleb128 0x35
 10229 32bb E8100000 		.4byte	0x10e8
 10230 32bf 01       		.uleb128 0x1
 10231 32c0 54       		.byte	0x54
 10232 32c1 00       		.byte	0
 10233 32c2 38       		.uleb128 0x38
 10234 32c3 F2100000 		.4byte	0x10f2
 10235 32c7 2A000000 		.4byte	.LBB503
 10236 32cb 48060000 		.4byte	.Ldebug_ranges0+0x648
 10237 32cf 01       		.byte	0x1
 10238 32d0 8D       		.byte	0x8d
 10239 32d1 DD320000 		.4byte	0x32dd
 10240 32d5 35       		.uleb128 0x35
 10241 32d6 03110000 		.4byte	0x1103
 10242 32da 01       		.uleb128 0x1
 10243 32db 54       		.byte	0x54
 10244 32dc 00       		.byte	0
 10245 32dd 38       		.uleb128 0x38
 10246 32de 9A110000 		.4byte	0x119a
 10247 32e2 38000000 		.4byte	.LBB506
ARM GAS  /tmp/ccxMPRSl.s 			page 182


 10248 32e6 60060000 		.4byte	.Ldebug_ranges0+0x660
 10249 32ea 01       		.byte	0x1
 10250 32eb 91       		.byte	0x91
 10251 32ec 0D330000 		.4byte	0x330d
 10252 32f0 39       		.uleb128 0x39
 10253 32f1 B4110000 		.4byte	0x11b4
 10254 32f5 0F       		.byte	0xf
 10255 32f6 35       		.uleb128 0x35
 10256 32f7 AB110000 		.4byte	0x11ab
 10257 32fb 01       		.uleb128 0x1
 10258 32fc 54       		.byte	0x54
 10259 32fd 32       		.uleb128 0x32
 10260 32fe 48000000 		.4byte	.LVL430
 10261 3302 34060000 		.4byte	0x634
 10262 3306 33       		.uleb128 0x33
 10263 3307 01       		.uleb128 0x1
 10264 3308 52       		.byte	0x52
 10265 3309 01       		.uleb128 0x1
 10266 330a 3F       		.byte	0x3f
 10267 330b 00       		.byte	0
 10268 330c 00       		.byte	0
 10269 330d 38       		.uleb128 0x38
 10270 330e B0100000 		.4byte	0x10b0
 10271 3312 48000000 		.4byte	.LBB512
 10272 3316 80060000 		.4byte	.Ldebug_ranges0+0x680
 10273 331a 01       		.byte	0x1
 10274 331b 92       		.byte	0x92
 10275 331c 3D330000 		.4byte	0x333d
 10276 3320 39       		.uleb128 0x39
 10277 3321 CA100000 		.4byte	0x10ca
 10278 3325 0F       		.byte	0xf
 10279 3326 35       		.uleb128 0x35
 10280 3327 C1100000 		.4byte	0x10c1
 10281 332b 01       		.uleb128 0x1
 10282 332c 54       		.byte	0x54
 10283 332d 32       		.uleb128 0x32
 10284 332e 58000000 		.4byte	.LVL433
 10285 3332 34060000 		.4byte	0x634
 10286 3336 33       		.uleb128 0x33
 10287 3337 01       		.uleb128 0x1
 10288 3338 52       		.byte	0x52
 10289 3339 01       		.uleb128 0x1
 10290 333a 3F       		.byte	0x3f
 10291 333b 00       		.byte	0
 10292 333c 00       		.byte	0
 10293 333d 4F       		.uleb128 0x4f
 10294 333e 14000000 		.4byte	.LVL423
 10295 3342 29320000 		.4byte	0x3229
 10296 3346 51330000 		.4byte	0x3351
 10297 334a 33       		.uleb128 0x33
 10298 334b 01       		.uleb128 0x1
 10299 334c 50       		.byte	0x50
 10300 334d 02       		.uleb128 0x2
 10301 334e 74       		.byte	0x74
 10302 334f 00       		.sleb128 0
 10303 3350 00       		.byte	0
 10304 3351 4F       		.uleb128 0x4f
ARM GAS  /tmp/ccxMPRSl.s 			page 183


 10305 3352 2A000000 		.4byte	.LVL426
 10306 3356 80240000 		.4byte	0x2480
 10307 335a 65330000 		.4byte	0x3365
 10308 335e 33       		.uleb128 0x33
 10309 335f 01       		.uleb128 0x1
 10310 3360 50       		.byte	0x50
 10311 3361 02       		.uleb128 0x2
 10312 3362 74       		.byte	0x74
 10313 3363 00       		.sleb128 0
 10314 3364 00       		.byte	0
 10315 3365 4F       		.uleb128 0x4f
 10316 3366 70000000 		.4byte	.LVL437
 10317 336a D8130000 		.4byte	0x13d8
 10318 336e 79330000 		.4byte	0x3379
 10319 3372 33       		.uleb128 0x33
 10320 3373 01       		.uleb128 0x1
 10321 3374 50       		.byte	0x50
 10322 3375 02       		.uleb128 0x2
 10323 3376 74       		.byte	0x74
 10324 3377 00       		.sleb128 0
 10325 3378 00       		.byte	0
 10326 3379 4F       		.uleb128 0x4f
 10327 337a 76000000 		.4byte	.LVL438
 10328 337e 39150000 		.4byte	0x1539
 10329 3382 8D330000 		.4byte	0x338d
 10330 3386 33       		.uleb128 0x33
 10331 3387 01       		.uleb128 0x1
 10332 3388 50       		.byte	0x50
 10333 3389 02       		.uleb128 0x2
 10334 338a 74       		.byte	0x74
 10335 338b 00       		.sleb128 0
 10336 338c 00       		.byte	0
 10337 338d 32       		.uleb128 0x32
 10338 338e 7C000000 		.4byte	.LVL439
 10339 3392 0F170000 		.4byte	0x170f
 10340 3396 33       		.uleb128 0x33
 10341 3397 01       		.uleb128 0x1
 10342 3398 50       		.byte	0x50
 10343 3399 02       		.uleb128 0x2
 10344 339a 74       		.byte	0x74
 10345 339b 00       		.sleb128 0
 10346 339c 00       		.byte	0
 10347 339d 00       		.byte	0
 10348 339e 00       		.byte	0
 10349 339f 30       		.uleb128 0x30
 10350 33a0 45100000 		.4byte	0x1045
 10351 33a4 CC020000 		.4byte	.LASF231
 10352 33a8 00000000 		.4byte	.LFB61
 10353 33ac 18000000 		.4byte	.LFE61-.LFB61
 10354 33b0 01       		.uleb128 0x1
 10355 33b1 9C       		.byte	0x9c
 10356 33b2 BA330000 		.4byte	0x33ba
 10357 33b6 DF330000 		.4byte	0x33df
 10358 33ba 31       		.uleb128 0x31
 10359 33bb 56100000 		.4byte	0x1056
 10360 33bf 43260000 		.4byte	.LLST261
 10361 33c3 31       		.uleb128 0x31
ARM GAS  /tmp/ccxMPRSl.s 			page 184


 10362 33c4 5F100000 		.4byte	0x105f
 10363 33c8 6F260000 		.4byte	.LLST262
 10364 33cc 31       		.uleb128 0x31
 10365 33cd 6B100000 		.4byte	0x106b
 10366 33d1 90260000 		.4byte	.LLST263
 10367 33d5 43       		.uleb128 0x43
 10368 33d6 18000000 		.4byte	.LVL445
 10369 33da E7050000 		.4byte	0x5e7
 10370 33de 00       		.byte	0
 10371 33df 30       		.uleb128 0x30
 10372 33e0 7D100000 		.4byte	0x107d
 10373 33e4 6B080000 		.4byte	.LASF225
 10374 33e8 00000000 		.4byte	.LFB62
 10375 33ec 18000000 		.4byte	.LFE62-.LFB62
 10376 33f0 01       		.uleb128 0x1
 10377 33f1 9C       		.byte	0x9c
 10378 33f2 FA330000 		.4byte	0x33fa
 10379 33f6 1F340000 		.4byte	0x341f
 10380 33fa 31       		.uleb128 0x31
 10381 33fb 8E100000 		.4byte	0x108e
 10382 33ff B1260000 		.4byte	.LLST264
 10383 3403 31       		.uleb128 0x31
 10384 3404 97100000 		.4byte	0x1097
 10385 3408 DD260000 		.4byte	.LLST265
 10386 340c 31       		.uleb128 0x31
 10387 340d A3100000 		.4byte	0x10a3
 10388 3411 FE260000 		.4byte	.LLST266
 10389 3415 43       		.uleb128 0x43
 10390 3416 18000000 		.4byte	.LVL451
 10391 341a E7050000 		.4byte	0x5e7
 10392 341e 00       		.byte	0
 10393 341f 30       		.uleb128 0x30
 10394 3420 B0100000 		.4byte	0x10b0
 10395 3424 1C040000 		.4byte	.LASF227
 10396 3428 00000000 		.4byte	.LFB63
 10397 342c 10000000 		.4byte	.LFE63-.LFB63
 10398 3430 01       		.uleb128 0x1
 10399 3431 9C       		.byte	0x9c
 10400 3432 3A340000 		.4byte	0x343a
 10401 3436 56340000 		.4byte	0x3456
 10402 343a 31       		.uleb128 0x31
 10403 343b C1100000 		.4byte	0x10c1
 10404 343f 1F270000 		.4byte	.LLST267
 10405 3443 31       		.uleb128 0x31
 10406 3444 CA100000 		.4byte	0x10ca
 10407 3448 4B270000 		.4byte	.LLST268
 10408 344c 43       		.uleb128 0x43
 10409 344d 10000000 		.4byte	.LVL455
 10410 3451 34060000 		.4byte	0x634
 10411 3455 00       		.byte	0
 10412 3456 30       		.uleb128 0x30
 10413 3457 0D110000 		.4byte	0x110d
 10414 345b C9070000 		.4byte	.LASF229
 10415 345f 00000000 		.4byte	.LFB64
 10416 3463 20000000 		.4byte	.LFE64-.LFB64
 10417 3467 01       		.uleb128 0x1
 10418 3468 9C       		.byte	0x9c
ARM GAS  /tmp/ccxMPRSl.s 			page 185


 10419 3469 71340000 		.4byte	0x3471
 10420 346d B3340000 		.4byte	0x34b3
 10421 3471 31       		.uleb128 0x31
 10422 3472 1E110000 		.4byte	0x111e
 10423 3476 6C270000 		.4byte	.LLST269
 10424 347a 31       		.uleb128 0x31
 10425 347b 27110000 		.4byte	0x1127
 10426 347f 8D270000 		.4byte	.LLST270
 10427 3483 31       		.uleb128 0x31
 10428 3484 33110000 		.4byte	0x1133
 10429 3488 AE270000 		.4byte	.LLST271
 10430 348c 31       		.uleb128 0x31
 10431 348d 3F110000 		.4byte	0x113f
 10432 3491 E5270000 		.4byte	.LLST272
 10433 3495 32       		.uleb128 0x32
 10434 3496 1C000000 		.4byte	.LVL462
 10435 349a 7F060000 		.4byte	0x67f
 10436 349e 33       		.uleb128 0x33
 10437 349f 01       		.uleb128 0x1
 10438 34a0 53       		.byte	0x53
 10439 34a1 03       		.uleb128 0x3
 10440 34a2 F3       		.byte	0xf3
 10441 34a3 01       		.uleb128 0x1
 10442 34a4 52       		.byte	0x52
 10443 34a5 33       		.uleb128 0x33
 10444 34a6 01       		.uleb128 0x1
 10445 34a7 51       		.byte	0x51
 10446 34a8 02       		.uleb128 0x2
 10447 34a9 74       		.byte	0x74
 10448 34aa 00       		.sleb128 0
 10449 34ab 33       		.uleb128 0x33
 10450 34ac 01       		.uleb128 0x1
 10451 34ad 50       		.byte	0x50
 10452 34ae 02       		.uleb128 0x2
 10453 34af 75       		.byte	0x75
 10454 34b0 00       		.sleb128 0
 10455 34b1 00       		.byte	0
 10456 34b2 00       		.byte	0
 10457 34b3 30       		.uleb128 0x30
 10458 34b4 9A110000 		.4byte	0x119a
 10459 34b8 1C0D0000 		.4byte	.LASF221
 10460 34bc 00000000 		.4byte	.LFB65
 10461 34c0 10000000 		.4byte	.LFE65-.LFB65
 10462 34c4 01       		.uleb128 0x1
 10463 34c5 9C       		.byte	0x9c
 10464 34c6 CE340000 		.4byte	0x34ce
 10465 34ca EA340000 		.4byte	0x34ea
 10466 34ce 31       		.uleb128 0x31
 10467 34cf AB110000 		.4byte	0x11ab
 10468 34d3 06280000 		.4byte	.LLST273
 10469 34d7 31       		.uleb128 0x31
 10470 34d8 B4110000 		.4byte	0x11b4
 10471 34dc 32280000 		.4byte	.LLST274
 10472 34e0 43       		.uleb128 0x43
 10473 34e1 10000000 		.4byte	.LVL466
 10474 34e5 34060000 		.4byte	0x634
 10475 34e9 00       		.byte	0
ARM GAS  /tmp/ccxMPRSl.s 			page 186


 10476 34ea 30       		.uleb128 0x30
 10477 34eb C1110000 		.4byte	0x11c1
 10478 34ef 30050000 		.4byte	.LASF223
 10479 34f3 00000000 		.4byte	.LFB66
 10480 34f7 20000000 		.4byte	.LFE66-.LFB66
 10481 34fb 01       		.uleb128 0x1
 10482 34fc 9C       		.byte	0x9c
 10483 34fd 05350000 		.4byte	0x3505
 10484 3501 47350000 		.4byte	0x3547
 10485 3505 31       		.uleb128 0x31
 10486 3506 D2110000 		.4byte	0x11d2
 10487 350a 53280000 		.4byte	.LLST275
 10488 350e 31       		.uleb128 0x31
 10489 350f DB110000 		.4byte	0x11db
 10490 3513 74280000 		.4byte	.LLST276
 10491 3517 31       		.uleb128 0x31
 10492 3518 E7110000 		.4byte	0x11e7
 10493 351c 95280000 		.4byte	.LLST277
 10494 3520 31       		.uleb128 0x31
 10495 3521 F3110000 		.4byte	0x11f3
 10496 3525 CC280000 		.4byte	.LLST278
 10497 3529 32       		.uleb128 0x32
 10498 352a 1C000000 		.4byte	.LVL473
 10499 352e 7F060000 		.4byte	0x67f
 10500 3532 33       		.uleb128 0x33
 10501 3533 01       		.uleb128 0x1
 10502 3534 53       		.byte	0x53
 10503 3535 03       		.uleb128 0x3
 10504 3536 F3       		.byte	0xf3
 10505 3537 01       		.uleb128 0x1
 10506 3538 52       		.byte	0x52
 10507 3539 33       		.uleb128 0x33
 10508 353a 01       		.uleb128 0x1
 10509 353b 51       		.byte	0x51
 10510 353c 02       		.uleb128 0x2
 10511 353d 74       		.byte	0x74
 10512 353e 00       		.sleb128 0
 10513 353f 33       		.uleb128 0x33
 10514 3540 01       		.uleb128 0x1
 10515 3541 50       		.byte	0x50
 10516 3542 02       		.uleb128 0x2
 10517 3543 75       		.byte	0x75
 10518 3544 00       		.sleb128 0
 10519 3545 00       		.byte	0
 10520 3546 00       		.byte	0
 10521 3547 0C       		.uleb128 0xc
 10522 3548 21100000 		.4byte	0x1021
 10523 354c 57350000 		.4byte	0x3557
 10524 3550 0D       		.uleb128 0xd
 10525 3551 77030000 		.4byte	0x377
 10526 3555 03       		.byte	0x3
 10527 3556 00       		.byte	0
 10528 3557 51       		.uleb128 0x51
 10529 3558 DC060000 		.4byte	.LASF303
 10530 355c 01       		.byte	0x1
 10531 355d 1E       		.byte	0x1e
 10532 355e 47350000 		.4byte	0x3547
ARM GAS  /tmp/ccxMPRSl.s 			page 187


 10533 3562 05       		.uleb128 0x5
 10534 3563 03       		.byte	0x3
 10535 3564 00000000 		.4byte	magSensitivity
 10536 3568 00       		.byte	0
 10537              		.section	.debug_abbrev,"",%progbits
 10538              	.Ldebug_abbrev0:
 10539 0000 01       		.uleb128 0x1
 10540 0001 11       		.uleb128 0x11
 10541 0002 01       		.byte	0x1
 10542 0003 25       		.uleb128 0x25
 10543 0004 0E       		.uleb128 0xe
 10544 0005 13       		.uleb128 0x13
 10545 0006 0B       		.uleb128 0xb
 10546 0007 03       		.uleb128 0x3
 10547 0008 0E       		.uleb128 0xe
 10548 0009 1B       		.uleb128 0x1b
 10549 000a 0E       		.uleb128 0xe
 10550 000b 55       		.uleb128 0x55
 10551 000c 17       		.uleb128 0x17
 10552 000d 11       		.uleb128 0x11
 10553 000e 01       		.uleb128 0x1
 10554 000f 10       		.uleb128 0x10
 10555 0010 17       		.uleb128 0x17
 10556 0011 00       		.byte	0
 10557 0012 00       		.byte	0
 10558 0013 02       		.uleb128 0x2
 10559 0014 24       		.uleb128 0x24
 10560 0015 00       		.byte	0
 10561 0016 0B       		.uleb128 0xb
 10562 0017 0B       		.uleb128 0xb
 10563 0018 3E       		.uleb128 0x3e
 10564 0019 0B       		.uleb128 0xb
 10565 001a 03       		.uleb128 0x3
 10566 001b 08       		.uleb128 0x8
 10567 001c 00       		.byte	0
 10568 001d 00       		.byte	0
 10569 001e 03       		.uleb128 0x3
 10570 001f 24       		.uleb128 0x24
 10571 0020 00       		.byte	0
 10572 0021 0B       		.uleb128 0xb
 10573 0022 0B       		.uleb128 0xb
 10574 0023 3E       		.uleb128 0x3e
 10575 0024 0B       		.uleb128 0xb
 10576 0025 03       		.uleb128 0x3
 10577 0026 0E       		.uleb128 0xe
 10578 0027 00       		.byte	0
 10579 0028 00       		.byte	0
 10580 0029 04       		.uleb128 0x4
 10581 002a 16       		.uleb128 0x16
 10582 002b 00       		.byte	0
 10583 002c 03       		.uleb128 0x3
 10584 002d 0E       		.uleb128 0xe
 10585 002e 3A       		.uleb128 0x3a
 10586 002f 0B       		.uleb128 0xb
 10587 0030 3B       		.uleb128 0x3b
 10588 0031 0B       		.uleb128 0xb
 10589 0032 49       		.uleb128 0x49
ARM GAS  /tmp/ccxMPRSl.s 			page 188


 10590 0033 13       		.uleb128 0x13
 10591 0034 00       		.byte	0
 10592 0035 00       		.byte	0
 10593 0036 05       		.uleb128 0x5
 10594 0037 04       		.uleb128 0x4
 10595 0038 01       		.byte	0x1
 10596 0039 03       		.uleb128 0x3
 10597 003a 0E       		.uleb128 0xe
 10598 003b 0B       		.uleb128 0xb
 10599 003c 0B       		.uleb128 0xb
 10600 003d 3A       		.uleb128 0x3a
 10601 003e 0B       		.uleb128 0xb
 10602 003f 3B       		.uleb128 0x3b
 10603 0040 0B       		.uleb128 0xb
 10604 0041 01       		.uleb128 0x1
 10605 0042 13       		.uleb128 0x13
 10606 0043 00       		.byte	0
 10607 0044 00       		.byte	0
 10608 0045 06       		.uleb128 0x6
 10609 0046 28       		.uleb128 0x28
 10610 0047 00       		.byte	0
 10611 0048 03       		.uleb128 0x3
 10612 0049 0E       		.uleb128 0xe
 10613 004a 1C       		.uleb128 0x1c
 10614 004b 0D       		.uleb128 0xd
 10615 004c 00       		.byte	0
 10616 004d 00       		.byte	0
 10617 004e 07       		.uleb128 0x7
 10618 004f 13       		.uleb128 0x13
 10619 0050 01       		.byte	0x1
 10620 0051 03       		.uleb128 0x3
 10621 0052 0E       		.uleb128 0xe
 10622 0053 0B       		.uleb128 0xb
 10623 0054 0B       		.uleb128 0xb
 10624 0055 3A       		.uleb128 0x3a
 10625 0056 0B       		.uleb128 0xb
 10626 0057 3B       		.uleb128 0x3b
 10627 0058 0B       		.uleb128 0xb
 10628 0059 01       		.uleb128 0x1
 10629 005a 13       		.uleb128 0x13
 10630 005b 00       		.byte	0
 10631 005c 00       		.byte	0
 10632 005d 08       		.uleb128 0x8
 10633 005e 0D       		.uleb128 0xd
 10634 005f 00       		.byte	0
 10635 0060 03       		.uleb128 0x3
 10636 0061 0E       		.uleb128 0xe
 10637 0062 3A       		.uleb128 0x3a
 10638 0063 0B       		.uleb128 0xb
 10639 0064 3B       		.uleb128 0x3b
 10640 0065 0B       		.uleb128 0xb
 10641 0066 49       		.uleb128 0x49
 10642 0067 13       		.uleb128 0x13
 10643 0068 38       		.uleb128 0x38
 10644 0069 0B       		.uleb128 0xb
 10645 006a 00       		.byte	0
 10646 006b 00       		.byte	0
ARM GAS  /tmp/ccxMPRSl.s 			page 189


 10647 006c 09       		.uleb128 0x9
 10648 006d 0D       		.uleb128 0xd
 10649 006e 00       		.byte	0
 10650 006f 03       		.uleb128 0x3
 10651 0070 08       		.uleb128 0x8
 10652 0071 3A       		.uleb128 0x3a
 10653 0072 0B       		.uleb128 0xb
 10654 0073 3B       		.uleb128 0x3b
 10655 0074 0B       		.uleb128 0xb
 10656 0075 49       		.uleb128 0x49
 10657 0076 13       		.uleb128 0x13
 10658 0077 38       		.uleb128 0x38
 10659 0078 0B       		.uleb128 0xb
 10660 0079 00       		.byte	0
 10661 007a 00       		.byte	0
 10662 007b 0A       		.uleb128 0xa
 10663 007c 0F       		.uleb128 0xf
 10664 007d 00       		.byte	0
 10665 007e 0B       		.uleb128 0xb
 10666 007f 0B       		.uleb128 0xb
 10667 0080 00       		.byte	0
 10668 0081 00       		.byte	0
 10669 0082 0B       		.uleb128 0xb
 10670 0083 35       		.uleb128 0x35
 10671 0084 00       		.byte	0
 10672 0085 49       		.uleb128 0x49
 10673 0086 13       		.uleb128 0x13
 10674 0087 00       		.byte	0
 10675 0088 00       		.byte	0
 10676 0089 0C       		.uleb128 0xc
 10677 008a 01       		.uleb128 0x1
 10678 008b 01       		.byte	0x1
 10679 008c 49       		.uleb128 0x49
 10680 008d 13       		.uleb128 0x13
 10681 008e 01       		.uleb128 0x1
 10682 008f 13       		.uleb128 0x13
 10683 0090 00       		.byte	0
 10684 0091 00       		.byte	0
 10685 0092 0D       		.uleb128 0xd
 10686 0093 21       		.uleb128 0x21
 10687 0094 00       		.byte	0
 10688 0095 49       		.uleb128 0x49
 10689 0096 13       		.uleb128 0x13
 10690 0097 2F       		.uleb128 0x2f
 10691 0098 0B       		.uleb128 0xb
 10692 0099 00       		.byte	0
 10693 009a 00       		.byte	0
 10694 009b 0E       		.uleb128 0xe
 10695 009c 0F       		.uleb128 0xf
 10696 009d 00       		.byte	0
 10697 009e 0B       		.uleb128 0xb
 10698 009f 0B       		.uleb128 0xb
 10699 00a0 49       		.uleb128 0x49
 10700 00a1 13       		.uleb128 0x13
 10701 00a2 00       		.byte	0
 10702 00a3 00       		.byte	0
 10703 00a4 0F       		.uleb128 0xf
ARM GAS  /tmp/ccxMPRSl.s 			page 190


 10704 00a5 13       		.uleb128 0x13
 10705 00a6 01       		.byte	0x1
 10706 00a7 0B       		.uleb128 0xb
 10707 00a8 05       		.uleb128 0x5
 10708 00a9 3A       		.uleb128 0x3a
 10709 00aa 0B       		.uleb128 0xb
 10710 00ab 3B       		.uleb128 0x3b
 10711 00ac 05       		.uleb128 0x5
 10712 00ad 6E       		.uleb128 0x6e
 10713 00ae 0E       		.uleb128 0xe
 10714 00af 01       		.uleb128 0x1
 10715 00b0 13       		.uleb128 0x13
 10716 00b1 00       		.byte	0
 10717 00b2 00       		.byte	0
 10718 00b3 10       		.uleb128 0x10
 10719 00b4 0D       		.uleb128 0xd
 10720 00b5 00       		.byte	0
 10721 00b6 03       		.uleb128 0x3
 10722 00b7 0E       		.uleb128 0xe
 10723 00b8 3A       		.uleb128 0x3a
 10724 00b9 0B       		.uleb128 0xb
 10725 00ba 3B       		.uleb128 0x3b
 10726 00bb 05       		.uleb128 0x5
 10727 00bc 49       		.uleb128 0x49
 10728 00bd 13       		.uleb128 0x13
 10729 00be 38       		.uleb128 0x38
 10730 00bf 0B       		.uleb128 0xb
 10731 00c0 00       		.byte	0
 10732 00c1 00       		.byte	0
 10733 00c2 11       		.uleb128 0x11
 10734 00c3 0D       		.uleb128 0xd
 10735 00c4 00       		.byte	0
 10736 00c5 03       		.uleb128 0x3
 10737 00c6 0E       		.uleb128 0xe
 10738 00c7 3A       		.uleb128 0x3a
 10739 00c8 0B       		.uleb128 0xb
 10740 00c9 3B       		.uleb128 0x3b
 10741 00ca 05       		.uleb128 0x5
 10742 00cb 49       		.uleb128 0x49
 10743 00cc 13       		.uleb128 0x13
 10744 00cd 38       		.uleb128 0x38
 10745 00ce 05       		.uleb128 0x5
 10746 00cf 00       		.byte	0
 10747 00d0 00       		.byte	0
 10748 00d1 12       		.uleb128 0x12
 10749 00d2 16       		.uleb128 0x16
 10750 00d3 00       		.byte	0
 10751 00d4 03       		.uleb128 0x3
 10752 00d5 08       		.uleb128 0x8
 10753 00d6 3A       		.uleb128 0x3a
 10754 00d7 0B       		.uleb128 0xb
 10755 00d8 3B       		.uleb128 0x3b
 10756 00d9 05       		.uleb128 0x5
 10757 00da 49       		.uleb128 0x49
 10758 00db 13       		.uleb128 0x13
 10759 00dc 00       		.byte	0
 10760 00dd 00       		.byte	0
ARM GAS  /tmp/ccxMPRSl.s 			page 191


 10761 00de 13       		.uleb128 0x13
 10762 00df 39       		.uleb128 0x39
 10763 00e0 01       		.byte	0x1
 10764 00e1 03       		.uleb128 0x3
 10765 00e2 0E       		.uleb128 0xe
 10766 00e3 3A       		.uleb128 0x3a
 10767 00e4 0B       		.uleb128 0xb
 10768 00e5 3B       		.uleb128 0x3b
 10769 00e6 0B       		.uleb128 0xb
 10770 00e7 01       		.uleb128 0x1
 10771 00e8 13       		.uleb128 0x13
 10772 00e9 00       		.byte	0
 10773 00ea 00       		.byte	0
 10774 00eb 14       		.uleb128 0x14
 10775 00ec 02       		.uleb128 0x2
 10776 00ed 01       		.byte	0x1
 10777 00ee 03       		.uleb128 0x3
 10778 00ef 08       		.uleb128 0x8
 10779 00f0 0B       		.uleb128 0xb
 10780 00f1 0B       		.uleb128 0xb
 10781 00f2 3A       		.uleb128 0x3a
 10782 00f3 0B       		.uleb128 0xb
 10783 00f4 3B       		.uleb128 0x3b
 10784 00f5 0B       		.uleb128 0xb
 10785 00f6 00       		.byte	0
 10786 00f7 00       		.byte	0
 10787 00f8 15       		.uleb128 0x15
 10788 00f9 2E       		.uleb128 0x2e
 10789 00fa 01       		.byte	0x1
 10790 00fb 3F       		.uleb128 0x3f
 10791 00fc 19       		.uleb128 0x19
 10792 00fd 03       		.uleb128 0x3
 10793 00fe 0E       		.uleb128 0xe
 10794 00ff 3A       		.uleb128 0x3a
 10795 0100 0B       		.uleb128 0xb
 10796 0101 3B       		.uleb128 0x3b
 10797 0102 0B       		.uleb128 0xb
 10798 0103 6E       		.uleb128 0x6e
 10799 0104 0E       		.uleb128 0xe
 10800 0105 32       		.uleb128 0x32
 10801 0106 0B       		.uleb128 0xb
 10802 0107 3C       		.uleb128 0x3c
 10803 0108 19       		.uleb128 0x19
 10804 0109 64       		.uleb128 0x64
 10805 010a 13       		.uleb128 0x13
 10806 010b 01       		.uleb128 0x1
 10807 010c 13       		.uleb128 0x13
 10808 010d 00       		.byte	0
 10809 010e 00       		.byte	0
 10810 010f 16       		.uleb128 0x16
 10811 0110 05       		.uleb128 0x5
 10812 0111 00       		.byte	0
 10813 0112 49       		.uleb128 0x49
 10814 0113 13       		.uleb128 0x13
 10815 0114 34       		.uleb128 0x34
 10816 0115 19       		.uleb128 0x19
 10817 0116 00       		.byte	0
ARM GAS  /tmp/ccxMPRSl.s 			page 192


 10818 0117 00       		.byte	0
 10819 0118 17       		.uleb128 0x17
 10820 0119 05       		.uleb128 0x5
 10821 011a 00       		.byte	0
 10822 011b 49       		.uleb128 0x49
 10823 011c 13       		.uleb128 0x13
 10824 011d 00       		.byte	0
 10825 011e 00       		.byte	0
 10826 011f 18       		.uleb128 0x18
 10827 0120 2E       		.uleb128 0x2e
 10828 0121 01       		.byte	0x1
 10829 0122 3F       		.uleb128 0x3f
 10830 0123 19       		.uleb128 0x19
 10831 0124 03       		.uleb128 0x3
 10832 0125 0E       		.uleb128 0xe
 10833 0126 3A       		.uleb128 0x3a
 10834 0127 0B       		.uleb128 0xb
 10835 0128 3B       		.uleb128 0x3b
 10836 0129 0B       		.uleb128 0xb
 10837 012a 6E       		.uleb128 0x6e
 10838 012b 0E       		.uleb128 0xe
 10839 012c 49       		.uleb128 0x49
 10840 012d 13       		.uleb128 0x13
 10841 012e 32       		.uleb128 0x32
 10842 012f 0B       		.uleb128 0xb
 10843 0130 3C       		.uleb128 0x3c
 10844 0131 19       		.uleb128 0x19
 10845 0132 64       		.uleb128 0x64
 10846 0133 13       		.uleb128 0x13
 10847 0134 01       		.uleb128 0x1
 10848 0135 13       		.uleb128 0x13
 10849 0136 00       		.byte	0
 10850 0137 00       		.byte	0
 10851 0138 19       		.uleb128 0x19
 10852 0139 2E       		.uleb128 0x2e
 10853 013a 01       		.byte	0x1
 10854 013b 3F       		.uleb128 0x3f
 10855 013c 19       		.uleb128 0x19
 10856 013d 03       		.uleb128 0x3
 10857 013e 0E       		.uleb128 0xe
 10858 013f 3A       		.uleb128 0x3a
 10859 0140 0B       		.uleb128 0xb
 10860 0141 3B       		.uleb128 0x3b
 10861 0142 0B       		.uleb128 0xb
 10862 0143 6E       		.uleb128 0x6e
 10863 0144 0E       		.uleb128 0xe
 10864 0145 49       		.uleb128 0x49
 10865 0146 13       		.uleb128 0x13
 10866 0147 32       		.uleb128 0x32
 10867 0148 0B       		.uleb128 0xb
 10868 0149 3C       		.uleb128 0x3c
 10869 014a 19       		.uleb128 0x19
 10870 014b 64       		.uleb128 0x64
 10871 014c 13       		.uleb128 0x13
 10872 014d 00       		.byte	0
 10873 014e 00       		.byte	0
 10874 014f 1A       		.uleb128 0x1a
ARM GAS  /tmp/ccxMPRSl.s 			page 193


 10875 0150 02       		.uleb128 0x2
 10876 0151 01       		.byte	0x1
 10877 0152 03       		.uleb128 0x3
 10878 0153 0E       		.uleb128 0xe
 10879 0154 0B       		.uleb128 0xb
 10880 0155 0B       		.uleb128 0xb
 10881 0156 3A       		.uleb128 0x3a
 10882 0157 0B       		.uleb128 0xb
 10883 0158 3B       		.uleb128 0x3b
 10884 0159 0B       		.uleb128 0xb
 10885 015a 01       		.uleb128 0x1
 10886 015b 13       		.uleb128 0x13
 10887 015c 00       		.byte	0
 10888 015d 00       		.byte	0
 10889 015e 1B       		.uleb128 0x1b
 10890 015f 0D       		.uleb128 0xd
 10891 0160 00       		.byte	0
 10892 0161 03       		.uleb128 0x3
 10893 0162 0E       		.uleb128 0xe
 10894 0163 3A       		.uleb128 0x3a
 10895 0164 0B       		.uleb128 0xb
 10896 0165 3B       		.uleb128 0x3b
 10897 0166 0B       		.uleb128 0xb
 10898 0167 49       		.uleb128 0x49
 10899 0168 13       		.uleb128 0x13
 10900 0169 38       		.uleb128 0x38
 10901 016a 0B       		.uleb128 0xb
 10902 016b 32       		.uleb128 0x32
 10903 016c 0B       		.uleb128 0xb
 10904 016d 00       		.byte	0
 10905 016e 00       		.byte	0
 10906 016f 1C       		.uleb128 0x1c
 10907 0170 0D       		.uleb128 0xd
 10908 0171 00       		.byte	0
 10909 0172 03       		.uleb128 0x3
 10910 0173 08       		.uleb128 0x8
 10911 0174 3A       		.uleb128 0x3a
 10912 0175 0B       		.uleb128 0xb
 10913 0176 3B       		.uleb128 0x3b
 10914 0177 0B       		.uleb128 0xb
 10915 0178 49       		.uleb128 0x49
 10916 0179 13       		.uleb128 0x13
 10917 017a 38       		.uleb128 0x38
 10918 017b 0B       		.uleb128 0xb
 10919 017c 32       		.uleb128 0x32
 10920 017d 0B       		.uleb128 0xb
 10921 017e 00       		.byte	0
 10922 017f 00       		.byte	0
 10923 0180 1D       		.uleb128 0x1d
 10924 0181 0D       		.uleb128 0xd
 10925 0182 00       		.byte	0
 10926 0183 03       		.uleb128 0x3
 10927 0184 0E       		.uleb128 0xe
 10928 0185 3A       		.uleb128 0x3a
 10929 0186 0B       		.uleb128 0xb
 10930 0187 3B       		.uleb128 0x3b
 10931 0188 05       		.uleb128 0x5
ARM GAS  /tmp/ccxMPRSl.s 			page 194


 10932 0189 49       		.uleb128 0x49
 10933 018a 13       		.uleb128 0x13
 10934 018b 38       		.uleb128 0x38
 10935 018c 0B       		.uleb128 0xb
 10936 018d 32       		.uleb128 0x32
 10937 018e 0B       		.uleb128 0xb
 10938 018f 00       		.byte	0
 10939 0190 00       		.byte	0
 10940 0191 1E       		.uleb128 0x1e
 10941 0192 2E       		.uleb128 0x2e
 10942 0193 01       		.byte	0x1
 10943 0194 3F       		.uleb128 0x3f
 10944 0195 19       		.uleb128 0x19
 10945 0196 03       		.uleb128 0x3
 10946 0197 0E       		.uleb128 0xe
 10947 0198 3A       		.uleb128 0x3a
 10948 0199 0B       		.uleb128 0xb
 10949 019a 3B       		.uleb128 0x3b
 10950 019b 0B       		.uleb128 0xb
 10951 019c 49       		.uleb128 0x49
 10952 019d 13       		.uleb128 0x13
 10953 019e 32       		.uleb128 0x32
 10954 019f 0B       		.uleb128 0xb
 10955 01a0 3C       		.uleb128 0x3c
 10956 01a1 19       		.uleb128 0x19
 10957 01a2 64       		.uleb128 0x64
 10958 01a3 13       		.uleb128 0x13
 10959 01a4 01       		.uleb128 0x1
 10960 01a5 13       		.uleb128 0x13
 10961 01a6 00       		.byte	0
 10962 01a7 00       		.byte	0
 10963 01a8 1F       		.uleb128 0x1f
 10964 01a9 2E       		.uleb128 0x2e
 10965 01aa 01       		.byte	0x1
 10966 01ab 3F       		.uleb128 0x3f
 10967 01ac 19       		.uleb128 0x19
 10968 01ad 03       		.uleb128 0x3
 10969 01ae 0E       		.uleb128 0xe
 10970 01af 3A       		.uleb128 0x3a
 10971 01b0 0B       		.uleb128 0xb
 10972 01b1 3B       		.uleb128 0x3b
 10973 01b2 05       		.uleb128 0x5
 10974 01b3 6E       		.uleb128 0x6e
 10975 01b4 0E       		.uleb128 0xe
 10976 01b5 32       		.uleb128 0x32
 10977 01b6 0B       		.uleb128 0xb
 10978 01b7 3C       		.uleb128 0x3c
 10979 01b8 19       		.uleb128 0x19
 10980 01b9 64       		.uleb128 0x64
 10981 01ba 13       		.uleb128 0x13
 10982 01bb 01       		.uleb128 0x1
 10983 01bc 13       		.uleb128 0x13
 10984 01bd 00       		.byte	0
 10985 01be 00       		.byte	0
 10986 01bf 20       		.uleb128 0x20
 10987 01c0 2E       		.uleb128 0x2e
 10988 01c1 01       		.byte	0x1
ARM GAS  /tmp/ccxMPRSl.s 			page 195


 10989 01c2 3F       		.uleb128 0x3f
 10990 01c3 19       		.uleb128 0x19
 10991 01c4 03       		.uleb128 0x3
 10992 01c5 0E       		.uleb128 0xe
 10993 01c6 3A       		.uleb128 0x3a
 10994 01c7 0B       		.uleb128 0xb
 10995 01c8 3B       		.uleb128 0x3b
 10996 01c9 05       		.uleb128 0x5
 10997 01ca 6E       		.uleb128 0x6e
 10998 01cb 0E       		.uleb128 0xe
 10999 01cc 49       		.uleb128 0x49
 11000 01cd 13       		.uleb128 0x13
 11001 01ce 32       		.uleb128 0x32
 11002 01cf 0B       		.uleb128 0xb
 11003 01d0 3C       		.uleb128 0x3c
 11004 01d1 19       		.uleb128 0x19
 11005 01d2 64       		.uleb128 0x64
 11006 01d3 13       		.uleb128 0x13
 11007 01d4 01       		.uleb128 0x1
 11008 01d5 13       		.uleb128 0x13
 11009 01d6 00       		.byte	0
 11010 01d7 00       		.byte	0
 11011 01d8 21       		.uleb128 0x21
 11012 01d9 2E       		.uleb128 0x2e
 11013 01da 01       		.byte	0x1
 11014 01db 3F       		.uleb128 0x3f
 11015 01dc 19       		.uleb128 0x19
 11016 01dd 03       		.uleb128 0x3
 11017 01de 0E       		.uleb128 0xe
 11018 01df 3A       		.uleb128 0x3a
 11019 01e0 0B       		.uleb128 0xb
 11020 01e1 3B       		.uleb128 0x3b
 11021 01e2 05       		.uleb128 0x5
 11022 01e3 6E       		.uleb128 0x6e
 11023 01e4 0E       		.uleb128 0xe
 11024 01e5 49       		.uleb128 0x49
 11025 01e6 13       		.uleb128 0x13
 11026 01e7 32       		.uleb128 0x32
 11027 01e8 0B       		.uleb128 0xb
 11028 01e9 3C       		.uleb128 0x3c
 11029 01ea 19       		.uleb128 0x19
 11030 01eb 64       		.uleb128 0x64
 11031 01ec 13       		.uleb128 0x13
 11032 01ed 00       		.byte	0
 11033 01ee 00       		.byte	0
 11034 01ef 22       		.uleb128 0x22
 11035 01f0 2E       		.uleb128 0x2e
 11036 01f1 01       		.byte	0x1
 11037 01f2 47       		.uleb128 0x47
 11038 01f3 13       		.uleb128 0x13
 11039 01f4 3A       		.uleb128 0x3a
 11040 01f5 0B       		.uleb128 0xb
 11041 01f6 3B       		.uleb128 0x3b
 11042 01f7 05       		.uleb128 0x5
 11043 01f8 20       		.uleb128 0x20
 11044 01f9 0B       		.uleb128 0xb
 11045 01fa 64       		.uleb128 0x64
ARM GAS  /tmp/ccxMPRSl.s 			page 196


 11046 01fb 13       		.uleb128 0x13
 11047 01fc 01       		.uleb128 0x1
 11048 01fd 13       		.uleb128 0x13
 11049 01fe 00       		.byte	0
 11050 01ff 00       		.byte	0
 11051 0200 23       		.uleb128 0x23
 11052 0201 05       		.uleb128 0x5
 11053 0202 00       		.byte	0
 11054 0203 03       		.uleb128 0x3
 11055 0204 0E       		.uleb128 0xe
 11056 0205 49       		.uleb128 0x49
 11057 0206 13       		.uleb128 0x13
 11058 0207 34       		.uleb128 0x34
 11059 0208 19       		.uleb128 0x19
 11060 0209 00       		.byte	0
 11061 020a 00       		.byte	0
 11062 020b 24       		.uleb128 0x24
 11063 020c 05       		.uleb128 0x5
 11064 020d 00       		.byte	0
 11065 020e 03       		.uleb128 0x3
 11066 020f 0E       		.uleb128 0xe
 11067 0210 3A       		.uleb128 0x3a
 11068 0211 0B       		.uleb128 0xb
 11069 0212 3B       		.uleb128 0x3b
 11070 0213 05       		.uleb128 0x5
 11071 0214 49       		.uleb128 0x49
 11072 0215 13       		.uleb128 0x13
 11073 0216 00       		.byte	0
 11074 0217 00       		.byte	0
 11075 0218 25       		.uleb128 0x25
 11076 0219 26       		.uleb128 0x26
 11077 021a 00       		.byte	0
 11078 021b 49       		.uleb128 0x49
 11079 021c 13       		.uleb128 0x13
 11080 021d 00       		.byte	0
 11081 021e 00       		.byte	0
 11082 021f 26       		.uleb128 0x26
 11083 0220 0B       		.uleb128 0xb
 11084 0221 01       		.byte	0x1
 11085 0222 00       		.byte	0
 11086 0223 00       		.byte	0
 11087 0224 27       		.uleb128 0x27
 11088 0225 34       		.uleb128 0x34
 11089 0226 00       		.byte	0
 11090 0227 03       		.uleb128 0x3
 11091 0228 0E       		.uleb128 0xe
 11092 0229 3A       		.uleb128 0x3a
 11093 022a 0B       		.uleb128 0xb
 11094 022b 3B       		.uleb128 0x3b
 11095 022c 05       		.uleb128 0x5
 11096 022d 49       		.uleb128 0x49
 11097 022e 13       		.uleb128 0x13
 11098 022f 00       		.byte	0
 11099 0230 00       		.byte	0
 11100 0231 28       		.uleb128 0x28
 11101 0232 05       		.uleb128 0x5
 11102 0233 00       		.byte	0
ARM GAS  /tmp/ccxMPRSl.s 			page 197


 11103 0234 03       		.uleb128 0x3
 11104 0235 08       		.uleb128 0x8
 11105 0236 3A       		.uleb128 0x3a
 11106 0237 0B       		.uleb128 0xb
 11107 0238 3B       		.uleb128 0x3b
 11108 0239 05       		.uleb128 0x5
 11109 023a 49       		.uleb128 0x49
 11110 023b 13       		.uleb128 0x13
 11111 023c 00       		.byte	0
 11112 023d 00       		.byte	0
 11113 023e 29       		.uleb128 0x29
 11114 023f 2E       		.uleb128 0x2e
 11115 0240 01       		.byte	0x1
 11116 0241 47       		.uleb128 0x47
 11117 0242 13       		.uleb128 0x13
 11118 0243 3A       		.uleb128 0x3a
 11119 0244 0B       		.uleb128 0xb
 11120 0245 3B       		.uleb128 0x3b
 11121 0246 0B       		.uleb128 0xb
 11122 0247 11       		.uleb128 0x11
 11123 0248 01       		.uleb128 0x1
 11124 0249 12       		.uleb128 0x12
 11125 024a 06       		.uleb128 0x6
 11126 024b 40       		.uleb128 0x40
 11127 024c 18       		.uleb128 0x18
 11128 024d 64       		.uleb128 0x64
 11129 024e 13       		.uleb128 0x13
 11130 024f 9742     		.uleb128 0x2117
 11131 0251 19       		.uleb128 0x19
 11132 0252 01       		.uleb128 0x1
 11133 0253 13       		.uleb128 0x13
 11134 0254 00       		.byte	0
 11135 0255 00       		.byte	0
 11136 0256 2A       		.uleb128 0x2a
 11137 0257 05       		.uleb128 0x5
 11138 0258 00       		.byte	0
 11139 0259 03       		.uleb128 0x3
 11140 025a 0E       		.uleb128 0xe
 11141 025b 49       		.uleb128 0x49
 11142 025c 13       		.uleb128 0x13
 11143 025d 34       		.uleb128 0x34
 11144 025e 19       		.uleb128 0x19
 11145 025f 02       		.uleb128 0x2
 11146 0260 18       		.uleb128 0x18
 11147 0261 00       		.byte	0
 11148 0262 00       		.byte	0
 11149 0263 2B       		.uleb128 0x2b
 11150 0264 05       		.uleb128 0x5
 11151 0265 00       		.byte	0
 11152 0266 03       		.uleb128 0x3
 11153 0267 0E       		.uleb128 0xe
 11154 0268 3A       		.uleb128 0x3a
 11155 0269 0B       		.uleb128 0xb
 11156 026a 3B       		.uleb128 0x3b
 11157 026b 0B       		.uleb128 0xb
 11158 026c 49       		.uleb128 0x49
 11159 026d 13       		.uleb128 0x13
ARM GAS  /tmp/ccxMPRSl.s 			page 198


 11160 026e 02       		.uleb128 0x2
 11161 026f 17       		.uleb128 0x17
 11162 0270 00       		.byte	0
 11163 0271 00       		.byte	0
 11164 0272 2C       		.uleb128 0x2c
 11165 0273 0B       		.uleb128 0xb
 11166 0274 01       		.byte	0x1
 11167 0275 55       		.uleb128 0x55
 11168 0276 17       		.uleb128 0x17
 11169 0277 00       		.byte	0
 11170 0278 00       		.byte	0
 11171 0279 2D       		.uleb128 0x2d
 11172 027a 34       		.uleb128 0x34
 11173 027b 00       		.byte	0
 11174 027c 03       		.uleb128 0x3
 11175 027d 08       		.uleb128 0x8
 11176 027e 3A       		.uleb128 0x3a
 11177 027f 0B       		.uleb128 0xb
 11178 0280 3B       		.uleb128 0x3b
 11179 0281 0B       		.uleb128 0xb
 11180 0282 49       		.uleb128 0x49
 11181 0283 13       		.uleb128 0x13
 11182 0284 02       		.uleb128 0x2
 11183 0285 17       		.uleb128 0x17
 11184 0286 00       		.byte	0
 11185 0287 00       		.byte	0
 11186 0288 2E       		.uleb128 0x2e
 11187 0289 2E       		.uleb128 0x2e
 11188 028a 01       		.byte	0x1
 11189 028b 47       		.uleb128 0x47
 11190 028c 13       		.uleb128 0x13
 11191 028d 3A       		.uleb128 0x3a
 11192 028e 0B       		.uleb128 0xb
 11193 028f 3B       		.uleb128 0x3b
 11194 0290 0B       		.uleb128 0xb
 11195 0291 20       		.uleb128 0x20
 11196 0292 0B       		.uleb128 0xb
 11197 0293 64       		.uleb128 0x64
 11198 0294 13       		.uleb128 0x13
 11199 0295 01       		.uleb128 0x1
 11200 0296 13       		.uleb128 0x13
 11201 0297 00       		.byte	0
 11202 0298 00       		.byte	0
 11203 0299 2F       		.uleb128 0x2f
 11204 029a 05       		.uleb128 0x5
 11205 029b 00       		.byte	0
 11206 029c 03       		.uleb128 0x3
 11207 029d 08       		.uleb128 0x8
 11208 029e 3A       		.uleb128 0x3a
 11209 029f 0B       		.uleb128 0xb
 11210 02a0 3B       		.uleb128 0x3b
 11211 02a1 0B       		.uleb128 0xb
 11212 02a2 49       		.uleb128 0x49
 11213 02a3 13       		.uleb128 0x13
 11214 02a4 00       		.byte	0
 11215 02a5 00       		.byte	0
 11216 02a6 30       		.uleb128 0x30
ARM GAS  /tmp/ccxMPRSl.s 			page 199


 11217 02a7 2E       		.uleb128 0x2e
 11218 02a8 01       		.byte	0x1
 11219 02a9 31       		.uleb128 0x31
 11220 02aa 13       		.uleb128 0x13
 11221 02ab 6E       		.uleb128 0x6e
 11222 02ac 0E       		.uleb128 0xe
 11223 02ad 11       		.uleb128 0x11
 11224 02ae 01       		.uleb128 0x1
 11225 02af 12       		.uleb128 0x12
 11226 02b0 06       		.uleb128 0x6
 11227 02b1 40       		.uleb128 0x40
 11228 02b2 18       		.uleb128 0x18
 11229 02b3 64       		.uleb128 0x64
 11230 02b4 13       		.uleb128 0x13
 11231 02b5 9742     		.uleb128 0x2117
 11232 02b7 19       		.uleb128 0x19
 11233 02b8 01       		.uleb128 0x1
 11234 02b9 13       		.uleb128 0x13
 11235 02ba 00       		.byte	0
 11236 02bb 00       		.byte	0
 11237 02bc 31       		.uleb128 0x31
 11238 02bd 05       		.uleb128 0x5
 11239 02be 00       		.byte	0
 11240 02bf 31       		.uleb128 0x31
 11241 02c0 13       		.uleb128 0x13
 11242 02c1 02       		.uleb128 0x2
 11243 02c2 17       		.uleb128 0x17
 11244 02c3 00       		.byte	0
 11245 02c4 00       		.byte	0
 11246 02c5 32       		.uleb128 0x32
 11247 02c6 898201   		.uleb128 0x4109
 11248 02c9 01       		.byte	0x1
 11249 02ca 11       		.uleb128 0x11
 11250 02cb 01       		.uleb128 0x1
 11251 02cc 31       		.uleb128 0x31
 11252 02cd 13       		.uleb128 0x13
 11253 02ce 00       		.byte	0
 11254 02cf 00       		.byte	0
 11255 02d0 33       		.uleb128 0x33
 11256 02d1 8A8201   		.uleb128 0x410a
 11257 02d4 00       		.byte	0
 11258 02d5 02       		.uleb128 0x2
 11259 02d6 18       		.uleb128 0x18
 11260 02d7 9142     		.uleb128 0x2111
 11261 02d9 18       		.uleb128 0x18
 11262 02da 00       		.byte	0
 11263 02db 00       		.byte	0
 11264 02dc 34       		.uleb128 0x34
 11265 02dd 05       		.uleb128 0x5
 11266 02de 00       		.byte	0
 11267 02df 03       		.uleb128 0x3
 11268 02e0 0E       		.uleb128 0xe
 11269 02e1 3A       		.uleb128 0x3a
 11270 02e2 0B       		.uleb128 0xb
 11271 02e3 3B       		.uleb128 0x3b
 11272 02e4 0B       		.uleb128 0xb
 11273 02e5 49       		.uleb128 0x49
ARM GAS  /tmp/ccxMPRSl.s 			page 200


 11274 02e6 13       		.uleb128 0x13
 11275 02e7 00       		.byte	0
 11276 02e8 00       		.byte	0
 11277 02e9 35       		.uleb128 0x35
 11278 02ea 05       		.uleb128 0x5
 11279 02eb 00       		.byte	0
 11280 02ec 31       		.uleb128 0x31
 11281 02ed 13       		.uleb128 0x13
 11282 02ee 02       		.uleb128 0x2
 11283 02ef 18       		.uleb128 0x18
 11284 02f0 00       		.byte	0
 11285 02f1 00       		.byte	0
 11286 02f2 36       		.uleb128 0x36
 11287 02f3 05       		.uleb128 0x5
 11288 02f4 00       		.byte	0
 11289 02f5 03       		.uleb128 0x3
 11290 02f6 0E       		.uleb128 0xe
 11291 02f7 49       		.uleb128 0x49
 11292 02f8 13       		.uleb128 0x13
 11293 02f9 34       		.uleb128 0x34
 11294 02fa 19       		.uleb128 0x19
 11295 02fb 02       		.uleb128 0x2
 11296 02fc 17       		.uleb128 0x17
 11297 02fd 00       		.byte	0
 11298 02fe 00       		.byte	0
 11299 02ff 37       		.uleb128 0x37
 11300 0300 34       		.uleb128 0x34
 11301 0301 00       		.byte	0
 11302 0302 03       		.uleb128 0x3
 11303 0303 0E       		.uleb128 0xe
 11304 0304 3A       		.uleb128 0x3a
 11305 0305 0B       		.uleb128 0xb
 11306 0306 3B       		.uleb128 0x3b
 11307 0307 0B       		.uleb128 0xb
 11308 0308 49       		.uleb128 0x49
 11309 0309 13       		.uleb128 0x13
 11310 030a 02       		.uleb128 0x2
 11311 030b 17       		.uleb128 0x17
 11312 030c 00       		.byte	0
 11313 030d 00       		.byte	0
 11314 030e 38       		.uleb128 0x38
 11315 030f 1D       		.uleb128 0x1d
 11316 0310 01       		.byte	0x1
 11317 0311 31       		.uleb128 0x31
 11318 0312 13       		.uleb128 0x13
 11319 0313 52       		.uleb128 0x52
 11320 0314 01       		.uleb128 0x1
 11321 0315 55       		.uleb128 0x55
 11322 0316 17       		.uleb128 0x17
 11323 0317 58       		.uleb128 0x58
 11324 0318 0B       		.uleb128 0xb
 11325 0319 59       		.uleb128 0x59
 11326 031a 0B       		.uleb128 0xb
 11327 031b 01       		.uleb128 0x1
 11328 031c 13       		.uleb128 0x13
 11329 031d 00       		.byte	0
 11330 031e 00       		.byte	0
ARM GAS  /tmp/ccxMPRSl.s 			page 201


 11331 031f 39       		.uleb128 0x39
 11332 0320 05       		.uleb128 0x5
 11333 0321 00       		.byte	0
 11334 0322 31       		.uleb128 0x31
 11335 0323 13       		.uleb128 0x13
 11336 0324 1C       		.uleb128 0x1c
 11337 0325 0B       		.uleb128 0xb
 11338 0326 00       		.byte	0
 11339 0327 00       		.byte	0
 11340 0328 3A       		.uleb128 0x3a
 11341 0329 1D       		.uleb128 0x1d
 11342 032a 01       		.byte	0x1
 11343 032b 31       		.uleb128 0x31
 11344 032c 13       		.uleb128 0x13
 11345 032d 11       		.uleb128 0x11
 11346 032e 01       		.uleb128 0x1
 11347 032f 12       		.uleb128 0x12
 11348 0330 06       		.uleb128 0x6
 11349 0331 58       		.uleb128 0x58
 11350 0332 0B       		.uleb128 0xb
 11351 0333 59       		.uleb128 0x59
 11352 0334 0B       		.uleb128 0xb
 11353 0335 01       		.uleb128 0x1
 11354 0336 13       		.uleb128 0x13
 11355 0337 00       		.byte	0
 11356 0338 00       		.byte	0
 11357 0339 3B       		.uleb128 0x3b
 11358 033a 1D       		.uleb128 0x1d
 11359 033b 01       		.byte	0x1
 11360 033c 31       		.uleb128 0x31
 11361 033d 13       		.uleb128 0x13
 11362 033e 52       		.uleb128 0x52
 11363 033f 01       		.uleb128 0x1
 11364 0340 55       		.uleb128 0x55
 11365 0341 17       		.uleb128 0x17
 11366 0342 58       		.uleb128 0x58
 11367 0343 0B       		.uleb128 0xb
 11368 0344 59       		.uleb128 0x59
 11369 0345 0B       		.uleb128 0xb
 11370 0346 00       		.byte	0
 11371 0347 00       		.byte	0
 11372 0348 3C       		.uleb128 0x3c
 11373 0349 898201   		.uleb128 0x4109
 11374 034c 01       		.byte	0x1
 11375 034d 11       		.uleb128 0x11
 11376 034e 01       		.uleb128 0x1
 11377 034f 9542     		.uleb128 0x2115
 11378 0351 19       		.uleb128 0x19
 11379 0352 31       		.uleb128 0x31
 11380 0353 13       		.uleb128 0x13
 11381 0354 00       		.byte	0
 11382 0355 00       		.byte	0
 11383 0356 3D       		.uleb128 0x3d
 11384 0357 1D       		.uleb128 0x1d
 11385 0358 01       		.byte	0x1
 11386 0359 31       		.uleb128 0x31
 11387 035a 13       		.uleb128 0x13
ARM GAS  /tmp/ccxMPRSl.s 			page 202


 11388 035b 52       		.uleb128 0x52
 11389 035c 01       		.uleb128 0x1
 11390 035d 55       		.uleb128 0x55
 11391 035e 17       		.uleb128 0x17
 11392 035f 58       		.uleb128 0x58
 11393 0360 0B       		.uleb128 0xb
 11394 0361 59       		.uleb128 0x59
 11395 0362 05       		.uleb128 0x5
 11396 0363 01       		.uleb128 0x1
 11397 0364 13       		.uleb128 0x13
 11398 0365 00       		.byte	0
 11399 0366 00       		.byte	0
 11400 0367 3E       		.uleb128 0x3e
 11401 0368 1D       		.uleb128 0x1d
 11402 0369 01       		.byte	0x1
 11403 036a 31       		.uleb128 0x31
 11404 036b 13       		.uleb128 0x13
 11405 036c 52       		.uleb128 0x52
 11406 036d 01       		.uleb128 0x1
 11407 036e 55       		.uleb128 0x55
 11408 036f 17       		.uleb128 0x17
 11409 0370 58       		.uleb128 0x58
 11410 0371 0B       		.uleb128 0xb
 11411 0372 59       		.uleb128 0x59
 11412 0373 05       		.uleb128 0x5
 11413 0374 00       		.byte	0
 11414 0375 00       		.byte	0
 11415 0376 3F       		.uleb128 0x3f
 11416 0377 2E       		.uleb128 0x2e
 11417 0378 01       		.byte	0x1
 11418 0379 47       		.uleb128 0x47
 11419 037a 13       		.uleb128 0x13
 11420 037b 3A       		.uleb128 0x3a
 11421 037c 0B       		.uleb128 0xb
 11422 037d 3B       		.uleb128 0x3b
 11423 037e 05       		.uleb128 0x5
 11424 037f 11       		.uleb128 0x11
 11425 0380 01       		.uleb128 0x1
 11426 0381 12       		.uleb128 0x12
 11427 0382 06       		.uleb128 0x6
 11428 0383 40       		.uleb128 0x40
 11429 0384 18       		.uleb128 0x18
 11430 0385 64       		.uleb128 0x64
 11431 0386 13       		.uleb128 0x13
 11432 0387 9742     		.uleb128 0x2117
 11433 0389 19       		.uleb128 0x19
 11434 038a 01       		.uleb128 0x1
 11435 038b 13       		.uleb128 0x13
 11436 038c 00       		.byte	0
 11437 038d 00       		.byte	0
 11438 038e 40       		.uleb128 0x40
 11439 038f 05       		.uleb128 0x5
 11440 0390 00       		.byte	0
 11441 0391 03       		.uleb128 0x3
 11442 0392 0E       		.uleb128 0xe
 11443 0393 3A       		.uleb128 0x3a
 11444 0394 0B       		.uleb128 0xb
ARM GAS  /tmp/ccxMPRSl.s 			page 203


 11445 0395 3B       		.uleb128 0x3b
 11446 0396 05       		.uleb128 0x5
 11447 0397 49       		.uleb128 0x49
 11448 0398 13       		.uleb128 0x13
 11449 0399 02       		.uleb128 0x2
 11450 039a 17       		.uleb128 0x17
 11451 039b 00       		.byte	0
 11452 039c 00       		.byte	0
 11453 039d 41       		.uleb128 0x41
 11454 039e 34       		.uleb128 0x34
 11455 039f 00       		.byte	0
 11456 03a0 03       		.uleb128 0x3
 11457 03a1 08       		.uleb128 0x8
 11458 03a2 3A       		.uleb128 0x3a
 11459 03a3 0B       		.uleb128 0xb
 11460 03a4 3B       		.uleb128 0x3b
 11461 03a5 05       		.uleb128 0x5
 11462 03a6 49       		.uleb128 0x49
 11463 03a7 13       		.uleb128 0x13
 11464 03a8 02       		.uleb128 0x2
 11465 03a9 17       		.uleb128 0x17
 11466 03aa 00       		.byte	0
 11467 03ab 00       		.byte	0
 11468 03ac 42       		.uleb128 0x42
 11469 03ad 05       		.uleb128 0x5
 11470 03ae 00       		.byte	0
 11471 03af 31       		.uleb128 0x31
 11472 03b0 13       		.uleb128 0x13
 11473 03b1 00       		.byte	0
 11474 03b2 00       		.byte	0
 11475 03b3 43       		.uleb128 0x43
 11476 03b4 898201   		.uleb128 0x4109
 11477 03b7 00       		.byte	0
 11478 03b8 11       		.uleb128 0x11
 11479 03b9 01       		.uleb128 0x1
 11480 03ba 9542     		.uleb128 0x2115
 11481 03bc 19       		.uleb128 0x19
 11482 03bd 31       		.uleb128 0x31
 11483 03be 13       		.uleb128 0x13
 11484 03bf 00       		.byte	0
 11485 03c0 00       		.byte	0
 11486 03c1 44       		.uleb128 0x44
 11487 03c2 34       		.uleb128 0x34
 11488 03c3 00       		.byte	0
 11489 03c4 03       		.uleb128 0x3
 11490 03c5 0E       		.uleb128 0xe
 11491 03c6 3A       		.uleb128 0x3a
 11492 03c7 0B       		.uleb128 0xb
 11493 03c8 3B       		.uleb128 0x3b
 11494 03c9 05       		.uleb128 0x5
 11495 03ca 49       		.uleb128 0x49
 11496 03cb 13       		.uleb128 0x13
 11497 03cc 02       		.uleb128 0x2
 11498 03cd 17       		.uleb128 0x17
 11499 03ce 00       		.byte	0
 11500 03cf 00       		.byte	0
 11501 03d0 45       		.uleb128 0x45
ARM GAS  /tmp/ccxMPRSl.s 			page 204


 11502 03d1 1D       		.uleb128 0x1d
 11503 03d2 01       		.byte	0x1
 11504 03d3 31       		.uleb128 0x31
 11505 03d4 13       		.uleb128 0x13
 11506 03d5 11       		.uleb128 0x11
 11507 03d6 01       		.uleb128 0x1
 11508 03d7 12       		.uleb128 0x12
 11509 03d8 06       		.uleb128 0x6
 11510 03d9 58       		.uleb128 0x58
 11511 03da 0B       		.uleb128 0xb
 11512 03db 59       		.uleb128 0x59
 11513 03dc 05       		.uleb128 0x5
 11514 03dd 01       		.uleb128 0x1
 11515 03de 13       		.uleb128 0x13
 11516 03df 00       		.byte	0
 11517 03e0 00       		.byte	0
 11518 03e1 46       		.uleb128 0x46
 11519 03e2 0B       		.uleb128 0xb
 11520 03e3 01       		.byte	0x1
 11521 03e4 11       		.uleb128 0x11
 11522 03e5 01       		.uleb128 0x1
 11523 03e6 12       		.uleb128 0x12
 11524 03e7 06       		.uleb128 0x6
 11525 03e8 00       		.byte	0
 11526 03e9 00       		.byte	0
 11527 03ea 47       		.uleb128 0x47
 11528 03eb 1D       		.uleb128 0x1d
 11529 03ec 01       		.byte	0x1
 11530 03ed 31       		.uleb128 0x31
 11531 03ee 13       		.uleb128 0x13
 11532 03ef 11       		.uleb128 0x11
 11533 03f0 01       		.uleb128 0x1
 11534 03f1 12       		.uleb128 0x12
 11535 03f2 06       		.uleb128 0x6
 11536 03f3 58       		.uleb128 0x58
 11537 03f4 0B       		.uleb128 0xb
 11538 03f5 59       		.uleb128 0x59
 11539 03f6 05       		.uleb128 0x5
 11540 03f7 00       		.byte	0
 11541 03f8 00       		.byte	0
 11542 03f9 48       		.uleb128 0x48
 11543 03fa 34       		.uleb128 0x34
 11544 03fb 00       		.byte	0
 11545 03fc 31       		.uleb128 0x31
 11546 03fd 13       		.uleb128 0x13
 11547 03fe 02       		.uleb128 0x2
 11548 03ff 17       		.uleb128 0x17
 11549 0400 00       		.byte	0
 11550 0401 00       		.byte	0
 11551 0402 49       		.uleb128 0x49
 11552 0403 34       		.uleb128 0x34
 11553 0404 00       		.byte	0
 11554 0405 03       		.uleb128 0x3
 11555 0406 0E       		.uleb128 0xe
 11556 0407 3A       		.uleb128 0x3a
 11557 0408 0B       		.uleb128 0xb
 11558 0409 3B       		.uleb128 0x3b
ARM GAS  /tmp/ccxMPRSl.s 			page 205


 11559 040a 05       		.uleb128 0x5
 11560 040b 49       		.uleb128 0x49
 11561 040c 13       		.uleb128 0x13
 11562 040d 02       		.uleb128 0x2
 11563 040e 18       		.uleb128 0x18
 11564 040f 00       		.byte	0
 11565 0410 00       		.byte	0
 11566 0411 4A       		.uleb128 0x4a
 11567 0412 2E       		.uleb128 0x2e
 11568 0413 01       		.byte	0x1
 11569 0414 47       		.uleb128 0x47
 11570 0415 13       		.uleb128 0x13
 11571 0416 3A       		.uleb128 0x3a
 11572 0417 0B       		.uleb128 0xb
 11573 0418 3B       		.uleb128 0x3b
 11574 0419 05       		.uleb128 0x5
 11575 041a 11       		.uleb128 0x11
 11576 041b 01       		.uleb128 0x1
 11577 041c 12       		.uleb128 0x12
 11578 041d 06       		.uleb128 0x6
 11579 041e 40       		.uleb128 0x40
 11580 041f 18       		.uleb128 0x18
 11581 0420 64       		.uleb128 0x64
 11582 0421 13       		.uleb128 0x13
 11583 0422 9642     		.uleb128 0x2116
 11584 0424 19       		.uleb128 0x19
 11585 0425 01       		.uleb128 0x1
 11586 0426 13       		.uleb128 0x13
 11587 0427 00       		.byte	0
 11588 0428 00       		.byte	0
 11589 0429 4B       		.uleb128 0x4b
 11590 042a 0B       		.uleb128 0xb
 11591 042b 01       		.byte	0x1
 11592 042c 11       		.uleb128 0x11
 11593 042d 01       		.uleb128 0x1
 11594 042e 12       		.uleb128 0x12
 11595 042f 06       		.uleb128 0x6
 11596 0430 01       		.uleb128 0x1
 11597 0431 13       		.uleb128 0x13
 11598 0432 00       		.byte	0
 11599 0433 00       		.byte	0
 11600 0434 4C       		.uleb128 0x4c
 11601 0435 2E       		.uleb128 0x2e
 11602 0436 01       		.byte	0x1
 11603 0437 31       		.uleb128 0x31
 11604 0438 13       		.uleb128 0x13
 11605 0439 6E       		.uleb128 0x6e
 11606 043a 0E       		.uleb128 0xe
 11607 043b 11       		.uleb128 0x11
 11608 043c 01       		.uleb128 0x1
 11609 043d 12       		.uleb128 0x12
 11610 043e 06       		.uleb128 0x6
 11611 043f 40       		.uleb128 0x40
 11612 0440 18       		.uleb128 0x18
 11613 0441 64       		.uleb128 0x64
 11614 0442 13       		.uleb128 0x13
 11615 0443 9642     		.uleb128 0x2116
ARM GAS  /tmp/ccxMPRSl.s 			page 206


 11616 0445 19       		.uleb128 0x19
 11617 0446 01       		.uleb128 0x1
 11618 0447 13       		.uleb128 0x13
 11619 0448 00       		.byte	0
 11620 0449 00       		.byte	0
 11621 044a 4D       		.uleb128 0x4d
 11622 044b 898201   		.uleb128 0x4109
 11623 044e 00       		.byte	0
 11624 044f 11       		.uleb128 0x11
 11625 0450 01       		.uleb128 0x1
 11626 0451 31       		.uleb128 0x31
 11627 0452 13       		.uleb128 0x13
 11628 0453 00       		.byte	0
 11629 0454 00       		.byte	0
 11630 0455 4E       		.uleb128 0x4e
 11631 0456 05       		.uleb128 0x5
 11632 0457 00       		.byte	0
 11633 0458 03       		.uleb128 0x3
 11634 0459 08       		.uleb128 0x8
 11635 045a 3A       		.uleb128 0x3a
 11636 045b 0B       		.uleb128 0xb
 11637 045c 3B       		.uleb128 0x3b
 11638 045d 05       		.uleb128 0x5
 11639 045e 49       		.uleb128 0x49
 11640 045f 13       		.uleb128 0x13
 11641 0460 02       		.uleb128 0x2
 11642 0461 17       		.uleb128 0x17
 11643 0462 00       		.byte	0
 11644 0463 00       		.byte	0
 11645 0464 4F       		.uleb128 0x4f
 11646 0465 898201   		.uleb128 0x4109
 11647 0468 01       		.byte	0x1
 11648 0469 11       		.uleb128 0x11
 11649 046a 01       		.uleb128 0x1
 11650 046b 31       		.uleb128 0x31
 11651 046c 13       		.uleb128 0x13
 11652 046d 01       		.uleb128 0x1
 11653 046e 13       		.uleb128 0x13
 11654 046f 00       		.byte	0
 11655 0470 00       		.byte	0
 11656 0471 50       		.uleb128 0x50
 11657 0472 2E       		.uleb128 0x2e
 11658 0473 01       		.byte	0x1
 11659 0474 47       		.uleb128 0x47
 11660 0475 13       		.uleb128 0x13
 11661 0476 3A       		.uleb128 0x3a
 11662 0477 0B       		.uleb128 0xb
 11663 0478 3B       		.uleb128 0x3b
 11664 0479 0B       		.uleb128 0xb
 11665 047a 11       		.uleb128 0x11
 11666 047b 01       		.uleb128 0x1
 11667 047c 12       		.uleb128 0x12
 11668 047d 06       		.uleb128 0x6
 11669 047e 40       		.uleb128 0x40
 11670 047f 18       		.uleb128 0x18
 11671 0480 64       		.uleb128 0x64
 11672 0481 13       		.uleb128 0x13
ARM GAS  /tmp/ccxMPRSl.s 			page 207


 11673 0482 9642     		.uleb128 0x2116
 11674 0484 19       		.uleb128 0x19
 11675 0485 01       		.uleb128 0x1
 11676 0486 13       		.uleb128 0x13
 11677 0487 00       		.byte	0
 11678 0488 00       		.byte	0
 11679 0489 51       		.uleb128 0x51
 11680 048a 34       		.uleb128 0x34
 11681 048b 00       		.byte	0
 11682 048c 03       		.uleb128 0x3
 11683 048d 0E       		.uleb128 0xe
 11684 048e 3A       		.uleb128 0x3a
 11685 048f 0B       		.uleb128 0xb
 11686 0490 3B       		.uleb128 0x3b
 11687 0491 0B       		.uleb128 0xb
 11688 0492 49       		.uleb128 0x49
 11689 0493 13       		.uleb128 0x13
 11690 0494 3F       		.uleb128 0x3f
 11691 0495 19       		.uleb128 0x19
 11692 0496 02       		.uleb128 0x2
 11693 0497 18       		.uleb128 0x18
 11694 0498 00       		.byte	0
 11695 0499 00       		.byte	0
 11696 049a 00       		.byte	0
 11697              		.section	.debug_loc,"",%progbits
 11698              	.Ldebug_loc0:
 11699              	.LLST0:
 11700 0000 00000000 		.4byte	.LVL0
 11701 0004 70000000 		.4byte	.LVL1
 11702 0008 0100     		.2byte	0x1
 11703 000a 51       		.byte	0x51
 11704 000b 70000000 		.4byte	.LVL1
 11705 000f 86000000 		.4byte	.LVL4
 11706 0013 0200     		.2byte	0x2
 11707 0015 70       		.byte	0x70
 11708 0016 00       		.sleb128 0
 11709 0017 86000000 		.4byte	.LVL4
 11710 001b B2000000 		.4byte	.LFE13
 11711 001f 0400     		.2byte	0x4
 11712 0021 F3       		.byte	0xf3
 11713 0022 01       		.uleb128 0x1
 11714 0023 51       		.byte	0x51
 11715 0024 9F       		.byte	0x9f
 11716 0025 00000000 		.4byte	0
 11717 0029 00000000 		.4byte	0
 11718              	.LLST1:
 11719 002d 00000000 		.4byte	.LVL0
 11720 0031 84000000 		.4byte	.LVL3
 11721 0035 0100     		.2byte	0x1
 11722 0037 52       		.byte	0x52
 11723 0038 84000000 		.4byte	.LVL3
 11724 003c 86000000 		.4byte	.LVL4
 11725 0040 0200     		.2byte	0x2
 11726 0042 70       		.byte	0x70
 11727 0043 01       		.sleb128 1
 11728 0044 86000000 		.4byte	.LVL4
 11729 0048 B2000000 		.4byte	.LFE13
ARM GAS  /tmp/ccxMPRSl.s 			page 208


 11730 004c 0400     		.2byte	0x4
 11731 004e F3       		.byte	0xf3
 11732 004f 01       		.uleb128 0x1
 11733 0050 52       		.byte	0x52
 11734 0051 9F       		.byte	0x9f
 11735 0052 00000000 		.4byte	0
 11736 0056 00000000 		.4byte	0
 11737              	.LLST2:
 11738 005a 00000000 		.4byte	.LVL0
 11739 005e 86000000 		.4byte	.LVL4
 11740 0062 0100     		.2byte	0x1
 11741 0064 53       		.byte	0x53
 11742 0065 86000000 		.4byte	.LVL4
 11743 0069 B2000000 		.4byte	.LFE13
 11744 006d 0400     		.2byte	0x4
 11745 006f F3       		.byte	0xf3
 11746 0070 01       		.uleb128 0x1
 11747 0071 53       		.byte	0x53
 11748 0072 9F       		.byte	0x9f
 11749 0073 00000000 		.4byte	0
 11750 0077 00000000 		.4byte	0
 11751              	.LLST3:
 11752 007b 7E000000 		.4byte	.LVL2
 11753 007f 86000000 		.4byte	.LVL4
 11754 0083 0200     		.2byte	0x2
 11755 0085 30       		.byte	0x30
 11756 0086 9F       		.byte	0x9f
 11757 0087 86000000 		.4byte	.LVL4
 11758 008b 88000000 		.4byte	.LVL5
 11759 008f 0500     		.2byte	0x5
 11760 0091 33       		.byte	0x33
 11761 0092 76       		.byte	0x76
 11762 0093 00       		.sleb128 0
 11763 0094 1C       		.byte	0x1c
 11764 0095 9F       		.byte	0x9f
 11765 0096 88000000 		.4byte	.LVL5
 11766 009a 9E000000 		.4byte	.LVL6
 11767 009e 0500     		.2byte	0x5
 11768 00a0 32       		.byte	0x32
 11769 00a1 76       		.byte	0x76
 11770 00a2 00       		.sleb128 0
 11771 00a3 1C       		.byte	0x1c
 11772 00a4 9F       		.byte	0x9f
 11773 00a5 00000000 		.4byte	0
 11774 00a9 00000000 		.4byte	0
 11775              	.LLST4:
 11776 00ad 00000000 		.4byte	.LVL7
 11777 00b1 11000000 		.4byte	.LVL9-1
 11778 00b5 0100     		.2byte	0x1
 11779 00b7 50       		.byte	0x50
 11780 00b8 11000000 		.4byte	.LVL9-1
 11781 00bc 16000000 		.4byte	.LFE8
 11782 00c0 0100     		.2byte	0x1
 11783 00c2 54       		.byte	0x54
 11784 00c3 00000000 		.4byte	0
 11785 00c7 00000000 		.4byte	0
 11786              	.LLST5:
ARM GAS  /tmp/ccxMPRSl.s 			page 209


 11787 00cb 00000000 		.4byte	.LVL7
 11788 00cf 0E000000 		.4byte	.LVL8
 11789 00d3 0100     		.2byte	0x1
 11790 00d5 51       		.byte	0x51
 11791 00d6 0E000000 		.4byte	.LVL8
 11792 00da 11000000 		.4byte	.LVL9-1
 11793 00de 0300     		.2byte	0x3
 11794 00e0 70       		.byte	0x70
 11795 00e1 8401     		.sleb128 132
 11796 00e3 11000000 		.4byte	.LVL9-1
 11797 00e7 16000000 		.4byte	.LFE8
 11798 00eb 0400     		.2byte	0x4
 11799 00ed F3       		.byte	0xf3
 11800 00ee 01       		.uleb128 0x1
 11801 00ef 51       		.byte	0x51
 11802 00f0 9F       		.byte	0x9f
 11803 00f1 00000000 		.4byte	0
 11804 00f5 00000000 		.4byte	0
 11805              	.LLST6:
 11806 00f9 00000000 		.4byte	.LVL10
 11807 00fd 15000000 		.4byte	.LVL14-1
 11808 0101 0100     		.2byte	0x1
 11809 0103 50       		.byte	0x50
 11810 0104 15000000 		.4byte	.LVL14-1
 11811 0108 1A000000 		.4byte	.LFE11
 11812 010c 0100     		.2byte	0x1
 11813 010e 54       		.byte	0x54
 11814 010f 00000000 		.4byte	0
 11815 0113 00000000 		.4byte	0
 11816              	.LLST7:
 11817 0117 00000000 		.4byte	.LVL10
 11818 011b 0E000000 		.4byte	.LVL11
 11819 011f 0100     		.2byte	0x1
 11820 0121 51       		.byte	0x51
 11821 0122 0E000000 		.4byte	.LVL11
 11822 0126 15000000 		.4byte	.LVL14-1
 11823 012a 0300     		.2byte	0x3
 11824 012c 70       		.byte	0x70
 11825 012d 8401     		.sleb128 132
 11826 012f 15000000 		.4byte	.LVL14-1
 11827 0133 1A000000 		.4byte	.LFE11
 11828 0137 0400     		.2byte	0x4
 11829 0139 F3       		.byte	0xf3
 11830 013a 01       		.uleb128 0x1
 11831 013b 51       		.byte	0x51
 11832 013c 9F       		.byte	0x9f
 11833 013d 00000000 		.4byte	0
 11834 0141 00000000 		.4byte	0
 11835              	.LLST8:
 11836 0145 00000000 		.4byte	.LVL10
 11837 0149 10000000 		.4byte	.LVL12
 11838 014d 0100     		.2byte	0x1
 11839 014f 52       		.byte	0x52
 11840 0150 10000000 		.4byte	.LVL12
 11841 0154 1A000000 		.4byte	.LFE11
 11842 0158 0400     		.2byte	0x4
 11843 015a F3       		.byte	0xf3
ARM GAS  /tmp/ccxMPRSl.s 			page 210


 11844 015b 01       		.uleb128 0x1
 11845 015c 52       		.byte	0x52
 11846 015d 9F       		.byte	0x9f
 11847 015e 00000000 		.4byte	0
 11848 0162 00000000 		.4byte	0
 11849              	.LLST9:
 11850 0166 00000000 		.4byte	.LVL10
 11851 016a 12000000 		.4byte	.LVL13
 11852 016e 0100     		.2byte	0x1
 11853 0170 53       		.byte	0x53
 11854 0171 12000000 		.4byte	.LVL13
 11855 0175 1A000000 		.4byte	.LFE11
 11856 0179 0400     		.2byte	0x4
 11857 017b F3       		.byte	0xf3
 11858 017c 01       		.uleb128 0x1
 11859 017d 53       		.byte	0x53
 11860 017e 9F       		.byte	0x9f
 11861 017f 00000000 		.4byte	0
 11862 0183 00000000 		.4byte	0
 11863              	.LLST10:
 11864 0187 00000000 		.4byte	.LVL15
 11865 018b 2C000000 		.4byte	.LVL19
 11866 018f 0100     		.2byte	0x1
 11867 0191 50       		.byte	0x50
 11868 0192 2C000000 		.4byte	.LVL19
 11869 0196 D0000000 		.4byte	.LVL38
 11870 019a 0100     		.2byte	0x1
 11871 019c 54       		.byte	0x54
 11872 019d D0000000 		.4byte	.LVL38
 11873 01a1 D4000000 		.4byte	.LFE15
 11874 01a5 0400     		.2byte	0x4
 11875 01a7 F3       		.byte	0xf3
 11876 01a8 01       		.uleb128 0x1
 11877 01a9 50       		.byte	0x50
 11878 01aa 9F       		.byte	0x9f
 11879 01ab 00000000 		.4byte	0
 11880 01af 00000000 		.4byte	0
 11881              	.LLST11:
 11882 01b3 00000000 		.4byte	.LVL15
 11883 01b7 0E000000 		.4byte	.LVL16
 11884 01bb 0200     		.2byte	0x2
 11885 01bd 30       		.byte	0x30
 11886 01be 9F       		.byte	0x9f
 11887 01bf 0E000000 		.4byte	.LVL16
 11888 01c3 1A000000 		.4byte	.LVL17
 11889 01c7 0100     		.2byte	0x1
 11890 01c9 52       		.byte	0x52
 11891 01ca 26000000 		.4byte	.LVL18
 11892 01ce 30000000 		.4byte	.LVL20
 11893 01d2 0100     		.2byte	0x1
 11894 01d4 52       		.byte	0x52
 11895 01d5 30000000 		.4byte	.LVL20
 11896 01d9 32000000 		.4byte	.LVL21
 11897 01dd 0600     		.2byte	0x6
 11898 01df 72       		.byte	0x72
 11899 01e0 00       		.sleb128 0
 11900 01e1 73       		.byte	0x73
ARM GAS  /tmp/ccxMPRSl.s 			page 211


 11901 01e2 00       		.sleb128 0
 11902 01e3 21       		.byte	0x21
 11903 01e4 9F       		.byte	0x9f
 11904 01e5 32000000 		.4byte	.LVL21
 11905 01e9 38000000 		.4byte	.LVL22
 11906 01ed 0D00     		.2byte	0xd
 11907 01ef 74       		.byte	0x74
 11908 01f0 09       		.sleb128 9
 11909 01f1 94       		.byte	0x94
 11910 01f2 01       		.byte	0x1
 11911 01f3 33       		.byte	0x33
 11912 01f4 1A       		.byte	0x1a
 11913 01f5 08       		.byte	0x8
 11914 01f6 FF       		.byte	0xff
 11915 01f7 1A       		.byte	0x1a
 11916 01f8 72       		.byte	0x72
 11917 01f9 00       		.sleb128 0
 11918 01fa 21       		.byte	0x21
 11919 01fb 9F       		.byte	0x9f
 11920 01fc 58000000 		.4byte	.LVL25
 11921 0200 73000000 		.4byte	.LVL27-1
 11922 0204 0100     		.2byte	0x1
 11923 0206 53       		.byte	0x53
 11924 0207 74000000 		.4byte	.LVL27
 11925 020b 80000000 		.4byte	.LVL28
 11926 020f 0200     		.2byte	0x2
 11927 0211 30       		.byte	0x30
 11928 0212 9F       		.byte	0x9f
 11929 0213 80000000 		.4byte	.LVL28
 11930 0217 86000000 		.4byte	.LVL29
 11931 021b 0100     		.2byte	0x1
 11932 021d 53       		.byte	0x53
 11933 021e 86000000 		.4byte	.LVL29
 11934 0222 88000000 		.4byte	.LVL30
 11935 0226 1200     		.2byte	0x12
 11936 0228 08       		.byte	0x8
 11937 0229 20       		.byte	0x20
 11938 022a 30       		.byte	0x30
 11939 022b 74       		.byte	0x74
 11940 022c 13       		.sleb128 19
 11941 022d 94       		.byte	0x94
 11942 022e 01       		.byte	0x1
 11943 022f 08       		.byte	0x8
 11944 0230 FF       		.byte	0xff
 11945 0231 1A       		.byte	0x1a
 11946 0232 30       		.byte	0x30
 11947 0233 2E       		.byte	0x2e
 11948 0234 28       		.byte	0x28
 11949 0235 0100     		.2byte	0x1
 11950 0237 16       		.byte	0x16
 11951 0238 13       		.byte	0x13
 11952 0239 9F       		.byte	0x9f
 11953 023a 88000000 		.4byte	.LVL30
 11954 023e A5000000 		.4byte	.LVL33-1
 11955 0242 0100     		.2byte	0x1
 11956 0244 53       		.byte	0x53
 11957 0245 A6000000 		.4byte	.LVL33
ARM GAS  /tmp/ccxMPRSl.s 			page 212


 11958 0249 B2000000 		.4byte	.LVL34
 11959 024d 0200     		.2byte	0x2
 11960 024f 30       		.byte	0x30
 11961 0250 9F       		.byte	0x9f
 11962 0251 B2000000 		.4byte	.LVL34
 11963 0255 B8000000 		.4byte	.LVL35
 11964 0259 0100     		.2byte	0x1
 11965 025b 53       		.byte	0x53
 11966 025c B8000000 		.4byte	.LVL35
 11967 0260 BA000000 		.4byte	.LVL36
 11968 0264 1200     		.2byte	0x12
 11969 0266 08       		.byte	0x8
 11970 0267 20       		.byte	0x20
 11971 0268 30       		.byte	0x30
 11972 0269 74       		.byte	0x74
 11973 026a 0D       		.sleb128 13
 11974 026b 94       		.byte	0x94
 11975 026c 01       		.byte	0x1
 11976 026d 08       		.byte	0x8
 11977 026e FF       		.byte	0xff
 11978 026f 1A       		.byte	0x1a
 11979 0270 30       		.byte	0x30
 11980 0271 2E       		.byte	0x2e
 11981 0272 28       		.byte	0x28
 11982 0273 0100     		.2byte	0x1
 11983 0275 16       		.byte	0x16
 11984 0276 13       		.byte	0x13
 11985 0277 9F       		.byte	0x9f
 11986 0278 BA000000 		.4byte	.LVL36
 11987 027c D3000000 		.4byte	.LVL39-1
 11988 0280 0100     		.2byte	0x1
 11989 0282 53       		.byte	0x53
 11990 0283 00000000 		.4byte	0
 11991 0287 00000000 		.4byte	0
 11992              	.LLST12:
 11993 028b 30000000 		.4byte	.LVL20
 11994 028f 32000000 		.4byte	.LVL21
 11995 0293 0600     		.2byte	0x6
 11996 0295 72       		.byte	0x72
 11997 0296 00       		.sleb128 0
 11998 0297 73       		.byte	0x73
 11999 0298 00       		.sleb128 0
 12000 0299 21       		.byte	0x21
 12001 029a 9F       		.byte	0x9f
 12002 029b 32000000 		.4byte	.LVL21
 12003 029f 38000000 		.4byte	.LVL22
 12004 02a3 0D00     		.2byte	0xd
 12005 02a5 74       		.byte	0x74
 12006 02a6 09       		.sleb128 9
 12007 02a7 94       		.byte	0x94
 12008 02a8 01       		.byte	0x1
 12009 02a9 33       		.byte	0x33
 12010 02aa 1A       		.byte	0x1a
 12011 02ab 08       		.byte	0x8
 12012 02ac FF       		.byte	0xff
 12013 02ad 1A       		.byte	0x1a
 12014 02ae 72       		.byte	0x72
ARM GAS  /tmp/ccxMPRSl.s 			page 213


 12015 02af 00       		.sleb128 0
 12016 02b0 21       		.byte	0x21
 12017 02b1 9F       		.byte	0x9f
 12018 02b2 00000000 		.4byte	0
 12019 02b6 00000000 		.4byte	0
 12020              	.LLST13:
 12021 02ba 30000000 		.4byte	.LVL20
 12022 02be D0000000 		.4byte	.LVL38
 12023 02c2 0100     		.2byte	0x1
 12024 02c4 54       		.byte	0x54
 12025 02c5 D0000000 		.4byte	.LVL38
 12026 02c9 D4000000 		.4byte	.LFE15
 12027 02cd 0400     		.2byte	0x4
 12028 02cf F3       		.byte	0xf3
 12029 02d0 01       		.uleb128 0x1
 12030 02d1 50       		.byte	0x50
 12031 02d2 9F       		.byte	0x9f
 12032 02d3 00000000 		.4byte	0
 12033 02d7 00000000 		.4byte	0
 12034              	.LLST14:
 12035 02db 3C000000 		.4byte	.LVL23
 12036 02df D0000000 		.4byte	.LVL38
 12037 02e3 0100     		.2byte	0x1
 12038 02e5 54       		.byte	0x54
 12039 02e6 D0000000 		.4byte	.LVL38
 12040 02ea D4000000 		.4byte	.LFE15
 12041 02ee 0400     		.2byte	0x4
 12042 02f0 F3       		.byte	0xf3
 12043 02f1 01       		.uleb128 0x1
 12044 02f2 50       		.byte	0x50
 12045 02f3 9F       		.byte	0x9f
 12046 02f4 00000000 		.4byte	0
 12047 02f8 00000000 		.4byte	0
 12048              	.LLST15:
 12049 02fc 66000000 		.4byte	.LVL26
 12050 0300 73000000 		.4byte	.LVL27-1
 12051 0304 0100     		.2byte	0x1
 12052 0306 53       		.byte	0x53
 12053 0307 00000000 		.4byte	0
 12054 030b 00000000 		.4byte	0
 12055              	.LLST16:
 12056 030f 66000000 		.4byte	.LVL26
 12057 0313 D0000000 		.4byte	.LVL38
 12058 0317 0100     		.2byte	0x1
 12059 0319 54       		.byte	0x54
 12060 031a D0000000 		.4byte	.LVL38
 12061 031e D4000000 		.4byte	.LFE15
 12062 0322 0400     		.2byte	0x4
 12063 0324 F3       		.byte	0xf3
 12064 0325 01       		.uleb128 0x1
 12065 0326 50       		.byte	0x50
 12066 0327 9F       		.byte	0x9f
 12067 0328 00000000 		.4byte	0
 12068 032c 00000000 		.4byte	0
 12069              	.LLST17:
 12070 0330 98000000 		.4byte	.LVL32
 12071 0334 A5000000 		.4byte	.LVL33-1
ARM GAS  /tmp/ccxMPRSl.s 			page 214


 12072 0338 0100     		.2byte	0x1
 12073 033a 53       		.byte	0x53
 12074 033b 00000000 		.4byte	0
 12075 033f 00000000 		.4byte	0
 12076              	.LLST18:
 12077 0343 98000000 		.4byte	.LVL32
 12078 0347 D0000000 		.4byte	.LVL38
 12079 034b 0100     		.2byte	0x1
 12080 034d 54       		.byte	0x54
 12081 034e D0000000 		.4byte	.LVL38
 12082 0352 D4000000 		.4byte	.LFE15
 12083 0356 0400     		.2byte	0x4
 12084 0358 F3       		.byte	0xf3
 12085 0359 01       		.uleb128 0x1
 12086 035a 50       		.byte	0x50
 12087 035b 9F       		.byte	0x9f
 12088 035c 00000000 		.4byte	0
 12089 0360 00000000 		.4byte	0
 12090              	.LLST19:
 12091 0364 C2000000 		.4byte	.LVL37
 12092 0368 D3000000 		.4byte	.LVL39-1
 12093 036c 0100     		.2byte	0x1
 12094 036e 53       		.byte	0x53
 12095 036f 00000000 		.4byte	0
 12096 0373 00000000 		.4byte	0
 12097              	.LLST20:
 12098 0377 C2000000 		.4byte	.LVL37
 12099 037b D0000000 		.4byte	.LVL38
 12100 037f 0100     		.2byte	0x1
 12101 0381 54       		.byte	0x54
 12102 0382 D0000000 		.4byte	.LVL38
 12103 0386 D4000000 		.4byte	.LFE15
 12104 038a 0400     		.2byte	0x4
 12105 038c F3       		.byte	0xf3
 12106 038d 01       		.uleb128 0x1
 12107 038e 50       		.byte	0x50
 12108 038f 9F       		.byte	0x9f
 12109 0390 00000000 		.4byte	0
 12110 0394 00000000 		.4byte	0
 12111              	.LLST21:
 12112 0398 00000000 		.4byte	.LVL40
 12113 039c 24000000 		.4byte	.LVL45
 12114 03a0 0100     		.2byte	0x1
 12115 03a2 50       		.byte	0x50
 12116 03a3 24000000 		.4byte	.LVL45
 12117 03a7 94000000 		.4byte	.LVL55
 12118 03ab 0100     		.2byte	0x1
 12119 03ad 54       		.byte	0x54
 12120 03ae 94000000 		.4byte	.LVL55
 12121 03b2 98000000 		.4byte	.LFE16
 12122 03b6 0400     		.2byte	0x4
 12123 03b8 F3       		.byte	0xf3
 12124 03b9 01       		.uleb128 0x1
 12125 03ba 50       		.byte	0x50
 12126 03bb 9F       		.byte	0x9f
 12127 03bc 00000000 		.4byte	0
 12128 03c0 00000000 		.4byte	0
ARM GAS  /tmp/ccxMPRSl.s 			page 215


 12129              	.LLST22:
 12130 03c4 00000000 		.4byte	.LVL40
 12131 03c8 10000000 		.4byte	.LVL41
 12132 03cc 0200     		.2byte	0x2
 12133 03ce 30       		.byte	0x30
 12134 03cf 9F       		.byte	0x9f
 12135 03d0 10000000 		.4byte	.LVL41
 12136 03d4 16000000 		.4byte	.LVL42
 12137 03d8 0100     		.2byte	0x1
 12138 03da 53       		.byte	0x53
 12139 03db 16000000 		.4byte	.LVL42
 12140 03df 18000000 		.4byte	.LVL43
 12141 03e3 1200     		.2byte	0x12
 12142 03e5 08       		.byte	0x8
 12143 03e6 20       		.byte	0x20
 12144 03e7 30       		.byte	0x30
 12145 03e8 70       		.byte	0x70
 12146 03e9 1B       		.sleb128 27
 12147 03ea 94       		.byte	0x94
 12148 03eb 01       		.byte	0x1
 12149 03ec 08       		.byte	0x8
 12150 03ed FF       		.byte	0xff
 12151 03ee 1A       		.byte	0x1a
 12152 03ef 30       		.byte	0x30
 12153 03f0 2E       		.byte	0x2e
 12154 03f1 28       		.byte	0x28
 12155 03f2 0100     		.2byte	0x1
 12156 03f4 16       		.byte	0x16
 12157 03f5 13       		.byte	0x13
 12158 03f6 9F       		.byte	0x9f
 12159 03f7 18000000 		.4byte	.LVL43
 12160 03fb 2D000000 		.4byte	.LVL46-1
 12161 03ff 0100     		.2byte	0x1
 12162 0401 53       		.byte	0x53
 12163 0402 2E000000 		.4byte	.LVL46
 12164 0406 38000000 		.4byte	.LVL47
 12165 040a 0200     		.2byte	0x2
 12166 040c 30       		.byte	0x30
 12167 040d 9F       		.byte	0x9f
 12168 040e 38000000 		.4byte	.LVL47
 12169 0412 42000000 		.4byte	.LVL48
 12170 0416 0100     		.2byte	0x1
 12171 0418 53       		.byte	0x53
 12172 0419 56000000 		.4byte	.LVL49
 12173 041d 66000000 		.4byte	.LVL50
 12174 0421 0500     		.2byte	0x5
 12175 0423 73       		.byte	0x73
 12176 0424 00       		.sleb128 0
 12177 0425 34       		.byte	0x34
 12178 0426 21       		.byte	0x21
 12179 0427 9F       		.byte	0x9f
 12180 0428 6C000000 		.4byte	.LVL51
 12181 042c 75000000 		.4byte	.LVL52-1
 12182 0430 0100     		.2byte	0x1
 12183 0432 53       		.byte	0x53
 12184 0433 76000000 		.4byte	.LVL52
 12185 0437 7A000000 		.4byte	.LVL53
ARM GAS  /tmp/ccxMPRSl.s 			page 216


 12186 043b 0200     		.2byte	0x2
 12187 043d 30       		.byte	0x30
 12188 043e 9F       		.byte	0x9f
 12189 043f 7A000000 		.4byte	.LVL53
 12190 0443 86000000 		.4byte	.LVL54
 12191 0447 0300     		.2byte	0x3
 12192 0449 09       		.byte	0x9
 12193 044a 80       		.byte	0x80
 12194 044b 9F       		.byte	0x9f
 12195 044c 86000000 		.4byte	.LVL54
 12196 0450 97000000 		.4byte	.LVL56-1
 12197 0454 0100     		.2byte	0x1
 12198 0456 53       		.byte	0x53
 12199 0457 00000000 		.4byte	0
 12200 045b 00000000 		.4byte	0
 12201              	.LLST23:
 12202 045f 20000000 		.4byte	.LVL44
 12203 0463 2D000000 		.4byte	.LVL46-1
 12204 0467 0100     		.2byte	0x1
 12205 0469 53       		.byte	0x53
 12206 046a 00000000 		.4byte	0
 12207 046e 00000000 		.4byte	0
 12208              	.LLST24:
 12209 0472 20000000 		.4byte	.LVL44
 12210 0476 24000000 		.4byte	.LVL45
 12211 047a 0100     		.2byte	0x1
 12212 047c 50       		.byte	0x50
 12213 047d 24000000 		.4byte	.LVL45
 12214 0481 94000000 		.4byte	.LVL55
 12215 0485 0100     		.2byte	0x1
 12216 0487 54       		.byte	0x54
 12217 0488 94000000 		.4byte	.LVL55
 12218 048c 98000000 		.4byte	.LFE16
 12219 0490 0400     		.2byte	0x4
 12220 0492 F3       		.byte	0xf3
 12221 0493 01       		.uleb128 0x1
 12222 0494 50       		.byte	0x50
 12223 0495 9F       		.byte	0x9f
 12224 0496 00000000 		.4byte	0
 12225 049a 00000000 		.4byte	0
 12226              	.LLST25:
 12227 049e 6C000000 		.4byte	.LVL51
 12228 04a2 75000000 		.4byte	.LVL52-1
 12229 04a6 0100     		.2byte	0x1
 12230 04a8 53       		.byte	0x53
 12231 04a9 00000000 		.4byte	0
 12232 04ad 00000000 		.4byte	0
 12233              	.LLST26:
 12234 04b1 6C000000 		.4byte	.LVL51
 12235 04b5 94000000 		.4byte	.LVL55
 12236 04b9 0100     		.2byte	0x1
 12237 04bb 54       		.byte	0x54
 12238 04bc 94000000 		.4byte	.LVL55
 12239 04c0 98000000 		.4byte	.LFE16
 12240 04c4 0400     		.2byte	0x4
 12241 04c6 F3       		.byte	0xf3
 12242 04c7 01       		.uleb128 0x1
ARM GAS  /tmp/ccxMPRSl.s 			page 217


 12243 04c8 50       		.byte	0x50
 12244 04c9 9F       		.byte	0x9f
 12245 04ca 00000000 		.4byte	0
 12246 04ce 00000000 		.4byte	0
 12247              	.LLST27:
 12248 04d2 86000000 		.4byte	.LVL54
 12249 04d6 97000000 		.4byte	.LVL56-1
 12250 04da 0100     		.2byte	0x1
 12251 04dc 53       		.byte	0x53
 12252 04dd 00000000 		.4byte	0
 12253 04e1 00000000 		.4byte	0
 12254              	.LLST28:
 12255 04e5 86000000 		.4byte	.LVL54
 12256 04e9 94000000 		.4byte	.LVL55
 12257 04ed 0100     		.2byte	0x1
 12258 04ef 54       		.byte	0x54
 12259 04f0 94000000 		.4byte	.LVL55
 12260 04f4 98000000 		.4byte	.LFE16
 12261 04f8 0400     		.2byte	0x4
 12262 04fa F3       		.byte	0xf3
 12263 04fb 01       		.uleb128 0x1
 12264 04fc 50       		.byte	0x50
 12265 04fd 9F       		.byte	0x9f
 12266 04fe 00000000 		.4byte	0
 12267 0502 00000000 		.4byte	0
 12268              	.LLST29:
 12269 0506 00000000 		.4byte	.LVL57
 12270 050a 1E000000 		.4byte	.LVL61
 12271 050e 0100     		.2byte	0x1
 12272 0510 50       		.byte	0x50
 12273 0511 1E000000 		.4byte	.LVL61
 12274 0515 3A000000 		.4byte	.LVL64
 12275 0519 0100     		.2byte	0x1
 12276 051b 55       		.byte	0x55
 12277 051c 3A000000 		.4byte	.LVL64
 12278 0520 3E000000 		.4byte	.LFE19
 12279 0524 0400     		.2byte	0x4
 12280 0526 F3       		.byte	0xf3
 12281 0527 01       		.uleb128 0x1
 12282 0528 50       		.byte	0x50
 12283 0529 9F       		.byte	0x9f
 12284 052a 00000000 		.4byte	0
 12285 052e 00000000 		.4byte	0
 12286              	.LLST30:
 12287 0532 00000000 		.4byte	.LVL57
 12288 0536 16000000 		.4byte	.LVL60
 12289 053a 0100     		.2byte	0x1
 12290 053c 51       		.byte	0x51
 12291 053d 16000000 		.4byte	.LVL60
 12292 0541 3E000000 		.4byte	.LFE19
 12293 0545 0400     		.2byte	0x4
 12294 0547 F3       		.byte	0xf3
 12295 0548 01       		.uleb128 0x1
 12296 0549 51       		.byte	0x51
 12297 054a 9F       		.byte	0x9f
 12298 054b 00000000 		.4byte	0
 12299 054f 00000000 		.4byte	0
ARM GAS  /tmp/ccxMPRSl.s 			page 218


 12300              	.LLST31:
 12301 0553 00000000 		.4byte	.LVL57
 12302 0557 10000000 		.4byte	.LVL59
 12303 055b 0100     		.2byte	0x1
 12304 055d 52       		.byte	0x52
 12305 055e 10000000 		.4byte	.LVL59
 12306 0562 3E000000 		.4byte	.LFE19
 12307 0566 0400     		.2byte	0x4
 12308 0568 F3       		.byte	0xf3
 12309 0569 01       		.uleb128 0x1
 12310 056a 52       		.byte	0x52
 12311 056b 9F       		.byte	0x9f
 12312 056c 00000000 		.4byte	0
 12313 0570 00000000 		.4byte	0
 12314              	.LLST32:
 12315 0574 0E000000 		.4byte	.LVL58
 12316 0578 10000000 		.4byte	.LVL59
 12317 057c 0D00     		.2byte	0xd
 12318 057e 72       		.byte	0x72
 12319 057f 00       		.sleb128 0
 12320 0580 0B       		.byte	0xb
 12321 0581 00FF     		.2byte	0xff00
 12322 0583 1A       		.byte	0x1a
 12323 0584 0A       		.byte	0xa
 12324 0585 FFFF     		.2byte	0xffff
 12325 0587 1A       		.byte	0x1a
 12326 0588 38       		.byte	0x38
 12327 0589 26       		.byte	0x26
 12328 058a 9F       		.byte	0x9f
 12329 058b 10000000 		.4byte	.LVL59
 12330 058f 3A000000 		.4byte	.LVL64
 12331 0593 0D00     		.2byte	0xd
 12332 0595 76       		.byte	0x76
 12333 0596 00       		.sleb128 0
 12334 0597 0B       		.byte	0xb
 12335 0598 00FF     		.2byte	0xff00
 12336 059a 1A       		.byte	0x1a
 12337 059b 0A       		.byte	0xa
 12338 059c FFFF     		.2byte	0xffff
 12339 059e 1A       		.byte	0x1a
 12340 059f 38       		.byte	0x38
 12341 05a0 26       		.byte	0x26
 12342 05a1 9F       		.byte	0x9f
 12343 05a2 00000000 		.4byte	0
 12344 05a6 00000000 		.4byte	0
 12345              	.LLST33:
 12346 05aa 0E000000 		.4byte	.LVL58
 12347 05ae 10000000 		.4byte	.LVL59
 12348 05b2 0100     		.2byte	0x1
 12349 05b4 52       		.byte	0x52
 12350 05b5 10000000 		.4byte	.LVL59
 12351 05b9 3A000000 		.4byte	.LVL64
 12352 05bd 0100     		.2byte	0x1
 12353 05bf 56       		.byte	0x56
 12354 05c0 00000000 		.4byte	0
 12355 05c4 00000000 		.4byte	0
 12356              	.LLST35:
ARM GAS  /tmp/ccxMPRSl.s 			page 219


 12357 05c8 0E000000 		.4byte	.LVL58
 12358 05cc 16000000 		.4byte	.LVL60
 12359 05d0 0700     		.2byte	0x7
 12360 05d2 71       		.byte	0x71
 12361 05d3 00       		.sleb128 0
 12362 05d4 31       		.byte	0x31
 12363 05d5 24       		.byte	0x24
 12364 05d6 23       		.byte	0x23
 12365 05d7 05       		.uleb128 0x5
 12366 05d8 9F       		.byte	0x9f
 12367 05d9 16000000 		.4byte	.LVL60
 12368 05dd 20000000 		.4byte	.LVL62
 12369 05e1 0700     		.2byte	0x7
 12370 05e3 74       		.byte	0x74
 12371 05e4 00       		.sleb128 0
 12372 05e5 31       		.byte	0x31
 12373 05e6 24       		.byte	0x24
 12374 05e7 23       		.byte	0x23
 12375 05e8 05       		.uleb128 0x5
 12376 05e9 9F       		.byte	0x9f
 12377 05ea 20000000 		.4byte	.LVL62
 12378 05ee 3A000000 		.4byte	.LVL64
 12379 05f2 0700     		.2byte	0x7
 12380 05f4 74       		.byte	0x74
 12381 05f5 7D       		.sleb128 -3
 12382 05f6 31       		.byte	0x31
 12383 05f7 24       		.byte	0x24
 12384 05f8 23       		.byte	0x23
 12385 05f9 05       		.uleb128 0x5
 12386 05fa 9F       		.byte	0x9f
 12387 05fb 00000000 		.4byte	0
 12388 05ff 00000000 		.4byte	0
 12389              	.LLST36:
 12390 0603 0E000000 		.4byte	.LVL58
 12391 0607 1E000000 		.4byte	.LVL61
 12392 060b 0100     		.2byte	0x1
 12393 060d 50       		.byte	0x50
 12394 060e 1E000000 		.4byte	.LVL61
 12395 0612 3A000000 		.4byte	.LVL64
 12396 0616 0100     		.2byte	0x1
 12397 0618 55       		.byte	0x55
 12398 0619 3A000000 		.4byte	.LVL64
 12399 061d 3E000000 		.4byte	.LFE19
 12400 0621 0400     		.2byte	0x4
 12401 0623 F3       		.byte	0xf3
 12402 0624 01       		.uleb128 0x1
 12403 0625 50       		.byte	0x50
 12404 0626 9F       		.byte	0x9f
 12405 0627 00000000 		.4byte	0
 12406 062b 00000000 		.4byte	0
 12407              	.LLST37:
 12408 062f 24000000 		.4byte	.LVL63
 12409 0633 3A000000 		.4byte	.LVL64
 12410 0637 0D00     		.2byte	0xd
 12411 0639 76       		.byte	0x76
 12412 063a 00       		.sleb128 0
 12413 063b 0B       		.byte	0xb
ARM GAS  /tmp/ccxMPRSl.s 			page 220


 12414 063c 00FF     		.2byte	0xff00
 12415 063e 1A       		.byte	0x1a
 12416 063f 0A       		.byte	0xa
 12417 0640 FFFF     		.2byte	0xffff
 12418 0642 1A       		.byte	0x1a
 12419 0643 38       		.byte	0x38
 12420 0644 26       		.byte	0x26
 12421 0645 9F       		.byte	0x9f
 12422 0646 00000000 		.4byte	0
 12423 064a 00000000 		.4byte	0
 12424              	.LLST38:
 12425 064e 24000000 		.4byte	.LVL63
 12426 0652 3A000000 		.4byte	.LVL64
 12427 0656 0100     		.2byte	0x1
 12428 0658 55       		.byte	0x55
 12429 0659 3A000000 		.4byte	.LVL64
 12430 065d 3E000000 		.4byte	.LFE19
 12431 0661 0400     		.2byte	0x4
 12432 0663 F3       		.byte	0xf3
 12433 0664 01       		.uleb128 0x1
 12434 0665 50       		.byte	0x50
 12435 0666 9F       		.byte	0x9f
 12436 0667 00000000 		.4byte	0
 12437 066b 00000000 		.4byte	0
 12438              	.LLST39:
 12439 066f 00000000 		.4byte	.LVL66
 12440 0673 32000000 		.4byte	.LVL69
 12441 0677 0100     		.2byte	0x1
 12442 0679 50       		.byte	0x50
 12443 067a 32000000 		.4byte	.LVL69
 12444 067e A8000000 		.4byte	.LVL77
 12445 0682 0100     		.2byte	0x1
 12446 0684 54       		.byte	0x54
 12447 0685 A8000000 		.4byte	.LVL77
 12448 0689 AC000000 		.4byte	.LFE20
 12449 068d 0400     		.2byte	0x4
 12450 068f F3       		.byte	0xf3
 12451 0690 01       		.uleb128 0x1
 12452 0691 50       		.byte	0x50
 12453 0692 9F       		.byte	0x9f
 12454 0693 00000000 		.4byte	0
 12455 0697 00000000 		.4byte	0
 12456              	.LLST40:
 12457 069b 00000000 		.4byte	.LVL66
 12458 069f 26000000 		.4byte	.LVL67
 12459 06a3 0200     		.2byte	0x2
 12460 06a5 30       		.byte	0x30
 12461 06a6 9F       		.byte	0x9f
 12462 06a7 26000000 		.4byte	.LVL67
 12463 06ab 28000000 		.4byte	.LVL68
 12464 06af 1500     		.2byte	0x15
 12465 06b1 70       		.byte	0x70
 12466 06b2 21       		.sleb128 33
 12467 06b3 94       		.byte	0x94
 12468 06b4 01       		.byte	0x1
 12469 06b5 37       		.byte	0x37
 12470 06b6 1A       		.byte	0x1a
ARM GAS  /tmp/ccxMPRSl.s 			page 221


 12471 06b7 32       		.byte	0x32
 12472 06b8 24       		.byte	0x24
 12473 06b9 70       		.byte	0x70
 12474 06ba 23       		.sleb128 35
 12475 06bb 94       		.byte	0x94
 12476 06bc 01       		.byte	0x1
 12477 06bd 33       		.byte	0x33
 12478 06be 1A       		.byte	0x1a
 12479 06bf 35       		.byte	0x35
 12480 06c0 24       		.byte	0x24
 12481 06c1 21       		.byte	0x21
 12482 06c2 73       		.byte	0x73
 12483 06c3 00       		.sleb128 0
 12484 06c4 21       		.byte	0x21
 12485 06c5 9F       		.byte	0x9f
 12486 06c6 28000000 		.4byte	.LVL68
 12487 06ca 32000000 		.4byte	.LVL69
 12488 06ce 2400     		.2byte	0x24
 12489 06d0 70       		.byte	0x70
 12490 06d1 21       		.sleb128 33
 12491 06d2 94       		.byte	0x94
 12492 06d3 01       		.byte	0x1
 12493 06d4 37       		.byte	0x37
 12494 06d5 1A       		.byte	0x1a
 12495 06d6 32       		.byte	0x32
 12496 06d7 24       		.byte	0x24
 12497 06d8 70       		.byte	0x70
 12498 06d9 23       		.sleb128 35
 12499 06da 94       		.byte	0x94
 12500 06db 01       		.byte	0x1
 12501 06dc 33       		.byte	0x33
 12502 06dd 1A       		.byte	0x1a
 12503 06de 35       		.byte	0x35
 12504 06df 24       		.byte	0x24
 12505 06e0 21       		.byte	0x21
 12506 06e1 08       		.byte	0x8
 12507 06e2 80       		.byte	0x80
 12508 06e3 30       		.byte	0x30
 12509 06e4 70       		.byte	0x70
 12510 06e5 22       		.sleb128 34
 12511 06e6 94       		.byte	0x94
 12512 06e7 01       		.byte	0x1
 12513 06e8 08       		.byte	0x8
 12514 06e9 FF       		.byte	0xff
 12515 06ea 1A       		.byte	0x1a
 12516 06eb 30       		.byte	0x30
 12517 06ec 2E       		.byte	0x2e
 12518 06ed 28       		.byte	0x28
 12519 06ee 0100     		.2byte	0x1
 12520 06f0 16       		.byte	0x16
 12521 06f1 13       		.byte	0x13
 12522 06f2 21       		.byte	0x21
 12523 06f3 9F       		.byte	0x9f
 12524 06f4 32000000 		.4byte	.LVL69
 12525 06f8 35000000 		.4byte	.LVL70-1
 12526 06fc 2400     		.2byte	0x24
 12527 06fe 74       		.byte	0x74
ARM GAS  /tmp/ccxMPRSl.s 			page 222


 12528 06ff 21       		.sleb128 33
 12529 0700 94       		.byte	0x94
 12530 0701 01       		.byte	0x1
 12531 0702 37       		.byte	0x37
 12532 0703 1A       		.byte	0x1a
 12533 0704 32       		.byte	0x32
 12534 0705 24       		.byte	0x24
 12535 0706 74       		.byte	0x74
 12536 0707 23       		.sleb128 35
 12537 0708 94       		.byte	0x94
 12538 0709 01       		.byte	0x1
 12539 070a 33       		.byte	0x33
 12540 070b 1A       		.byte	0x1a
 12541 070c 35       		.byte	0x35
 12542 070d 24       		.byte	0x24
 12543 070e 21       		.byte	0x21
 12544 070f 08       		.byte	0x8
 12545 0710 80       		.byte	0x80
 12546 0711 30       		.byte	0x30
 12547 0712 74       		.byte	0x74
 12548 0713 22       		.sleb128 34
 12549 0714 94       		.byte	0x94
 12550 0715 01       		.byte	0x1
 12551 0716 08       		.byte	0x8
 12552 0717 FF       		.byte	0xff
 12553 0718 1A       		.byte	0x1a
 12554 0719 30       		.byte	0x30
 12555 071a 2E       		.byte	0x2e
 12556 071b 28       		.byte	0x28
 12557 071c 0100     		.2byte	0x1
 12558 071e 16       		.byte	0x16
 12559 071f 13       		.byte	0x13
 12560 0720 21       		.byte	0x21
 12561 0721 9F       		.byte	0x9f
 12562 0722 36000000 		.4byte	.LVL70
 12563 0726 52000000 		.4byte	.LVL71
 12564 072a 0200     		.2byte	0x2
 12565 072c 30       		.byte	0x30
 12566 072d 9F       		.byte	0x9f
 12567 072e 52000000 		.4byte	.LVL71
 12568 0732 5B000000 		.4byte	.LVL72-1
 12569 0736 0100     		.2byte	0x1
 12570 0738 53       		.byte	0x53
 12571 0739 5C000000 		.4byte	.LVL72
 12572 073d 6C000000 		.4byte	.LVL73
 12573 0741 0200     		.2byte	0x2
 12574 0743 30       		.byte	0x30
 12575 0744 9F       		.byte	0x9f
 12576 0745 6C000000 		.4byte	.LVL73
 12577 0749 7C000000 		.4byte	.LVL74
 12578 074d 0A00     		.2byte	0xa
 12579 074f 74       		.byte	0x74
 12580 0750 26       		.sleb128 38
 12581 0751 94       		.byte	0x94
 12582 0752 01       		.byte	0x1
 12583 0753 33       		.byte	0x33
 12584 0754 1A       		.byte	0x1a
ARM GAS  /tmp/ccxMPRSl.s 			page 223


 12585 0755 72       		.byte	0x72
 12586 0756 00       		.sleb128 0
 12587 0757 21       		.byte	0x21
 12588 0758 9F       		.byte	0x9f
 12589 0759 7C000000 		.4byte	.LVL74
 12590 075d 7F000000 		.4byte	.LVL75-1
 12591 0761 1900     		.2byte	0x19
 12592 0763 74       		.byte	0x74
 12593 0764 26       		.sleb128 38
 12594 0765 94       		.byte	0x94
 12595 0766 01       		.byte	0x1
 12596 0767 33       		.byte	0x33
 12597 0768 1A       		.byte	0x1a
 12598 0769 08       		.byte	0x8
 12599 076a 20       		.byte	0x20
 12600 076b 30       		.byte	0x30
 12601 076c 74       		.byte	0x74
 12602 076d 25       		.sleb128 37
 12603 076e 94       		.byte	0x94
 12604 076f 01       		.byte	0x1
 12605 0770 08       		.byte	0x8
 12606 0771 FF       		.byte	0xff
 12607 0772 1A       		.byte	0x1a
 12608 0773 30       		.byte	0x30
 12609 0774 2E       		.byte	0x2e
 12610 0775 28       		.byte	0x28
 12611 0776 0100     		.2byte	0x1
 12612 0778 16       		.byte	0x16
 12613 0779 13       		.byte	0x13
 12614 077a 21       		.byte	0x21
 12615 077b 9F       		.byte	0x9f
 12616 077c 80000000 		.4byte	.LVL75
 12617 0780 97000000 		.4byte	.LVL76-1
 12618 0784 0900     		.2byte	0x9
 12619 0786 74       		.byte	0x74
 12620 0787 24       		.sleb128 36
 12621 0788 94       		.byte	0x94
 12622 0789 01       		.byte	0x1
 12623 078a 33       		.byte	0x33
 12624 078b 1A       		.byte	0x1a
 12625 078c 32       		.byte	0x32
 12626 078d 24       		.byte	0x24
 12627 078e 9F       		.byte	0x9f
 12628 078f 98000000 		.4byte	.LVL76
 12629 0793 AC000000 		.4byte	.LFE20
 12630 0797 0200     		.2byte	0x2
 12631 0799 30       		.byte	0x30
 12632 079a 9F       		.byte	0x9f
 12633 079b 00000000 		.4byte	0
 12634 079f 00000000 		.4byte	0
 12635              	.LLST41:
 12636 07a3 26000000 		.4byte	.LVL67
 12637 07a7 28000000 		.4byte	.LVL68
 12638 07ab 1500     		.2byte	0x15
 12639 07ad 70       		.byte	0x70
 12640 07ae 21       		.sleb128 33
 12641 07af 94       		.byte	0x94
ARM GAS  /tmp/ccxMPRSl.s 			page 224


 12642 07b0 01       		.byte	0x1
 12643 07b1 37       		.byte	0x37
 12644 07b2 1A       		.byte	0x1a
 12645 07b3 32       		.byte	0x32
 12646 07b4 24       		.byte	0x24
 12647 07b5 70       		.byte	0x70
 12648 07b6 23       		.sleb128 35
 12649 07b7 94       		.byte	0x94
 12650 07b8 01       		.byte	0x1
 12651 07b9 33       		.byte	0x33
 12652 07ba 1A       		.byte	0x1a
 12653 07bb 35       		.byte	0x35
 12654 07bc 24       		.byte	0x24
 12655 07bd 21       		.byte	0x21
 12656 07be 73       		.byte	0x73
 12657 07bf 00       		.sleb128 0
 12658 07c0 21       		.byte	0x21
 12659 07c1 9F       		.byte	0x9f
 12660 07c2 28000000 		.4byte	.LVL68
 12661 07c6 32000000 		.4byte	.LVL69
 12662 07ca 2400     		.2byte	0x24
 12663 07cc 70       		.byte	0x70
 12664 07cd 21       		.sleb128 33
 12665 07ce 94       		.byte	0x94
 12666 07cf 01       		.byte	0x1
 12667 07d0 37       		.byte	0x37
 12668 07d1 1A       		.byte	0x1a
 12669 07d2 32       		.byte	0x32
 12670 07d3 24       		.byte	0x24
 12671 07d4 70       		.byte	0x70
 12672 07d5 23       		.sleb128 35
 12673 07d6 94       		.byte	0x94
 12674 07d7 01       		.byte	0x1
 12675 07d8 33       		.byte	0x33
 12676 07d9 1A       		.byte	0x1a
 12677 07da 35       		.byte	0x35
 12678 07db 24       		.byte	0x24
 12679 07dc 21       		.byte	0x21
 12680 07dd 08       		.byte	0x8
 12681 07de 80       		.byte	0x80
 12682 07df 30       		.byte	0x30
 12683 07e0 70       		.byte	0x70
 12684 07e1 22       		.sleb128 34
 12685 07e2 94       		.byte	0x94
 12686 07e3 01       		.byte	0x1
 12687 07e4 08       		.byte	0x8
 12688 07e5 FF       		.byte	0xff
 12689 07e6 1A       		.byte	0x1a
 12690 07e7 30       		.byte	0x30
 12691 07e8 2E       		.byte	0x2e
 12692 07e9 28       		.byte	0x28
 12693 07ea 0100     		.2byte	0x1
 12694 07ec 16       		.byte	0x16
 12695 07ed 13       		.byte	0x13
 12696 07ee 21       		.byte	0x21
 12697 07ef 9F       		.byte	0x9f
 12698 07f0 32000000 		.4byte	.LVL69
ARM GAS  /tmp/ccxMPRSl.s 			page 225


 12699 07f4 35000000 		.4byte	.LVL70-1
 12700 07f8 2400     		.2byte	0x24
 12701 07fa 74       		.byte	0x74
 12702 07fb 21       		.sleb128 33
 12703 07fc 94       		.byte	0x94
 12704 07fd 01       		.byte	0x1
 12705 07fe 37       		.byte	0x37
 12706 07ff 1A       		.byte	0x1a
 12707 0800 32       		.byte	0x32
 12708 0801 24       		.byte	0x24
 12709 0802 74       		.byte	0x74
 12710 0803 23       		.sleb128 35
 12711 0804 94       		.byte	0x94
 12712 0805 01       		.byte	0x1
 12713 0806 33       		.byte	0x33
 12714 0807 1A       		.byte	0x1a
 12715 0808 35       		.byte	0x35
 12716 0809 24       		.byte	0x24
 12717 080a 21       		.byte	0x21
 12718 080b 08       		.byte	0x8
 12719 080c 80       		.byte	0x80
 12720 080d 30       		.byte	0x30
 12721 080e 74       		.byte	0x74
 12722 080f 22       		.sleb128 34
 12723 0810 94       		.byte	0x94
 12724 0811 01       		.byte	0x1
 12725 0812 08       		.byte	0x8
 12726 0813 FF       		.byte	0xff
 12727 0814 1A       		.byte	0x1a
 12728 0815 30       		.byte	0x30
 12729 0816 2E       		.byte	0x2e
 12730 0817 28       		.byte	0x28
 12731 0818 0100     		.2byte	0x1
 12732 081a 16       		.byte	0x16
 12733 081b 13       		.byte	0x13
 12734 081c 21       		.byte	0x21
 12735 081d 9F       		.byte	0x9f
 12736 081e 00000000 		.4byte	0
 12737 0822 00000000 		.4byte	0
 12738              	.LLST42:
 12739 0826 26000000 		.4byte	.LVL67
 12740 082a 32000000 		.4byte	.LVL69
 12741 082e 0100     		.2byte	0x1
 12742 0830 50       		.byte	0x50
 12743 0831 32000000 		.4byte	.LVL69
 12744 0835 A8000000 		.4byte	.LVL77
 12745 0839 0100     		.2byte	0x1
 12746 083b 54       		.byte	0x54
 12747 083c A8000000 		.4byte	.LVL77
 12748 0840 AC000000 		.4byte	.LFE20
 12749 0844 0400     		.2byte	0x4
 12750 0846 F3       		.byte	0xf3
 12751 0847 01       		.uleb128 0x1
 12752 0848 50       		.byte	0x50
 12753 0849 9F       		.byte	0x9f
 12754 084a 00000000 		.4byte	0
 12755 084e 00000000 		.4byte	0
ARM GAS  /tmp/ccxMPRSl.s 			page 226


 12756              	.LLST43:
 12757 0852 52000000 		.4byte	.LVL71
 12758 0856 5B000000 		.4byte	.LVL72-1
 12759 085a 0100     		.2byte	0x1
 12760 085c 53       		.byte	0x53
 12761 085d 00000000 		.4byte	0
 12762 0861 00000000 		.4byte	0
 12763              	.LLST44:
 12764 0865 52000000 		.4byte	.LVL71
 12765 0869 A8000000 		.4byte	.LVL77
 12766 086d 0100     		.2byte	0x1
 12767 086f 54       		.byte	0x54
 12768 0870 A8000000 		.4byte	.LVL77
 12769 0874 AC000000 		.4byte	.LFE20
 12770 0878 0400     		.2byte	0x4
 12771 087a F3       		.byte	0xf3
 12772 087b 01       		.uleb128 0x1
 12773 087c 50       		.byte	0x50
 12774 087d 9F       		.byte	0x9f
 12775 087e 00000000 		.4byte	0
 12776 0882 00000000 		.4byte	0
 12777              	.LLST45:
 12778 0886 6C000000 		.4byte	.LVL73
 12779 088a 7C000000 		.4byte	.LVL74
 12780 088e 0A00     		.2byte	0xa
 12781 0890 74       		.byte	0x74
 12782 0891 26       		.sleb128 38
 12783 0892 94       		.byte	0x94
 12784 0893 01       		.byte	0x1
 12785 0894 33       		.byte	0x33
 12786 0895 1A       		.byte	0x1a
 12787 0896 72       		.byte	0x72
 12788 0897 00       		.sleb128 0
 12789 0898 21       		.byte	0x21
 12790 0899 9F       		.byte	0x9f
 12791 089a 7C000000 		.4byte	.LVL74
 12792 089e 7F000000 		.4byte	.LVL75-1
 12793 08a2 1900     		.2byte	0x19
 12794 08a4 74       		.byte	0x74
 12795 08a5 26       		.sleb128 38
 12796 08a6 94       		.byte	0x94
 12797 08a7 01       		.byte	0x1
 12798 08a8 33       		.byte	0x33
 12799 08a9 1A       		.byte	0x1a
 12800 08aa 08       		.byte	0x8
 12801 08ab 20       		.byte	0x20
 12802 08ac 30       		.byte	0x30
 12803 08ad 74       		.byte	0x74
 12804 08ae 25       		.sleb128 37
 12805 08af 94       		.byte	0x94
 12806 08b0 01       		.byte	0x1
 12807 08b1 08       		.byte	0x8
 12808 08b2 FF       		.byte	0xff
 12809 08b3 1A       		.byte	0x1a
 12810 08b4 30       		.byte	0x30
 12811 08b5 2E       		.byte	0x2e
 12812 08b6 28       		.byte	0x28
ARM GAS  /tmp/ccxMPRSl.s 			page 227


 12813 08b7 0100     		.2byte	0x1
 12814 08b9 16       		.byte	0x16
 12815 08ba 13       		.byte	0x13
 12816 08bb 21       		.byte	0x21
 12817 08bc 9F       		.byte	0x9f
 12818 08bd 00000000 		.4byte	0
 12819 08c1 00000000 		.4byte	0
 12820              	.LLST46:
 12821 08c5 6C000000 		.4byte	.LVL73
 12822 08c9 A8000000 		.4byte	.LVL77
 12823 08cd 0100     		.2byte	0x1
 12824 08cf 54       		.byte	0x54
 12825 08d0 A8000000 		.4byte	.LVL77
 12826 08d4 AC000000 		.4byte	.LFE20
 12827 08d8 0400     		.2byte	0x4
 12828 08da F3       		.byte	0xf3
 12829 08db 01       		.uleb128 0x1
 12830 08dc 50       		.byte	0x50
 12831 08dd 9F       		.byte	0x9f
 12832 08de 00000000 		.4byte	0
 12833 08e2 00000000 		.4byte	0
 12834              	.LLST47:
 12835 08e6 80000000 		.4byte	.LVL75
 12836 08ea 97000000 		.4byte	.LVL76-1
 12837 08ee 0900     		.2byte	0x9
 12838 08f0 74       		.byte	0x74
 12839 08f1 24       		.sleb128 36
 12840 08f2 94       		.byte	0x94
 12841 08f3 01       		.byte	0x1
 12842 08f4 33       		.byte	0x33
 12843 08f5 1A       		.byte	0x1a
 12844 08f6 32       		.byte	0x32
 12845 08f7 24       		.byte	0x24
 12846 08f8 9F       		.byte	0x9f
 12847 08f9 00000000 		.4byte	0
 12848 08fd 00000000 		.4byte	0
 12849              	.LLST48:
 12850 0901 80000000 		.4byte	.LVL75
 12851 0905 A8000000 		.4byte	.LVL77
 12852 0909 0100     		.2byte	0x1
 12853 090b 54       		.byte	0x54
 12854 090c A8000000 		.4byte	.LVL77
 12855 0910 AC000000 		.4byte	.LFE20
 12856 0914 0400     		.2byte	0x4
 12857 0916 F3       		.byte	0xf3
 12858 0917 01       		.uleb128 0x1
 12859 0918 50       		.byte	0x50
 12860 0919 9F       		.byte	0x9f
 12861 091a 00000000 		.4byte	0
 12862 091e 00000000 		.4byte	0
 12863              	.LLST49:
 12864 0922 98000000 		.4byte	.LVL76
 12865 0926 A8000000 		.4byte	.LVL77
 12866 092a 0100     		.2byte	0x1
 12867 092c 54       		.byte	0x54
 12868 092d A8000000 		.4byte	.LVL77
 12869 0931 AC000000 		.4byte	.LFE20
ARM GAS  /tmp/ccxMPRSl.s 			page 228


 12870 0935 0400     		.2byte	0x4
 12871 0937 F3       		.byte	0xf3
 12872 0938 01       		.uleb128 0x1
 12873 0939 50       		.byte	0x50
 12874 093a 9F       		.byte	0x9f
 12875 093b 00000000 		.4byte	0
 12876 093f 00000000 		.4byte	0
 12877              	.LLST50:
 12878 0943 00000000 		.4byte	.LVL79
 12879 0947 0E000000 		.4byte	.LVL81
 12880 094b 0100     		.2byte	0x1
 12881 094d 50       		.byte	0x50
 12882 094e 0E000000 		.4byte	.LVL81
 12883 0952 11000000 		.4byte	.LVL82-1
 12884 0956 0100     		.2byte	0x1
 12885 0958 53       		.byte	0x53
 12886 0959 11000000 		.4byte	.LVL82-1
 12887 095d 18000000 		.4byte	.LFE21
 12888 0961 0400     		.2byte	0x4
 12889 0963 F3       		.byte	0xf3
 12890 0964 01       		.uleb128 0x1
 12891 0965 50       		.byte	0x50
 12892 0966 9F       		.byte	0x9f
 12893 0967 00000000 		.4byte	0
 12894 096b 00000000 		.4byte	0
 12895              	.LLST51:
 12896 096f 12000000 		.4byte	.LVL82
 12897 0973 16000000 		.4byte	.LVL83
 12898 0977 0100     		.2byte	0x1
 12899 0979 50       		.byte	0x50
 12900 097a 00000000 		.4byte	0
 12901 097e 00000000 		.4byte	0
 12902              	.LLST52:
 12903 0982 04000000 		.4byte	.LVL80
 12904 0986 0E000000 		.4byte	.LVL81
 12905 098a 0100     		.2byte	0x1
 12906 098c 50       		.byte	0x50
 12907 098d 0E000000 		.4byte	.LVL81
 12908 0991 11000000 		.4byte	.LVL82-1
 12909 0995 0100     		.2byte	0x1
 12910 0997 53       		.byte	0x53
 12911 0998 11000000 		.4byte	.LVL82-1
 12912 099c 18000000 		.4byte	.LFE21
 12913 09a0 0400     		.2byte	0x4
 12914 09a2 F3       		.byte	0xf3
 12915 09a3 01       		.uleb128 0x1
 12916 09a4 50       		.byte	0x50
 12917 09a5 9F       		.byte	0x9f
 12918 09a6 00000000 		.4byte	0
 12919 09aa 00000000 		.4byte	0
 12920              	.LLST53:
 12921 09ae 00000000 		.4byte	.LVL84
 12922 09b2 0E000000 		.4byte	.LVL86
 12923 09b6 0100     		.2byte	0x1
 12924 09b8 50       		.byte	0x50
 12925 09b9 0E000000 		.4byte	.LVL86
 12926 09bd 11000000 		.4byte	.LVL87-1
ARM GAS  /tmp/ccxMPRSl.s 			page 229


 12927 09c1 0100     		.2byte	0x1
 12928 09c3 53       		.byte	0x53
 12929 09c4 11000000 		.4byte	.LVL87-1
 12930 09c8 18000000 		.4byte	.LFE22
 12931 09cc 0400     		.2byte	0x4
 12932 09ce F3       		.byte	0xf3
 12933 09cf 01       		.uleb128 0x1
 12934 09d0 50       		.byte	0x50
 12935 09d1 9F       		.byte	0x9f
 12936 09d2 00000000 		.4byte	0
 12937 09d6 00000000 		.4byte	0
 12938              	.LLST54:
 12939 09da 12000000 		.4byte	.LVL87
 12940 09de 16000000 		.4byte	.LVL88
 12941 09e2 0100     		.2byte	0x1
 12942 09e4 50       		.byte	0x50
 12943 09e5 00000000 		.4byte	0
 12944 09e9 00000000 		.4byte	0
 12945              	.LLST55:
 12946 09ed 04000000 		.4byte	.LVL85
 12947 09f1 0E000000 		.4byte	.LVL86
 12948 09f5 0100     		.2byte	0x1
 12949 09f7 50       		.byte	0x50
 12950 09f8 0E000000 		.4byte	.LVL86
 12951 09fc 11000000 		.4byte	.LVL87-1
 12952 0a00 0100     		.2byte	0x1
 12953 0a02 53       		.byte	0x53
 12954 0a03 11000000 		.4byte	.LVL87-1
 12955 0a07 18000000 		.4byte	.LFE22
 12956 0a0b 0400     		.2byte	0x4
 12957 0a0d F3       		.byte	0xf3
 12958 0a0e 01       		.uleb128 0x1
 12959 0a0f 50       		.byte	0x50
 12960 0a10 9F       		.byte	0x9f
 12961 0a11 00000000 		.4byte	0
 12962 0a15 00000000 		.4byte	0
 12963              	.LLST56:
 12964 0a19 00000000 		.4byte	.LVL89
 12965 0a1d 0E000000 		.4byte	.LVL91
 12966 0a21 0100     		.2byte	0x1
 12967 0a23 50       		.byte	0x50
 12968 0a24 0E000000 		.4byte	.LVL91
 12969 0a28 11000000 		.4byte	.LVL92-1
 12970 0a2c 0100     		.2byte	0x1
 12971 0a2e 53       		.byte	0x53
 12972 0a2f 11000000 		.4byte	.LVL92-1
 12973 0a33 18000000 		.4byte	.LFE23
 12974 0a37 0400     		.2byte	0x4
 12975 0a39 F3       		.byte	0xf3
 12976 0a3a 01       		.uleb128 0x1
 12977 0a3b 50       		.byte	0x50
 12978 0a3c 9F       		.byte	0x9f
 12979 0a3d 00000000 		.4byte	0
 12980 0a41 00000000 		.4byte	0
 12981              	.LLST57:
 12982 0a45 12000000 		.4byte	.LVL92
 12983 0a49 16000000 		.4byte	.LVL93
ARM GAS  /tmp/ccxMPRSl.s 			page 230


 12984 0a4d 0100     		.2byte	0x1
 12985 0a4f 50       		.byte	0x50
 12986 0a50 00000000 		.4byte	0
 12987 0a54 00000000 		.4byte	0
 12988              	.LLST58:
 12989 0a58 04000000 		.4byte	.LVL90
 12990 0a5c 0E000000 		.4byte	.LVL91
 12991 0a60 0100     		.2byte	0x1
 12992 0a62 50       		.byte	0x50
 12993 0a63 0E000000 		.4byte	.LVL91
 12994 0a67 11000000 		.4byte	.LVL92-1
 12995 0a6b 0100     		.2byte	0x1
 12996 0a6d 53       		.byte	0x53
 12997 0a6e 11000000 		.4byte	.LVL92-1
 12998 0a72 18000000 		.4byte	.LFE23
 12999 0a76 0400     		.2byte	0x4
 13000 0a78 F3       		.byte	0xf3
 13001 0a79 01       		.uleb128 0x1
 13002 0a7a 50       		.byte	0x50
 13003 0a7b 9F       		.byte	0x9f
 13004 0a7c 00000000 		.4byte	0
 13005 0a80 00000000 		.4byte	0
 13006              	.LLST59:
 13007 0a84 00000000 		.4byte	.LVL94
 13008 0a88 10000000 		.4byte	.LVL97
 13009 0a8c 0100     		.2byte	0x1
 13010 0a8e 50       		.byte	0x50
 13011 0a8f 10000000 		.4byte	.LVL97
 13012 0a93 13000000 		.4byte	.LVL98-1
 13013 0a97 0100     		.2byte	0x1
 13014 0a99 53       		.byte	0x53
 13015 0a9a 13000000 		.4byte	.LVL98-1
 13016 0a9e 20000000 		.4byte	.LFE24
 13017 0aa2 0400     		.2byte	0x4
 13018 0aa4 F3       		.byte	0xf3
 13019 0aa5 01       		.uleb128 0x1
 13020 0aa6 50       		.byte	0x50
 13021 0aa7 9F       		.byte	0x9f
 13022 0aa8 00000000 		.4byte	0
 13023 0aac 00000000 		.4byte	0
 13024              	.LLST60:
 13025 0ab0 00000000 		.4byte	.LVL94
 13026 0ab4 0C000000 		.4byte	.LVL96
 13027 0ab8 0100     		.2byte	0x1
 13028 0aba 51       		.byte	0x51
 13029 0abb 0C000000 		.4byte	.LVL96
 13030 0abf 20000000 		.4byte	.LFE24
 13031 0ac3 0400     		.2byte	0x4
 13032 0ac5 F3       		.byte	0xf3
 13033 0ac6 01       		.uleb128 0x1
 13034 0ac7 51       		.byte	0x51
 13035 0ac8 9F       		.byte	0x9f
 13036 0ac9 00000000 		.4byte	0
 13037 0acd 00000000 		.4byte	0
 13038              	.LLST61:
 13039 0ad1 14000000 		.4byte	.LVL98
 13040 0ad5 1A000000 		.4byte	.LVL99
ARM GAS  /tmp/ccxMPRSl.s 			page 231


 13041 0ad9 0100     		.2byte	0x1
 13042 0adb 50       		.byte	0x50
 13043 0adc 00000000 		.4byte	0
 13044 0ae0 00000000 		.4byte	0
 13045              	.LLST62:
 13046 0ae4 04000000 		.4byte	.LVL95
 13047 0ae8 10000000 		.4byte	.LVL97
 13048 0aec 0100     		.2byte	0x1
 13049 0aee 50       		.byte	0x50
 13050 0aef 10000000 		.4byte	.LVL97
 13051 0af3 13000000 		.4byte	.LVL98-1
 13052 0af7 0100     		.2byte	0x1
 13053 0af9 53       		.byte	0x53
 13054 0afa 13000000 		.4byte	.LVL98-1
 13055 0afe 20000000 		.4byte	.LFE24
 13056 0b02 0400     		.2byte	0x4
 13057 0b04 F3       		.byte	0xf3
 13058 0b05 01       		.uleb128 0x1
 13059 0b06 50       		.byte	0x50
 13060 0b07 9F       		.byte	0x9f
 13061 0b08 00000000 		.4byte	0
 13062 0b0c 00000000 		.4byte	0
 13063              	.LLST63:
 13064 0b10 00000000 		.4byte	.LVL100
 13065 0b14 10000000 		.4byte	.LVL102
 13066 0b18 0100     		.2byte	0x1
 13067 0b1a 50       		.byte	0x50
 13068 0b1b 10000000 		.4byte	.LVL102
 13069 0b1f 66000000 		.4byte	.LFE25
 13070 0b23 0100     		.2byte	0x1
 13071 0b25 54       		.byte	0x54
 13072 0b26 00000000 		.4byte	0
 13073 0b2a 00000000 		.4byte	0
 13074              	.LLST64:
 13075 0b2e 08000000 		.4byte	.LVL101
 13076 0b32 16000000 		.4byte	.LVL103
 13077 0b36 0300     		.2byte	0x3
 13078 0b38 91       		.byte	0x91
 13079 0b39 60       		.sleb128 -32
 13080 0b3a 9F       		.byte	0x9f
 13081 0b3b 16000000 		.4byte	.LVL103
 13082 0b3f 19000000 		.4byte	.LVL104-1
 13083 0b43 0100     		.2byte	0x1
 13084 0b45 53       		.byte	0x53
 13085 0b46 19000000 		.4byte	.LVL104-1
 13086 0b4a 66000000 		.4byte	.LFE25
 13087 0b4e 0300     		.2byte	0x3
 13088 0b50 91       		.byte	0x91
 13089 0b51 60       		.sleb128 -32
 13090 0b52 9F       		.byte	0x9f
 13091 0b53 00000000 		.4byte	0
 13092 0b57 00000000 		.4byte	0
 13093              	.LLST65:
 13094 0b5b 08000000 		.4byte	.LVL101
 13095 0b5f 10000000 		.4byte	.LVL102
 13096 0b63 0100     		.2byte	0x1
 13097 0b65 50       		.byte	0x50
ARM GAS  /tmp/ccxMPRSl.s 			page 232


 13098 0b66 10000000 		.4byte	.LVL102
 13099 0b6a 66000000 		.4byte	.LFE25
 13100 0b6e 0100     		.2byte	0x1
 13101 0b70 54       		.byte	0x54
 13102 0b71 00000000 		.4byte	0
 13103 0b75 00000000 		.4byte	0
 13104              	.LLST66:
 13105 0b79 00000000 		.4byte	.LVL105
 13106 0b7d 12000000 		.4byte	.LVL107
 13107 0b81 0100     		.2byte	0x1
 13108 0b83 50       		.byte	0x50
 13109 0b84 12000000 		.4byte	.LVL107
 13110 0b88 3A000000 		.4byte	.LVL112
 13111 0b8c 0100     		.2byte	0x1
 13112 0b8e 54       		.byte	0x54
 13113 0b8f 3A000000 		.4byte	.LVL112
 13114 0b93 48000000 		.4byte	.LFE26
 13115 0b97 0400     		.2byte	0x4
 13116 0b99 F3       		.byte	0xf3
 13117 0b9a 01       		.uleb128 0x1
 13118 0b9b 50       		.byte	0x50
 13119 0b9c 9F       		.byte	0x9f
 13120 0b9d 00000000 		.4byte	0
 13121 0ba1 00000000 		.4byte	0
 13122              	.LLST67:
 13123 0ba5 00000000 		.4byte	.LVL105
 13124 0ba9 1C000000 		.4byte	.LVL108
 13125 0bad 0100     		.2byte	0x1
 13126 0baf 51       		.byte	0x51
 13127 0bb0 1C000000 		.4byte	.LVL108
 13128 0bb4 48000000 		.4byte	.LFE26
 13129 0bb8 0400     		.2byte	0x4
 13130 0bba F3       		.byte	0xf3
 13131 0bbb 01       		.uleb128 0x1
 13132 0bbc 51       		.byte	0x51
 13133 0bbd 9F       		.byte	0x9f
 13134 0bbe 00000000 		.4byte	0
 13135 0bc2 00000000 		.4byte	0
 13136              	.LLST68:
 13137 0bc6 34000000 		.4byte	.LVL111
 13138 0bca 40000000 		.4byte	.LVL113
 13139 0bce 0100     		.2byte	0x1
 13140 0bd0 50       		.byte	0x50
 13141 0bd1 40000000 		.4byte	.LVL113
 13142 0bd5 42000000 		.4byte	.LVL114
 13143 0bd9 0D00     		.2byte	0xd
 13144 0bdb 91       		.byte	0x91
 13145 0bdc 6D       		.sleb128 -19
 13146 0bdd 94       		.byte	0x94
 13147 0bde 01       		.byte	0x1
 13148 0bdf 08       		.byte	0x8
 13149 0be0 FF       		.byte	0xff
 13150 0be1 1A       		.byte	0x1a
 13151 0be2 38       		.byte	0x38
 13152 0be3 24       		.byte	0x24
 13153 0be4 72       		.byte	0x72
 13154 0be5 00       		.sleb128 0
ARM GAS  /tmp/ccxMPRSl.s 			page 233


 13155 0be6 21       		.byte	0x21
 13156 0be7 9F       		.byte	0x9f
 13157 0be8 42000000 		.4byte	.LVL114
 13158 0bec 44000000 		.4byte	.LVL115
 13159 0bf0 0100     		.2byte	0x1
 13160 0bf2 50       		.byte	0x50
 13161 0bf3 00000000 		.4byte	0
 13162 0bf7 00000000 		.4byte	0
 13163              	.LLST69:
 13164 0bfb 0A000000 		.4byte	.LVL106
 13165 0bff 20000000 		.4byte	.LVL109
 13166 0c03 0300     		.2byte	0x3
 13167 0c05 91       		.byte	0x91
 13168 0c06 6C       		.sleb128 -20
 13169 0c07 9F       		.byte	0x9f
 13170 0c08 20000000 		.4byte	.LVL109
 13171 0c0c 23000000 		.4byte	.LVL110-1
 13172 0c10 0100     		.2byte	0x1
 13173 0c12 53       		.byte	0x53
 13174 0c13 23000000 		.4byte	.LVL110-1
 13175 0c17 48000000 		.4byte	.LFE26
 13176 0c1b 0300     		.2byte	0x3
 13177 0c1d 91       		.byte	0x91
 13178 0c1e 6C       		.sleb128 -20
 13179 0c1f 9F       		.byte	0x9f
 13180 0c20 00000000 		.4byte	0
 13181 0c24 00000000 		.4byte	0
 13182              	.LLST70:
 13183 0c28 0A000000 		.4byte	.LVL106
 13184 0c2c 1C000000 		.4byte	.LVL108
 13185 0c30 0500     		.2byte	0x5
 13186 0c32 71       		.byte	0x71
 13187 0c33 14       		.sleb128 20
 13188 0c34 31       		.byte	0x31
 13189 0c35 24       		.byte	0x24
 13190 0c36 9F       		.byte	0x9f
 13191 0c37 1C000000 		.4byte	.LVL108
 13192 0c3b 48000000 		.4byte	.LFE26
 13193 0c3f 0500     		.2byte	0x5
 13194 0c41 75       		.byte	0x75
 13195 0c42 14       		.sleb128 20
 13196 0c43 31       		.byte	0x31
 13197 0c44 24       		.byte	0x24
 13198 0c45 9F       		.byte	0x9f
 13199 0c46 00000000 		.4byte	0
 13200 0c4a 00000000 		.4byte	0
 13201              	.LLST71:
 13202 0c4e 0A000000 		.4byte	.LVL106
 13203 0c52 12000000 		.4byte	.LVL107
 13204 0c56 0100     		.2byte	0x1
 13205 0c58 50       		.byte	0x50
 13206 0c59 12000000 		.4byte	.LVL107
 13207 0c5d 3A000000 		.4byte	.LVL112
 13208 0c61 0100     		.2byte	0x1
 13209 0c63 54       		.byte	0x54
 13210 0c64 3A000000 		.4byte	.LVL112
 13211 0c68 48000000 		.4byte	.LFE26
ARM GAS  /tmp/ccxMPRSl.s 			page 234


 13212 0c6c 0400     		.2byte	0x4
 13213 0c6e F3       		.byte	0xf3
 13214 0c6f 01       		.uleb128 0x1
 13215 0c70 50       		.byte	0x50
 13216 0c71 9F       		.byte	0x9f
 13217 0c72 00000000 		.4byte	0
 13218 0c76 00000000 		.4byte	0
 13219              	.LLST72:
 13220 0c7a 00000000 		.4byte	.LVL116
 13221 0c7e 10000000 		.4byte	.LVL118
 13222 0c82 0100     		.2byte	0x1
 13223 0c84 50       		.byte	0x50
 13224 0c85 10000000 		.4byte	.LVL118
 13225 0c89 48000000 		.4byte	.LFE27
 13226 0c8d 0100     		.2byte	0x1
 13227 0c8f 54       		.byte	0x54
 13228 0c90 00000000 		.4byte	0
 13229 0c94 00000000 		.4byte	0
 13230              	.LLST73:
 13231 0c98 08000000 		.4byte	.LVL117
 13232 0c9c 16000000 		.4byte	.LVL119
 13233 0ca0 0300     		.2byte	0x3
 13234 0ca2 91       		.byte	0x91
 13235 0ca3 68       		.sleb128 -24
 13236 0ca4 9F       		.byte	0x9f
 13237 0ca5 16000000 		.4byte	.LVL119
 13238 0ca9 19000000 		.4byte	.LVL120-1
 13239 0cad 0100     		.2byte	0x1
 13240 0caf 53       		.byte	0x53
 13241 0cb0 19000000 		.4byte	.LVL120-1
 13242 0cb4 48000000 		.4byte	.LFE27
 13243 0cb8 0300     		.2byte	0x3
 13244 0cba 91       		.byte	0x91
 13245 0cbb 68       		.sleb128 -24
 13246 0cbc 9F       		.byte	0x9f
 13247 0cbd 00000000 		.4byte	0
 13248 0cc1 00000000 		.4byte	0
 13249              	.LLST74:
 13250 0cc5 08000000 		.4byte	.LVL117
 13251 0cc9 10000000 		.4byte	.LVL118
 13252 0ccd 0100     		.2byte	0x1
 13253 0ccf 50       		.byte	0x50
 13254 0cd0 10000000 		.4byte	.LVL118
 13255 0cd4 48000000 		.4byte	.LFE27
 13256 0cd8 0100     		.2byte	0x1
 13257 0cda 54       		.byte	0x54
 13258 0cdb 00000000 		.4byte	0
 13259 0cdf 00000000 		.4byte	0
 13260              	.LLST75:
 13261 0ce3 00000000 		.4byte	.LVL121
 13262 0ce7 28000000 		.4byte	.LVL123
 13263 0ceb 0100     		.2byte	0x1
 13264 0ced 50       		.byte	0x50
 13265 0cee 28000000 		.4byte	.LVL123
 13266 0cf2 D2000000 		.4byte	.LFE18
 13267 0cf6 0100     		.2byte	0x1
 13268 0cf8 54       		.byte	0x54
ARM GAS  /tmp/ccxMPRSl.s 			page 235


 13269 0cf9 00000000 		.4byte	0
 13270 0cfd 00000000 		.4byte	0
 13271              	.LLST76:
 13272 0d01 00000000 		.4byte	.LVL121
 13273 0d05 28000000 		.4byte	.LVL123
 13274 0d09 0100     		.2byte	0x1
 13275 0d0b 51       		.byte	0x51
 13276 0d0c 28000000 		.4byte	.LVL123
 13277 0d10 D2000000 		.4byte	.LFE18
 13278 0d14 0400     		.2byte	0x4
 13279 0d16 F3       		.byte	0xf3
 13280 0d17 01       		.uleb128 0x1
 13281 0d18 51       		.byte	0x51
 13282 0d19 9F       		.byte	0x9f
 13283 0d1a 00000000 		.4byte	0
 13284 0d1e 00000000 		.4byte	0
 13285              	.LLST77:
 13286 0d22 24000000 		.4byte	.LVL122
 13287 0d26 28000000 		.4byte	.LVL123
 13288 0d2a 0200     		.2byte	0x2
 13289 0d2c 30       		.byte	0x30
 13290 0d2d 9F       		.byte	0x9f
 13291 0d2e 7A000000 		.4byte	.LVL129
 13292 0d32 7C000000 		.4byte	.LVL130
 13293 0d36 0600     		.2byte	0x6
 13294 0d38 08       		.byte	0x8
 13295 0d39 81       		.byte	0x81
 13296 0d3a 77       		.byte	0x77
 13297 0d3b 00       		.sleb128 0
 13298 0d3c 1C       		.byte	0x1c
 13299 0d3d 9F       		.byte	0x9f
 13300 0d3e 7C000000 		.4byte	.LVL130
 13301 0d42 82000000 		.4byte	.LVL131
 13302 0d46 0600     		.2byte	0x6
 13303 0d48 08       		.byte	0x8
 13304 0d49 80       		.byte	0x80
 13305 0d4a 77       		.byte	0x77
 13306 0d4b 00       		.sleb128 0
 13307 0d4c 1C       		.byte	0x1c
 13308 0d4d 9F       		.byte	0x9f
 13309 0d4e 00000000 		.4byte	0
 13310 0d52 00000000 		.4byte	0
 13311              	.LLST78:
 13312 0d56 4A000000 		.4byte	.LVL127
 13313 0d5a 54000000 		.4byte	.LVL128
 13314 0d5e 0200     		.2byte	0x2
 13315 0d60 30       		.byte	0x30
 13316 0d61 9F       		.byte	0x9f
 13317 0d62 82000000 		.4byte	.LVL131
 13318 0d66 D2000000 		.4byte	.LFE18
 13319 0d6a 0100     		.2byte	0x1
 13320 0d6c 59       		.byte	0x59
 13321 0d6d 00000000 		.4byte	0
 13322 0d71 00000000 		.4byte	0
 13323              	.LLST79:
 13324 0d75 36000000 		.4byte	.LVL124
 13325 0d79 38000000 		.4byte	.LVL125
ARM GAS  /tmp/ccxMPRSl.s 			page 236


 13326 0d7d 0100     		.2byte	0x1
 13327 0d7f 50       		.byte	0x50
 13328 0d80 00000000 		.4byte	0
 13329 0d84 00000000 		.4byte	0
 13330              	.LLST80:
 13331 0d88 9C000000 		.4byte	.LVL132
 13332 0d8c A1000000 		.4byte	.LVL133-1
 13333 0d90 0100     		.2byte	0x1
 13334 0d92 53       		.byte	0x53
 13335 0d93 00000000 		.4byte	0
 13336 0d97 00000000 		.4byte	0
 13337              	.LLST81:
 13338 0d9b 00000000 		.4byte	.LVL138
 13339 0d9f 16000000 		.4byte	.LVL142
 13340 0da3 0100     		.2byte	0x1
 13341 0da5 50       		.byte	0x50
 13342 0da6 16000000 		.4byte	.LVL142
 13343 0daa 36000000 		.4byte	.LFE28
 13344 0dae 0400     		.2byte	0x4
 13345 0db0 F3       		.byte	0xf3
 13346 0db1 01       		.uleb128 0x1
 13347 0db2 50       		.byte	0x50
 13348 0db3 9F       		.byte	0x9f
 13349 0db4 00000000 		.4byte	0
 13350 0db8 00000000 		.4byte	0
 13351              	.LLST82:
 13352 0dbc 00000000 		.4byte	.LVL138
 13353 0dc0 0E000000 		.4byte	.LVL141
 13354 0dc4 0100     		.2byte	0x1
 13355 0dc6 51       		.byte	0x51
 13356 0dc7 0E000000 		.4byte	.LVL141
 13357 0dcb 36000000 		.4byte	.LFE28
 13358 0dcf 0400     		.2byte	0x4
 13359 0dd1 F3       		.byte	0xf3
 13360 0dd2 01       		.uleb128 0x1
 13361 0dd3 51       		.byte	0x51
 13362 0dd4 9F       		.byte	0x9f
 13363 0dd5 00000000 		.4byte	0
 13364 0dd9 00000000 		.4byte	0
 13365              	.LLST83:
 13366 0ddd 0A000000 		.4byte	.LVL140
 13367 0de1 1E000000 		.4byte	.LVL143
 13368 0de5 0300     		.2byte	0x3
 13369 0de7 91       		.byte	0x91
 13370 0de8 74       		.sleb128 -12
 13371 0de9 9F       		.byte	0x9f
 13372 0dea 1E000000 		.4byte	.LVL143
 13373 0dee 21000000 		.4byte	.LVL144-1
 13374 0df2 0100     		.2byte	0x1
 13375 0df4 53       		.byte	0x53
 13376 0df5 21000000 		.4byte	.LVL144-1
 13377 0df9 36000000 		.4byte	.LFE28
 13378 0dfd 0300     		.2byte	0x3
 13379 0dff 91       		.byte	0x91
 13380 0e00 74       		.sleb128 -12
 13381 0e01 9F       		.byte	0x9f
 13382 0e02 00000000 		.4byte	0
ARM GAS  /tmp/ccxMPRSl.s 			page 237


 13383 0e06 00000000 		.4byte	0
 13384              	.LLST84:
 13385 0e0a 04000000 		.4byte	.LVL139
 13386 0e0e 0E000000 		.4byte	.LVL141
 13387 0e12 0500     		.2byte	0x5
 13388 0e14 71       		.byte	0x71
 13389 0e15 14       		.sleb128 20
 13390 0e16 31       		.byte	0x31
 13391 0e17 24       		.byte	0x24
 13392 0e18 9F       		.byte	0x9f
 13393 0e19 0E000000 		.4byte	.LVL141
 13394 0e1d 36000000 		.4byte	.LFE28
 13395 0e21 0800     		.2byte	0x8
 13396 0e23 F3       		.byte	0xf3
 13397 0e24 01       		.uleb128 0x1
 13398 0e25 51       		.byte	0x51
 13399 0e26 23       		.byte	0x23
 13400 0e27 14       		.uleb128 0x14
 13401 0e28 31       		.byte	0x31
 13402 0e29 24       		.byte	0x24
 13403 0e2a 9F       		.byte	0x9f
 13404 0e2b 00000000 		.4byte	0
 13405 0e2f 00000000 		.4byte	0
 13406              	.LLST85:
 13407 0e33 04000000 		.4byte	.LVL139
 13408 0e37 16000000 		.4byte	.LVL142
 13409 0e3b 0100     		.2byte	0x1
 13410 0e3d 50       		.byte	0x50
 13411 0e3e 16000000 		.4byte	.LVL142
 13412 0e42 36000000 		.4byte	.LFE28
 13413 0e46 0400     		.2byte	0x4
 13414 0e48 F3       		.byte	0xf3
 13415 0e49 01       		.uleb128 0x1
 13416 0e4a 50       		.byte	0x50
 13417 0e4b 9F       		.byte	0x9f
 13418 0e4c 00000000 		.4byte	0
 13419 0e50 00000000 		.4byte	0
 13420              	.LLST86:
 13421 0e54 00000000 		.4byte	.LVL145
 13422 0e58 10000000 		.4byte	.LVL147
 13423 0e5c 0100     		.2byte	0x1
 13424 0e5e 50       		.byte	0x50
 13425 0e5f 10000000 		.4byte	.LVL147
 13426 0e63 2C000000 		.4byte	.LFE29
 13427 0e67 0100     		.2byte	0x1
 13428 0e69 54       		.byte	0x54
 13429 0e6a 00000000 		.4byte	0
 13430 0e6e 00000000 		.4byte	0
 13431              	.LLST87:
 13432 0e72 08000000 		.4byte	.LVL146
 13433 0e76 16000000 		.4byte	.LVL148
 13434 0e7a 0300     		.2byte	0x3
 13435 0e7c 91       		.byte	0x91
 13436 0e7d 74       		.sleb128 -12
 13437 0e7e 9F       		.byte	0x9f
 13438 0e7f 16000000 		.4byte	.LVL148
 13439 0e83 19000000 		.4byte	.LVL149-1
ARM GAS  /tmp/ccxMPRSl.s 			page 238


 13440 0e87 0100     		.2byte	0x1
 13441 0e89 53       		.byte	0x53
 13442 0e8a 19000000 		.4byte	.LVL149-1
 13443 0e8e 2C000000 		.4byte	.LFE29
 13444 0e92 0300     		.2byte	0x3
 13445 0e94 91       		.byte	0x91
 13446 0e95 74       		.sleb128 -12
 13447 0e96 9F       		.byte	0x9f
 13448 0e97 00000000 		.4byte	0
 13449 0e9b 00000000 		.4byte	0
 13450              	.LLST88:
 13451 0e9f 08000000 		.4byte	.LVL146
 13452 0ea3 10000000 		.4byte	.LVL147
 13453 0ea7 0100     		.2byte	0x1
 13454 0ea9 50       		.byte	0x50
 13455 0eaa 10000000 		.4byte	.LVL147
 13456 0eae 2C000000 		.4byte	.LFE29
 13457 0eb2 0100     		.2byte	0x1
 13458 0eb4 54       		.byte	0x54
 13459 0eb5 00000000 		.4byte	0
 13460 0eb9 00000000 		.4byte	0
 13461              	.LLST89:
 13462 0ebd 00000000 		.4byte	.LVL150
 13463 0ec1 10000000 		.4byte	.LVL152
 13464 0ec5 0100     		.2byte	0x1
 13465 0ec7 50       		.byte	0x50
 13466 0ec8 10000000 		.4byte	.LVL152
 13467 0ecc 66000000 		.4byte	.LFE30
 13468 0ed0 0100     		.2byte	0x1
 13469 0ed2 54       		.byte	0x54
 13470 0ed3 00000000 		.4byte	0
 13471 0ed7 00000000 		.4byte	0
 13472              	.LLST90:
 13473 0edb 08000000 		.4byte	.LVL151
 13474 0edf 16000000 		.4byte	.LVL153
 13475 0ee3 0300     		.2byte	0x3
 13476 0ee5 91       		.byte	0x91
 13477 0ee6 60       		.sleb128 -32
 13478 0ee7 9F       		.byte	0x9f
 13479 0ee8 16000000 		.4byte	.LVL153
 13480 0eec 19000000 		.4byte	.LVL154-1
 13481 0ef0 0100     		.2byte	0x1
 13482 0ef2 53       		.byte	0x53
 13483 0ef3 19000000 		.4byte	.LVL154-1
 13484 0ef7 66000000 		.4byte	.LFE30
 13485 0efb 0300     		.2byte	0x3
 13486 0efd 91       		.byte	0x91
 13487 0efe 60       		.sleb128 -32
 13488 0eff 9F       		.byte	0x9f
 13489 0f00 00000000 		.4byte	0
 13490 0f04 00000000 		.4byte	0
 13491              	.LLST91:
 13492 0f08 08000000 		.4byte	.LVL151
 13493 0f0c 10000000 		.4byte	.LVL152
 13494 0f10 0100     		.2byte	0x1
 13495 0f12 50       		.byte	0x50
 13496 0f13 10000000 		.4byte	.LVL152
ARM GAS  /tmp/ccxMPRSl.s 			page 239


 13497 0f17 66000000 		.4byte	.LFE30
 13498 0f1b 0100     		.2byte	0x1
 13499 0f1d 54       		.byte	0x54
 13500 0f1e 00000000 		.4byte	0
 13501 0f22 00000000 		.4byte	0
 13502              	.LLST92:
 13503 0f26 00000000 		.4byte	.LVL155
 13504 0f2a 12000000 		.4byte	.LVL157
 13505 0f2e 0100     		.2byte	0x1
 13506 0f30 50       		.byte	0x50
 13507 0f31 12000000 		.4byte	.LVL157
 13508 0f35 46000000 		.4byte	.LFE31
 13509 0f39 0100     		.2byte	0x1
 13510 0f3b 54       		.byte	0x54
 13511 0f3c 00000000 		.4byte	0
 13512 0f40 00000000 		.4byte	0
 13513              	.LLST93:
 13514 0f44 00000000 		.4byte	.LVL155
 13515 0f48 1C000000 		.4byte	.LVL158
 13516 0f4c 0100     		.2byte	0x1
 13517 0f4e 51       		.byte	0x51
 13518 0f4f 1C000000 		.4byte	.LVL158
 13519 0f53 46000000 		.4byte	.LFE31
 13520 0f57 0400     		.2byte	0x4
 13521 0f59 F3       		.byte	0xf3
 13522 0f5a 01       		.uleb128 0x1
 13523 0f5b 51       		.byte	0x51
 13524 0f5c 9F       		.byte	0x9f
 13525 0f5d 00000000 		.4byte	0
 13526 0f61 00000000 		.4byte	0
 13527              	.LLST94:
 13528 0f65 34000000 		.4byte	.LVL161
 13529 0f69 3E000000 		.4byte	.LVL163
 13530 0f6d 0100     		.2byte	0x1
 13531 0f6f 50       		.byte	0x50
 13532 0f70 3E000000 		.4byte	.LVL163
 13533 0f74 40000000 		.4byte	.LVL164
 13534 0f78 0D00     		.2byte	0xd
 13535 0f7a 91       		.byte	0x91
 13536 0f7b 6D       		.sleb128 -19
 13537 0f7c 94       		.byte	0x94
 13538 0f7d 01       		.byte	0x1
 13539 0f7e 08       		.byte	0x8
 13540 0f7f FF       		.byte	0xff
 13541 0f80 1A       		.byte	0x1a
 13542 0f81 38       		.byte	0x38
 13543 0f82 24       		.byte	0x24
 13544 0f83 72       		.byte	0x72
 13545 0f84 00       		.sleb128 0
 13546 0f85 21       		.byte	0x21
 13547 0f86 9F       		.byte	0x9f
 13548 0f87 40000000 		.4byte	.LVL164
 13549 0f8b 42000000 		.4byte	.LVL165
 13550 0f8f 0100     		.2byte	0x1
 13551 0f91 50       		.byte	0x50
 13552 0f92 00000000 		.4byte	0
 13553 0f96 00000000 		.4byte	0
ARM GAS  /tmp/ccxMPRSl.s 			page 240


 13554              	.LLST95:
 13555 0f9a 0A000000 		.4byte	.LVL156
 13556 0f9e 20000000 		.4byte	.LVL159
 13557 0fa2 0300     		.2byte	0x3
 13558 0fa4 91       		.byte	0x91
 13559 0fa5 6C       		.sleb128 -20
 13560 0fa6 9F       		.byte	0x9f
 13561 0fa7 20000000 		.4byte	.LVL159
 13562 0fab 23000000 		.4byte	.LVL160-1
 13563 0faf 0100     		.2byte	0x1
 13564 0fb1 53       		.byte	0x53
 13565 0fb2 23000000 		.4byte	.LVL160-1
 13566 0fb6 46000000 		.4byte	.LFE31
 13567 0fba 0300     		.2byte	0x3
 13568 0fbc 91       		.byte	0x91
 13569 0fbd 6C       		.sleb128 -20
 13570 0fbe 9F       		.byte	0x9f
 13571 0fbf 00000000 		.4byte	0
 13572 0fc3 00000000 		.4byte	0
 13573              	.LLST96:
 13574 0fc7 0A000000 		.4byte	.LVL156
 13575 0fcb 1C000000 		.4byte	.LVL158
 13576 0fcf 0500     		.2byte	0x5
 13577 0fd1 71       		.byte	0x71
 13578 0fd2 0C       		.sleb128 12
 13579 0fd3 31       		.byte	0x31
 13580 0fd4 24       		.byte	0x24
 13581 0fd5 9F       		.byte	0x9f
 13582 0fd6 1C000000 		.4byte	.LVL158
 13583 0fda 38000000 		.4byte	.LVL162
 13584 0fde 0500     		.2byte	0x5
 13585 0fe0 75       		.byte	0x75
 13586 0fe1 0C       		.sleb128 12
 13587 0fe2 31       		.byte	0x31
 13588 0fe3 24       		.byte	0x24
 13589 0fe4 9F       		.byte	0x9f
 13590 0fe5 38000000 		.4byte	.LVL162
 13591 0fe9 40000000 		.4byte	.LVL164
 13592 0fed 0500     		.2byte	0x5
 13593 0fef 75       		.byte	0x75
 13594 0ff0 5C       		.sleb128 -36
 13595 0ff1 31       		.byte	0x31
 13596 0ff2 24       		.byte	0x24
 13597 0ff3 9F       		.byte	0x9f
 13598 0ff4 00000000 		.4byte	0
 13599 0ff8 00000000 		.4byte	0
 13600              	.LLST97:
 13601 0ffc 0A000000 		.4byte	.LVL156
 13602 1000 12000000 		.4byte	.LVL157
 13603 1004 0100     		.2byte	0x1
 13604 1006 50       		.byte	0x50
 13605 1007 12000000 		.4byte	.LVL157
 13606 100b 46000000 		.4byte	.LFE31
 13607 100f 0100     		.2byte	0x1
 13608 1011 54       		.byte	0x54
 13609 1012 00000000 		.4byte	0
 13610 1016 00000000 		.4byte	0
ARM GAS  /tmp/ccxMPRSl.s 			page 241


 13611              	.LLST98:
 13612 101a 00000000 		.4byte	.LVL166
 13613 101e 06000000 		.4byte	.LVL167
 13614 1022 0100     		.2byte	0x1
 13615 1024 50       		.byte	0x50
 13616 1025 06000000 		.4byte	.LVL167
 13617 1029 12000000 		.4byte	.LFE32
 13618 102d 0100     		.2byte	0x1
 13619 102f 54       		.byte	0x54
 13620 1030 00000000 		.4byte	0
 13621 1034 00000000 		.4byte	0
 13622              	.LLST99:
 13623 1038 00000000 		.4byte	.LVL166
 13624 103c 09000000 		.4byte	.LVL168-1
 13625 1040 0100     		.2byte	0x1
 13626 1042 51       		.byte	0x51
 13627 1043 09000000 		.4byte	.LVL168-1
 13628 1047 12000000 		.4byte	.LFE32
 13629 104b 0400     		.2byte	0x4
 13630 104d F3       		.byte	0xf3
 13631 104e 01       		.uleb128 0x1
 13632 104f 51       		.byte	0x51
 13633 1050 9F       		.byte	0x9f
 13634 1051 00000000 		.4byte	0
 13635 1055 00000000 		.4byte	0
 13636              	.LLST100:
 13637 1059 00000000 		.4byte	.LVL170
 13638 105d 06000000 		.4byte	.LVL171
 13639 1061 0100     		.2byte	0x1
 13640 1063 50       		.byte	0x50
 13641 1064 06000000 		.4byte	.LVL171
 13642 1068 12000000 		.4byte	.LFE33
 13643 106c 0100     		.2byte	0x1
 13644 106e 54       		.byte	0x54
 13645 106f 00000000 		.4byte	0
 13646 1073 00000000 		.4byte	0
 13647              	.LLST101:
 13648 1077 00000000 		.4byte	.LVL170
 13649 107b 09000000 		.4byte	.LVL172-1
 13650 107f 0100     		.2byte	0x1
 13651 1081 51       		.byte	0x51
 13652 1082 09000000 		.4byte	.LVL172-1
 13653 1086 12000000 		.4byte	.LFE33
 13654 108a 0400     		.2byte	0x4
 13655 108c F3       		.byte	0xf3
 13656 108d 01       		.uleb128 0x1
 13657 108e 51       		.byte	0x51
 13658 108f 9F       		.byte	0x9f
 13659 1090 00000000 		.4byte	0
 13660 1094 00000000 		.4byte	0
 13661              	.LLST102:
 13662 1098 00000000 		.4byte	.LVL174
 13663 109c 06000000 		.4byte	.LVL175
 13664 10a0 0100     		.2byte	0x1
 13665 10a2 50       		.byte	0x50
 13666 10a3 06000000 		.4byte	.LVL175
 13667 10a7 12000000 		.4byte	.LFE34
ARM GAS  /tmp/ccxMPRSl.s 			page 242


 13668 10ab 0100     		.2byte	0x1
 13669 10ad 54       		.byte	0x54
 13670 10ae 00000000 		.4byte	0
 13671 10b2 00000000 		.4byte	0
 13672              	.LLST103:
 13673 10b6 00000000 		.4byte	.LVL174
 13674 10ba 09000000 		.4byte	.LVL176-1
 13675 10be 0100     		.2byte	0x1
 13676 10c0 51       		.byte	0x51
 13677 10c1 09000000 		.4byte	.LVL176-1
 13678 10c5 12000000 		.4byte	.LFE34
 13679 10c9 0400     		.2byte	0x4
 13680 10cb F3       		.byte	0xf3
 13681 10cc 01       		.uleb128 0x1
 13682 10cd 51       		.byte	0x51
 13683 10ce 9F       		.byte	0x9f
 13684 10cf 00000000 		.4byte	0
 13685 10d3 00000000 		.4byte	0
 13686              	.LLST104:
 13687 10d7 00000000 		.4byte	.LVL178
 13688 10db 0A000000 		.4byte	.LVL180
 13689 10df 0100     		.2byte	0x1
 13690 10e1 50       		.byte	0x50
 13691 10e2 0A000000 		.4byte	.LVL180
 13692 10e6 5A000000 		.4byte	.LFE35
 13693 10ea 0100     		.2byte	0x1
 13694 10ec 54       		.byte	0x54
 13695 10ed 00000000 		.4byte	0
 13696 10f1 00000000 		.4byte	0
 13697              	.LLST105:
 13698 10f5 00000000 		.4byte	.LVL178
 13699 10f9 0E000000 		.4byte	.LVL181
 13700 10fd 0100     		.2byte	0x1
 13701 10ff 51       		.byte	0x51
 13702 1100 0E000000 		.4byte	.LVL181
 13703 1104 5A000000 		.4byte	.LFE35
 13704 1108 0400     		.2byte	0x4
 13705 110a F3       		.byte	0xf3
 13706 110b 01       		.uleb128 0x1
 13707 110c 51       		.byte	0x51
 13708 110d 9F       		.byte	0x9f
 13709 110e 00000000 		.4byte	0
 13710 1112 00000000 		.4byte	0
 13711              	.LLST106:
 13712 1116 14000000 		.4byte	.LVL182
 13713 111a 1C000000 		.4byte	.LVL183
 13714 111e 0100     		.2byte	0x1
 13715 1120 50       		.byte	0x50
 13716 1121 1C000000 		.4byte	.LVL183
 13717 1125 39000000 		.4byte	.LVL186-1
 13718 1129 0100     		.2byte	0x1
 13719 112b 53       		.byte	0x53
 13720 112c 4C000000 		.4byte	.LVL189
 13721 1130 5A000000 		.4byte	.LFE35
 13722 1134 0100     		.2byte	0x1
 13723 1136 53       		.byte	0x53
 13724 1137 00000000 		.4byte	0
ARM GAS  /tmp/ccxMPRSl.s 			page 243


 13725 113b 00000000 		.4byte	0
 13726              	.LLST107:
 13727 113f 04000000 		.4byte	.LVL179
 13728 1143 0A000000 		.4byte	.LVL180
 13729 1147 0100     		.2byte	0x1
 13730 1149 50       		.byte	0x50
 13731 114a 0A000000 		.4byte	.LVL180
 13732 114e 5A000000 		.4byte	.LFE35
 13733 1152 0100     		.2byte	0x1
 13734 1154 54       		.byte	0x54
 13735 1155 00000000 		.4byte	0
 13736 1159 00000000 		.4byte	0
 13737              	.LLST108:
 13738 115d 2C000000 		.4byte	.LVL185
 13739 1161 39000000 		.4byte	.LVL186-1
 13740 1165 0100     		.2byte	0x1
 13741 1167 53       		.byte	0x53
 13742 1168 00000000 		.4byte	0
 13743 116c 00000000 		.4byte	0
 13744              	.LLST109:
 13745 1170 2C000000 		.4byte	.LVL185
 13746 1174 4C000000 		.4byte	.LVL189
 13747 1178 0200     		.2byte	0x2
 13748 117a 40       		.byte	0x40
 13749 117b 9F       		.byte	0x9f
 13750 117c 00000000 		.4byte	0
 13751 1180 00000000 		.4byte	0
 13752              	.LLST110:
 13753 1184 2C000000 		.4byte	.LVL185
 13754 1188 4C000000 		.4byte	.LVL189
 13755 118c 0100     		.2byte	0x1
 13756 118e 54       		.byte	0x54
 13757 118f 00000000 		.4byte	0
 13758 1193 00000000 		.4byte	0
 13759              	.LLST111:
 13760 1197 3A000000 		.4byte	.LVL186
 13761 119b 4C000000 		.4byte	.LVL189
 13762 119f 0100     		.2byte	0x1
 13763 11a1 54       		.byte	0x54
 13764 11a2 00000000 		.4byte	0
 13765 11a6 00000000 		.4byte	0
 13766              	.LLST112:
 13767 11aa 00000000 		.4byte	.LVL191
 13768 11ae 0A000000 		.4byte	.LVL193
 13769 11b2 0100     		.2byte	0x1
 13770 11b4 50       		.byte	0x50
 13771 11b5 0A000000 		.4byte	.LVL193
 13772 11b9 60000000 		.4byte	.LFE36
 13773 11bd 0100     		.2byte	0x1
 13774 11bf 54       		.byte	0x54
 13775 11c0 00000000 		.4byte	0
 13776 11c4 00000000 		.4byte	0
 13777              	.LLST113:
 13778 11c8 00000000 		.4byte	.LVL191
 13779 11cc 0E000000 		.4byte	.LVL194
 13780 11d0 0100     		.2byte	0x1
 13781 11d2 51       		.byte	0x51
ARM GAS  /tmp/ccxMPRSl.s 			page 244


 13782 11d3 0E000000 		.4byte	.LVL194
 13783 11d7 60000000 		.4byte	.LFE36
 13784 11db 0400     		.2byte	0x4
 13785 11dd F3       		.byte	0xf3
 13786 11de 01       		.uleb128 0x1
 13787 11df 51       		.byte	0x51
 13788 11e0 9F       		.byte	0x9f
 13789 11e1 00000000 		.4byte	0
 13790 11e5 00000000 		.4byte	0
 13791              	.LLST114:
 13792 11e9 14000000 		.4byte	.LVL195
 13793 11ed 1A000000 		.4byte	.LVL196
 13794 11f1 0100     		.2byte	0x1
 13795 11f3 50       		.byte	0x50
 13796 11f4 1A000000 		.4byte	.LVL196
 13797 11f8 3D000000 		.4byte	.LVL199-1
 13798 11fc 0100     		.2byte	0x1
 13799 11fe 53       		.byte	0x53
 13800 11ff 50000000 		.4byte	.LVL202
 13801 1203 60000000 		.4byte	.LFE36
 13802 1207 0100     		.2byte	0x1
 13803 1209 53       		.byte	0x53
 13804 120a 00000000 		.4byte	0
 13805 120e 00000000 		.4byte	0
 13806              	.LLST115:
 13807 1212 04000000 		.4byte	.LVL192
 13808 1216 0A000000 		.4byte	.LVL193
 13809 121a 0100     		.2byte	0x1
 13810 121c 50       		.byte	0x50
 13811 121d 0A000000 		.4byte	.LVL193
 13812 1221 60000000 		.4byte	.LFE36
 13813 1225 0100     		.2byte	0x1
 13814 1227 54       		.byte	0x54
 13815 1228 00000000 		.4byte	0
 13816 122c 00000000 		.4byte	0
 13817              	.LLST116:
 13818 1230 30000000 		.4byte	.LVL198
 13819 1234 3D000000 		.4byte	.LVL199-1
 13820 1238 0100     		.2byte	0x1
 13821 123a 53       		.byte	0x53
 13822 123b 00000000 		.4byte	0
 13823 123f 00000000 		.4byte	0
 13824              	.LLST117:
 13825 1243 30000000 		.4byte	.LVL198
 13826 1247 50000000 		.4byte	.LVL202
 13827 124b 0300     		.2byte	0x3
 13828 124d 08       		.byte	0x8
 13829 124e 20       		.byte	0x20
 13830 124f 9F       		.byte	0x9f
 13831 1250 00000000 		.4byte	0
 13832 1254 00000000 		.4byte	0
 13833              	.LLST118:
 13834 1258 30000000 		.4byte	.LVL198
 13835 125c 50000000 		.4byte	.LVL202
 13836 1260 0100     		.2byte	0x1
 13837 1262 54       		.byte	0x54
 13838 1263 00000000 		.4byte	0
ARM GAS  /tmp/ccxMPRSl.s 			page 245


 13839 1267 00000000 		.4byte	0
 13840              	.LLST119:
 13841 126b 3E000000 		.4byte	.LVL199
 13842 126f 50000000 		.4byte	.LVL202
 13843 1273 0100     		.2byte	0x1
 13844 1275 54       		.byte	0x54
 13845 1276 00000000 		.4byte	0
 13846 127a 00000000 		.4byte	0
 13847              	.LLST120:
 13848 127e 00000000 		.4byte	.LVL205
 13849 1282 18000000 		.4byte	.LVL208
 13850 1286 0100     		.2byte	0x1
 13851 1288 50       		.byte	0x50
 13852 1289 18000000 		.4byte	.LVL208
 13853 128d 36000000 		.4byte	.LVL214
 13854 1291 0100     		.2byte	0x1
 13855 1293 55       		.byte	0x55
 13856 1294 36000000 		.4byte	.LVL214
 13857 1298 3A000000 		.4byte	.LFE38
 13858 129c 0400     		.2byte	0x4
 13859 129e F3       		.byte	0xf3
 13860 129f 01       		.uleb128 0x1
 13861 12a0 50       		.byte	0x50
 13862 12a1 9F       		.byte	0x9f
 13863 12a2 00000000 		.4byte	0
 13864 12a6 00000000 		.4byte	0
 13865              	.LLST121:
 13866 12aa 00000000 		.4byte	.LVL205
 13867 12ae 12000000 		.4byte	.LVL207
 13868 12b2 0100     		.2byte	0x1
 13869 12b4 51       		.byte	0x51
 13870 12b5 12000000 		.4byte	.LVL207
 13871 12b9 3A000000 		.4byte	.LFE38
 13872 12bd 0400     		.2byte	0x4
 13873 12bf F3       		.byte	0xf3
 13874 12c0 01       		.uleb128 0x1
 13875 12c1 51       		.byte	0x51
 13876 12c2 9F       		.byte	0x9f
 13877 12c3 00000000 		.4byte	0
 13878 12c7 00000000 		.4byte	0
 13879              	.LLST122:
 13880 12cb 1C000000 		.4byte	.LVL209
 13881 12cf 20000000 		.4byte	.LVL210
 13882 12d3 0500     		.2byte	0x5
 13883 12d5 70       		.byte	0x70
 13884 12d6 00       		.sleb128 0
 13885 12d7 4F       		.byte	0x4f
 13886 12d8 1A       		.byte	0x1a
 13887 12d9 9F       		.byte	0x9f
 13888 12da 24000000 		.4byte	.LVL211
 13889 12de 30000000 		.4byte	.LVL213
 13890 12e2 0100     		.2byte	0x1
 13891 12e4 53       		.byte	0x53
 13892 12e5 00000000 		.4byte	0
 13893 12e9 00000000 		.4byte	0
 13894              	.LLST123:
 13895 12ed 0E000000 		.4byte	.LVL206
ARM GAS  /tmp/ccxMPRSl.s 			page 246


 13896 12f1 18000000 		.4byte	.LVL208
 13897 12f5 0100     		.2byte	0x1
 13898 12f7 50       		.byte	0x50
 13899 12f8 18000000 		.4byte	.LVL208
 13900 12fc 36000000 		.4byte	.LVL214
 13901 1300 0100     		.2byte	0x1
 13902 1302 55       		.byte	0x55
 13903 1303 36000000 		.4byte	.LVL214
 13904 1307 3A000000 		.4byte	.LFE38
 13905 130b 0400     		.2byte	0x4
 13906 130d F3       		.byte	0xf3
 13907 130e 01       		.uleb128 0x1
 13908 130f 50       		.byte	0x50
 13909 1310 9F       		.byte	0x9f
 13910 1311 00000000 		.4byte	0
 13911 1315 00000000 		.4byte	0
 13912              	.LLST124:
 13913 1319 26000000 		.4byte	.LVL212
 13914 131d 30000000 		.4byte	.LVL213
 13915 1321 0100     		.2byte	0x1
 13916 1323 53       		.byte	0x53
 13917 1324 00000000 		.4byte	0
 13918 1328 00000000 		.4byte	0
 13919              	.LLST125:
 13920 132c 26000000 		.4byte	.LVL212
 13921 1330 36000000 		.4byte	.LVL214
 13922 1334 0100     		.2byte	0x1
 13923 1336 55       		.byte	0x55
 13924 1337 36000000 		.4byte	.LVL214
 13925 133b 3A000000 		.4byte	.LFE38
 13926 133f 0400     		.2byte	0x4
 13927 1341 F3       		.byte	0xf3
 13928 1342 01       		.uleb128 0x1
 13929 1343 50       		.byte	0x50
 13930 1344 9F       		.byte	0x9f
 13931 1345 00000000 		.4byte	0
 13932 1349 00000000 		.4byte	0
 13933              	.LLST126:
 13934 134d 00000000 		.4byte	.LVL216
 13935 1351 18000000 		.4byte	.LVL219
 13936 1355 0100     		.2byte	0x1
 13937 1357 50       		.byte	0x50
 13938 1358 18000000 		.4byte	.LVL219
 13939 135c 36000000 		.4byte	.LVL225
 13940 1360 0100     		.2byte	0x1
 13941 1362 55       		.byte	0x55
 13942 1363 36000000 		.4byte	.LVL225
 13943 1367 3A000000 		.4byte	.LFE39
 13944 136b 0400     		.2byte	0x4
 13945 136d F3       		.byte	0xf3
 13946 136e 01       		.uleb128 0x1
 13947 136f 50       		.byte	0x50
 13948 1370 9F       		.byte	0x9f
 13949 1371 00000000 		.4byte	0
 13950 1375 00000000 		.4byte	0
 13951              	.LLST127:
 13952 1379 00000000 		.4byte	.LVL216
ARM GAS  /tmp/ccxMPRSl.s 			page 247


 13953 137d 12000000 		.4byte	.LVL218
 13954 1381 0100     		.2byte	0x1
 13955 1383 51       		.byte	0x51
 13956 1384 12000000 		.4byte	.LVL218
 13957 1388 3A000000 		.4byte	.LFE39
 13958 138c 0400     		.2byte	0x4
 13959 138e F3       		.byte	0xf3
 13960 138f 01       		.uleb128 0x1
 13961 1390 51       		.byte	0x51
 13962 1391 9F       		.byte	0x9f
 13963 1392 00000000 		.4byte	0
 13964 1396 00000000 		.4byte	0
 13965              	.LLST128:
 13966 139a 1C000000 		.4byte	.LVL220
 13967 139e 20000000 		.4byte	.LVL221
 13968 13a2 0500     		.2byte	0x5
 13969 13a4 70       		.byte	0x70
 13970 13a5 00       		.sleb128 0
 13971 13a6 4F       		.byte	0x4f
 13972 13a7 1A       		.byte	0x1a
 13973 13a8 9F       		.byte	0x9f
 13974 13a9 24000000 		.4byte	.LVL222
 13975 13ad 30000000 		.4byte	.LVL224
 13976 13b1 0100     		.2byte	0x1
 13977 13b3 53       		.byte	0x53
 13978 13b4 00000000 		.4byte	0
 13979 13b8 00000000 		.4byte	0
 13980              	.LLST129:
 13981 13bc 0E000000 		.4byte	.LVL217
 13982 13c0 18000000 		.4byte	.LVL219
 13983 13c4 0100     		.2byte	0x1
 13984 13c6 50       		.byte	0x50
 13985 13c7 18000000 		.4byte	.LVL219
 13986 13cb 36000000 		.4byte	.LVL225
 13987 13cf 0100     		.2byte	0x1
 13988 13d1 55       		.byte	0x55
 13989 13d2 36000000 		.4byte	.LVL225
 13990 13d6 3A000000 		.4byte	.LFE39
 13991 13da 0400     		.2byte	0x4
 13992 13dc F3       		.byte	0xf3
 13993 13dd 01       		.uleb128 0x1
 13994 13de 50       		.byte	0x50
 13995 13df 9F       		.byte	0x9f
 13996 13e0 00000000 		.4byte	0
 13997 13e4 00000000 		.4byte	0
 13998              	.LLST130:
 13999 13e8 26000000 		.4byte	.LVL223
 14000 13ec 30000000 		.4byte	.LVL224
 14001 13f0 0100     		.2byte	0x1
 14002 13f2 53       		.byte	0x53
 14003 13f3 00000000 		.4byte	0
 14004 13f7 00000000 		.4byte	0
 14005              	.LLST131:
 14006 13fb 26000000 		.4byte	.LVL223
 14007 13ff 36000000 		.4byte	.LVL225
 14008 1403 0100     		.2byte	0x1
 14009 1405 55       		.byte	0x55
ARM GAS  /tmp/ccxMPRSl.s 			page 248


 14010 1406 36000000 		.4byte	.LVL225
 14011 140a 3A000000 		.4byte	.LFE39
 14012 140e 0400     		.2byte	0x4
 14013 1410 F3       		.byte	0xf3
 14014 1411 01       		.uleb128 0x1
 14015 1412 50       		.byte	0x50
 14016 1413 9F       		.byte	0x9f
 14017 1414 00000000 		.4byte	0
 14018 1418 00000000 		.4byte	0
 14019              	.LLST132:
 14020 141c 00000000 		.4byte	.LVL227
 14021 1420 10000000 		.4byte	.LVL230
 14022 1424 0100     		.2byte	0x1
 14023 1426 50       		.byte	0x50
 14024 1427 10000000 		.4byte	.LVL230
 14025 142b 34000000 		.4byte	.LVL236
 14026 142f 0100     		.2byte	0x1
 14027 1431 54       		.byte	0x54
 14028 1432 34000000 		.4byte	.LVL236
 14029 1436 38000000 		.4byte	.LFE40
 14030 143a 0400     		.2byte	0x4
 14031 143c F3       		.byte	0xf3
 14032 143d 01       		.uleb128 0x1
 14033 143e 50       		.byte	0x50
 14034 143f 9F       		.byte	0x9f
 14035 1440 00000000 		.4byte	0
 14036 1444 00000000 		.4byte	0
 14037              	.LLST133:
 14038 1448 00000000 		.4byte	.LVL227
 14039 144c 0C000000 		.4byte	.LVL229
 14040 1450 0100     		.2byte	0x1
 14041 1452 51       		.byte	0x51
 14042 1453 0C000000 		.4byte	.LVL229
 14043 1457 38000000 		.4byte	.LFE40
 14044 145b 0400     		.2byte	0x4
 14045 145d F3       		.byte	0xf3
 14046 145e 01       		.uleb128 0x1
 14047 145f 51       		.byte	0x51
 14048 1460 9F       		.byte	0x9f
 14049 1461 00000000 		.4byte	0
 14050 1465 00000000 		.4byte	0
 14051              	.LLST134:
 14052 1469 14000000 		.4byte	.LVL231
 14053 146d 1C000000 		.4byte	.LVL232
 14054 1471 0600     		.2byte	0x6
 14055 1473 70       		.byte	0x70
 14056 1474 00       		.sleb128 0
 14057 1475 09       		.byte	0x9
 14058 1476 E3       		.byte	0xe3
 14059 1477 1A       		.byte	0x1a
 14060 1478 9F       		.byte	0x9f
 14061 1479 20000000 		.4byte	.LVL233
 14062 147d 2E000000 		.4byte	.LVL235
 14063 1481 0100     		.2byte	0x1
 14064 1483 53       		.byte	0x53
 14065 1484 00000000 		.4byte	0
 14066 1488 00000000 		.4byte	0
ARM GAS  /tmp/ccxMPRSl.s 			page 249


 14067              	.LLST135:
 14068 148c 04000000 		.4byte	.LVL228
 14069 1490 10000000 		.4byte	.LVL230
 14070 1494 0100     		.2byte	0x1
 14071 1496 50       		.byte	0x50
 14072 1497 10000000 		.4byte	.LVL230
 14073 149b 34000000 		.4byte	.LVL236
 14074 149f 0100     		.2byte	0x1
 14075 14a1 54       		.byte	0x54
 14076 14a2 34000000 		.4byte	.LVL236
 14077 14a6 38000000 		.4byte	.LFE40
 14078 14aa 0400     		.2byte	0x4
 14079 14ac F3       		.byte	0xf3
 14080 14ad 01       		.uleb128 0x1
 14081 14ae 50       		.byte	0x50
 14082 14af 9F       		.byte	0x9f
 14083 14b0 00000000 		.4byte	0
 14084 14b4 00000000 		.4byte	0
 14085              	.LLST136:
 14086 14b8 24000000 		.4byte	.LVL234
 14087 14bc 2E000000 		.4byte	.LVL235
 14088 14c0 0100     		.2byte	0x1
 14089 14c2 53       		.byte	0x53
 14090 14c3 00000000 		.4byte	0
 14091 14c7 00000000 		.4byte	0
 14092              	.LLST137:
 14093 14cb 24000000 		.4byte	.LVL234
 14094 14cf 34000000 		.4byte	.LVL236
 14095 14d3 0100     		.2byte	0x1
 14096 14d5 54       		.byte	0x54
 14097 14d6 34000000 		.4byte	.LVL236
 14098 14da 38000000 		.4byte	.LFE40
 14099 14de 0400     		.2byte	0x4
 14100 14e0 F3       		.byte	0xf3
 14101 14e1 01       		.uleb128 0x1
 14102 14e2 50       		.byte	0x50
 14103 14e3 9F       		.byte	0x9f
 14104 14e4 00000000 		.4byte	0
 14105 14e8 00000000 		.4byte	0
 14106              	.LLST138:
 14107 14ec 00000000 		.4byte	.LVL238
 14108 14f0 06000000 		.4byte	.LVL239
 14109 14f4 0100     		.2byte	0x1
 14110 14f6 50       		.byte	0x50
 14111 14f7 06000000 		.4byte	.LVL239
 14112 14fb 16000000 		.4byte	.LFE41
 14113 14ff 0100     		.2byte	0x1
 14114 1501 54       		.byte	0x54
 14115 1502 00000000 		.4byte	0
 14116 1506 00000000 		.4byte	0
 14117              	.LLST139:
 14118 150a 00000000 		.4byte	.LVL242
 14119 150e 06000000 		.4byte	.LVL243
 14120 1512 0100     		.2byte	0x1
 14121 1514 50       		.byte	0x50
 14122 1515 06000000 		.4byte	.LVL243
 14123 1519 16000000 		.4byte	.LFE42
ARM GAS  /tmp/ccxMPRSl.s 			page 250


 14124 151d 0100     		.2byte	0x1
 14125 151f 54       		.byte	0x54
 14126 1520 00000000 		.4byte	0
 14127 1524 00000000 		.4byte	0
 14128              	.LLST140:
 14129 1528 00000000 		.4byte	.LVL247
 14130 152c 0A000000 		.4byte	.LVL249
 14131 1530 0100     		.2byte	0x1
 14132 1532 50       		.byte	0x50
 14133 1533 0A000000 		.4byte	.LVL249
 14134 1537 48000000 		.4byte	.LVL256
 14135 153b 0100     		.2byte	0x1
 14136 153d 54       		.byte	0x54
 14137 153e 48000000 		.4byte	.LVL256
 14138 1542 4B000000 		.4byte	.LVL257-1
 14139 1546 0100     		.2byte	0x1
 14140 1548 50       		.byte	0x50
 14141 1549 4B000000 		.4byte	.LVL257-1
 14142 154d 4C000000 		.4byte	.LVL257
 14143 1551 0400     		.2byte	0x4
 14144 1553 F3       		.byte	0xf3
 14145 1554 01       		.uleb128 0x1
 14146 1555 50       		.byte	0x50
 14147 1556 9F       		.byte	0x9f
 14148 1557 4C000000 		.4byte	.LVL257
 14149 155b 60000000 		.4byte	.LFE37
 14150 155f 0100     		.2byte	0x1
 14151 1561 54       		.byte	0x54
 14152 1562 00000000 		.4byte	0
 14153 1566 00000000 		.4byte	0
 14154              	.LLST141:
 14155 156a 00000000 		.4byte	.LVL247
 14156 156e 0E000000 		.4byte	.LVL250
 14157 1572 0100     		.2byte	0x1
 14158 1574 51       		.byte	0x51
 14159 1575 0E000000 		.4byte	.LVL250
 14160 1579 60000000 		.4byte	.LFE37
 14161 157d 0400     		.2byte	0x4
 14162 157f F3       		.byte	0xf3
 14163 1580 01       		.uleb128 0x1
 14164 1581 51       		.byte	0x51
 14165 1582 9F       		.byte	0x9f
 14166 1583 00000000 		.4byte	0
 14167 1587 00000000 		.4byte	0
 14168              	.LLST142:
 14169 158b 14000000 		.4byte	.LVL251
 14170 158f 1A000000 		.4byte	.LVL252
 14171 1593 0100     		.2byte	0x1
 14172 1595 50       		.byte	0x50
 14173 1596 1A000000 		.4byte	.LVL252
 14174 159a 41000000 		.4byte	.LVL255-1
 14175 159e 0100     		.2byte	0x1
 14176 15a0 53       		.byte	0x53
 14177 15a1 4C000000 		.4byte	.LVL257
 14178 15a5 60000000 		.4byte	.LFE37
 14179 15a9 0100     		.2byte	0x1
 14180 15ab 53       		.byte	0x53
ARM GAS  /tmp/ccxMPRSl.s 			page 251


 14181 15ac 00000000 		.4byte	0
 14182 15b0 00000000 		.4byte	0
 14183              	.LLST143:
 14184 15b4 04000000 		.4byte	.LVL248
 14185 15b8 0A000000 		.4byte	.LVL249
 14186 15bc 0100     		.2byte	0x1
 14187 15be 50       		.byte	0x50
 14188 15bf 0A000000 		.4byte	.LVL249
 14189 15c3 48000000 		.4byte	.LVL256
 14190 15c7 0100     		.2byte	0x1
 14191 15c9 54       		.byte	0x54
 14192 15ca 48000000 		.4byte	.LVL256
 14193 15ce 4B000000 		.4byte	.LVL257-1
 14194 15d2 0100     		.2byte	0x1
 14195 15d4 50       		.byte	0x50
 14196 15d5 4B000000 		.4byte	.LVL257-1
 14197 15d9 4C000000 		.4byte	.LVL257
 14198 15dd 0400     		.2byte	0x4
 14199 15df F3       		.byte	0xf3
 14200 15e0 01       		.uleb128 0x1
 14201 15e1 50       		.byte	0x50
 14202 15e2 9F       		.byte	0x9f
 14203 15e3 4C000000 		.4byte	.LVL257
 14204 15e7 60000000 		.4byte	.LFE37
 14205 15eb 0100     		.2byte	0x1
 14206 15ed 54       		.byte	0x54
 14207 15ee 00000000 		.4byte	0
 14208 15f2 00000000 		.4byte	0
 14209              	.LLST144:
 14210 15f6 34000000 		.4byte	.LVL254
 14211 15fa 41000000 		.4byte	.LVL255-1
 14212 15fe 0100     		.2byte	0x1
 14213 1600 53       		.byte	0x53
 14214 1601 00000000 		.4byte	0
 14215 1605 00000000 		.4byte	0
 14216              	.LLST145:
 14217 1609 34000000 		.4byte	.LVL254
 14218 160d 4C000000 		.4byte	.LVL257
 14219 1611 0300     		.2byte	0x3
 14220 1613 08       		.byte	0x8
 14221 1614 21       		.byte	0x21
 14222 1615 9F       		.byte	0x9f
 14223 1616 00000000 		.4byte	0
 14224 161a 00000000 		.4byte	0
 14225              	.LLST146:
 14226 161e 34000000 		.4byte	.LVL254
 14227 1622 48000000 		.4byte	.LVL256
 14228 1626 0100     		.2byte	0x1
 14229 1628 54       		.byte	0x54
 14230 1629 48000000 		.4byte	.LVL256
 14231 162d 4B000000 		.4byte	.LVL257-1
 14232 1631 0100     		.2byte	0x1
 14233 1633 50       		.byte	0x50
 14234 1634 4B000000 		.4byte	.LVL257-1
 14235 1638 4C000000 		.4byte	.LVL257
 14236 163c 0400     		.2byte	0x4
 14237 163e F3       		.byte	0xf3
ARM GAS  /tmp/ccxMPRSl.s 			page 252


 14238 163f 01       		.uleb128 0x1
 14239 1640 50       		.byte	0x50
 14240 1641 9F       		.byte	0x9f
 14241 1642 00000000 		.4byte	0
 14242 1646 00000000 		.4byte	0
 14243              	.LLST147:
 14244 164a 00000000 		.4byte	.LVL260
 14245 164e 06000000 		.4byte	.LVL262
 14246 1652 0100     		.2byte	0x1
 14247 1654 50       		.byte	0x50
 14248 1655 06000000 		.4byte	.LVL262
 14249 1659 4A000000 		.4byte	.LVL271
 14250 165d 0100     		.2byte	0x1
 14251 165f 54       		.byte	0x54
 14252 1660 4A000000 		.4byte	.LVL271
 14253 1664 4E000000 		.4byte	.LVL272
 14254 1668 0400     		.2byte	0x4
 14255 166a F3       		.byte	0xf3
 14256 166b 01       		.uleb128 0x1
 14257 166c 50       		.byte	0x50
 14258 166d 9F       		.byte	0x9f
 14259 166e 4E000000 		.4byte	.LVL272
 14260 1672 54000000 		.4byte	.LFE44
 14261 1676 0100     		.2byte	0x1
 14262 1678 54       		.byte	0x54
 14263 1679 00000000 		.4byte	0
 14264 167d 00000000 		.4byte	0
 14265              	.LLST148:
 14266 1681 00000000 		.4byte	.LVL260
 14267 1685 10000000 		.4byte	.LVL265
 14268 1689 0100     		.2byte	0x1
 14269 168b 51       		.byte	0x51
 14270 168c 10000000 		.4byte	.LVL265
 14271 1690 54000000 		.4byte	.LFE44
 14272 1694 0400     		.2byte	0x4
 14273 1696 F3       		.byte	0xf3
 14274 1697 01       		.uleb128 0x1
 14275 1698 51       		.byte	0x51
 14276 1699 9F       		.byte	0x9f
 14277 169a 00000000 		.4byte	0
 14278 169e 00000000 		.4byte	0
 14279              	.LLST149:
 14280 16a2 00000000 		.4byte	.LVL260
 14281 16a6 0A000000 		.4byte	.LVL263
 14282 16aa 0100     		.2byte	0x1
 14283 16ac 52       		.byte	0x52
 14284 16ad 0A000000 		.4byte	.LVL263
 14285 16b1 54000000 		.4byte	.LFE44
 14286 16b5 0400     		.2byte	0x4
 14287 16b7 F3       		.byte	0xf3
 14288 16b8 01       		.uleb128 0x1
 14289 16b9 52       		.byte	0x52
 14290 16ba 9F       		.byte	0x9f
 14291 16bb 00000000 		.4byte	0
 14292 16bf 00000000 		.4byte	0
 14293              	.LLST150:
 14294 16c3 00000000 		.4byte	.LVL260
ARM GAS  /tmp/ccxMPRSl.s 			page 253


 14295 16c7 0C000000 		.4byte	.LVL264
 14296 16cb 0100     		.2byte	0x1
 14297 16cd 53       		.byte	0x53
 14298 16ce 0C000000 		.4byte	.LVL264
 14299 16d2 54000000 		.4byte	.LFE44
 14300 16d6 0400     		.2byte	0x4
 14301 16d8 F3       		.byte	0xf3
 14302 16d9 01       		.uleb128 0x1
 14303 16da 53       		.byte	0x53
 14304 16db 9F       		.byte	0x9f
 14305 16dc 00000000 		.4byte	0
 14306 16e0 00000000 		.4byte	0
 14307              	.LLST151:
 14308 16e4 00000000 		.4byte	.LVL260
 14309 16e8 4A000000 		.4byte	.LVL271
 14310 16ec 0200     		.2byte	0x2
 14311 16ee 91       		.byte	0x91
 14312 16ef 00       		.sleb128 0
 14313 16f0 4A000000 		.4byte	.LVL271
 14314 16f4 4E000000 		.4byte	.LVL272
 14315 16f8 0200     		.2byte	0x2
 14316 16fa 7D       		.byte	0x7d
 14317 16fb 00       		.sleb128 0
 14318 16fc 4E000000 		.4byte	.LVL272
 14319 1700 54000000 		.4byte	.LFE44
 14320 1704 0200     		.2byte	0x2
 14321 1706 7D       		.byte	0x7d
 14322 1707 10       		.sleb128 16
 14323 1708 00000000 		.4byte	0
 14324 170c 00000000 		.4byte	0
 14325              	.LLST152:
 14326 1710 2A000000 		.4byte	.LVL268
 14327 1714 36000000 		.4byte	.LVL269
 14328 1718 0100     		.2byte	0x1
 14329 171a 50       		.byte	0x50
 14330 171b 36000000 		.4byte	.LVL269
 14331 171f 4D000000 		.4byte	.LVL272-1
 14332 1723 0100     		.2byte	0x1
 14333 1725 53       		.byte	0x53
 14334 1726 4E000000 		.4byte	.LVL272
 14335 172a 54000000 		.4byte	.LFE44
 14336 172e 0100     		.2byte	0x1
 14337 1730 53       		.byte	0x53
 14338 1731 00000000 		.4byte	0
 14339 1735 00000000 		.4byte	0
 14340              	.LLST153:
 14341 1739 06000000 		.4byte	.LVL262
 14342 173d 14000000 		.4byte	.LVL266
 14343 1741 0100     		.2byte	0x1
 14344 1743 50       		.byte	0x50
 14345 1744 14000000 		.4byte	.LVL266
 14346 1748 1B000000 		.4byte	.LVL267-1
 14347 174c 0100     		.2byte	0x1
 14348 174e 53       		.byte	0x53
 14349 174f 00000000 		.4byte	0
 14350 1753 00000000 		.4byte	0
 14351              	.LLST154:
ARM GAS  /tmp/ccxMPRSl.s 			page 254


 14352 1757 04000000 		.4byte	.LVL261
 14353 175b 10000000 		.4byte	.LVL265
 14354 175f 0100     		.2byte	0x1
 14355 1761 51       		.byte	0x51
 14356 1762 10000000 		.4byte	.LVL265
 14357 1766 1B000000 		.4byte	.LVL267-1
 14358 176a 0100     		.2byte	0x1
 14359 176c 52       		.byte	0x52
 14360 176d 00000000 		.4byte	0
 14361 1771 00000000 		.4byte	0
 14362              	.LLST155:
 14363 1775 04000000 		.4byte	.LVL261
 14364 1779 06000000 		.4byte	.LVL262
 14365 177d 0100     		.2byte	0x1
 14366 177f 50       		.byte	0x50
 14367 1780 06000000 		.4byte	.LVL262
 14368 1784 4A000000 		.4byte	.LVL271
 14369 1788 0100     		.2byte	0x1
 14370 178a 54       		.byte	0x54
 14371 178b 4A000000 		.4byte	.LVL271
 14372 178f 4E000000 		.4byte	.LVL272
 14373 1793 0400     		.2byte	0x4
 14374 1795 F3       		.byte	0xf3
 14375 1796 01       		.uleb128 0x1
 14376 1797 50       		.byte	0x50
 14377 1798 9F       		.byte	0x9f
 14378 1799 4E000000 		.4byte	.LVL272
 14379 179d 54000000 		.4byte	.LFE44
 14380 17a1 0100     		.2byte	0x1
 14381 17a3 54       		.byte	0x54
 14382 17a4 00000000 		.4byte	0
 14383 17a8 00000000 		.4byte	0
 14384              	.LLST156:
 14385 17ac 1C000000 		.4byte	.LVL267
 14386 17b0 4A000000 		.4byte	.LVL271
 14387 17b4 0100     		.2byte	0x1
 14388 17b6 54       		.byte	0x54
 14389 17b7 4A000000 		.4byte	.LVL271
 14390 17bb 4E000000 		.4byte	.LVL272
 14391 17bf 0400     		.2byte	0x4
 14392 17c1 F3       		.byte	0xf3
 14393 17c2 01       		.uleb128 0x1
 14394 17c3 50       		.byte	0x50
 14395 17c4 9F       		.byte	0x9f
 14396 17c5 4E000000 		.4byte	.LVL272
 14397 17c9 54000000 		.4byte	.LFE44
 14398 17cd 0100     		.2byte	0x1
 14399 17cf 54       		.byte	0x54
 14400 17d0 00000000 		.4byte	0
 14401 17d4 00000000 		.4byte	0
 14402              	.LLST157:
 14403 17d8 3C000000 		.4byte	.LVL270
 14404 17dc 4D000000 		.4byte	.LVL272-1
 14405 17e0 0100     		.2byte	0x1
 14406 17e2 53       		.byte	0x53
 14407 17e3 00000000 		.4byte	0
 14408 17e7 00000000 		.4byte	0
ARM GAS  /tmp/ccxMPRSl.s 			page 255


 14409              	.LLST158:
 14410 17eb 3C000000 		.4byte	.LVL270
 14411 17ef 4E000000 		.4byte	.LVL272
 14412 17f3 0300     		.2byte	0x3
 14413 17f5 08       		.byte	0x8
 14414 17f6 22       		.byte	0x22
 14415 17f7 9F       		.byte	0x9f
 14416 17f8 00000000 		.4byte	0
 14417 17fc 00000000 		.4byte	0
 14418              	.LLST159:
 14419 1800 3C000000 		.4byte	.LVL270
 14420 1804 4A000000 		.4byte	.LVL271
 14421 1808 0100     		.2byte	0x1
 14422 180a 54       		.byte	0x54
 14423 180b 4A000000 		.4byte	.LVL271
 14424 180f 4E000000 		.4byte	.LVL272
 14425 1813 0400     		.2byte	0x4
 14426 1815 F3       		.byte	0xf3
 14427 1816 01       		.uleb128 0x1
 14428 1817 50       		.byte	0x50
 14429 1818 9F       		.byte	0x9f
 14430 1819 00000000 		.4byte	0
 14431 181d 00000000 		.4byte	0
 14432              	.LLST160:
 14433 1821 00000000 		.4byte	.LVL274
 14434 1825 16000000 		.4byte	.LVL278
 14435 1829 0100     		.2byte	0x1
 14436 182b 50       		.byte	0x50
 14437 182c 16000000 		.4byte	.LVL278
 14438 1830 30000000 		.4byte	.LVL282
 14439 1834 0100     		.2byte	0x1
 14440 1836 54       		.byte	0x54
 14441 1837 30000000 		.4byte	.LVL282
 14442 183b 34000000 		.4byte	.LFE45
 14443 183f 0400     		.2byte	0x4
 14444 1841 F3       		.byte	0xf3
 14445 1842 01       		.uleb128 0x1
 14446 1843 50       		.byte	0x50
 14447 1844 9F       		.byte	0x9f
 14448 1845 00000000 		.4byte	0
 14449 1849 00000000 		.4byte	0
 14450              	.LLST161:
 14451 184d 00000000 		.4byte	.LVL274
 14452 1851 1A000000 		.4byte	.LVL279
 14453 1855 0100     		.2byte	0x1
 14454 1857 51       		.byte	0x51
 14455 1858 1A000000 		.4byte	.LVL279
 14456 185c 34000000 		.4byte	.LFE45
 14457 1860 0400     		.2byte	0x4
 14458 1862 F3       		.byte	0xf3
 14459 1863 01       		.uleb128 0x1
 14460 1864 51       		.byte	0x51
 14461 1865 9F       		.byte	0x9f
 14462 1866 00000000 		.4byte	0
 14463 186a 00000000 		.4byte	0
 14464              	.LLST162:
 14465 186e 00000000 		.4byte	.LVL274
ARM GAS  /tmp/ccxMPRSl.s 			page 256


 14466 1872 06000000 		.4byte	.LVL275
 14467 1876 0100     		.2byte	0x1
 14468 1878 52       		.byte	0x52
 14469 1879 06000000 		.4byte	.LVL275
 14470 187d 34000000 		.4byte	.LFE45
 14471 1881 0400     		.2byte	0x4
 14472 1883 F3       		.byte	0xf3
 14473 1884 01       		.uleb128 0x1
 14474 1885 52       		.byte	0x52
 14475 1886 9F       		.byte	0x9f
 14476 1887 00000000 		.4byte	0
 14477 188b 00000000 		.4byte	0
 14478              	.LLST163:
 14479 188f 00000000 		.4byte	.LVL274
 14480 1893 12000000 		.4byte	.LVL277
 14481 1897 0100     		.2byte	0x1
 14482 1899 53       		.byte	0x53
 14483 189a 12000000 		.4byte	.LVL277
 14484 189e 34000000 		.4byte	.LFE45
 14485 18a2 0400     		.2byte	0x4
 14486 18a4 F3       		.byte	0xf3
 14487 18a5 01       		.uleb128 0x1
 14488 18a6 53       		.byte	0x53
 14489 18a7 9F       		.byte	0x9f
 14490 18a8 00000000 		.4byte	0
 14491 18ac 00000000 		.4byte	0
 14492              	.LLST164:
 14493 18b0 00000000 		.4byte	.LVL274
 14494 18b4 06000000 		.4byte	.LVL275
 14495 18b8 0200     		.2byte	0x2
 14496 18ba 30       		.byte	0x30
 14497 18bb 9F       		.byte	0x9f
 14498 18bc 06000000 		.4byte	.LVL275
 14499 18c0 1C000000 		.4byte	.LVL280
 14500 18c4 0100     		.2byte	0x1
 14501 18c6 52       		.byte	0x52
 14502 18c7 1C000000 		.4byte	.LVL280
 14503 18cb 1F000000 		.4byte	.LVL281-1
 14504 18cf 0100     		.2byte	0x1
 14505 18d1 53       		.byte	0x53
 14506 18d2 00000000 		.4byte	0
 14507 18d6 00000000 		.4byte	0
 14508              	.LLST165:
 14509 18da 10000000 		.4byte	.LVL276
 14510 18de 1C000000 		.4byte	.LVL280
 14511 18e2 0100     		.2byte	0x1
 14512 18e4 52       		.byte	0x52
 14513 18e5 1C000000 		.4byte	.LVL280
 14514 18e9 1F000000 		.4byte	.LVL281-1
 14515 18ed 0100     		.2byte	0x1
 14516 18ef 53       		.byte	0x53
 14517 18f0 00000000 		.4byte	0
 14518 18f4 00000000 		.4byte	0
 14519              	.LLST166:
 14520 18f8 10000000 		.4byte	.LVL276
 14521 18fc 16000000 		.4byte	.LVL278
 14522 1900 0100     		.2byte	0x1
ARM GAS  /tmp/ccxMPRSl.s 			page 257


 14523 1902 50       		.byte	0x50
 14524 1903 16000000 		.4byte	.LVL278
 14525 1907 30000000 		.4byte	.LVL282
 14526 190b 0100     		.2byte	0x1
 14527 190d 54       		.byte	0x54
 14528 190e 30000000 		.4byte	.LVL282
 14529 1912 34000000 		.4byte	.LFE45
 14530 1916 0400     		.2byte	0x4
 14531 1918 F3       		.byte	0xf3
 14532 1919 01       		.uleb128 0x1
 14533 191a 50       		.byte	0x50
 14534 191b 9F       		.byte	0x9f
 14535 191c 00000000 		.4byte	0
 14536 1920 00000000 		.4byte	0
 14537              	.LLST167:
 14538 1924 20000000 		.4byte	.LVL281
 14539 1928 30000000 		.4byte	.LVL282
 14540 192c 0100     		.2byte	0x1
 14541 192e 55       		.byte	0x55
 14542 192f 30000000 		.4byte	.LVL282
 14543 1933 33000000 		.4byte	.LVL283-1
 14544 1937 0100     		.2byte	0x1
 14545 1939 53       		.byte	0x53
 14546 193a 00000000 		.4byte	0
 14547 193e 00000000 		.4byte	0
 14548              	.LLST168:
 14549 1942 20000000 		.4byte	.LVL281
 14550 1946 30000000 		.4byte	.LVL282
 14551 194a 0100     		.2byte	0x1
 14552 194c 54       		.byte	0x54
 14553 194d 30000000 		.4byte	.LVL282
 14554 1951 34000000 		.4byte	.LFE45
 14555 1955 0400     		.2byte	0x4
 14556 1957 F3       		.byte	0xf3
 14557 1958 01       		.uleb128 0x1
 14558 1959 50       		.byte	0x50
 14559 195a 9F       		.byte	0x9f
 14560 195b 00000000 		.4byte	0
 14561 195f 00000000 		.4byte	0
 14562              	.LLST169:
 14563 1963 00000000 		.4byte	.LVL284
 14564 1967 0E000000 		.4byte	.LVL286
 14565 196b 0100     		.2byte	0x1
 14566 196d 50       		.byte	0x50
 14567 196e 0E000000 		.4byte	.LVL286
 14568 1972 11000000 		.4byte	.LVL287-1
 14569 1976 0100     		.2byte	0x1
 14570 1978 53       		.byte	0x53
 14571 1979 11000000 		.4byte	.LVL287-1
 14572 197d 18000000 		.4byte	.LFE46
 14573 1981 0400     		.2byte	0x4
 14574 1983 F3       		.byte	0xf3
 14575 1984 01       		.uleb128 0x1
 14576 1985 50       		.byte	0x50
 14577 1986 9F       		.byte	0x9f
 14578 1987 00000000 		.4byte	0
 14579 198b 00000000 		.4byte	0
ARM GAS  /tmp/ccxMPRSl.s 			page 258


 14580              	.LLST170:
 14581 198f 12000000 		.4byte	.LVL287
 14582 1993 16000000 		.4byte	.LVL288
 14583 1997 0500     		.2byte	0x5
 14584 1999 70       		.byte	0x70
 14585 199a 00       		.sleb128 0
 14586 199b 40       		.byte	0x40
 14587 199c 1A       		.byte	0x1a
 14588 199d 9F       		.byte	0x9f
 14589 199e 00000000 		.4byte	0
 14590 19a2 00000000 		.4byte	0
 14591              	.LLST171:
 14592 19a6 04000000 		.4byte	.LVL285
 14593 19aa 0E000000 		.4byte	.LVL286
 14594 19ae 0100     		.2byte	0x1
 14595 19b0 50       		.byte	0x50
 14596 19b1 0E000000 		.4byte	.LVL286
 14597 19b5 11000000 		.4byte	.LVL287-1
 14598 19b9 0100     		.2byte	0x1
 14599 19bb 53       		.byte	0x53
 14600 19bc 11000000 		.4byte	.LVL287-1
 14601 19c0 18000000 		.4byte	.LFE46
 14602 19c4 0400     		.2byte	0x4
 14603 19c6 F3       		.byte	0xf3
 14604 19c7 01       		.uleb128 0x1
 14605 19c8 50       		.byte	0x50
 14606 19c9 9F       		.byte	0x9f
 14607 19ca 00000000 		.4byte	0
 14608 19ce 00000000 		.4byte	0
 14609              	.LLST172:
 14610 19d2 00000000 		.4byte	.LVL289
 14611 19d6 10000000 		.4byte	.LVL292
 14612 19da 0100     		.2byte	0x1
 14613 19dc 50       		.byte	0x50
 14614 19dd 10000000 		.4byte	.LVL292
 14615 19e1 1A000000 		.4byte	.LVL295
 14616 19e5 0100     		.2byte	0x1
 14617 19e7 54       		.byte	0x54
 14618 19e8 1A000000 		.4byte	.LVL295
 14619 19ec 1E000000 		.4byte	.LFE47
 14620 19f0 0400     		.2byte	0x4
 14621 19f2 F3       		.byte	0xf3
 14622 19f3 01       		.uleb128 0x1
 14623 19f4 50       		.byte	0x50
 14624 19f5 9F       		.byte	0x9f
 14625 19f6 00000000 		.4byte	0
 14626 19fa 00000000 		.4byte	0
 14627              	.LLST173:
 14628 19fe 00000000 		.4byte	.LVL289
 14629 1a02 14000000 		.4byte	.LVL293
 14630 1a06 0100     		.2byte	0x1
 14631 1a08 51       		.byte	0x51
 14632 1a09 14000000 		.4byte	.LVL293
 14633 1a0d 1E000000 		.4byte	.LFE47
 14634 1a11 0400     		.2byte	0x4
 14635 1a13 F3       		.byte	0xf3
 14636 1a14 01       		.uleb128 0x1
ARM GAS  /tmp/ccxMPRSl.s 			page 259


 14637 1a15 51       		.byte	0x51
 14638 1a16 9F       		.byte	0x9f
 14639 1a17 00000000 		.4byte	0
 14640 1a1b 00000000 		.4byte	0
 14641              	.LLST174:
 14642 1a1f 00000000 		.4byte	.LVL289
 14643 1a23 16000000 		.4byte	.LVL294
 14644 1a27 0100     		.2byte	0x1
 14645 1a29 52       		.byte	0x52
 14646 1a2a 16000000 		.4byte	.LVL294
 14647 1a2e 1E000000 		.4byte	.LFE47
 14648 1a32 0400     		.2byte	0x4
 14649 1a34 F3       		.byte	0xf3
 14650 1a35 01       		.uleb128 0x1
 14651 1a36 52       		.byte	0x52
 14652 1a37 9F       		.byte	0x9f
 14653 1a38 00000000 		.4byte	0
 14654 1a3c 00000000 		.4byte	0
 14655              	.LLST175:
 14656 1a40 04000000 		.4byte	.LVL290
 14657 1a44 0C000000 		.4byte	.LVL291
 14658 1a48 0100     		.2byte	0x1
 14659 1a4a 51       		.byte	0x51
 14660 1a4b 0C000000 		.4byte	.LVL291
 14661 1a4f 1D000000 		.4byte	.LVL296-1
 14662 1a53 0100     		.2byte	0x1
 14663 1a55 53       		.byte	0x53
 14664 1a56 00000000 		.4byte	0
 14665 1a5a 00000000 		.4byte	0
 14666              	.LLST176:
 14667 1a5e 0C000000 		.4byte	.LVL291
 14668 1a62 1D000000 		.4byte	.LVL296-1
 14669 1a66 0100     		.2byte	0x1
 14670 1a68 53       		.byte	0x53
 14671 1a69 00000000 		.4byte	0
 14672 1a6d 00000000 		.4byte	0
 14673              	.LLST177:
 14674 1a71 0C000000 		.4byte	.LVL291
 14675 1a75 10000000 		.4byte	.LVL292
 14676 1a79 0100     		.2byte	0x1
 14677 1a7b 50       		.byte	0x50
 14678 1a7c 10000000 		.4byte	.LVL292
 14679 1a80 1A000000 		.4byte	.LVL295
 14680 1a84 0100     		.2byte	0x1
 14681 1a86 54       		.byte	0x54
 14682 1a87 1A000000 		.4byte	.LVL295
 14683 1a8b 1E000000 		.4byte	.LFE47
 14684 1a8f 0400     		.2byte	0x4
 14685 1a91 F3       		.byte	0xf3
 14686 1a92 01       		.uleb128 0x1
 14687 1a93 50       		.byte	0x50
 14688 1a94 9F       		.byte	0x9f
 14689 1a95 00000000 		.4byte	0
 14690 1a99 00000000 		.4byte	0
 14691              	.LLST178:
 14692 1a9d 00000000 		.4byte	.LVL297
 14693 1aa1 14000000 		.4byte	.LVL301
ARM GAS  /tmp/ccxMPRSl.s 			page 260


 14694 1aa5 0100     		.2byte	0x1
 14695 1aa7 50       		.byte	0x50
 14696 1aa8 14000000 		.4byte	.LVL301
 14697 1aac 34000000 		.4byte	.LVL306
 14698 1ab0 0100     		.2byte	0x1
 14699 1ab2 54       		.byte	0x54
 14700 1ab3 34000000 		.4byte	.LVL306
 14701 1ab7 38000000 		.4byte	.LFE48
 14702 1abb 0400     		.2byte	0x4
 14703 1abd F3       		.byte	0xf3
 14704 1abe 01       		.uleb128 0x1
 14705 1abf 50       		.byte	0x50
 14706 1ac0 9F       		.byte	0x9f
 14707 1ac1 00000000 		.4byte	0
 14708 1ac5 00000000 		.4byte	0
 14709              	.LLST179:
 14710 1ac9 00000000 		.4byte	.LVL297
 14711 1acd 18000000 		.4byte	.LVL302
 14712 1ad1 0100     		.2byte	0x1
 14713 1ad3 51       		.byte	0x51
 14714 1ad4 18000000 		.4byte	.LVL302
 14715 1ad8 38000000 		.4byte	.LFE48
 14716 1adc 0400     		.2byte	0x4
 14717 1ade F3       		.byte	0xf3
 14718 1adf 01       		.uleb128 0x1
 14719 1ae0 51       		.byte	0x51
 14720 1ae1 9F       		.byte	0x9f
 14721 1ae2 00000000 		.4byte	0
 14722 1ae6 00000000 		.4byte	0
 14723              	.LLST180:
 14724 1aea 00000000 		.4byte	.LVL297
 14725 1aee 04000000 		.4byte	.LVL298
 14726 1af2 0100     		.2byte	0x1
 14727 1af4 52       		.byte	0x52
 14728 1af5 04000000 		.4byte	.LVL298
 14729 1af9 38000000 		.4byte	.LFE48
 14730 1afd 0400     		.2byte	0x4
 14731 1aff F3       		.byte	0xf3
 14732 1b00 01       		.uleb128 0x1
 14733 1b01 52       		.byte	0x52
 14734 1b02 9F       		.byte	0x9f
 14735 1b03 00000000 		.4byte	0
 14736 1b07 00000000 		.4byte	0
 14737              	.LLST181:
 14738 1b0b 00000000 		.4byte	.LVL297
 14739 1b0f 10000000 		.4byte	.LVL300
 14740 1b13 0100     		.2byte	0x1
 14741 1b15 53       		.byte	0x53
 14742 1b16 10000000 		.4byte	.LVL300
 14743 1b1a 38000000 		.4byte	.LFE48
 14744 1b1e 0400     		.2byte	0x4
 14745 1b20 F3       		.byte	0xf3
 14746 1b21 01       		.uleb128 0x1
 14747 1b22 53       		.byte	0x53
 14748 1b23 9F       		.byte	0x9f
 14749 1b24 00000000 		.4byte	0
 14750 1b28 00000000 		.4byte	0
ARM GAS  /tmp/ccxMPRSl.s 			page 261


 14751              	.LLST182:
 14752 1b2c 00000000 		.4byte	.LVL297
 14753 1b30 34000000 		.4byte	.LVL306
 14754 1b34 0200     		.2byte	0x2
 14755 1b36 91       		.byte	0x91
 14756 1b37 00       		.sleb128 0
 14757 1b38 34000000 		.4byte	.LVL306
 14758 1b3c 38000000 		.4byte	.LFE48
 14759 1b40 0200     		.2byte	0x2
 14760 1b42 7D       		.byte	0x7d
 14761 1b43 00       		.sleb128 0
 14762 1b44 00000000 		.4byte	0
 14763 1b48 00000000 		.4byte	0
 14764              	.LLST183:
 14765 1b4c 20000000 		.4byte	.LVL304
 14766 1b50 37000000 		.4byte	.LVL307-1
 14767 1b54 0100     		.2byte	0x1
 14768 1b56 53       		.byte	0x53
 14769 1b57 00000000 		.4byte	0
 14770 1b5b 00000000 		.4byte	0
 14771              	.LLST184:
 14772 1b5f 06000000 		.4byte	.LVL299
 14773 1b63 18000000 		.4byte	.LVL302
 14774 1b67 0100     		.2byte	0x1
 14775 1b69 51       		.byte	0x51
 14776 1b6a 18000000 		.4byte	.LVL302
 14777 1b6e 1B000000 		.4byte	.LVL303-1
 14778 1b72 0100     		.2byte	0x1
 14779 1b74 53       		.byte	0x53
 14780 1b75 00000000 		.4byte	0
 14781 1b79 00000000 		.4byte	0
 14782              	.LLST185:
 14783 1b7d 06000000 		.4byte	.LVL299
 14784 1b81 14000000 		.4byte	.LVL301
 14785 1b85 0100     		.2byte	0x1
 14786 1b87 50       		.byte	0x50
 14787 1b88 14000000 		.4byte	.LVL301
 14788 1b8c 34000000 		.4byte	.LVL306
 14789 1b90 0100     		.2byte	0x1
 14790 1b92 54       		.byte	0x54
 14791 1b93 34000000 		.4byte	.LVL306
 14792 1b97 38000000 		.4byte	.LFE48
 14793 1b9b 0400     		.2byte	0x4
 14794 1b9d F3       		.byte	0xf3
 14795 1b9e 01       		.uleb128 0x1
 14796 1b9f 50       		.byte	0x50
 14797 1ba0 9F       		.byte	0x9f
 14798 1ba1 00000000 		.4byte	0
 14799 1ba5 00000000 		.4byte	0
 14800              	.LLST186:
 14801 1ba9 26000000 		.4byte	.LVL305
 14802 1bad 37000000 		.4byte	.LVL307-1
 14803 1bb1 0100     		.2byte	0x1
 14804 1bb3 53       		.byte	0x53
 14805 1bb4 00000000 		.4byte	0
 14806 1bb8 00000000 		.4byte	0
 14807              	.LLST187:
ARM GAS  /tmp/ccxMPRSl.s 			page 262


 14808 1bbc 26000000 		.4byte	.LVL305
 14809 1bc0 34000000 		.4byte	.LVL306
 14810 1bc4 0100     		.2byte	0x1
 14811 1bc6 54       		.byte	0x54
 14812 1bc7 34000000 		.4byte	.LVL306
 14813 1bcb 38000000 		.4byte	.LFE48
 14814 1bcf 0400     		.2byte	0x4
 14815 1bd1 F3       		.byte	0xf3
 14816 1bd2 01       		.uleb128 0x1
 14817 1bd3 50       		.byte	0x50
 14818 1bd4 9F       		.byte	0x9f
 14819 1bd5 00000000 		.4byte	0
 14820 1bd9 00000000 		.4byte	0
 14821              	.LLST188:
 14822 1bdd 00000000 		.4byte	.LVL308
 14823 1be1 0E000000 		.4byte	.LVL310
 14824 1be5 0100     		.2byte	0x1
 14825 1be7 50       		.byte	0x50
 14826 1be8 0E000000 		.4byte	.LVL310
 14827 1bec 11000000 		.4byte	.LVL311-1
 14828 1bf0 0100     		.2byte	0x1
 14829 1bf2 53       		.byte	0x53
 14830 1bf3 11000000 		.4byte	.LVL311-1
 14831 1bf7 24000000 		.4byte	.LFE49
 14832 1bfb 0400     		.2byte	0x4
 14833 1bfd F3       		.byte	0xf3
 14834 1bfe 01       		.uleb128 0x1
 14835 1bff 50       		.byte	0x50
 14836 1c00 9F       		.byte	0x9f
 14837 1c01 00000000 		.4byte	0
 14838 1c05 00000000 		.4byte	0
 14839              	.LLST189:
 14840 1c09 12000000 		.4byte	.LVL311
 14841 1c0d 22000000 		.4byte	.LVL312
 14842 1c11 0100     		.2byte	0x1
 14843 1c13 50       		.byte	0x50
 14844 1c14 00000000 		.4byte	0
 14845 1c18 00000000 		.4byte	0
 14846              	.LLST190:
 14847 1c1c 04000000 		.4byte	.LVL309
 14848 1c20 0E000000 		.4byte	.LVL310
 14849 1c24 0100     		.2byte	0x1
 14850 1c26 50       		.byte	0x50
 14851 1c27 0E000000 		.4byte	.LVL310
 14852 1c2b 11000000 		.4byte	.LVL311-1
 14853 1c2f 0100     		.2byte	0x1
 14854 1c31 53       		.byte	0x53
 14855 1c32 11000000 		.4byte	.LVL311-1
 14856 1c36 24000000 		.4byte	.LFE49
 14857 1c3a 0400     		.2byte	0x4
 14858 1c3c F3       		.byte	0xf3
 14859 1c3d 01       		.uleb128 0x1
 14860 1c3e 50       		.byte	0x50
 14861 1c3f 9F       		.byte	0x9f
 14862 1c40 00000000 		.4byte	0
 14863 1c44 00000000 		.4byte	0
 14864              	.LLST191:
ARM GAS  /tmp/ccxMPRSl.s 			page 263


 14865 1c48 00000000 		.4byte	.LVL313
 14866 1c4c 16000000 		.4byte	.LVL318
 14867 1c50 0100     		.2byte	0x1
 14868 1c52 50       		.byte	0x50
 14869 1c53 16000000 		.4byte	.LVL318
 14870 1c57 20000000 		.4byte	.LVL321
 14871 1c5b 0100     		.2byte	0x1
 14872 1c5d 54       		.byte	0x54
 14873 1c5e 20000000 		.4byte	.LVL321
 14874 1c62 24000000 		.4byte	.LFE50
 14875 1c66 0400     		.2byte	0x4
 14876 1c68 F3       		.byte	0xf3
 14877 1c69 01       		.uleb128 0x1
 14878 1c6a 50       		.byte	0x50
 14879 1c6b 9F       		.byte	0x9f
 14880 1c6c 00000000 		.4byte	0
 14881 1c70 00000000 		.4byte	0
 14882              	.LLST192:
 14883 1c74 00000000 		.4byte	.LVL313
 14884 1c78 0A000000 		.4byte	.LVL315
 14885 1c7c 0100     		.2byte	0x1
 14886 1c7e 51       		.byte	0x51
 14887 1c7f 0A000000 		.4byte	.LVL315
 14888 1c83 24000000 		.4byte	.LFE50
 14889 1c87 0400     		.2byte	0x4
 14890 1c89 F3       		.byte	0xf3
 14891 1c8a 01       		.uleb128 0x1
 14892 1c8b 51       		.byte	0x51
 14893 1c8c 9F       		.byte	0x9f
 14894 1c8d 00000000 		.4byte	0
 14895 1c91 00000000 		.4byte	0
 14896              	.LLST193:
 14897 1c95 00000000 		.4byte	.LVL313
 14898 1c99 1C000000 		.4byte	.LVL320
 14899 1c9d 0100     		.2byte	0x1
 14900 1c9f 52       		.byte	0x52
 14901 1ca0 1C000000 		.4byte	.LVL320
 14902 1ca4 24000000 		.4byte	.LFE50
 14903 1ca8 0400     		.2byte	0x4
 14904 1caa F3       		.byte	0xf3
 14905 1cab 01       		.uleb128 0x1
 14906 1cac 52       		.byte	0x52
 14907 1cad 9F       		.byte	0x9f
 14908 1cae 00000000 		.4byte	0
 14909 1cb2 00000000 		.4byte	0
 14910              	.LLST194:
 14911 1cb6 00000000 		.4byte	.LVL313
 14912 1cba 12000000 		.4byte	.LVL317
 14913 1cbe 0100     		.2byte	0x1
 14914 1cc0 53       		.byte	0x53
 14915 1cc1 12000000 		.4byte	.LVL317
 14916 1cc5 24000000 		.4byte	.LFE50
 14917 1cc9 0400     		.2byte	0x4
 14918 1ccb F3       		.byte	0xf3
 14919 1ccc 01       		.uleb128 0x1
 14920 1ccd 53       		.byte	0x53
 14921 1cce 9F       		.byte	0x9f
ARM GAS  /tmp/ccxMPRSl.s 			page 264


 14922 1ccf 00000000 		.4byte	0
 14923 1cd3 00000000 		.4byte	0
 14924              	.LLST195:
 14925 1cd7 04000000 		.4byte	.LVL314
 14926 1cdb 1A000000 		.4byte	.LVL319
 14927 1cdf 0100     		.2byte	0x1
 14928 1ce1 51       		.byte	0x51
 14929 1ce2 1A000000 		.4byte	.LVL319
 14930 1ce6 23000000 		.4byte	.LVL322-1
 14931 1cea 0100     		.2byte	0x1
 14932 1cec 53       		.byte	0x53
 14933 1ced 00000000 		.4byte	0
 14934 1cf1 00000000 		.4byte	0
 14935              	.LLST196:
 14936 1cf5 10000000 		.4byte	.LVL316
 14937 1cf9 1A000000 		.4byte	.LVL319
 14938 1cfd 0100     		.2byte	0x1
 14939 1cff 51       		.byte	0x51
 14940 1d00 1A000000 		.4byte	.LVL319
 14941 1d04 23000000 		.4byte	.LVL322-1
 14942 1d08 0100     		.2byte	0x1
 14943 1d0a 53       		.byte	0x53
 14944 1d0b 00000000 		.4byte	0
 14945 1d0f 00000000 		.4byte	0
 14946              	.LLST197:
 14947 1d13 10000000 		.4byte	.LVL316
 14948 1d17 16000000 		.4byte	.LVL318
 14949 1d1b 0100     		.2byte	0x1
 14950 1d1d 50       		.byte	0x50
 14951 1d1e 16000000 		.4byte	.LVL318
 14952 1d22 20000000 		.4byte	.LVL321
 14953 1d26 0100     		.2byte	0x1
 14954 1d28 54       		.byte	0x54
 14955 1d29 20000000 		.4byte	.LVL321
 14956 1d2d 24000000 		.4byte	.LFE50
 14957 1d31 0400     		.2byte	0x4
 14958 1d33 F3       		.byte	0xf3
 14959 1d34 01       		.uleb128 0x1
 14960 1d35 50       		.byte	0x50
 14961 1d36 9F       		.byte	0x9f
 14962 1d37 00000000 		.4byte	0
 14963 1d3b 00000000 		.4byte	0
 14964              	.LLST198:
 14965 1d3f 00000000 		.4byte	.LVL323
 14966 1d43 16000000 		.4byte	.LVL326
 14967 1d47 0100     		.2byte	0x1
 14968 1d49 50       		.byte	0x50
 14969 1d4a 16000000 		.4byte	.LVL326
 14970 1d4e 54000000 		.4byte	.LVL334
 14971 1d52 0100     		.2byte	0x1
 14972 1d54 54       		.byte	0x54
 14973 1d55 54000000 		.4byte	.LVL334
 14974 1d59 58000000 		.4byte	.LFE51
 14975 1d5d 0400     		.2byte	0x4
 14976 1d5f F3       		.byte	0xf3
 14977 1d60 01       		.uleb128 0x1
 14978 1d61 50       		.byte	0x50
ARM GAS  /tmp/ccxMPRSl.s 			page 265


 14979 1d62 9F       		.byte	0x9f
 14980 1d63 00000000 		.4byte	0
 14981 1d67 00000000 		.4byte	0
 14982              	.LLST199:
 14983 1d6b 00000000 		.4byte	.LVL323
 14984 1d6f 1A000000 		.4byte	.LVL327
 14985 1d73 0100     		.2byte	0x1
 14986 1d75 51       		.byte	0x51
 14987 1d76 1A000000 		.4byte	.LVL327
 14988 1d7a 58000000 		.4byte	.LFE51
 14989 1d7e 0400     		.2byte	0x4
 14990 1d80 F3       		.byte	0xf3
 14991 1d81 01       		.uleb128 0x1
 14992 1d82 51       		.byte	0x51
 14993 1d83 9F       		.byte	0x9f
 14994 1d84 00000000 		.4byte	0
 14995 1d88 00000000 		.4byte	0
 14996              	.LLST200:
 14997 1d8c 00000000 		.4byte	.LVL323
 14998 1d90 08000000 		.4byte	.LVL324
 14999 1d94 0100     		.2byte	0x1
 15000 1d96 52       		.byte	0x52
 15001 1d97 08000000 		.4byte	.LVL324
 15002 1d9b 58000000 		.4byte	.LFE51
 15003 1d9f 0400     		.2byte	0x4
 15004 1da1 F3       		.byte	0xf3
 15005 1da2 01       		.uleb128 0x1
 15006 1da3 52       		.byte	0x52
 15007 1da4 9F       		.byte	0x9f
 15008 1da5 00000000 		.4byte	0
 15009 1da9 00000000 		.4byte	0
 15010              	.LLST201:
 15011 1dad 00000000 		.4byte	.LVL323
 15012 1db1 1E000000 		.4byte	.LVL328
 15013 1db5 0100     		.2byte	0x1
 15014 1db7 53       		.byte	0x53
 15015 1db8 1E000000 		.4byte	.LVL328
 15016 1dbc 58000000 		.4byte	.LFE51
 15017 1dc0 0400     		.2byte	0x4
 15018 1dc2 F3       		.byte	0xf3
 15019 1dc3 01       		.uleb128 0x1
 15020 1dc4 53       		.byte	0x53
 15021 1dc5 9F       		.byte	0x9f
 15022 1dc6 00000000 		.4byte	0
 15023 1dca 00000000 		.4byte	0
 15024              	.LLST202:
 15025 1dce 00000000 		.4byte	.LVL323
 15026 1dd2 54000000 		.4byte	.LVL334
 15027 1dd6 0200     		.2byte	0x2
 15028 1dd8 91       		.byte	0x91
 15029 1dd9 00       		.sleb128 0
 15030 1dda 54000000 		.4byte	.LVL334
 15031 1dde 58000000 		.4byte	.LFE51
 15032 1de2 0200     		.2byte	0x2
 15033 1de4 7D       		.byte	0x7d
 15034 1de5 00       		.sleb128 0
 15035 1de6 00000000 		.4byte	0
ARM GAS  /tmp/ccxMPRSl.s 			page 266


 15036 1dea 00000000 		.4byte	0
 15037              	.LLST203:
 15038 1dee 0C000000 		.4byte	.LVL325
 15039 1df2 1A000000 		.4byte	.LVL327
 15040 1df6 1200     		.2byte	0x12
 15041 1df8 71       		.byte	0x71
 15042 1df9 00       		.sleb128 0
 15043 1dfa 0A       		.byte	0xa
 15044 1dfb 007F     		.2byte	0x7f00
 15045 1dfd 1A       		.byte	0x1a
 15046 1dfe 0A       		.byte	0xa
 15047 1dff FFFF     		.2byte	0xffff
 15048 1e01 1A       		.byte	0x1a
 15049 1e02 38       		.byte	0x38
 15050 1e03 26       		.byte	0x26
 15051 1e04 9F       		.byte	0x9f
 15052 1e05 93       		.byte	0x93
 15053 1e06 01       		.uleb128 0x1
 15054 1e07 51       		.byte	0x51
 15055 1e08 93       		.byte	0x93
 15056 1e09 01       		.uleb128 0x1
 15057 1e0a 1A000000 		.4byte	.LVL327
 15058 1e0e 54000000 		.4byte	.LVL334
 15059 1e12 1200     		.2byte	0x12
 15060 1e14 75       		.byte	0x75
 15061 1e15 00       		.sleb128 0
 15062 1e16 0A       		.byte	0xa
 15063 1e17 007F     		.2byte	0x7f00
 15064 1e19 1A       		.byte	0x1a
 15065 1e1a 0A       		.byte	0xa
 15066 1e1b FFFF     		.2byte	0xffff
 15067 1e1d 1A       		.byte	0x1a
 15068 1e1e 38       		.byte	0x38
 15069 1e1f 26       		.byte	0x26
 15070 1e20 9F       		.byte	0x9f
 15071 1e21 93       		.byte	0x93
 15072 1e22 01       		.uleb128 0x1
 15073 1e23 55       		.byte	0x55
 15074 1e24 93       		.byte	0x93
 15075 1e25 01       		.uleb128 0x1
 15076 1e26 00000000 		.4byte	0
 15077 1e2a 00000000 		.4byte	0
 15078              	.LLST204:
 15079 1e2e 40000000 		.4byte	.LVL332
 15080 1e32 57000000 		.4byte	.LVL335-1
 15081 1e36 0100     		.2byte	0x1
 15082 1e38 53       		.byte	0x53
 15083 1e39 00000000 		.4byte	0
 15084 1e3d 00000000 		.4byte	0
 15085              	.LLST205:
 15086 1e41 0C000000 		.4byte	.LVL325
 15087 1e45 1A000000 		.4byte	.LVL327
 15088 1e49 0D00     		.2byte	0xd
 15089 1e4b 71       		.byte	0x71
 15090 1e4c 00       		.sleb128 0
 15091 1e4d 0A       		.byte	0xa
 15092 1e4e 007F     		.2byte	0x7f00
ARM GAS  /tmp/ccxMPRSl.s 			page 267


 15093 1e50 1A       		.byte	0x1a
 15094 1e51 0A       		.byte	0xa
 15095 1e52 FFFF     		.2byte	0xffff
 15096 1e54 1A       		.byte	0x1a
 15097 1e55 38       		.byte	0x38
 15098 1e56 26       		.byte	0x26
 15099 1e57 9F       		.byte	0x9f
 15100 1e58 1A000000 		.4byte	.LVL327
 15101 1e5c 54000000 		.4byte	.LVL334
 15102 1e60 0D00     		.2byte	0xd
 15103 1e62 75       		.byte	0x75
 15104 1e63 00       		.sleb128 0
 15105 1e64 0A       		.byte	0xa
 15106 1e65 007F     		.2byte	0x7f00
 15107 1e67 1A       		.byte	0x1a
 15108 1e68 0A       		.byte	0xa
 15109 1e69 FFFF     		.2byte	0xffff
 15110 1e6b 1A       		.byte	0x1a
 15111 1e6c 38       		.byte	0x38
 15112 1e6d 26       		.byte	0x26
 15113 1e6e 9F       		.byte	0x9f
 15114 1e6f 00000000 		.4byte	0
 15115 1e73 00000000 		.4byte	0
 15116              	.LLST206:
 15117 1e77 0C000000 		.4byte	.LVL325
 15118 1e7b 20000000 		.4byte	.LVL329
 15119 1e7f 0700     		.2byte	0x7
 15120 1e81 76       		.byte	0x76
 15121 1e82 00       		.sleb128 0
 15122 1e83 31       		.byte	0x31
 15123 1e84 24       		.byte	0x24
 15124 1e85 23       		.byte	0x23
 15125 1e86 31       		.uleb128 0x31
 15126 1e87 9F       		.byte	0x9f
 15127 1e88 20000000 		.4byte	.LVL329
 15128 1e8c 54000000 		.4byte	.LVL334
 15129 1e90 0700     		.2byte	0x7
 15130 1e92 76       		.byte	0x76
 15131 1e93 67       		.sleb128 -25
 15132 1e94 31       		.byte	0x31
 15133 1e95 24       		.byte	0x24
 15134 1e96 23       		.byte	0x23
 15135 1e97 31       		.uleb128 0x31
 15136 1e98 9F       		.byte	0x9f
 15137 1e99 00000000 		.4byte	0
 15138 1e9d 00000000 		.4byte	0
 15139              	.LLST207:
 15140 1ea1 0C000000 		.4byte	.LVL325
 15141 1ea5 16000000 		.4byte	.LVL326
 15142 1ea9 0100     		.2byte	0x1
 15143 1eab 50       		.byte	0x50
 15144 1eac 16000000 		.4byte	.LVL326
 15145 1eb0 54000000 		.4byte	.LVL334
 15146 1eb4 0100     		.2byte	0x1
 15147 1eb6 54       		.byte	0x54
 15148 1eb7 54000000 		.4byte	.LVL334
 15149 1ebb 58000000 		.4byte	.LFE51
ARM GAS  /tmp/ccxMPRSl.s 			page 268


 15150 1ebf 0400     		.2byte	0x4
 15151 1ec1 F3       		.byte	0xf3
 15152 1ec2 01       		.uleb128 0x1
 15153 1ec3 50       		.byte	0x50
 15154 1ec4 9F       		.byte	0x9f
 15155 1ec5 00000000 		.4byte	0
 15156 1ec9 00000000 		.4byte	0
 15157              	.LLST208:
 15158 1ecd 28000000 		.4byte	.LVL330
 15159 1ed1 54000000 		.4byte	.LVL334
 15160 1ed5 0100     		.2byte	0x1
 15161 1ed7 55       		.byte	0x55
 15162 1ed8 00000000 		.4byte	0
 15163 1edc 00000000 		.4byte	0
 15164              	.LLST209:
 15165 1ee0 28000000 		.4byte	.LVL330
 15166 1ee4 54000000 		.4byte	.LVL334
 15167 1ee8 0100     		.2byte	0x1
 15168 1eea 54       		.byte	0x54
 15169 1eeb 54000000 		.4byte	.LVL334
 15170 1eef 58000000 		.4byte	.LFE51
 15171 1ef3 0400     		.2byte	0x4
 15172 1ef5 F3       		.byte	0xf3
 15173 1ef6 01       		.uleb128 0x1
 15174 1ef7 50       		.byte	0x50
 15175 1ef8 9F       		.byte	0x9f
 15176 1ef9 00000000 		.4byte	0
 15177 1efd 00000000 		.4byte	0
 15178              	.LLST210:
 15179 1f01 46000000 		.4byte	.LVL333
 15180 1f05 57000000 		.4byte	.LVL335-1
 15181 1f09 0100     		.2byte	0x1
 15182 1f0b 53       		.byte	0x53
 15183 1f0c 00000000 		.4byte	0
 15184 1f10 00000000 		.4byte	0
 15185              	.LLST211:
 15186 1f14 46000000 		.4byte	.LVL333
 15187 1f18 54000000 		.4byte	.LVL334
 15188 1f1c 0100     		.2byte	0x1
 15189 1f1e 54       		.byte	0x54
 15190 1f1f 54000000 		.4byte	.LVL334
 15191 1f23 58000000 		.4byte	.LFE51
 15192 1f27 0400     		.2byte	0x4
 15193 1f29 F3       		.byte	0xf3
 15194 1f2a 01       		.uleb128 0x1
 15195 1f2b 50       		.byte	0x50
 15196 1f2c 9F       		.byte	0x9f
 15197 1f2d 00000000 		.4byte	0
 15198 1f31 00000000 		.4byte	0
 15199              	.LLST212:
 15200 1f35 00000000 		.4byte	.LVL336
 15201 1f39 0E000000 		.4byte	.LVL338
 15202 1f3d 0100     		.2byte	0x1
 15203 1f3f 50       		.byte	0x50
 15204 1f40 0E000000 		.4byte	.LVL338
 15205 1f44 11000000 		.4byte	.LVL339-1
 15206 1f48 0100     		.2byte	0x1
ARM GAS  /tmp/ccxMPRSl.s 			page 269


 15207 1f4a 53       		.byte	0x53
 15208 1f4b 11000000 		.4byte	.LVL339-1
 15209 1f4f 24000000 		.4byte	.LFE52
 15210 1f53 0400     		.2byte	0x4
 15211 1f55 F3       		.byte	0xf3
 15212 1f56 01       		.uleb128 0x1
 15213 1f57 50       		.byte	0x50
 15214 1f58 9F       		.byte	0x9f
 15215 1f59 00000000 		.4byte	0
 15216 1f5d 00000000 		.4byte	0
 15217              	.LLST213:
 15218 1f61 12000000 		.4byte	.LVL339
 15219 1f65 22000000 		.4byte	.LVL340
 15220 1f69 0100     		.2byte	0x1
 15221 1f6b 50       		.byte	0x50
 15222 1f6c 00000000 		.4byte	0
 15223 1f70 00000000 		.4byte	0
 15224              	.LLST214:
 15225 1f74 04000000 		.4byte	.LVL337
 15226 1f78 0E000000 		.4byte	.LVL338
 15227 1f7c 0100     		.2byte	0x1
 15228 1f7e 50       		.byte	0x50
 15229 1f7f 0E000000 		.4byte	.LVL338
 15230 1f83 11000000 		.4byte	.LVL339-1
 15231 1f87 0100     		.2byte	0x1
 15232 1f89 53       		.byte	0x53
 15233 1f8a 11000000 		.4byte	.LVL339-1
 15234 1f8e 24000000 		.4byte	.LFE52
 15235 1f92 0400     		.2byte	0x4
 15236 1f94 F3       		.byte	0xf3
 15237 1f95 01       		.uleb128 0x1
 15238 1f96 50       		.byte	0x50
 15239 1f97 9F       		.byte	0x9f
 15240 1f98 00000000 		.4byte	0
 15241 1f9c 00000000 		.4byte	0
 15242              	.LLST215:
 15243 1fa0 00000000 		.4byte	.LVL341
 15244 1fa4 06000000 		.4byte	.LVL342
 15245 1fa8 0100     		.2byte	0x1
 15246 1faa 50       		.byte	0x50
 15247 1fab 06000000 		.4byte	.LVL342
 15248 1faf 2A000000 		.4byte	.LVL349
 15249 1fb3 0100     		.2byte	0x1
 15250 1fb5 54       		.byte	0x54
 15251 1fb6 2A000000 		.4byte	.LVL349
 15252 1fba 2E000000 		.4byte	.LFE53
 15253 1fbe 0400     		.2byte	0x4
 15254 1fc0 F3       		.byte	0xf3
 15255 1fc1 01       		.uleb128 0x1
 15256 1fc2 50       		.byte	0x50
 15257 1fc3 9F       		.byte	0x9f
 15258 1fc4 00000000 		.4byte	0
 15259 1fc8 00000000 		.4byte	0
 15260              	.LLST216:
 15261 1fcc 00000000 		.4byte	.LVL341
 15262 1fd0 24000000 		.4byte	.LVL347
 15263 1fd4 0100     		.2byte	0x1
ARM GAS  /tmp/ccxMPRSl.s 			page 270


 15264 1fd6 51       		.byte	0x51
 15265 1fd7 24000000 		.4byte	.LVL347
 15266 1fdb 2E000000 		.4byte	.LFE53
 15267 1fdf 0400     		.2byte	0x4
 15268 1fe1 F3       		.byte	0xf3
 15269 1fe2 01       		.uleb128 0x1
 15270 1fe3 51       		.byte	0x51
 15271 1fe4 9F       		.byte	0x9f
 15272 1fe5 00000000 		.4byte	0
 15273 1fe9 00000000 		.4byte	0
 15274              	.LLST217:
 15275 1fed 00000000 		.4byte	.LVL341
 15276 1ff1 26000000 		.4byte	.LVL348
 15277 1ff5 0100     		.2byte	0x1
 15278 1ff7 52       		.byte	0x52
 15279 1ff8 26000000 		.4byte	.LVL348
 15280 1ffc 2E000000 		.4byte	.LFE53
 15281 2000 0400     		.2byte	0x4
 15282 2002 F3       		.byte	0xf3
 15283 2003 01       		.uleb128 0x1
 15284 2004 52       		.byte	0x52
 15285 2005 9F       		.byte	0x9f
 15286 2006 00000000 		.4byte	0
 15287 200a 00000000 		.4byte	0
 15288              	.LLST218:
 15289 200e 00000000 		.4byte	.LVL341
 15290 2012 0A000000 		.4byte	.LVL343
 15291 2016 0100     		.2byte	0x1
 15292 2018 53       		.byte	0x53
 15293 2019 0A000000 		.4byte	.LVL343
 15294 201d 2E000000 		.4byte	.LFE53
 15295 2021 0400     		.2byte	0x4
 15296 2023 F3       		.byte	0xf3
 15297 2024 01       		.uleb128 0x1
 15298 2025 53       		.byte	0x53
 15299 2026 9F       		.byte	0x9f
 15300 2027 00000000 		.4byte	0
 15301 202b 00000000 		.4byte	0
 15302              	.LLST219:
 15303 202f 0A000000 		.4byte	.LVL343
 15304 2033 2D000000 		.4byte	.LVL350-1
 15305 2037 0100     		.2byte	0x1
 15306 2039 53       		.byte	0x53
 15307 203a 00000000 		.4byte	0
 15308 203e 00000000 		.4byte	0
 15309              	.LLST220:
 15310 2042 1C000000 		.4byte	.LVL346
 15311 2046 2D000000 		.4byte	.LVL350-1
 15312 204a 0100     		.2byte	0x1
 15313 204c 53       		.byte	0x53
 15314 204d 00000000 		.4byte	0
 15315 2051 00000000 		.4byte	0
 15316              	.LLST221:
 15317 2055 1C000000 		.4byte	.LVL346
 15318 2059 2A000000 		.4byte	.LVL349
 15319 205d 0100     		.2byte	0x1
 15320 205f 54       		.byte	0x54
ARM GAS  /tmp/ccxMPRSl.s 			page 271


 15321 2060 2A000000 		.4byte	.LVL349
 15322 2064 2E000000 		.4byte	.LFE53
 15323 2068 0400     		.2byte	0x4
 15324 206a F3       		.byte	0xf3
 15325 206b 01       		.uleb128 0x1
 15326 206c 50       		.byte	0x50
 15327 206d 9F       		.byte	0x9f
 15328 206e 00000000 		.4byte	0
 15329 2072 00000000 		.4byte	0
 15330              	.LLST222:
 15331 2076 00000000 		.4byte	.LVL351
 15332 207a 12000000 		.4byte	.LVL355
 15333 207e 0100     		.2byte	0x1
 15334 2080 50       		.byte	0x50
 15335 2081 12000000 		.4byte	.LVL355
 15336 2085 28000000 		.4byte	.LVL357
 15337 2089 0100     		.2byte	0x1
 15338 208b 54       		.byte	0x54
 15339 208c 28000000 		.4byte	.LVL357
 15340 2090 2C000000 		.4byte	.LFE54
 15341 2094 0400     		.2byte	0x4
 15342 2096 F3       		.byte	0xf3
 15343 2097 01       		.uleb128 0x1
 15344 2098 50       		.byte	0x50
 15345 2099 9F       		.byte	0x9f
 15346 209a 00000000 		.4byte	0
 15347 209e 00000000 		.4byte	0
 15348              	.LLST223:
 15349 20a2 00000000 		.4byte	.LVL351
 15350 20a6 0E000000 		.4byte	.LVL354
 15351 20aa 0100     		.2byte	0x1
 15352 20ac 51       		.byte	0x51
 15353 20ad 0E000000 		.4byte	.LVL354
 15354 20b1 2C000000 		.4byte	.LFE54
 15355 20b5 0400     		.2byte	0x4
 15356 20b7 F3       		.byte	0xf3
 15357 20b8 01       		.uleb128 0x1
 15358 20b9 51       		.byte	0x51
 15359 20ba 9F       		.byte	0x9f
 15360 20bb 00000000 		.4byte	0
 15361 20bf 00000000 		.4byte	0
 15362              	.LLST224:
 15363 20c3 06000000 		.4byte	.LVL353
 15364 20c7 0E000000 		.4byte	.LVL354
 15365 20cb 0D00     		.2byte	0xd
 15366 20cd 71       		.byte	0x71
 15367 20ce 00       		.sleb128 0
 15368 20cf 0A       		.byte	0xa
 15369 20d0 007F     		.2byte	0x7f00
 15370 20d2 1A       		.byte	0x1a
 15371 20d3 0A       		.byte	0xa
 15372 20d4 FFFF     		.2byte	0xffff
 15373 20d6 1A       		.byte	0x1a
 15374 20d7 38       		.byte	0x38
 15375 20d8 26       		.byte	0x26
 15376 20d9 9F       		.byte	0x9f
 15377 20da 0E000000 		.4byte	.LVL354
ARM GAS  /tmp/ccxMPRSl.s 			page 272


 15378 20de 28000000 		.4byte	.LVL357
 15379 20e2 0D00     		.2byte	0xd
 15380 20e4 75       		.byte	0x75
 15381 20e5 00       		.sleb128 0
 15382 20e6 0A       		.byte	0xa
 15383 20e7 007F     		.2byte	0x7f00
 15384 20e9 1A       		.byte	0x1a
 15385 20ea 0A       		.byte	0xa
 15386 20eb FFFF     		.2byte	0xffff
 15387 20ed 1A       		.byte	0x1a
 15388 20ee 38       		.byte	0x38
 15389 20ef 26       		.byte	0x26
 15390 20f0 9F       		.byte	0x9f
 15391 20f1 00000000 		.4byte	0
 15392 20f5 00000000 		.4byte	0
 15393              	.LLST225:
 15394 20f9 04000000 		.4byte	.LVL352
 15395 20fd 12000000 		.4byte	.LVL355
 15396 2101 0100     		.2byte	0x1
 15397 2103 50       		.byte	0x50
 15398 2104 12000000 		.4byte	.LVL355
 15399 2108 28000000 		.4byte	.LVL357
 15400 210c 0100     		.2byte	0x1
 15401 210e 54       		.byte	0x54
 15402 210f 28000000 		.4byte	.LVL357
 15403 2113 2C000000 		.4byte	.LFE54
 15404 2117 0400     		.2byte	0x4
 15405 2119 F3       		.byte	0xf3
 15406 211a 01       		.uleb128 0x1
 15407 211b 50       		.byte	0x50
 15408 211c 9F       		.byte	0x9f
 15409 211d 00000000 		.4byte	0
 15410 2121 00000000 		.4byte	0
 15411              	.LLST226:
 15412 2125 18000000 		.4byte	.LVL356
 15413 2129 28000000 		.4byte	.LVL357
 15414 212d 0100     		.2byte	0x1
 15415 212f 55       		.byte	0x55
 15416 2130 00000000 		.4byte	0
 15417 2134 00000000 		.4byte	0
 15418              	.LLST227:
 15419 2138 18000000 		.4byte	.LVL356
 15420 213c 28000000 		.4byte	.LVL357
 15421 2140 0100     		.2byte	0x1
 15422 2142 54       		.byte	0x54
 15423 2143 28000000 		.4byte	.LVL357
 15424 2147 2C000000 		.4byte	.LFE54
 15425 214b 0400     		.2byte	0x4
 15426 214d F3       		.byte	0xf3
 15427 214e 01       		.uleb128 0x1
 15428 214f 50       		.byte	0x50
 15429 2150 9F       		.byte	0x9f
 15430 2151 00000000 		.4byte	0
 15431 2155 00000000 		.4byte	0
 15432              	.LLST228:
 15433 2159 00000000 		.4byte	.LVL359
 15434 215d 0E000000 		.4byte	.LVL361
ARM GAS  /tmp/ccxMPRSl.s 			page 273


 15435 2161 0100     		.2byte	0x1
 15436 2163 50       		.byte	0x50
 15437 2164 0E000000 		.4byte	.LVL361
 15438 2168 11000000 		.4byte	.LVL362-1
 15439 216c 0100     		.2byte	0x1
 15440 216e 53       		.byte	0x53
 15441 216f 11000000 		.4byte	.LVL362-1
 15442 2173 20000000 		.4byte	.LFE55
 15443 2177 0400     		.2byte	0x4
 15444 2179 F3       		.byte	0xf3
 15445 217a 01       		.uleb128 0x1
 15446 217b 50       		.byte	0x50
 15447 217c 9F       		.byte	0x9f
 15448 217d 00000000 		.4byte	0
 15449 2181 00000000 		.4byte	0
 15450              	.LLST229:
 15451 2185 14000000 		.4byte	.LVL363
 15452 2189 18000000 		.4byte	.LVL364
 15453 218d 0100     		.2byte	0x1
 15454 218f 50       		.byte	0x50
 15455 2190 18000000 		.4byte	.LVL364
 15456 2194 20000000 		.4byte	.LFE55
 15457 2198 0100     		.2byte	0x1
 15458 219a 53       		.byte	0x53
 15459 219b 00000000 		.4byte	0
 15460 219f 00000000 		.4byte	0
 15461              	.LLST230:
 15462 21a3 04000000 		.4byte	.LVL360
 15463 21a7 0E000000 		.4byte	.LVL361
 15464 21ab 0100     		.2byte	0x1
 15465 21ad 50       		.byte	0x50
 15466 21ae 0E000000 		.4byte	.LVL361
 15467 21b2 11000000 		.4byte	.LVL362-1
 15468 21b6 0100     		.2byte	0x1
 15469 21b8 53       		.byte	0x53
 15470 21b9 11000000 		.4byte	.LVL362-1
 15471 21bd 20000000 		.4byte	.LFE55
 15472 21c1 0400     		.2byte	0x4
 15473 21c3 F3       		.byte	0xf3
 15474 21c4 01       		.uleb128 0x1
 15475 21c5 50       		.byte	0x50
 15476 21c6 9F       		.byte	0x9f
 15477 21c7 00000000 		.4byte	0
 15478 21cb 00000000 		.4byte	0
 15479              	.LLST231:
 15480 21cf 00000000 		.4byte	.LVL365
 15481 21d3 0A000000 		.4byte	.LVL367
 15482 21d7 0100     		.2byte	0x1
 15483 21d9 50       		.byte	0x50
 15484 21da 0A000000 		.4byte	.LVL367
 15485 21de 2E000000 		.4byte	.LVL371
 15486 21e2 0100     		.2byte	0x1
 15487 21e4 54       		.byte	0x54
 15488 21e5 2E000000 		.4byte	.LVL371
 15489 21e9 32000000 		.4byte	.LFE56
 15490 21ed 0400     		.2byte	0x4
 15491 21ef F3       		.byte	0xf3
ARM GAS  /tmp/ccxMPRSl.s 			page 274


 15492 21f0 01       		.uleb128 0x1
 15493 21f1 50       		.byte	0x50
 15494 21f2 9F       		.byte	0x9f
 15495 21f3 00000000 		.4byte	0
 15496 21f7 00000000 		.4byte	0
 15497              	.LLST232:
 15498 21fb 00000000 		.4byte	.LVL365
 15499 21ff 0E000000 		.4byte	.LVL368
 15500 2203 0100     		.2byte	0x1
 15501 2205 51       		.byte	0x51
 15502 2206 0E000000 		.4byte	.LVL368
 15503 220a 32000000 		.4byte	.LFE56
 15504 220e 0400     		.2byte	0x4
 15505 2210 F3       		.byte	0xf3
 15506 2211 01       		.uleb128 0x1
 15507 2212 51       		.byte	0x51
 15508 2213 9F       		.byte	0x9f
 15509 2214 00000000 		.4byte	0
 15510 2218 00000000 		.4byte	0
 15511              	.LLST233:
 15512 221c 14000000 		.4byte	.LVL369
 15513 2220 20000000 		.4byte	.LVL370
 15514 2224 0100     		.2byte	0x1
 15515 2226 50       		.byte	0x50
 15516 2227 20000000 		.4byte	.LVL370
 15517 222b 31000000 		.4byte	.LVL372-1
 15518 222f 0100     		.2byte	0x1
 15519 2231 53       		.byte	0x53
 15520 2232 00000000 		.4byte	0
 15521 2236 00000000 		.4byte	0
 15522              	.LLST234:
 15523 223a 04000000 		.4byte	.LVL366
 15524 223e 0A000000 		.4byte	.LVL367
 15525 2242 0100     		.2byte	0x1
 15526 2244 50       		.byte	0x50
 15527 2245 0A000000 		.4byte	.LVL367
 15528 2249 2E000000 		.4byte	.LVL371
 15529 224d 0100     		.2byte	0x1
 15530 224f 54       		.byte	0x54
 15531 2250 2E000000 		.4byte	.LVL371
 15532 2254 32000000 		.4byte	.LFE56
 15533 2258 0400     		.2byte	0x4
 15534 225a F3       		.byte	0xf3
 15535 225b 01       		.uleb128 0x1
 15536 225c 50       		.byte	0x50
 15537 225d 9F       		.byte	0x9f
 15538 225e 00000000 		.4byte	0
 15539 2262 00000000 		.4byte	0
 15540              	.LLST235:
 15541 2266 20000000 		.4byte	.LVL370
 15542 226a 31000000 		.4byte	.LVL372-1
 15543 226e 0100     		.2byte	0x1
 15544 2270 53       		.byte	0x53
 15545 2271 00000000 		.4byte	0
 15546 2275 00000000 		.4byte	0
 15547              	.LLST236:
 15548 2279 20000000 		.4byte	.LVL370
ARM GAS  /tmp/ccxMPRSl.s 			page 275


 15549 227d 2E000000 		.4byte	.LVL371
 15550 2281 0100     		.2byte	0x1
 15551 2283 54       		.byte	0x54
 15552 2284 2E000000 		.4byte	.LVL371
 15553 2288 32000000 		.4byte	.LFE56
 15554 228c 0400     		.2byte	0x4
 15555 228e F3       		.byte	0xf3
 15556 228f 01       		.uleb128 0x1
 15557 2290 50       		.byte	0x50
 15558 2291 9F       		.byte	0x9f
 15559 2292 00000000 		.4byte	0
 15560 2296 00000000 		.4byte	0
 15561              	.LLST237:
 15562 229a 00000000 		.4byte	.LVL373
 15563 229e 0A000000 		.4byte	.LVL375
 15564 22a2 0100     		.2byte	0x1
 15565 22a4 50       		.byte	0x50
 15566 22a5 0A000000 		.4byte	.LVL375
 15567 22a9 2E000000 		.4byte	.LVL379
 15568 22ad 0100     		.2byte	0x1
 15569 22af 54       		.byte	0x54
 15570 22b0 2E000000 		.4byte	.LVL379
 15571 22b4 32000000 		.4byte	.LFE57
 15572 22b8 0400     		.2byte	0x4
 15573 22ba F3       		.byte	0xf3
 15574 22bb 01       		.uleb128 0x1
 15575 22bc 50       		.byte	0x50
 15576 22bd 9F       		.byte	0x9f
 15577 22be 00000000 		.4byte	0
 15578 22c2 00000000 		.4byte	0
 15579              	.LLST238:
 15580 22c6 00000000 		.4byte	.LVL373
 15581 22ca 0E000000 		.4byte	.LVL376
 15582 22ce 0100     		.2byte	0x1
 15583 22d0 51       		.byte	0x51
 15584 22d1 0E000000 		.4byte	.LVL376
 15585 22d5 32000000 		.4byte	.LFE57
 15586 22d9 0400     		.2byte	0x4
 15587 22db F3       		.byte	0xf3
 15588 22dc 01       		.uleb128 0x1
 15589 22dd 51       		.byte	0x51
 15590 22de 9F       		.byte	0x9f
 15591 22df 00000000 		.4byte	0
 15592 22e3 00000000 		.4byte	0
 15593              	.LLST239:
 15594 22e7 14000000 		.4byte	.LVL377
 15595 22eb 20000000 		.4byte	.LVL378
 15596 22ef 0100     		.2byte	0x1
 15597 22f1 50       		.byte	0x50
 15598 22f2 20000000 		.4byte	.LVL378
 15599 22f6 31000000 		.4byte	.LVL380-1
 15600 22fa 0100     		.2byte	0x1
 15601 22fc 53       		.byte	0x53
 15602 22fd 00000000 		.4byte	0
 15603 2301 00000000 		.4byte	0
 15604              	.LLST240:
 15605 2305 04000000 		.4byte	.LVL374
ARM GAS  /tmp/ccxMPRSl.s 			page 276


 15606 2309 0A000000 		.4byte	.LVL375
 15607 230d 0100     		.2byte	0x1
 15608 230f 50       		.byte	0x50
 15609 2310 0A000000 		.4byte	.LVL375
 15610 2314 2E000000 		.4byte	.LVL379
 15611 2318 0100     		.2byte	0x1
 15612 231a 54       		.byte	0x54
 15613 231b 2E000000 		.4byte	.LVL379
 15614 231f 32000000 		.4byte	.LFE57
 15615 2323 0400     		.2byte	0x4
 15616 2325 F3       		.byte	0xf3
 15617 2326 01       		.uleb128 0x1
 15618 2327 50       		.byte	0x50
 15619 2328 9F       		.byte	0x9f
 15620 2329 00000000 		.4byte	0
 15621 232d 00000000 		.4byte	0
 15622              	.LLST241:
 15623 2331 20000000 		.4byte	.LVL378
 15624 2335 31000000 		.4byte	.LVL380-1
 15625 2339 0100     		.2byte	0x1
 15626 233b 53       		.byte	0x53
 15627 233c 00000000 		.4byte	0
 15628 2340 00000000 		.4byte	0
 15629              	.LLST242:
 15630 2344 20000000 		.4byte	.LVL378
 15631 2348 2E000000 		.4byte	.LVL379
 15632 234c 0100     		.2byte	0x1
 15633 234e 54       		.byte	0x54
 15634 234f 2E000000 		.4byte	.LVL379
 15635 2353 32000000 		.4byte	.LFE57
 15636 2357 0400     		.2byte	0x4
 15637 2359 F3       		.byte	0xf3
 15638 235a 01       		.uleb128 0x1
 15639 235b 50       		.byte	0x50
 15640 235c 9F       		.byte	0x9f
 15641 235d 00000000 		.4byte	0
 15642 2361 00000000 		.4byte	0
 15643              	.LLST243:
 15644 2365 00000000 		.4byte	.LVL381
 15645 2369 1C000000 		.4byte	.LVL384
 15646 236d 0100     		.2byte	0x1
 15647 236f 50       		.byte	0x50
 15648 2370 1C000000 		.4byte	.LVL384
 15649 2374 22000000 		.4byte	.LVL386
 15650 2378 0100     		.2byte	0x1
 15651 237a 54       		.byte	0x54
 15652 237b 22000000 		.4byte	.LVL386
 15653 237f 26000000 		.4byte	.LFE58
 15654 2383 0400     		.2byte	0x4
 15655 2385 F3       		.byte	0xf3
 15656 2386 01       		.uleb128 0x1
 15657 2387 50       		.byte	0x50
 15658 2388 9F       		.byte	0x9f
 15659 2389 00000000 		.4byte	0
 15660 238d 00000000 		.4byte	0
 15661              	.LLST244:
 15662 2391 00000000 		.4byte	.LVL381
ARM GAS  /tmp/ccxMPRSl.s 			page 277


 15663 2395 04000000 		.4byte	.LVL382
 15664 2399 0100     		.2byte	0x1
 15665 239b 51       		.byte	0x51
 15666 239c 04000000 		.4byte	.LVL382
 15667 23a0 26000000 		.4byte	.LFE58
 15668 23a4 0400     		.2byte	0x4
 15669 23a6 F3       		.byte	0xf3
 15670 23a7 01       		.uleb128 0x1
 15671 23a8 51       		.byte	0x51
 15672 23a9 9F       		.byte	0x9f
 15673 23aa 00000000 		.4byte	0
 15674 23ae 00000000 		.4byte	0
 15675              	.LLST245:
 15676 23b2 00000000 		.4byte	.LVL381
 15677 23b6 1E000000 		.4byte	.LVL385
 15678 23ba 0100     		.2byte	0x1
 15679 23bc 52       		.byte	0x52
 15680 23bd 1E000000 		.4byte	.LVL385
 15681 23c1 26000000 		.4byte	.LFE58
 15682 23c5 0400     		.2byte	0x4
 15683 23c7 F3       		.byte	0xf3
 15684 23c8 01       		.uleb128 0x1
 15685 23c9 52       		.byte	0x52
 15686 23ca 9F       		.byte	0x9f
 15687 23cb 00000000 		.4byte	0
 15688 23cf 00000000 		.4byte	0
 15689              	.LLST246:
 15690 23d3 00000000 		.4byte	.LVL381
 15691 23d7 1E000000 		.4byte	.LVL385
 15692 23db 1300     		.2byte	0x13
 15693 23dd 72       		.byte	0x72
 15694 23de 00       		.sleb128 0
 15695 23df 12       		.byte	0x12
 15696 23e0 08       		.byte	0x8
 15697 23e1 FF       		.byte	0xff
 15698 23e2 1A       		.byte	0x1a
 15699 23e3 4F       		.byte	0x4f
 15700 23e4 16       		.byte	0x16
 15701 23e5 14       		.byte	0x14
 15702 23e6 08       		.byte	0x8
 15703 23e7 FF       		.byte	0xff
 15704 23e8 1A       		.byte	0x1a
 15705 23e9 2D       		.byte	0x2d
 15706 23ea 28       		.byte	0x28
 15707 23eb 0100     		.2byte	0x1
 15708 23ed 16       		.byte	0x16
 15709 23ee 13       		.byte	0x13
 15710 23ef 9F       		.byte	0x9f
 15711 23f0 1E000000 		.4byte	.LVL385
 15712 23f4 26000000 		.4byte	.LFE58
 15713 23f8 1400     		.2byte	0x14
 15714 23fa F3       		.byte	0xf3
 15715 23fb 01       		.uleb128 0x1
 15716 23fc 52       		.byte	0x52
 15717 23fd 12       		.byte	0x12
 15718 23fe 08       		.byte	0x8
 15719 23ff FF       		.byte	0xff
ARM GAS  /tmp/ccxMPRSl.s 			page 278


 15720 2400 1A       		.byte	0x1a
 15721 2401 4F       		.byte	0x4f
 15722 2402 16       		.byte	0x16
 15723 2403 14       		.byte	0x14
 15724 2404 08       		.byte	0x8
 15725 2405 FF       		.byte	0xff
 15726 2406 1A       		.byte	0x1a
 15727 2407 2D       		.byte	0x2d
 15728 2408 28       		.byte	0x28
 15729 2409 0100     		.2byte	0x1
 15730 240b 16       		.byte	0x16
 15731 240c 13       		.byte	0x13
 15732 240d 9F       		.byte	0x9f
 15733 240e 00000000 		.4byte	0
 15734 2412 00000000 		.4byte	0
 15735              	.LLST247:
 15736 2416 12000000 		.4byte	.LVL383
 15737 241a 1E000000 		.4byte	.LVL385
 15738 241e 1900     		.2byte	0x19
 15739 2420 72       		.byte	0x72
 15740 2421 00       		.sleb128 0
 15741 2422 12       		.byte	0x12
 15742 2423 08       		.byte	0x8
 15743 2424 FF       		.byte	0xff
 15744 2425 1A       		.byte	0x1a
 15745 2426 4F       		.byte	0x4f
 15746 2427 16       		.byte	0x16
 15747 2428 14       		.byte	0x14
 15748 2429 08       		.byte	0x8
 15749 242a FF       		.byte	0xff
 15750 242b 1A       		.byte	0x1a
 15751 242c 2D       		.byte	0x2d
 15752 242d 28       		.byte	0x28
 15753 242e 0100     		.2byte	0x1
 15754 2430 16       		.byte	0x16
 15755 2431 13       		.byte	0x13
 15756 2432 F3       		.byte	0xf3
 15757 2433 01       		.uleb128 0x1
 15758 2434 51       		.byte	0x51
 15759 2435 35       		.byte	0x35
 15760 2436 24       		.byte	0x24
 15761 2437 21       		.byte	0x21
 15762 2438 9F       		.byte	0x9f
 15763 2439 1E000000 		.4byte	.LVL385
 15764 243d 26000000 		.4byte	.LFE58
 15765 2441 1A00     		.2byte	0x1a
 15766 2443 F3       		.byte	0xf3
 15767 2444 01       		.uleb128 0x1
 15768 2445 52       		.byte	0x52
 15769 2446 12       		.byte	0x12
 15770 2447 08       		.byte	0x8
 15771 2448 FF       		.byte	0xff
 15772 2449 1A       		.byte	0x1a
 15773 244a 4F       		.byte	0x4f
 15774 244b 16       		.byte	0x16
 15775 244c 14       		.byte	0x14
 15776 244d 08       		.byte	0x8
ARM GAS  /tmp/ccxMPRSl.s 			page 279


 15777 244e FF       		.byte	0xff
 15778 244f 1A       		.byte	0x1a
 15779 2450 2D       		.byte	0x2d
 15780 2451 28       		.byte	0x28
 15781 2452 0100     		.2byte	0x1
 15782 2454 16       		.byte	0x16
 15783 2455 13       		.byte	0x13
 15784 2456 F3       		.byte	0xf3
 15785 2457 01       		.uleb128 0x1
 15786 2458 51       		.byte	0x51
 15787 2459 35       		.byte	0x35
 15788 245a 24       		.byte	0x24
 15789 245b 21       		.byte	0x21
 15790 245c 9F       		.byte	0x9f
 15791 245d 00000000 		.4byte	0
 15792 2461 00000000 		.4byte	0
 15793              	.LLST248:
 15794 2465 12000000 		.4byte	.LVL383
 15795 2469 1C000000 		.4byte	.LVL384
 15796 246d 0100     		.2byte	0x1
 15797 246f 50       		.byte	0x50
 15798 2470 1C000000 		.4byte	.LVL384
 15799 2474 22000000 		.4byte	.LVL386
 15800 2478 0100     		.2byte	0x1
 15801 247a 54       		.byte	0x54
 15802 247b 22000000 		.4byte	.LVL386
 15803 247f 26000000 		.4byte	.LFE58
 15804 2483 0400     		.2byte	0x4
 15805 2485 F3       		.byte	0xf3
 15806 2486 01       		.uleb128 0x1
 15807 2487 50       		.byte	0x50
 15808 2488 9F       		.byte	0x9f
 15809 2489 00000000 		.4byte	0
 15810 248d 00000000 		.4byte	0
 15811              	.LLST249:
 15812 2491 00000000 		.4byte	.LVL388
 15813 2495 1D000000 		.4byte	.LVL390-1
 15814 2499 0100     		.2byte	0x1
 15815 249b 50       		.byte	0x50
 15816 249c 1D000000 		.4byte	.LVL390-1
 15817 24a0 54010000 		.4byte	.LFE17
 15818 24a4 0100     		.2byte	0x1
 15819 24a6 54       		.byte	0x54
 15820 24a7 00000000 		.4byte	0
 15821 24ab 00000000 		.4byte	0
 15822              	.LLST250:
 15823 24af 00000000 		.4byte	.LVL388
 15824 24b3 0E000000 		.4byte	.LVL389
 15825 24b7 0100     		.2byte	0x1
 15826 24b9 51       		.byte	0x51
 15827 24ba 0E000000 		.4byte	.LVL389
 15828 24be 54010000 		.4byte	.LFE17
 15829 24c2 0400     		.2byte	0x4
 15830 24c4 F3       		.byte	0xf3
 15831 24c5 01       		.uleb128 0x1
 15832 24c6 51       		.byte	0x51
 15833 24c7 9F       		.byte	0x9f
ARM GAS  /tmp/ccxMPRSl.s 			page 280


 15834 24c8 00000000 		.4byte	0
 15835 24cc 00000000 		.4byte	0
 15836              	.LLST251:
 15837 24d0 00000000 		.4byte	.LVL388
 15838 24d4 3A000000 		.4byte	.LVL393
 15839 24d8 0200     		.2byte	0x2
 15840 24da 30       		.byte	0x30
 15841 24db 9F       		.byte	0x9f
 15842 24dc 3A000000 		.4byte	.LVL393
 15843 24e0 58000000 		.4byte	.LVL395
 15844 24e4 0100     		.2byte	0x1
 15845 24e6 50       		.byte	0x50
 15846 24e7 58000000 		.4byte	.LVL395
 15847 24eb 54010000 		.4byte	.LFE17
 15848 24ef 0300     		.2byte	0x3
 15849 24f1 91       		.byte	0x91
 15850 24f2 BC7F     		.sleb128 -68
 15851 24f4 00000000 		.4byte	0
 15852 24f8 00000000 		.4byte	0
 15853              	.LLST252:
 15854 24fc 3E000000 		.4byte	.LVL394
 15855 2500 58000000 		.4byte	.LVL395
 15856 2504 0200     		.2byte	0x2
 15857 2506 30       		.byte	0x30
 15858 2507 9F       		.byte	0x9f
 15859 2508 5A000000 		.4byte	.LVL396
 15860 250c C2000000 		.4byte	.LVL402
 15861 2510 0300     		.2byte	0x3
 15862 2512 75       		.byte	0x75
 15863 2513 7F       		.sleb128 -1
 15864 2514 9F       		.byte	0x9f
 15865 2515 C2000000 		.4byte	.LVL402
 15866 2519 C8000000 		.4byte	.LVL403
 15867 251d 0300     		.2byte	0x3
 15868 251f 75       		.byte	0x75
 15869 2520 7E       		.sleb128 -2
 15870 2521 9F       		.byte	0x9f
 15871 2522 D6000000 		.4byte	.LVL404
 15872 2526 E2000000 		.4byte	.LVL405
 15873 252a 0200     		.2byte	0x2
 15874 252c 30       		.byte	0x30
 15875 252d 9F       		.byte	0x9f
 15876 252e 00000000 		.4byte	0
 15877 2532 00000000 		.4byte	0
 15878              	.LLST253:
 15879 2536 EC000000 		.4byte	.LVL406
 15880 253a EE000000 		.4byte	.LVL407
 15881 253e 0100     		.2byte	0x1
 15882 2540 50       		.byte	0x50
 15883 2541 00000000 		.4byte	0
 15884 2545 00000000 		.4byte	0
 15885              	.LLST254:
 15886 2549 06010000 		.4byte	.LVL410
 15887 254d 0B010000 		.4byte	.LVL411-1
 15888 2551 0100     		.2byte	0x1
 15889 2553 53       		.byte	0x53
 15890 2554 0B010000 		.4byte	.LVL411-1
ARM GAS  /tmp/ccxMPRSl.s 			page 281


 15891 2558 30010000 		.4byte	.LVL413
 15892 255c 0600     		.2byte	0x6
 15893 255e 77       		.byte	0x77
 15894 255f 00       		.sleb128 0
 15895 2560 7B       		.byte	0x7b
 15896 2561 00       		.sleb128 0
 15897 2562 1B       		.byte	0x1b
 15898 2563 9F       		.byte	0x9f
 15899 2564 32010000 		.4byte	.LVL414
 15900 2568 54010000 		.4byte	.LFE17
 15901 256c 0600     		.2byte	0x6
 15902 256e 77       		.byte	0x77
 15903 256f 00       		.sleb128 0
 15904 2570 7B       		.byte	0x7b
 15905 2571 00       		.sleb128 0
 15906 2572 1B       		.byte	0x1b
 15907 2573 9F       		.byte	0x9f
 15908 2574 00000000 		.4byte	0
 15909 2578 00000000 		.4byte	0
 15910              	.LLST255:
 15911 257c 00000000 		.4byte	.LVL417
 15912 2580 0E000000 		.4byte	.LVL419
 15913 2584 0100     		.2byte	0x1
 15914 2586 50       		.byte	0x50
 15915 2587 0E000000 		.4byte	.LVL419
 15916 258b 11000000 		.4byte	.LVL420-1
 15917 258f 0100     		.2byte	0x1
 15918 2591 53       		.byte	0x53
 15919 2592 11000000 		.4byte	.LVL420-1
 15920 2596 18000000 		.4byte	.LFE59
 15921 259a 0400     		.2byte	0x4
 15922 259c F3       		.byte	0xf3
 15923 259d 01       		.uleb128 0x1
 15924 259e 50       		.byte	0x50
 15925 259f 9F       		.byte	0x9f
 15926 25a0 00000000 		.4byte	0
 15927 25a4 00000000 		.4byte	0
 15928              	.LLST256:
 15929 25a8 04000000 		.4byte	.LVL418
 15930 25ac 0E000000 		.4byte	.LVL419
 15931 25b0 0100     		.2byte	0x1
 15932 25b2 50       		.byte	0x50
 15933 25b3 0E000000 		.4byte	.LVL419
 15934 25b7 11000000 		.4byte	.LVL420-1
 15935 25bb 0100     		.2byte	0x1
 15936 25bd 53       		.byte	0x53
 15937 25be 11000000 		.4byte	.LVL420-1
 15938 25c2 18000000 		.4byte	.LFE59
 15939 25c6 0400     		.2byte	0x4
 15940 25c8 F3       		.byte	0xf3
 15941 25c9 01       		.uleb128 0x1
 15942 25ca 50       		.byte	0x50
 15943 25cb 9F       		.byte	0x9f
 15944 25cc 00000000 		.4byte	0
 15945 25d0 00000000 		.4byte	0
 15946              	.LLST257:
 15947 25d4 00000000 		.4byte	.LVL422
ARM GAS  /tmp/ccxMPRSl.s 			page 282


 15948 25d8 13000000 		.4byte	.LVL423-1
 15949 25dc 0100     		.2byte	0x1
 15950 25de 50       		.byte	0x50
 15951 25df 13000000 		.4byte	.LVL423-1
 15952 25e3 80000000 		.4byte	.LFE14
 15953 25e7 0100     		.2byte	0x1
 15954 25e9 54       		.byte	0x54
 15955 25ea 00000000 		.4byte	0
 15956 25ee 00000000 		.4byte	0
 15957              	.LLST258:
 15958 25f2 4E000000 		.4byte	.LVL431
 15959 25f6 54000000 		.4byte	.LVL432
 15960 25fa 0100     		.2byte	0x1
 15961 25fc 50       		.byte	0x50
 15962 25fd 54000000 		.4byte	.LVL432
 15963 2601 5E000000 		.4byte	.LVL435
 15964 2605 0100     		.2byte	0x1
 15965 2607 55       		.byte	0x55
 15966 2608 00000000 		.4byte	0
 15967 260c 00000000 		.4byte	0
 15968              	.LLST259:
 15969 2610 58000000 		.4byte	.LVL433
 15970 2614 5C000000 		.4byte	.LVL434
 15971 2618 0100     		.2byte	0x1
 15972 261a 50       		.byte	0x50
 15973 261b 00000000 		.4byte	0
 15974 261f 00000000 		.4byte	0
 15975              	.LLST260:
 15976 2623 58000000 		.4byte	.LVL433
 15977 2627 5C000000 		.4byte	.LVL434
 15978 262b 0E00     		.2byte	0xe
 15979 262d 70       		.byte	0x70
 15980 262e 00       		.sleb128 0
 15981 262f 08       		.byte	0x8
 15982 2630 FF       		.byte	0xff
 15983 2631 1A       		.byte	0x1a
 15984 2632 38       		.byte	0x38
 15985 2633 24       		.byte	0x24
 15986 2634 75       		.byte	0x75
 15987 2635 00       		.sleb128 0
 15988 2636 08       		.byte	0x8
 15989 2637 FF       		.byte	0xff
 15990 2638 1A       		.byte	0x1a
 15991 2639 21       		.byte	0x21
 15992 263a 9F       		.byte	0x9f
 15993 263b 00000000 		.4byte	0
 15994 263f 00000000 		.4byte	0
 15995              	.LLST261:
 15996 2643 00000000 		.4byte	.LVL440
 15997 2647 0A000000 		.4byte	.LVL441
 15998 264b 0100     		.2byte	0x1
 15999 264d 50       		.byte	0x50
 16000 264e 0A000000 		.4byte	.LVL441
 16001 2652 14000000 		.4byte	.LVL444
 16002 2656 0100     		.2byte	0x1
 16003 2658 54       		.byte	0x54
 16004 2659 14000000 		.4byte	.LVL444
ARM GAS  /tmp/ccxMPRSl.s 			page 283


 16005 265d 18000000 		.4byte	.LFE61
 16006 2661 0400     		.2byte	0x4
 16007 2663 F3       		.byte	0xf3
 16008 2664 01       		.uleb128 0x1
 16009 2665 50       		.byte	0x50
 16010 2666 9F       		.byte	0x9f
 16011 2667 00000000 		.4byte	0
 16012 266b 00000000 		.4byte	0
 16013              	.LLST262:
 16014 266f 00000000 		.4byte	.LVL440
 16015 2673 10000000 		.4byte	.LVL443
 16016 2677 0100     		.2byte	0x1
 16017 2679 51       		.byte	0x51
 16018 267a 10000000 		.4byte	.LVL443
 16019 267e 18000000 		.4byte	.LFE61
 16020 2682 0400     		.2byte	0x4
 16021 2684 F3       		.byte	0xf3
 16022 2685 01       		.uleb128 0x1
 16023 2686 51       		.byte	0x51
 16024 2687 9F       		.byte	0x9f
 16025 2688 00000000 		.4byte	0
 16026 268c 00000000 		.4byte	0
 16027              	.LLST263:
 16028 2690 00000000 		.4byte	.LVL440
 16029 2694 0C000000 		.4byte	.LVL442
 16030 2698 0100     		.2byte	0x1
 16031 269a 52       		.byte	0x52
 16032 269b 0C000000 		.4byte	.LVL442
 16033 269f 18000000 		.4byte	.LFE61
 16034 26a3 0400     		.2byte	0x4
 16035 26a5 F3       		.byte	0xf3
 16036 26a6 01       		.uleb128 0x1
 16037 26a7 52       		.byte	0x52
 16038 26a8 9F       		.byte	0x9f
 16039 26a9 00000000 		.4byte	0
 16040 26ad 00000000 		.4byte	0
 16041              	.LLST264:
 16042 26b1 00000000 		.4byte	.LVL446
 16043 26b5 0A000000 		.4byte	.LVL447
 16044 26b9 0100     		.2byte	0x1
 16045 26bb 50       		.byte	0x50
 16046 26bc 0A000000 		.4byte	.LVL447
 16047 26c0 14000000 		.4byte	.LVL450
 16048 26c4 0100     		.2byte	0x1
 16049 26c6 54       		.byte	0x54
 16050 26c7 14000000 		.4byte	.LVL450
 16051 26cb 18000000 		.4byte	.LFE62
 16052 26cf 0400     		.2byte	0x4
 16053 26d1 F3       		.byte	0xf3
 16054 26d2 01       		.uleb128 0x1
 16055 26d3 50       		.byte	0x50
 16056 26d4 9F       		.byte	0x9f
 16057 26d5 00000000 		.4byte	0
 16058 26d9 00000000 		.4byte	0
 16059              	.LLST265:
 16060 26dd 00000000 		.4byte	.LVL446
 16061 26e1 10000000 		.4byte	.LVL449
ARM GAS  /tmp/ccxMPRSl.s 			page 284


 16062 26e5 0100     		.2byte	0x1
 16063 26e7 51       		.byte	0x51
 16064 26e8 10000000 		.4byte	.LVL449
 16065 26ec 18000000 		.4byte	.LFE62
 16066 26f0 0400     		.2byte	0x4
 16067 26f2 F3       		.byte	0xf3
 16068 26f3 01       		.uleb128 0x1
 16069 26f4 51       		.byte	0x51
 16070 26f5 9F       		.byte	0x9f
 16071 26f6 00000000 		.4byte	0
 16072 26fa 00000000 		.4byte	0
 16073              	.LLST266:
 16074 26fe 00000000 		.4byte	.LVL446
 16075 2702 0C000000 		.4byte	.LVL448
 16076 2706 0100     		.2byte	0x1
 16077 2708 52       		.byte	0x52
 16078 2709 0C000000 		.4byte	.LVL448
 16079 270d 18000000 		.4byte	.LFE62
 16080 2711 0400     		.2byte	0x4
 16081 2713 F3       		.byte	0xf3
 16082 2714 01       		.uleb128 0x1
 16083 2715 52       		.byte	0x52
 16084 2716 9F       		.byte	0x9f
 16085 2717 00000000 		.4byte	0
 16086 271b 00000000 		.4byte	0
 16087              	.LLST267:
 16088 271f 00000000 		.4byte	.LVL452
 16089 2723 08000000 		.4byte	.LVL453
 16090 2727 0100     		.2byte	0x1
 16091 2729 50       		.byte	0x50
 16092 272a 08000000 		.4byte	.LVL453
 16093 272e 0F000000 		.4byte	.LVL455-1
 16094 2732 0100     		.2byte	0x1
 16095 2734 53       		.byte	0x53
 16096 2735 0F000000 		.4byte	.LVL455-1
 16097 2739 10000000 		.4byte	.LFE63
 16098 273d 0400     		.2byte	0x4
 16099 273f F3       		.byte	0xf3
 16100 2740 01       		.uleb128 0x1
 16101 2741 50       		.byte	0x50
 16102 2742 9F       		.byte	0x9f
 16103 2743 00000000 		.4byte	0
 16104 2747 00000000 		.4byte	0
 16105              	.LLST268:
 16106 274b 00000000 		.4byte	.LVL452
 16107 274f 0C000000 		.4byte	.LVL454
 16108 2753 0100     		.2byte	0x1
 16109 2755 51       		.byte	0x51
 16110 2756 0C000000 		.4byte	.LVL454
 16111 275a 10000000 		.4byte	.LFE63
 16112 275e 0400     		.2byte	0x4
 16113 2760 F3       		.byte	0xf3
 16114 2761 01       		.uleb128 0x1
 16115 2762 51       		.byte	0x51
 16116 2763 9F       		.byte	0x9f
 16117 2764 00000000 		.4byte	0
 16118 2768 00000000 		.4byte	0
ARM GAS  /tmp/ccxMPRSl.s 			page 285


 16119              	.LLST269:
 16120 276c 00000000 		.4byte	.LVL456
 16121 2770 0E000000 		.4byte	.LVL457
 16122 2774 0100     		.2byte	0x1
 16123 2776 50       		.byte	0x50
 16124 2777 0E000000 		.4byte	.LVL457
 16125 277b 20000000 		.4byte	.LFE64
 16126 277f 0400     		.2byte	0x4
 16127 2781 F3       		.byte	0xf3
 16128 2782 01       		.uleb128 0x1
 16129 2783 50       		.byte	0x50
 16130 2784 9F       		.byte	0x9f
 16131 2785 00000000 		.4byte	0
 16132 2789 00000000 		.4byte	0
 16133              	.LLST270:
 16134 278d 00000000 		.4byte	.LVL456
 16135 2791 16000000 		.4byte	.LVL460
 16136 2795 0100     		.2byte	0x1
 16137 2797 51       		.byte	0x51
 16138 2798 16000000 		.4byte	.LVL460
 16139 279c 20000000 		.4byte	.LFE64
 16140 27a0 0400     		.2byte	0x4
 16141 27a2 F3       		.byte	0xf3
 16142 27a3 01       		.uleb128 0x1
 16143 27a4 51       		.byte	0x51
 16144 27a5 9F       		.byte	0x9f
 16145 27a6 00000000 		.4byte	0
 16146 27aa 00000000 		.4byte	0
 16147              	.LLST271:
 16148 27ae 00000000 		.4byte	.LVL456
 16149 27b2 12000000 		.4byte	.LVL458
 16150 27b6 0100     		.2byte	0x1
 16151 27b8 52       		.byte	0x52
 16152 27b9 12000000 		.4byte	.LVL458
 16153 27bd 18000000 		.4byte	.LVL461
 16154 27c1 0100     		.2byte	0x1
 16155 27c3 50       		.byte	0x50
 16156 27c4 18000000 		.4byte	.LVL461
 16157 27c8 1B000000 		.4byte	.LVL462-1
 16158 27cc 0100     		.2byte	0x1
 16159 27ce 53       		.byte	0x53
 16160 27cf 1B000000 		.4byte	.LVL462-1
 16161 27d3 20000000 		.4byte	.LFE64
 16162 27d7 0400     		.2byte	0x4
 16163 27d9 F3       		.byte	0xf3
 16164 27da 01       		.uleb128 0x1
 16165 27db 52       		.byte	0x52
 16166 27dc 9F       		.byte	0x9f
 16167 27dd 00000000 		.4byte	0
 16168 27e1 00000000 		.4byte	0
 16169              	.LLST272:
 16170 27e5 00000000 		.4byte	.LVL456
 16171 27e9 14000000 		.4byte	.LVL459
 16172 27ed 0100     		.2byte	0x1
 16173 27ef 53       		.byte	0x53
 16174 27f0 14000000 		.4byte	.LVL459
 16175 27f4 20000000 		.4byte	.LFE64
ARM GAS  /tmp/ccxMPRSl.s 			page 286


 16176 27f8 0400     		.2byte	0x4
 16177 27fa F3       		.byte	0xf3
 16178 27fb 01       		.uleb128 0x1
 16179 27fc 53       		.byte	0x53
 16180 27fd 9F       		.byte	0x9f
 16181 27fe 00000000 		.4byte	0
 16182 2802 00000000 		.4byte	0
 16183              	.LLST273:
 16184 2806 00000000 		.4byte	.LVL463
 16185 280a 08000000 		.4byte	.LVL464
 16186 280e 0100     		.2byte	0x1
 16187 2810 50       		.byte	0x50
 16188 2811 08000000 		.4byte	.LVL464
 16189 2815 0F000000 		.4byte	.LVL466-1
 16190 2819 0100     		.2byte	0x1
 16191 281b 53       		.byte	0x53
 16192 281c 0F000000 		.4byte	.LVL466-1
 16193 2820 10000000 		.4byte	.LFE65
 16194 2824 0400     		.2byte	0x4
 16195 2826 F3       		.byte	0xf3
 16196 2827 01       		.uleb128 0x1
 16197 2828 50       		.byte	0x50
 16198 2829 9F       		.byte	0x9f
 16199 282a 00000000 		.4byte	0
 16200 282e 00000000 		.4byte	0
 16201              	.LLST274:
 16202 2832 00000000 		.4byte	.LVL463
 16203 2836 0C000000 		.4byte	.LVL465
 16204 283a 0100     		.2byte	0x1
 16205 283c 51       		.byte	0x51
 16206 283d 0C000000 		.4byte	.LVL465
 16207 2841 10000000 		.4byte	.LFE65
 16208 2845 0400     		.2byte	0x4
 16209 2847 F3       		.byte	0xf3
 16210 2848 01       		.uleb128 0x1
 16211 2849 51       		.byte	0x51
 16212 284a 9F       		.byte	0x9f
 16213 284b 00000000 		.4byte	0
 16214 284f 00000000 		.4byte	0
 16215              	.LLST275:
 16216 2853 00000000 		.4byte	.LVL467
 16217 2857 0E000000 		.4byte	.LVL468
 16218 285b 0100     		.2byte	0x1
 16219 285d 50       		.byte	0x50
 16220 285e 0E000000 		.4byte	.LVL468
 16221 2862 20000000 		.4byte	.LFE66
 16222 2866 0400     		.2byte	0x4
 16223 2868 F3       		.byte	0xf3
 16224 2869 01       		.uleb128 0x1
 16225 286a 50       		.byte	0x50
 16226 286b 9F       		.byte	0x9f
 16227 286c 00000000 		.4byte	0
 16228 2870 00000000 		.4byte	0
 16229              	.LLST276:
 16230 2874 00000000 		.4byte	.LVL467
 16231 2878 16000000 		.4byte	.LVL471
 16232 287c 0100     		.2byte	0x1
ARM GAS  /tmp/ccxMPRSl.s 			page 287


 16233 287e 51       		.byte	0x51
 16234 287f 16000000 		.4byte	.LVL471
 16235 2883 20000000 		.4byte	.LFE66
 16236 2887 0400     		.2byte	0x4
 16237 2889 F3       		.byte	0xf3
 16238 288a 01       		.uleb128 0x1
 16239 288b 51       		.byte	0x51
 16240 288c 9F       		.byte	0x9f
 16241 288d 00000000 		.4byte	0
 16242 2891 00000000 		.4byte	0
 16243              	.LLST277:
 16244 2895 00000000 		.4byte	.LVL467
 16245 2899 12000000 		.4byte	.LVL469
 16246 289d 0100     		.2byte	0x1
 16247 289f 52       		.byte	0x52
 16248 28a0 12000000 		.4byte	.LVL469
 16249 28a4 18000000 		.4byte	.LVL472
 16250 28a8 0100     		.2byte	0x1
 16251 28aa 50       		.byte	0x50
 16252 28ab 18000000 		.4byte	.LVL472
 16253 28af 1B000000 		.4byte	.LVL473-1
 16254 28b3 0100     		.2byte	0x1
 16255 28b5 53       		.byte	0x53
 16256 28b6 1B000000 		.4byte	.LVL473-1
 16257 28ba 20000000 		.4byte	.LFE66
 16258 28be 0400     		.2byte	0x4
 16259 28c0 F3       		.byte	0xf3
 16260 28c1 01       		.uleb128 0x1
 16261 28c2 52       		.byte	0x52
 16262 28c3 9F       		.byte	0x9f
 16263 28c4 00000000 		.4byte	0
 16264 28c8 00000000 		.4byte	0
 16265              	.LLST278:
 16266 28cc 00000000 		.4byte	.LVL467
 16267 28d0 14000000 		.4byte	.LVL470
 16268 28d4 0100     		.2byte	0x1
 16269 28d6 53       		.byte	0x53
 16270 28d7 14000000 		.4byte	.LVL470
 16271 28db 20000000 		.4byte	.LFE66
 16272 28df 0400     		.2byte	0x4
 16273 28e1 F3       		.byte	0xf3
 16274 28e2 01       		.uleb128 0x1
 16275 28e3 53       		.byte	0x53
 16276 28e4 9F       		.byte	0x9f
 16277 28e5 00000000 		.4byte	0
 16278 28e9 00000000 		.4byte	0
 16279              		.section	.debug_aranges,"",%progbits
 16280 0000 D4010000 		.4byte	0x1d4
 16281 0004 0200     		.2byte	0x2
 16282 0006 00000000 		.4byte	.Ldebug_info0
 16283 000a 04       		.byte	0x4
 16284 000b 00       		.byte	0
 16285 000c 0000     		.2byte	0
 16286 000e 0000     		.2byte	0
 16287 0010 00000000 		.4byte	.LFB13
 16288 0014 B2000000 		.4byte	.LFE13-.LFB13
 16289 0018 00000000 		.4byte	.LFB8
ARM GAS  /tmp/ccxMPRSl.s 			page 288


 16290 001c 16000000 		.4byte	.LFE8-.LFB8
 16291 0020 00000000 		.4byte	.LFB11
 16292 0024 1A000000 		.4byte	.LFE11-.LFB11
 16293 0028 00000000 		.4byte	.LFB15
 16294 002c D4000000 		.4byte	.LFE15-.LFB15
 16295 0030 00000000 		.4byte	.LFB16
 16296 0034 98000000 		.4byte	.LFE16-.LFB16
 16297 0038 00000000 		.4byte	.LFB19
 16298 003c 3E000000 		.4byte	.LFE19-.LFB19
 16299 0040 00000000 		.4byte	.LFB20
 16300 0044 AC000000 		.4byte	.LFE20-.LFB20
 16301 0048 00000000 		.4byte	.LFB21
 16302 004c 18000000 		.4byte	.LFE21-.LFB21
 16303 0050 00000000 		.4byte	.LFB22
 16304 0054 18000000 		.4byte	.LFE22-.LFB22
 16305 0058 00000000 		.4byte	.LFB23
 16306 005c 18000000 		.4byte	.LFE23-.LFB23
 16307 0060 00000000 		.4byte	.LFB24
 16308 0064 20000000 		.4byte	.LFE24-.LFB24
 16309 0068 00000000 		.4byte	.LFB25
 16310 006c 66000000 		.4byte	.LFE25-.LFB25
 16311 0070 00000000 		.4byte	.LFB26
 16312 0074 48000000 		.4byte	.LFE26-.LFB26
 16313 0078 00000000 		.4byte	.LFB27
 16314 007c 48000000 		.4byte	.LFE27-.LFB27
 16315 0080 00000000 		.4byte	.LFB18
 16316 0084 D2000000 		.4byte	.LFE18-.LFB18
 16317 0088 00000000 		.4byte	.LFB28
 16318 008c 36000000 		.4byte	.LFE28-.LFB28
 16319 0090 00000000 		.4byte	.LFB29
 16320 0094 2C000000 		.4byte	.LFE29-.LFB29
 16321 0098 00000000 		.4byte	.LFB30
 16322 009c 66000000 		.4byte	.LFE30-.LFB30
 16323 00a0 00000000 		.4byte	.LFB31
 16324 00a4 46000000 		.4byte	.LFE31-.LFB31
 16325 00a8 00000000 		.4byte	.LFB32
 16326 00ac 12000000 		.4byte	.LFE32-.LFB32
 16327 00b0 00000000 		.4byte	.LFB33
 16328 00b4 12000000 		.4byte	.LFE33-.LFB33
 16329 00b8 00000000 		.4byte	.LFB34
 16330 00bc 12000000 		.4byte	.LFE34-.LFB34
 16331 00c0 00000000 		.4byte	.LFB35
 16332 00c4 5A000000 		.4byte	.LFE35-.LFB35
 16333 00c8 00000000 		.4byte	.LFB36
 16334 00cc 60000000 		.4byte	.LFE36-.LFB36
 16335 00d0 00000000 		.4byte	.LFB38
 16336 00d4 3A000000 		.4byte	.LFE38-.LFB38
 16337 00d8 00000000 		.4byte	.LFB39
 16338 00dc 3A000000 		.4byte	.LFE39-.LFB39
 16339 00e0 00000000 		.4byte	.LFB40
 16340 00e4 38000000 		.4byte	.LFE40-.LFB40
 16341 00e8 00000000 		.4byte	.LFB41
 16342 00ec 16000000 		.4byte	.LFE41-.LFB41
 16343 00f0 00000000 		.4byte	.LFB42
 16344 00f4 16000000 		.4byte	.LFE42-.LFB42
 16345 00f8 00000000 		.4byte	.LFB43
 16346 00fc 54000000 		.4byte	.LFE43-.LFB43
ARM GAS  /tmp/ccxMPRSl.s 			page 289


 16347 0100 00000000 		.4byte	.LFB37
 16348 0104 60000000 		.4byte	.LFE37-.LFB37
 16349 0108 00000000 		.4byte	.LFB44
 16350 010c 54000000 		.4byte	.LFE44-.LFB44
 16351 0110 00000000 		.4byte	.LFB45
 16352 0114 34000000 		.4byte	.LFE45-.LFB45
 16353 0118 00000000 		.4byte	.LFB46
 16354 011c 18000000 		.4byte	.LFE46-.LFB46
 16355 0120 00000000 		.4byte	.LFB47
 16356 0124 1E000000 		.4byte	.LFE47-.LFB47
 16357 0128 00000000 		.4byte	.LFB48
 16358 012c 38000000 		.4byte	.LFE48-.LFB48
 16359 0130 00000000 		.4byte	.LFB49
 16360 0134 24000000 		.4byte	.LFE49-.LFB49
 16361 0138 00000000 		.4byte	.LFB50
 16362 013c 24000000 		.4byte	.LFE50-.LFB50
 16363 0140 00000000 		.4byte	.LFB51
 16364 0144 58000000 		.4byte	.LFE51-.LFB51
 16365 0148 00000000 		.4byte	.LFB52
 16366 014c 24000000 		.4byte	.LFE52-.LFB52
 16367 0150 00000000 		.4byte	.LFB53
 16368 0154 2E000000 		.4byte	.LFE53-.LFB53
 16369 0158 00000000 		.4byte	.LFB54
 16370 015c 2C000000 		.4byte	.LFE54-.LFB54
 16371 0160 00000000 		.4byte	.LFB55
 16372 0164 20000000 		.4byte	.LFE55-.LFB55
 16373 0168 00000000 		.4byte	.LFB56
 16374 016c 32000000 		.4byte	.LFE56-.LFB56
 16375 0170 00000000 		.4byte	.LFB57
 16376 0174 32000000 		.4byte	.LFE57-.LFB57
 16377 0178 00000000 		.4byte	.LFB58
 16378 017c 26000000 		.4byte	.LFE58-.LFB58
 16379 0180 00000000 		.4byte	.LFB17
 16380 0184 54010000 		.4byte	.LFE17-.LFB17
 16381 0188 00000000 		.4byte	.LFB59
 16382 018c 18000000 		.4byte	.LFE59-.LFB59
 16383 0190 00000000 		.4byte	.LFB60
 16384 0194 4C000000 		.4byte	.LFE60-.LFB60
 16385 0198 00000000 		.4byte	.LFB14
 16386 019c 80000000 		.4byte	.LFE14-.LFB14
 16387 01a0 00000000 		.4byte	.LFB61
 16388 01a4 18000000 		.4byte	.LFE61-.LFB61
 16389 01a8 00000000 		.4byte	.LFB62
 16390 01ac 18000000 		.4byte	.LFE62-.LFB62
 16391 01b0 00000000 		.4byte	.LFB63
 16392 01b4 10000000 		.4byte	.LFE63-.LFB63
 16393 01b8 00000000 		.4byte	.LFB64
 16394 01bc 20000000 		.4byte	.LFE64-.LFB64
 16395 01c0 00000000 		.4byte	.LFB65
 16396 01c4 10000000 		.4byte	.LFE65-.LFB65
 16397 01c8 00000000 		.4byte	.LFB66
 16398 01cc 20000000 		.4byte	.LFE66-.LFB66
 16399 01d0 00000000 		.4byte	0
 16400 01d4 00000000 		.4byte	0
 16401              		.section	.debug_ranges,"",%progbits
 16402              	.Ldebug_ranges0:
 16403 0000 6E000000 		.4byte	.LBB196
ARM GAS  /tmp/ccxMPRSl.s 			page 290


 16404 0004 70000000 		.4byte	.LBE196
 16405 0008 74000000 		.4byte	.LBB197
 16406 000c 76000000 		.4byte	.LBE197
 16407 0010 86000000 		.4byte	.LBB198
 16408 0014 A8000000 		.4byte	.LBE198
 16409 0018 00000000 		.4byte	0
 16410 001c 00000000 		.4byte	0
 16411 0020 02000000 		.4byte	.LBB202
 16412 0024 04000000 		.4byte	.LBE202
 16413 0028 06000000 		.4byte	.LBB217
 16414 002c CC000000 		.4byte	.LBE217
 16415 0030 D0000000 		.4byte	.LBB218
 16416 0034 D4000000 		.4byte	.LBE218
 16417 0038 00000000 		.4byte	0
 16418 003c 00000000 		.4byte	0
 16419 0040 28000000 		.4byte	.LBB203
 16420 0044 2C000000 		.4byte	.LBE203
 16421 0048 30000000 		.4byte	.LBB206
 16422 004c 3C000000 		.4byte	.LBE206
 16423 0050 00000000 		.4byte	0
 16424 0054 00000000 		.4byte	0
 16425 0058 C2000000 		.4byte	.LBB213
 16426 005c CC000000 		.4byte	.LBE213
 16427 0060 D0000000 		.4byte	.LBB216
 16428 0064 D4000000 		.4byte	.LBE216
 16429 0068 00000000 		.4byte	0
 16430 006c 00000000 		.4byte	0
 16431 0070 02000000 		.4byte	.LBB219
 16432 0074 06000000 		.4byte	.LBE219
 16433 0078 08000000 		.4byte	.LBB230
 16434 007c 90000000 		.4byte	.LBE230
 16435 0080 94000000 		.4byte	.LBB231
 16436 0084 98000000 		.4byte	.LBE231
 16437 0088 00000000 		.4byte	0
 16438 008c 00000000 		.4byte	0
 16439 0090 58000000 		.4byte	.LBB222
 16440 0094 5C000000 		.4byte	.LBE222
 16441 0098 6C000000 		.4byte	.LBB225
 16442 009c 76000000 		.4byte	.LBE225
 16443 00a0 00000000 		.4byte	0
 16444 00a4 00000000 		.4byte	0
 16445 00a8 86000000 		.4byte	.LBB226
 16446 00ac 90000000 		.4byte	.LBE226
 16447 00b0 94000000 		.4byte	.LBB229
 16448 00b4 98000000 		.4byte	.LBE229
 16449 00b8 00000000 		.4byte	0
 16450 00bc 00000000 		.4byte	0
 16451 00c0 00000000 		.4byte	.LBB232
 16452 00c4 02000000 		.4byte	.LBE232
 16453 00c8 0A000000 		.4byte	.LBB241
 16454 00cc 36000000 		.4byte	.LBE241
 16455 00d0 3A000000 		.4byte	.LBB242
 16456 00d4 3E000000 		.4byte	.LBE242
 16457 00d8 00000000 		.4byte	0
 16458 00dc 00000000 		.4byte	0
 16459 00e0 12000000 		.4byte	.LBB233
 16460 00e4 1E000000 		.4byte	.LBE233
ARM GAS  /tmp/ccxMPRSl.s 			page 291


 16461 00e8 20000000 		.4byte	.LBB236
 16462 00ec 24000000 		.4byte	.LBE236
 16463 00f0 00000000 		.4byte	0
 16464 00f4 00000000 		.4byte	0
 16465 00f8 26000000 		.4byte	.LBB237
 16466 00fc 36000000 		.4byte	.LBE237
 16467 0100 3A000000 		.4byte	.LBB240
 16468 0104 3E000000 		.4byte	.LBE240
 16469 0108 00000000 		.4byte	0
 16470 010c 00000000 		.4byte	0
 16471 0110 02000000 		.4byte	.LBB243
 16472 0114 18000000 		.4byte	.LBE243
 16473 0118 1A000000 		.4byte	.LBB260
 16474 011c A4000000 		.4byte	.LBE260
 16475 0120 A8000000 		.4byte	.LBB261
 16476 0124 AC000000 		.4byte	.LBE261
 16477 0128 00000000 		.4byte	0
 16478 012c 00000000 		.4byte	0
 16479 0130 3A000000 		.4byte	.LBB246
 16480 0134 50000000 		.4byte	.LBE246
 16481 0138 52000000 		.4byte	.LBB249
 16482 013c 5C000000 		.4byte	.LBE249
 16483 0140 00000000 		.4byte	0
 16484 0144 00000000 		.4byte	0
 16485 0148 84000000 		.4byte	.LBB252
 16486 014c 88000000 		.4byte	.LBE252
 16487 0150 8C000000 		.4byte	.LBB255
 16488 0154 98000000 		.4byte	.LBE255
 16489 0158 00000000 		.4byte	0
 16490 015c 00000000 		.4byte	0
 16491 0160 98000000 		.4byte	.LBB256
 16492 0164 A4000000 		.4byte	.LBE256
 16493 0168 A8000000 		.4byte	.LBB259
 16494 016c AC000000 		.4byte	.LBE259
 16495 0170 00000000 		.4byte	0
 16496 0174 00000000 		.4byte	0
 16497 0178 02000000 		.4byte	.LBB274
 16498 017c 04000000 		.4byte	.LBE274
 16499 0180 08000000 		.4byte	.LBB279
 16500 0184 62000000 		.4byte	.LBE279
 16501 0188 00000000 		.4byte	0
 16502 018c 00000000 		.4byte	0
 16503 0190 02000000 		.4byte	.LBB275
 16504 0194 04000000 		.4byte	.LBE275
 16505 0198 08000000 		.4byte	.LBB278
 16506 019c 1A000000 		.4byte	.LBE278
 16507 01a0 00000000 		.4byte	0
 16508 01a4 00000000 		.4byte	0
 16509 01a8 02000000 		.4byte	.LBB280
 16510 01ac 06000000 		.4byte	.LBE280
 16511 01b0 0A000000 		.4byte	.LBB287
 16512 01b4 16000000 		.4byte	.LBE287
 16513 01b8 18000000 		.4byte	.LBB288
 16514 01bc 42000000 		.4byte	.LBE288
 16515 01c0 00000000 		.4byte	0
 16516 01c4 00000000 		.4byte	0
 16517 01c8 0A000000 		.4byte	.LBB281
ARM GAS  /tmp/ccxMPRSl.s 			page 292


 16518 01cc 0C000000 		.4byte	.LBE281
 16519 01d0 0E000000 		.4byte	.LBB285
 16520 01d4 16000000 		.4byte	.LBE285
 16521 01d8 18000000 		.4byte	.LBB286
 16522 01dc 24000000 		.4byte	.LBE286
 16523 01e0 00000000 		.4byte	0
 16524 01e4 00000000 		.4byte	0
 16525 01e8 02000000 		.4byte	.LBB289
 16526 01ec 04000000 		.4byte	.LBE289
 16527 01f0 08000000 		.4byte	.LBB294
 16528 01f4 44000000 		.4byte	.LBE294
 16529 01f8 00000000 		.4byte	0
 16530 01fc 00000000 		.4byte	0
 16531 0200 02000000 		.4byte	.LBB290
 16532 0204 04000000 		.4byte	.LBE290
 16533 0208 08000000 		.4byte	.LBB293
 16534 020c 1A000000 		.4byte	.LBE293
 16535 0210 00000000 		.4byte	0
 16536 0214 00000000 		.4byte	0
 16537 0218 04000000 		.4byte	.LBB295
 16538 021c 06000000 		.4byte	.LBE295
 16539 0220 0C000000 		.4byte	.LBB306
 16540 0224 BE000000 		.4byte	.LBE306
 16541 0228 C4000000 		.4byte	.LBB307
 16542 022c D2000000 		.4byte	.LBE307
 16543 0230 00000000 		.4byte	0
 16544 0234 00000000 		.4byte	0
 16545 0238 94000000 		.4byte	.LBB302
 16546 023c 98000000 		.4byte	.LBE302
 16547 0240 9C000000 		.4byte	.LBB305
 16548 0244 AC000000 		.4byte	.LBE305
 16549 0248 00000000 		.4byte	0
 16550 024c 00000000 		.4byte	0
 16551 0250 04000000 		.4byte	.LBB308
 16552 0254 08000000 		.4byte	.LBE308
 16553 0258 0A000000 		.4byte	.LBB313
 16554 025c 2E000000 		.4byte	.LBE313
 16555 0260 00000000 		.4byte	0
 16556 0264 00000000 		.4byte	0
 16557 0268 0A000000 		.4byte	.LBB309
 16558 026c 0E000000 		.4byte	.LBE309
 16559 0270 10000000 		.4byte	.LBB312
 16560 0274 22000000 		.4byte	.LBE312
 16561 0278 00000000 		.4byte	0
 16562 027c 00000000 		.4byte	0
 16563 0280 02000000 		.4byte	.LBB314
 16564 0284 04000000 		.4byte	.LBE314
 16565 0288 08000000 		.4byte	.LBB319
 16566 028c 28000000 		.4byte	.LBE319
 16567 0290 00000000 		.4byte	0
 16568 0294 00000000 		.4byte	0
 16569 0298 02000000 		.4byte	.LBB315
 16570 029c 04000000 		.4byte	.LBE315
 16571 02a0 08000000 		.4byte	.LBB318
 16572 02a4 1A000000 		.4byte	.LBE318
 16573 02a8 00000000 		.4byte	0
 16574 02ac 00000000 		.4byte	0
ARM GAS  /tmp/ccxMPRSl.s 			page 293


 16575 02b0 02000000 		.4byte	.LBB320
 16576 02b4 04000000 		.4byte	.LBE320
 16577 02b8 08000000 		.4byte	.LBB325
 16578 02bc 62000000 		.4byte	.LBE325
 16579 02c0 00000000 		.4byte	0
 16580 02c4 00000000 		.4byte	0
 16581 02c8 02000000 		.4byte	.LBB321
 16582 02cc 04000000 		.4byte	.LBE321
 16583 02d0 08000000 		.4byte	.LBB324
 16584 02d4 1A000000 		.4byte	.LBE324
 16585 02d8 00000000 		.4byte	0
 16586 02dc 00000000 		.4byte	0
 16587 02e0 02000000 		.4byte	.LBB326
 16588 02e4 06000000 		.4byte	.LBE326
 16589 02e8 0A000000 		.4byte	.LBB333
 16590 02ec 16000000 		.4byte	.LBE333
 16591 02f0 18000000 		.4byte	.LBB334
 16592 02f4 40000000 		.4byte	.LBE334
 16593 02f8 00000000 		.4byte	0
 16594 02fc 00000000 		.4byte	0
 16595 0300 0A000000 		.4byte	.LBB327
 16596 0304 0C000000 		.4byte	.LBE327
 16597 0308 0E000000 		.4byte	.LBB331
 16598 030c 16000000 		.4byte	.LBE331
 16599 0310 18000000 		.4byte	.LBB332
 16600 0314 24000000 		.4byte	.LBE332
 16601 0318 00000000 		.4byte	0
 16602 031c 00000000 		.4byte	0
 16603 0320 0E000000 		.4byte	.LBB350
 16604 0324 32000000 		.4byte	.LBE350
 16605 0328 36000000 		.4byte	.LBB357
 16606 032c 3A000000 		.4byte	.LBE357
 16607 0330 00000000 		.4byte	0
 16608 0334 00000000 		.4byte	0
 16609 0338 26000000 		.4byte	.LBB353
 16610 033c 32000000 		.4byte	.LBE353
 16611 0340 36000000 		.4byte	.LBB356
 16612 0344 3A000000 		.4byte	.LBE356
 16613 0348 00000000 		.4byte	0
 16614 034c 00000000 		.4byte	0
 16615 0350 0E000000 		.4byte	.LBB361
 16616 0354 32000000 		.4byte	.LBE361
 16617 0358 36000000 		.4byte	.LBB368
 16618 035c 3A000000 		.4byte	.LBE368
 16619 0360 00000000 		.4byte	0
 16620 0364 00000000 		.4byte	0
 16621 0368 26000000 		.4byte	.LBB364
 16622 036c 32000000 		.4byte	.LBE364
 16623 0370 36000000 		.4byte	.LBB367
 16624 0374 3A000000 		.4byte	.LBE367
 16625 0378 00000000 		.4byte	0
 16626 037c 00000000 		.4byte	0
 16627 0380 06000000 		.4byte	.LBB371
 16628 0384 30000000 		.4byte	.LBE371
 16629 0388 34000000 		.4byte	.LBB378
 16630 038c 38000000 		.4byte	.LBE378
 16631 0390 00000000 		.4byte	0
ARM GAS  /tmp/ccxMPRSl.s 			page 294


 16632 0394 00000000 		.4byte	0
 16633 0398 24000000 		.4byte	.LBB374
 16634 039c 30000000 		.4byte	.LBE374
 16635 03a0 34000000 		.4byte	.LBB377
 16636 03a4 38000000 		.4byte	.LBE377
 16637 03a8 00000000 		.4byte	0
 16638 03ac 00000000 		.4byte	0
 16639 03b0 06000000 		.4byte	.LBB379
 16640 03b4 44000000 		.4byte	.LBE379
 16641 03b8 48000000 		.4byte	.LBB384
 16642 03bc 60000000 		.4byte	.LBE384
 16643 03c0 00000000 		.4byte	0
 16644 03c4 00000000 		.4byte	0
 16645 03c8 08000000 		.4byte	.LBB385
 16646 03cc 14000000 		.4byte	.LBE385
 16647 03d0 18000000 		.4byte	.LBB396
 16648 03d4 46000000 		.4byte	.LBE396
 16649 03d8 4A000000 		.4byte	.LBB397
 16650 03dc 54000000 		.4byte	.LBE397
 16651 03e0 00000000 		.4byte	0
 16652 03e4 00000000 		.4byte	0
 16653 03e8 08000000 		.4byte	.LBB386
 16654 03ec 14000000 		.4byte	.LBE386
 16655 03f0 18000000 		.4byte	.LBB389
 16656 03f4 1C000000 		.4byte	.LBE389
 16657 03f8 00000000 		.4byte	0
 16658 03fc 00000000 		.4byte	0
 16659 0400 3C000000 		.4byte	.LBB392
 16660 0404 46000000 		.4byte	.LBE392
 16661 0408 4A000000 		.4byte	.LBB395
 16662 040c 4E000000 		.4byte	.LBE395
 16663 0410 00000000 		.4byte	0
 16664 0414 00000000 		.4byte	0
 16665 0418 02000000 		.4byte	.LBB398
 16666 041c 06000000 		.4byte	.LBE398
 16667 0420 0A000000 		.4byte	.LBB405
 16668 0424 2C000000 		.4byte	.LBE405
 16669 0428 30000000 		.4byte	.LBB406
 16670 042c 34000000 		.4byte	.LBE406
 16671 0430 00000000 		.4byte	0
 16672 0434 00000000 		.4byte	0
 16673 0438 20000000 		.4byte	.LBB401
 16674 043c 2C000000 		.4byte	.LBE401
 16675 0440 30000000 		.4byte	.LBB404
 16676 0444 34000000 		.4byte	.LBE404
 16677 0448 00000000 		.4byte	0
 16678 044c 00000000 		.4byte	0
 16679 0450 06000000 		.4byte	.LBB410
 16680 0454 16000000 		.4byte	.LBE410
 16681 0458 1A000000 		.4byte	.LBB415
 16682 045c 1E000000 		.4byte	.LBE415
 16683 0460 00000000 		.4byte	0
 16684 0464 00000000 		.4byte	0
 16685 0468 0C000000 		.4byte	.LBB411
 16686 046c 16000000 		.4byte	.LBE411
 16687 0470 1A000000 		.4byte	.LBB414
 16688 0474 1E000000 		.4byte	.LBE414
ARM GAS  /tmp/ccxMPRSl.s 			page 295


 16689 0478 00000000 		.4byte	0
 16690 047c 00000000 		.4byte	0
 16691 0480 02000000 		.4byte	.LBB416
 16692 0484 04000000 		.4byte	.LBE416
 16693 0488 0C000000 		.4byte	.LBB423
 16694 048c 30000000 		.4byte	.LBE423
 16695 0490 34000000 		.4byte	.LBB424
 16696 0494 38000000 		.4byte	.LBE424
 16697 0498 00000000 		.4byte	0
 16698 049c 00000000 		.4byte	0
 16699 04a0 26000000 		.4byte	.LBB419
 16700 04a4 30000000 		.4byte	.LBE419
 16701 04a8 34000000 		.4byte	.LBB422
 16702 04ac 38000000 		.4byte	.LBE422
 16703 04b0 00000000 		.4byte	0
 16704 04b4 00000000 		.4byte	0
 16705 04b8 04000000 		.4byte	.LBB428
 16706 04bc 1C000000 		.4byte	.LBE428
 16707 04c0 20000000 		.4byte	.LBB433
 16708 04c4 24000000 		.4byte	.LBE433
 16709 04c8 00000000 		.4byte	0
 16710 04cc 00000000 		.4byte	0
 16711 04d0 10000000 		.4byte	.LBB429
 16712 04d4 1C000000 		.4byte	.LBE429
 16713 04d8 20000000 		.4byte	.LBB432
 16714 04dc 24000000 		.4byte	.LBE432
 16715 04e0 00000000 		.4byte	0
 16716 04e4 00000000 		.4byte	0
 16717 04e8 06000000 		.4byte	.LBB434
 16718 04ec 08000000 		.4byte	.LBE434
 16719 04f0 0C000000 		.4byte	.LBB445
 16720 04f4 0E000000 		.4byte	.LBE445
 16721 04f8 10000000 		.4byte	.LBB446
 16722 04fc 20000000 		.4byte	.LBE446
 16723 0500 24000000 		.4byte	.LBB447
 16724 0504 50000000 		.4byte	.LBE447
 16725 0508 54000000 		.4byte	.LBB448
 16726 050c 58000000 		.4byte	.LBE448
 16727 0510 00000000 		.4byte	0
 16728 0514 00000000 		.4byte	0
 16729 0518 10000000 		.4byte	.LBB435
 16730 051c 1E000000 		.4byte	.LBE435
 16731 0520 24000000 		.4byte	.LBB438
 16732 0524 28000000 		.4byte	.LBE438
 16733 0528 00000000 		.4byte	0
 16734 052c 00000000 		.4byte	0
 16735 0530 46000000 		.4byte	.LBB441
 16736 0534 50000000 		.4byte	.LBE441
 16737 0538 54000000 		.4byte	.LBB444
 16738 053c 58000000 		.4byte	.LBE444
 16739 0540 00000000 		.4byte	0
 16740 0544 00000000 		.4byte	0
 16741 0548 06000000 		.4byte	.LBB452
 16742 054c 26000000 		.4byte	.LBE452
 16743 0550 2A000000 		.4byte	.LBB457
 16744 0554 2E000000 		.4byte	.LBE457
 16745 0558 00000000 		.4byte	0
ARM GAS  /tmp/ccxMPRSl.s 			page 296


 16746 055c 00000000 		.4byte	0
 16747 0560 1C000000 		.4byte	.LBB453
 16748 0564 26000000 		.4byte	.LBE453
 16749 0568 2A000000 		.4byte	.LBB456
 16750 056c 2E000000 		.4byte	.LBE456
 16751 0570 00000000 		.4byte	0
 16752 0574 00000000 		.4byte	0
 16753 0578 18000000 		.4byte	.LBB460
 16754 057c 24000000 		.4byte	.LBE460
 16755 0580 28000000 		.4byte	.LBB463
 16756 0584 2C000000 		.4byte	.LBE463
 16757 0588 00000000 		.4byte	0
 16758 058c 00000000 		.4byte	0
 16759 0590 06000000 		.4byte	.LBB467
 16760 0594 2A000000 		.4byte	.LBE467
 16761 0598 2E000000 		.4byte	.LBB474
 16762 059c 32000000 		.4byte	.LBE474
 16763 05a0 00000000 		.4byte	0
 16764 05a4 00000000 		.4byte	0
 16765 05a8 20000000 		.4byte	.LBB470
 16766 05ac 2A000000 		.4byte	.LBE470
 16767 05b0 2E000000 		.4byte	.LBB473
 16768 05b4 32000000 		.4byte	.LBE473
 16769 05b8 00000000 		.4byte	0
 16770 05bc 00000000 		.4byte	0
 16771 05c0 06000000 		.4byte	.LBB475
 16772 05c4 2A000000 		.4byte	.LBE475
 16773 05c8 2E000000 		.4byte	.LBB482
 16774 05cc 32000000 		.4byte	.LBE482
 16775 05d0 00000000 		.4byte	0
 16776 05d4 00000000 		.4byte	0
 16777 05d8 20000000 		.4byte	.LBB478
 16778 05dc 2A000000 		.4byte	.LBE478
 16779 05e0 2E000000 		.4byte	.LBB481
 16780 05e4 32000000 		.4byte	.LBE481
 16781 05e8 00000000 		.4byte	0
 16782 05ec 00000000 		.4byte	0
 16783 05f0 02000000 		.4byte	.LBB483
 16784 05f4 10000000 		.4byte	.LBE483
 16785 05f8 12000000 		.4byte	.LBB488
 16786 05fc 1E000000 		.4byte	.LBE488
 16787 0600 22000000 		.4byte	.LBB489
 16788 0604 26000000 		.4byte	.LBE489
 16789 0608 00000000 		.4byte	0
 16790 060c 00000000 		.4byte	0
 16791 0610 06000000 		.4byte	.LBB490
 16792 0614 08000000 		.4byte	.LBE490
 16793 0618 0C000000 		.4byte	.LBB497
 16794 061c 4E010000 		.4byte	.LBE497
 16795 0620 00000000 		.4byte	0
 16796 0624 00000000 		.4byte	0
 16797 0628 02000000 		.4byte	.LBB500
 16798 062c 06000000 		.4byte	.LBE500
 16799 0630 08000000 		.4byte	.LBB517
 16800 0634 68000000 		.4byte	.LBE517
 16801 0638 6A000000 		.4byte	.LBB518
 16802 063c 80000000 		.4byte	.LBE518
ARM GAS  /tmp/ccxMPRSl.s 			page 297


 16803 0640 00000000 		.4byte	0
 16804 0644 00000000 		.4byte	0
 16805 0648 2A000000 		.4byte	.LBB503
 16806 064c 38000000 		.4byte	.LBE503
 16807 0650 3C000000 		.4byte	.LBB510
 16808 0654 3E000000 		.4byte	.LBE510
 16809 0658 00000000 		.4byte	0
 16810 065c 00000000 		.4byte	0
 16811 0660 38000000 		.4byte	.LBB506
 16812 0664 3C000000 		.4byte	.LBE506
 16813 0668 3E000000 		.4byte	.LBB511
 16814 066c 48000000 		.4byte	.LBE511
 16815 0670 4C000000 		.4byte	.LBB515
 16816 0674 4E000000 		.4byte	.LBE515
 16817 0678 00000000 		.4byte	0
 16818 067c 00000000 		.4byte	0
 16819 0680 48000000 		.4byte	.LBB512
 16820 0684 4C000000 		.4byte	.LBE512
 16821 0688 4E000000 		.4byte	.LBB516
 16822 068c 58000000 		.4byte	.LBE516
 16823 0690 00000000 		.4byte	0
 16824 0694 00000000 		.4byte	0
 16825 0698 00000000 		.4byte	.LFB13
 16826 069c B2000000 		.4byte	.LFE13
 16827 06a0 00000000 		.4byte	.LFB8
 16828 06a4 16000000 		.4byte	.LFE8
 16829 06a8 00000000 		.4byte	.LFB11
 16830 06ac 1A000000 		.4byte	.LFE11
 16831 06b0 00000000 		.4byte	.LFB15
 16832 06b4 D4000000 		.4byte	.LFE15
 16833 06b8 00000000 		.4byte	.LFB16
 16834 06bc 98000000 		.4byte	.LFE16
 16835 06c0 00000000 		.4byte	.LFB19
 16836 06c4 3E000000 		.4byte	.LFE19
 16837 06c8 00000000 		.4byte	.LFB20
 16838 06cc AC000000 		.4byte	.LFE20
 16839 06d0 00000000 		.4byte	.LFB21
 16840 06d4 18000000 		.4byte	.LFE21
 16841 06d8 00000000 		.4byte	.LFB22
 16842 06dc 18000000 		.4byte	.LFE22
 16843 06e0 00000000 		.4byte	.LFB23
 16844 06e4 18000000 		.4byte	.LFE23
 16845 06e8 00000000 		.4byte	.LFB24
 16846 06ec 20000000 		.4byte	.LFE24
 16847 06f0 00000000 		.4byte	.LFB25
 16848 06f4 66000000 		.4byte	.LFE25
 16849 06f8 00000000 		.4byte	.LFB26
 16850 06fc 48000000 		.4byte	.LFE26
 16851 0700 00000000 		.4byte	.LFB27
 16852 0704 48000000 		.4byte	.LFE27
 16853 0708 00000000 		.4byte	.LFB18
 16854 070c D2000000 		.4byte	.LFE18
 16855 0710 00000000 		.4byte	.LFB28
 16856 0714 36000000 		.4byte	.LFE28
 16857 0718 00000000 		.4byte	.LFB29
 16858 071c 2C000000 		.4byte	.LFE29
 16859 0720 00000000 		.4byte	.LFB30
ARM GAS  /tmp/ccxMPRSl.s 			page 298


 16860 0724 66000000 		.4byte	.LFE30
 16861 0728 00000000 		.4byte	.LFB31
 16862 072c 46000000 		.4byte	.LFE31
 16863 0730 00000000 		.4byte	.LFB32
 16864 0734 12000000 		.4byte	.LFE32
 16865 0738 00000000 		.4byte	.LFB33
 16866 073c 12000000 		.4byte	.LFE33
 16867 0740 00000000 		.4byte	.LFB34
 16868 0744 12000000 		.4byte	.LFE34
 16869 0748 00000000 		.4byte	.LFB35
 16870 074c 5A000000 		.4byte	.LFE35
 16871 0750 00000000 		.4byte	.LFB36
 16872 0754 60000000 		.4byte	.LFE36
 16873 0758 00000000 		.4byte	.LFB38
 16874 075c 3A000000 		.4byte	.LFE38
 16875 0760 00000000 		.4byte	.LFB39
 16876 0764 3A000000 		.4byte	.LFE39
 16877 0768 00000000 		.4byte	.LFB40
 16878 076c 38000000 		.4byte	.LFE40
 16879 0770 00000000 		.4byte	.LFB41
 16880 0774 16000000 		.4byte	.LFE41
 16881 0778 00000000 		.4byte	.LFB42
 16882 077c 16000000 		.4byte	.LFE42
 16883 0780 00000000 		.4byte	.LFB43
 16884 0784 54000000 		.4byte	.LFE43
 16885 0788 00000000 		.4byte	.LFB37
 16886 078c 60000000 		.4byte	.LFE37
 16887 0790 00000000 		.4byte	.LFB44
 16888 0794 54000000 		.4byte	.LFE44
 16889 0798 00000000 		.4byte	.LFB45
 16890 079c 34000000 		.4byte	.LFE45
 16891 07a0 00000000 		.4byte	.LFB46
 16892 07a4 18000000 		.4byte	.LFE46
 16893 07a8 00000000 		.4byte	.LFB47
 16894 07ac 1E000000 		.4byte	.LFE47
 16895 07b0 00000000 		.4byte	.LFB48
 16896 07b4 38000000 		.4byte	.LFE48
 16897 07b8 00000000 		.4byte	.LFB49
 16898 07bc 24000000 		.4byte	.LFE49
 16899 07c0 00000000 		.4byte	.LFB50
 16900 07c4 24000000 		.4byte	.LFE50
 16901 07c8 00000000 		.4byte	.LFB51
 16902 07cc 58000000 		.4byte	.LFE51
 16903 07d0 00000000 		.4byte	.LFB52
 16904 07d4 24000000 		.4byte	.LFE52
 16905 07d8 00000000 		.4byte	.LFB53
 16906 07dc 2E000000 		.4byte	.LFE53
 16907 07e0 00000000 		.4byte	.LFB54
 16908 07e4 2C000000 		.4byte	.LFE54
 16909 07e8 00000000 		.4byte	.LFB55
 16910 07ec 20000000 		.4byte	.LFE55
 16911 07f0 00000000 		.4byte	.LFB56
 16912 07f4 32000000 		.4byte	.LFE56
 16913 07f8 00000000 		.4byte	.LFB57
 16914 07fc 32000000 		.4byte	.LFE57
 16915 0800 00000000 		.4byte	.LFB58
 16916 0804 26000000 		.4byte	.LFE58
ARM GAS  /tmp/ccxMPRSl.s 			page 299


 16917 0808 00000000 		.4byte	.LFB17
 16918 080c 54010000 		.4byte	.LFE17
 16919 0810 00000000 		.4byte	.LFB59
 16920 0814 18000000 		.4byte	.LFE59
 16921 0818 00000000 		.4byte	.LFB60
 16922 081c 4C000000 		.4byte	.LFE60
 16923 0820 00000000 		.4byte	.LFB14
 16924 0824 80000000 		.4byte	.LFE14
 16925 0828 00000000 		.4byte	.LFB61
 16926 082c 18000000 		.4byte	.LFE61
 16927 0830 00000000 		.4byte	.LFB62
 16928 0834 18000000 		.4byte	.LFE62
 16929 0838 00000000 		.4byte	.LFB63
 16930 083c 10000000 		.4byte	.LFE63
 16931 0840 00000000 		.4byte	.LFB64
 16932 0844 20000000 		.4byte	.LFE64
 16933 0848 00000000 		.4byte	.LFB65
 16934 084c 10000000 		.4byte	.LFE65
 16935 0850 00000000 		.4byte	.LFB66
 16936 0854 20000000 		.4byte	.LFE66
 16937 0858 00000000 		.4byte	0
 16938 085c 00000000 		.4byte	0
 16939              		.section	.debug_line,"",%progbits
 16940              	.Ldebug_line0:
 16941 0000 4B0A0000 		.section	.debug_str,"MS",%progbits,1
 16941      0200DF00 
 16941      00000201 
 16941      FB0E0D00 
 16941      01010101 
 16942              	.LASF134:
 16943 0000 4C534D39 		.ascii	"LSM9DS1\000"
 16943      44533100 
 16944              	.LASF199:
 16945 0008 5F5A4E37 		.ascii	"_ZN7LSM9DS114getAccelIntSrcEv\000"
 16945      4C534D39 
 16945      44533131 
 16945      34676574 
 16945      41636365 
 16946              	.LASF258:
 16947 0026 6D416464 		.ascii	"mAddr\000"
 16947      7200
 16948              	.LASF156:
 16949 002c 5F5A4E37 		.ascii	"_ZN7LSM9DS19readAccelE12lsm9ds1_axis\000"
 16949      4C534D39 
 16949      44533139 
 16949      72656164 
 16949      41636365 
 16950              	.LASF2:
 16951 0051 696E7438 		.ascii	"int8_t\000"
 16951      5F7400
 16952              	.LASF66:
 16953 0058 73697A65 		.ascii	"sizetype\000"
 16953      74797065 
 16953      00
 16954              	.LASF131:
 16955 0061 6D526573 		.ascii	"mRes\000"
 16955      00
ARM GAS  /tmp/ccxMPRSl.s 			page 300


 16956              	.LASF28:
 16957 0066 4649464F 		.ascii	"FIFO_THS\000"
 16957      5F544853 
 16957      00
 16958              	.LASF22:
 16959 006f 494E545F 		.ascii	"INT_ACTIVE_LOW\000"
 16959      41435449 
 16959      56455F4C 
 16959      4F5700
 16960              	.LASF36:
 16961 007e 6C6F7750 		.ascii	"lowPowerEnable\000"
 16961      6F776572 
 16961      456E6162 
 16961      6C6500
 16962              	.LASF170:
 16963 008d 73657441 		.ascii	"setAccelScale\000"
 16963      6363656C 
 16963      5363616C 
 16963      6500
 16964              	.LASF236:
 16965 009b 63616C63 		.ascii	"calcaRes\000"
 16965      61526573 
 16965      00
 16966              	.LASF142:
 16967 00a4 5F5A4E37 		.ascii	"_ZN7LSM9DS19magOffsetEhs\000"
 16967      4C534D39 
 16967      44533139 
 16967      6D61674F 
 16967      66667365 
 16968              	.LASF69:
 16969 00bd 576F5265 		.ascii	"WoReg\000"
 16969      6700
 16970              	.LASF192:
 16971 00c3 636F6E66 		.ascii	"configMagInt\000"
 16971      69674D61 
 16971      67496E74 
 16971      00
 16972              	.LASF160:
 16973 00d0 72656164 		.ascii	"readTemp\000"
 16973      54656D70 
 16973      00
 16974              	.LASF207:
 16975 00d9 5F5A4E37 		.ascii	"_ZN7LSM9DS110enableFIFOEb\000"
 16975      4C534D39 
 16975      44533131 
 16975      30656E61 
 16975      626C6546 
 16976              	.LASF300:
 16977 00f3 2F686F6D 		.ascii	"/home/santi/Documentos/ProyectoDron_2018/MCU/creato"
 16977      652F7361 
 16977      6E74692F 
 16977      446F6375 
 16977      6D656E74 
 16978 0126 7200     		.ascii	"r\000"
 16979              	.LASF284:
 16980 0128 696E7453 		.ascii	"intSrc\000"
 16980      726300
ARM GAS  /tmp/ccxMPRSl.s 			page 301


 16981              	.LASF93:
 16982 012f 5457495F 		.ascii	"TWI_PTSR\000"
 16982      50545352 
 16982      00
 16983              	.LASF287:
 16984 0138 636F6E66 		.ascii	"config\000"
 16984      696700
 16985              	.LASF194:
 16986 013f 636F6E66 		.ascii	"configMagThs\000"
 16986      69674D61 
 16986      67546873 
 16986      00
 16987              	.LASF232:
 16988 014c 63616C63 		.ascii	"calcgRes\000"
 16988      67526573 
 16988      00
 16989              	.LASF218:
 16990 0155 696E6974 		.ascii	"initMag\000"
 16990      4D616700 
 16991              	.LASF119:
 16992 015d 73657474 		.ascii	"settings\000"
 16992      696E6773 
 16992      00
 16993              	.LASF237:
 16994 0166 5F5A4E37 		.ascii	"_ZN7LSM9DS18calcaResEv\000"
 16994      4C534D39 
 16994      44533138 
 16994      63616C63 
 16994      61526573 
 16995              	.LASF173:
 16996 017d 5F5A4E37 		.ascii	"_ZN7LSM9DS111setMagScaleEh\000"
 16996      4C534D39 
 16996      44533131 
 16996      31736574 
 16996      4D616753 
 16997              	.LASF146:
 16998 0198 5F5A4E37 		.ascii	"_ZN7LSM9DS113gyroAvailableEv\000"
 16998      4C534D39 
 16998      44533131 
 16998      33677972 
 16998      6F417661 
 16999              	.LASF270:
 17000 01b5 6153636C 		.ascii	"aScl\000"
 17000      00
 17001              	.LASF37:
 17002 01ba 48504645 		.ascii	"HPFEnable\000"
 17002      6E61626C 
 17002      6500
 17003              	.LASF52:
 17004 01c4 61636365 		.ascii	"accelSettings\000"
 17004      6C536574 
 17004      74696E67 
 17004      7300
 17005              	.LASF20:
 17006 01d2 685F6C61 		.ascii	"h_lactive\000"
 17006      63746976 
 17006      6500
ARM GAS  /tmp/ccxMPRSl.s 			page 302


 17007              	.LASF210:
 17008 01dc 67657446 		.ascii	"getFIFOSamples\000"
 17008      49464F53 
 17008      616D706C 
 17008      657300
 17009              	.LASF77:
 17010 01eb 5457495F 		.ascii	"TWI_SR\000"
 17010      535200
 17011              	.LASF205:
 17012 01f2 5F5A4E37 		.ascii	"_ZN7LSM9DS19sleepGyroEb\000"
 17012      4C534D39 
 17012      44533139 
 17012      736C6565 
 17012      70477972 
 17013              	.LASF234:
 17014 020a 63616C63 		.ascii	"calcmRes\000"
 17014      6D526573 
 17014      00
 17015              	.LASF96:
 17016 0213 63616C6C 		.ascii	"callback\000"
 17016      6261636B 
 17016      00
 17017              	.LASF238:
 17018 021c 636F6E73 		.ascii	"constrainScales\000"
 17018      74726169 
 17018      6E536361 
 17018      6C657300 
 17019              	.LASF299:
 17020 022c 6C736D39 		.ascii	"lsm9ds1.cpp\000"
 17020      6473312E 
 17020      63707000 
 17021              	.LASF144:
 17022 0238 5F5A4E37 		.ascii	"_ZN7LSM9DS114accelAvailableEv\000"
 17022      4C534D39 
 17022      44533131 
 17022      34616363 
 17022      656C4176 
 17023              	.LASF268:
 17024 0256 6753636C 		.ascii	"gScl\000"
 17024      00
 17025              	.LASF277:
 17026 025b 61637469 		.ascii	"activeLow\000"
 17026      76654C6F 
 17026      7700
 17027              	.LASF141:
 17028 0265 6D61674F 		.ascii	"magOffset\000"
 17028      66667365 
 17028      7400
 17029              	.LASF294:
 17030 026f 67426961 		.ascii	"gBiasRawTemp\000"
 17030      73526177 
 17030      54656D70 
 17030      00
 17031              	.LASF188:
 17032 027c 5F5A4E37 		.ascii	"_ZN7LSM9DS113configGyroIntEhbb\000"
 17032      4C534D39 
 17032      44533131 
ARM GAS  /tmp/ccxMPRSl.s 			page 303


 17032      33636F6E 
 17032      66696747 
 17033              	.LASF9:
 17034 029b 6C6F6E67 		.ascii	"long int\000"
 17034      20696E74 
 17034      00
 17035              	.LASF86:
 17036 02a4 5457495F 		.ascii	"TWI_TPR\000"
 17036      54505200 
 17037              	.LASF105:
 17038 02ac 57726974 		.ascii	"WriteByte\000"
 17038      65427974 
 17038      6500
 17039              	.LASF278:
 17040 02b6 70757368 		.ascii	"pushPull\000"
 17040      50756C6C 
 17040      00
 17041              	.LASF58:
 17042 02bf 5A506572 		.ascii	"ZPerformance\000"
 17042      666F726D 
 17042      616E6365 
 17042      00
 17043              	.LASF231:
 17044 02cc 5F5A4E37 		.ascii	"_ZN7LSM9DS111xgWriteByteEhh\000"
 17044      4C534D39 
 17044      44533131 
 17044      31786757 
 17044      72697465 
 17045              	.LASF289:
 17046 02e8 6669666F 		.ascii	"fifoMode\000"
 17046      4D6F6465 
 17046      00
 17047              	.LASF55:
 17048 02f1 6D616753 		.ascii	"magSettings\000"
 17048      65747469 
 17048      6E677300 
 17049              	.LASF150:
 17050 02fd 5F5A4E37 		.ascii	"_ZN7LSM9DS112magAvailableE12lsm9ds1_axis\000"
 17050      4C534D39 
 17050      44533131 
 17050      326D6167 
 17050      41766169 
 17051              	.LASF140:
 17052 0326 5F5A4E37 		.ascii	"_ZN7LSM9DS112calibrateMagEb\000"
 17052      4C534D39 
 17052      44533131 
 17052      3263616C 
 17052      69627261 
 17053              	.LASF115:
 17054 0342 585F4158 		.ascii	"X_AXIS\000"
 17054      495300
 17055              	.LASF165:
 17056 0349 5F5A4E37 		.ascii	"_ZN7LSM9DS19calcAccelEs\000"
 17056      4C534D39 
 17056      44533139 
 17056      63616C63 
 17056      41636365 
ARM GAS  /tmp/ccxMPRSl.s 			page 304


 17057              	.LASF162:
 17058 0361 63616C63 		.ascii	"calcGyro\000"
 17058      4779726F 
 17058      00
 17059              	.LASF39:
 17060 036a 666C6970 		.ascii	"flipX\000"
 17060      5800
 17061              	.LASF40:
 17062 0370 666C6970 		.ascii	"flipY\000"
 17062      5900
 17063              	.LASF41:
 17064 0376 666C6970 		.ascii	"flipZ\000"
 17064      5A00
 17065              	.LASF1:
 17066 037c 7369676E 		.ascii	"signed char\000"
 17066      65642063 
 17066      68617200 
 17067              	.LASF3:
 17068 0388 75696E74 		.ascii	"uint8_t\000"
 17068      385F7400 
 17069              	.LASF74:
 17070 0390 5457495F 		.ascii	"TWI_IADR\000"
 17070      49414452 
 17070      00
 17071              	.LASF174:
 17072 0399 73657447 		.ascii	"setGyroODR\000"
 17072      79726F4F 
 17072      445200
 17073              	.LASF257:
 17074 03a4 78674164 		.ascii	"xgAddr\000"
 17074      647200
 17075              	.LASF279:
 17076 03ab 64757261 		.ascii	"duration\000"
 17076      74696F6E 
 17076      00
 17077              	.LASF291:
 17078 03b4 6175746F 		.ascii	"autoCalc\000"
 17078      43616C63 
 17078      00
 17079              	.LASF33:
 17080 03bd 7363616C 		.ascii	"scale\000"
 17080      6500
 17081              	.LASF193:
 17082 03c3 5F5A4E37 		.ascii	"_ZN7LSM9DS112configMagIntEh9h_lactiveb\000"
 17082      4C534D39 
 17082      44533131 
 17082      32636F6E 
 17082      6669674D 
 17083              	.LASF4:
 17084 03ea 756E7369 		.ascii	"unsigned char\000"
 17084      676E6564 
 17084      20636861 
 17084      7200
 17085              	.LASF213:
 17086 03f8 5F5A4E37 		.ascii	"_ZN7LSM9DS14initE14interface_modehh\000"
 17086      4C534D39 
 17086      44533134 
ARM GAS  /tmp/ccxMPRSl.s 			page 305


 17086      696E6974 
 17086      45313469 
 17087              	.LASF227:
 17088 041c 5F5A4E37 		.ascii	"_ZN7LSM9DS110xgReadByteEh\000"
 17088      4C534D39 
 17088      44533131 
 17088      30786752 
 17088      65616442 
 17089              	.LASF132:
 17090 0436 5F617574 		.ascii	"_autoCalc\000"
 17090      6F43616C 
 17090      6300
 17091              	.LASF200:
 17092 0440 6765744D 		.ascii	"getMagIntSrc\000"
 17092      6167496E 
 17092      74537263 
 17092      00
 17093              	.LASF171:
 17094 044d 5F5A4E37 		.ascii	"_ZN7LSM9DS113setAccelScaleEh\000"
 17094      4C534D39 
 17094      44533131 
 17094      33736574 
 17094      41636365 
 17095              	.LASF263:
 17096 046a 76616C75 		.ascii	"value\000"
 17096      6500
 17097              	.LASF242:
 17098 0470 49324377 		.ascii	"I2CwriteByte\000"
 17098      72697465 
 17098      42797465 
 17098      00
 17099              	.LASF54:
 17100 047d 68696768 		.ascii	"highResBandwidth\000"
 17100      52657342 
 17100      616E6477 
 17100      69647468 
 17100      00
 17101              	.LASF67:
 17102 048e 63686172 		.ascii	"char\000"
 17102      00
 17103              	.LASF153:
 17104 0493 5F5A4E37 		.ascii	"_ZN7LSM9DS18readGyroE12lsm9ds1_axis\000"
 17104      4C534D39 
 17104      44533138 
 17104      72656164 
 17104      4779726F 
 17105              	.LASF63:
 17106 04b7 6779726F 		.ascii	"gyro\000"
 17106      00
 17107              	.LASF48:
 17108 04bc 64657669 		.ascii	"deviceSettings\000"
 17108      63655365 
 17108      7474696E 
 17108      677300
 17109              	.LASF21:
 17110 04cb 494E545F 		.ascii	"INT_ACTIVE_HIGH\000"
 17110      41435449 
ARM GAS  /tmp/ccxMPRSl.s 			page 306


 17110      56455F48 
 17110      49474800 
 17111              	.LASF158:
 17112 04db 5F5A4E37 		.ascii	"_ZN7LSM9DS17readMagEv\000"
 17112      4C534D39 
 17112      44533137 
 17112      72656164 
 17112      4D616745 
 17113              	.LASF260:
 17114 04f1 5F5A4E37 		.ascii	"_ZN7LSM9DS1C2EPN7creator3I2CE14interface_modehh\000"
 17114      4C534D39 
 17114      44533143 
 17114      3245504E 
 17114      37637265 
 17115              	.LASF143:
 17116 0521 61636365 		.ascii	"accelAvailable\000"
 17116      6C417661 
 17116      696C6162 
 17116      6C6500
 17117              	.LASF223:
 17118 0530 5F5A4E37 		.ascii	"_ZN7LSM9DS110mReadBytesEhPhh\000"
 17118      4C534D39 
 17118      44533131 
 17118      306D5265 
 17118      61644279 
 17119              	.LASF295:
 17120 054d 6D546573 		.ascii	"mTest\000"
 17120      7400
 17121              	.LASF71:
 17122 0553 5457495F 		.ascii	"TWI_CR\000"
 17122      435200
 17123              	.LASF85:
 17124 055a 5457495F 		.ascii	"TWI_RCR\000"
 17124      52435200 
 17125              	.LASF296:
 17126 0562 78675465 		.ascii	"xgTest\000"
 17126      737400
 17127              	.LASF97:
 17128 0569 7053746F 		.ascii	"pStorage\000"
 17128      72616765 
 17128      00
 17129              	.LASF163:
 17130 0572 5F5A4E37 		.ascii	"_ZN7LSM9DS18calcGyroEs\000"
 17130      4C534D39 
 17130      44533138 
 17130      63616C63 
 17130      4779726F 
 17131              	.LASF122:
 17132 0589 61426961 		.ascii	"aBias\000"
 17132      7300
 17133              	.LASF201:
 17134 058f 5F5A4E37 		.ascii	"_ZN7LSM9DS112getMagIntSrcEv\000"
 17134      4C534D39 
 17134      44533131 
 17134      32676574 
 17134      4D616749 
 17135              	.LASF255:
ARM GAS  /tmp/ccxMPRSl.s 			page 307


 17136 05ab 61786973 		.ascii	"axis\000"
 17136      00
 17137              	.LASF285:
 17138 05b0 6C617463 		.ascii	"latch\000"
 17138      6800
 17139              	.LASF292:
 17140 05b6 73616D70 		.ascii	"samples\000"
 17140      6C657300 
 17141              	.LASF89:
 17142 05be 5457495F 		.ascii	"TWI_RNCR\000"
 17142      524E4352 
 17142      00
 17143              	.LASF31:
 17144 05c7 4649464F 		.ascii	"FIFO_CONT\000"
 17144      5F434F4E 
 17144      5400
 17145              	.LASF147:
 17146 05d1 74656D70 		.ascii	"tempAvailable\000"
 17146      41766169 
 17146      6C61626C 
 17146      6500
 17147              	.LASF121:
 17148 05df 67426961 		.ascii	"gBias\000"
 17148      7300
 17149              	.LASF91:
 17150 05e5 5457495F 		.ascii	"TWI_TNCR\000"
 17150      544E4352 
 17150      00
 17151              	.LASF267:
 17152 05ee 6D616754 		.ascii	"magTemp\000"
 17152      656D7000 
 17153              	.LASF286:
 17154 05f6 62756666 		.ascii	"buffer\000"
 17154      657200
 17155              	.LASF272:
 17156 05fd 61526174 		.ascii	"aRate\000"
 17156      6500
 17157              	.LASF57:
 17158 0603 58595065 		.ascii	"XYPerformance\000"
 17158      72666F72 
 17158      6D616E63 
 17158      6500
 17159              	.LASF145:
 17160 0611 6779726F 		.ascii	"gyroAvailable\000"
 17160      41766169 
 17160      6C61626C 
 17160      6500
 17161              	.LASF246:
 17162 061f 49324372 		.ascii	"I2CreadBytes\000"
 17162      65616442 
 17162      79746573 
 17162      00
 17163              	.LASF219:
 17164 062c 5F5A4E37 		.ascii	"_ZN7LSM9DS17initMagEv\000"
 17164      4C534D39 
 17164      44533137 
 17164      696E6974 
ARM GAS  /tmp/ccxMPRSl.s 			page 308


 17164      4D616745 
 17165              	.LASF197:
 17166 0642 67657441 		.ascii	"getAccelIntSrc\000"
 17166      6363656C 
 17166      496E7453 
 17166      726300
 17167              	.LASF256:
 17168 0651 696E7465 		.ascii	"interface\000"
 17168      72666163 
 17168      6500
 17169              	.LASF251:
 17170 065b 64617461 		.ascii	"data\000"
 17170      00
 17171              	.LASF43:
 17172 0660 656E6162 		.ascii	"enableX\000"
 17172      6C655800 
 17173              	.LASF44:
 17174 0668 656E6162 		.ascii	"enableY\000"
 17174      6C655900 
 17175              	.LASF45:
 17176 0670 656E6162 		.ascii	"enableZ\000"
 17176      6C655A00 
 17177              	.LASF32:
 17178 0678 656E6162 		.ascii	"enabled\000"
 17178      6C656400 
 17179              	.LASF11:
 17180 0680 6C6F6E67 		.ascii	"long unsigned int\000"
 17180      20756E73 
 17180      69676E65 
 17180      6420696E 
 17180      7400
 17181              	.LASF123:
 17182 0692 6D426961 		.ascii	"mBias\000"
 17182      7300
 17183              	.LASF95:
 17184 0698 73746174 		.ascii	"status\000"
 17184      757300
 17185              	.LASF166:
 17186 069f 63616C63 		.ascii	"calcMag\000"
 17186      4D616700 
 17187              	.LASF117:
 17188 06a7 5A5F4158 		.ascii	"Z_AXIS\000"
 17188      495300
 17189              	.LASF233:
 17190 06ae 5F5A4E37 		.ascii	"_ZN7LSM9DS18calcgResEv\000"
 17190      4C534D39 
 17190      44533138 
 17190      63616C63 
 17190      67526573 
 17191              	.LASF106:
 17192 06c5 5F5A4E37 		.ascii	"_ZN7creator3I2C4InitEv\000"
 17192      63726561 
 17192      746F7233 
 17192      49324334 
 17192      496E6974 
 17193              	.LASF303:
 17194 06dc 6D616753 		.ascii	"magSensitivity\000"
ARM GAS  /tmp/ccxMPRSl.s 			page 309


 17194      656E7369 
 17194      74697669 
 17194      747900
 17195              	.LASF271:
 17196 06eb 67526174 		.ascii	"gRate\000"
 17196      6500
 17197              	.LASF191:
 17198 06f1 5F5A4E37 		.ascii	"_ZN7LSM9DS19configIntE16interrupt_selecth9h_lactive"
 17198      4C534D39 
 17198      44533139 
 17198      636F6E66 
 17198      6967496E 
 17199 0724 3570705F 		.ascii	"5pp_od\000"
 17199      6F6400
 17200              	.LASF252:
 17201 072b 74686973 		.ascii	"this\000"
 17201      00
 17202              	.LASF190:
 17203 0730 636F6E66 		.ascii	"configInt\000"
 17203      6967496E 
 17203      7400
 17204              	.LASF29:
 17205 073a 4649464F 		.ascii	"FIFO_CONT_TRIGGER\000"
 17205      5F434F4E 
 17205      545F5452 
 17205      49474745 
 17205      5200
 17206              	.LASF211:
 17207 074c 5F5A4E37 		.ascii	"_ZN7LSM9DS114getFIFOSamplesEv\000"
 17207      4C534D39 
 17207      44533131 
 17207      34676574 
 17207      4649464F 
 17208              	.LASF49:
 17209 076a 636F6D6D 		.ascii	"commInterface\000"
 17209      496E7465 
 17209      72666163 
 17209      6500
 17210              	.LASF185:
 17211 0778 5F5A4E37 		.ascii	"_ZN7LSM9DS114configAccelThsEh12lsm9ds1_axishb\000"
 17211      4C534D39 
 17211      44533131 
 17211      34636F6E 
 17211      66696741 
 17212              	.LASF159:
 17213 07a6 5F5A4E37 		.ascii	"_ZN7LSM9DS17readMagE12lsm9ds1_axis\000"
 17213      4C534D39 
 17213      44533137 
 17213      72656164 
 17213      4D616745 
 17214              	.LASF229:
 17215 07c9 5F5A4E37 		.ascii	"_ZN7LSM9DS111xgReadBytesEhPhh\000"
 17215      4C534D39 
 17215      44533131 
 17215      31786752 
 17215      65616442 
 17216              	.LASF133:
ARM GAS  /tmp/ccxMPRSl.s 			page 310


 17217 07e7 6932635F 		.ascii	"i2c_\000"
 17217      00
 17218              	.LASF149:
 17219 07ec 6D616741 		.ascii	"magAvailable\000"
 17219      7661696C 
 17219      61626C65 
 17219      00
 17220              	.LASF101:
 17221 07f9 70547261 		.ascii	"pTransfer\000"
 17221      6E736665 
 17221      7200
 17222              	.LASF60:
 17223 0803 74656D70 		.ascii	"temperatureSettings\000"
 17223      65726174 
 17223      75726553 
 17223      65747469 
 17223      6E677300 
 17224              	.LASF81:
 17225 0817 5457495F 		.ascii	"TWI_RHR\000"
 17225      52485200 
 17226              	.LASF189:
 17227 081f 5F5A4E37 		.ascii	"_ZN7LSM9DS113configGyroThsEs12lsm9ds1_axishb\000"
 17227      4C534D39 
 17227      44533131 
 17227      33636F6E 
 17227      66696747 
 17228              	.LASF157:
 17229 084c 72656164 		.ascii	"readMag\000"
 17229      4D616700 
 17230              	.LASF12:
 17231 0854 6C6F6E67 		.ascii	"long long int\000"
 17231      206C6F6E 
 17231      6720696E 
 17231      7400
 17232              	.LASF214:
 17233 0862 696E6974 		.ascii	"initGyro\000"
 17233      4779726F 
 17233      00
 17234              	.LASF225:
 17235 086b 5F5A4E37 		.ascii	"_ZN7LSM9DS110mWriteByteEhh\000"
 17235      4C534D39 
 17235      44533131 
 17235      306D5772 
 17235      69746542 
 17236              	.LASF288:
 17237 0886 656E6162 		.ascii	"enable\000"
 17237      6C6500
 17238              	.LASF273:
 17239 088d 6D526174 		.ascii	"mRate\000"
 17239      6500
 17240              	.LASF59:
 17241 0893 6F706572 		.ascii	"operatingMode\000"
 17241      6174696E 
 17241      674D6F64 
 17241      6500
 17242              	.LASF110:
 17243 08a1 5F5A4E37 		.ascii	"_ZN7creator3I2C8ReadByteEhh\000"
ARM GAS  /tmp/ccxMPRSl.s 			page 311


 17243      63726561 
 17243      746F7233 
 17243      49324338 
 17243      52656164 
 17244              	.LASF167:
 17245 08bd 5F5A4E37 		.ascii	"_ZN7LSM9DS17calcMagEs\000"
 17245      4C534D39 
 17245      44533137 
 17245      63616C63 
 17245      4D616745 
 17246              	.LASF181:
 17247 08d3 5F5A4E37 		.ascii	"_ZN7LSM9DS116configInactivityEhhb\000"
 17247      4C534D39 
 17247      44533131 
 17247      36636F6E 
 17247      66696749 
 17248              	.LASF250:
 17249 08f5 73756241 		.ascii	"subAddress\000"
 17249      64647265 
 17249      737300
 17250              	.LASF103:
 17251 0900 74776964 		.ascii	"twid_\000"
 17251      5F00
 17252              	.LASF100:
 17253 0906 70547769 		.ascii	"pTwi\000"
 17253      00
 17254              	.LASF34:
 17255 090b 73616D70 		.ascii	"sampleRate\000"
 17255      6C655261 
 17255      746500
 17256              	.LASF118:
 17257 0916 414C4C5F 		.ascii	"ALL_AXIS\000"
 17257      41584953 
 17257      00
 17258              	.LASF209:
 17259 091f 5F5A4E37 		.ascii	"_ZN7LSM9DS17setFIFOE13fifoMode_typeh\000"
 17259      4C534D39 
 17259      44533137 
 17259      73657446 
 17259      49464F45 
 17260              	.LASF79:
 17261 0944 5457495F 		.ascii	"TWI_IDR\000"
 17261      49445200 
 17262              	.LASF266:
 17263 094c 6D61674D 		.ascii	"magMax\000"
 17263      617800
 17264              	.LASF248:
 17265 0953 666C6F61 		.ascii	"float\000"
 17265      7400
 17266              	.LASF92:
 17267 0959 5457495F 		.ascii	"TWI_PTCR\000"
 17267      50544352 
 17267      00
 17268              	.LASF254:
 17269 0962 636F756E 		.ascii	"count\000"
 17269      7400
 17270              	.LASF196:
ARM GAS  /tmp/ccxMPRSl.s 			page 312


 17271 0968 67657447 		.ascii	"getGyroIntSrc\000"
 17271      79726F49 
 17271      6E745372 
 17271      6300
 17272              	.LASF280:
 17273 0976 74687265 		.ascii	"threshold\000"
 17273      73686F6C 
 17273      6400
 17274              	.LASF0:
 17275 0980 756E7369 		.ascii	"unsigned int\000"
 17275      676E6564 
 17275      20696E74 
 17275      00
 17276              	.LASF264:
 17277 098d 6C6F6164 		.ascii	"loadIn\000"
 17277      496E00
 17278              	.LASF109:
 17279 0994 52656164 		.ascii	"ReadByte\000"
 17279      42797465 
 17279      00
 17280              	.LASF78:
 17281 099d 5457495F 		.ascii	"TWI_IER\000"
 17281      49455200 
 17282              	.LASF177:
 17283 09a5 5F5A4E37 		.ascii	"_ZN7LSM9DS111setAccelODREh\000"
 17283      4C534D39 
 17283      44533131 
 17283      31736574 
 17283      41636365 
 17284              	.LASF282:
 17285 09c0 616E6449 		.ascii	"andInterrupts\000"
 17285      6E746572 
 17285      72757074 
 17285      7300
 17286              	.LASF26:
 17287 09ce 6669666F 		.ascii	"fifoMode_type\000"
 17287      4D6F6465 
 17287      5F747970 
 17287      6500
 17288              	.LASF46:
 17289 09dc 6C617463 		.ascii	"latchInterrupt\000"
 17289      68496E74 
 17289      65727275 
 17289      707400
 17290              	.LASF18:
 17291 09eb 58475F49 		.ascii	"XG_INT1\000"
 17291      4E543100 
 17292              	.LASF19:
 17293 09f3 58475F49 		.ascii	"XG_INT2\000"
 17293      4E543200 
 17294              	.LASF35:
 17295 09fb 62616E64 		.ascii	"bandwidth\000"
 17295      77696474 
 17295      6800
 17296              	.LASF136:
 17297 0a05 5F5A4E37 		.ascii	"_ZN7LSM9DS15beginEv\000"
 17297      4C534D39 
ARM GAS  /tmp/ccxMPRSl.s 			page 313


 17297      44533135 
 17297      62656769 
 17297      6E457600 
 17298              	.LASF216:
 17299 0a19 696E6974 		.ascii	"initAccel\000"
 17299      41636365 
 17299      6C00
 17300              	.LASF16:
 17301 0a23 696E7465 		.ascii	"interface_mode\000"
 17301      72666163 
 17301      655F6D6F 
 17301      646500
 17302              	.LASF104:
 17303 0a32 496E6974 		.ascii	"Init\000"
 17303      00
 17304              	.LASF228:
 17305 0a37 78675265 		.ascii	"xgReadBytes\000"
 17305      61644279 
 17305      74657300 
 17306              	.LASF247:
 17307 0a43 5F5A4E37 		.ascii	"_ZN7LSM9DS112I2CreadBytesEhhPhh\000"
 17307      4C534D39 
 17307      44533131 
 17307      32493243 
 17307      72656164 
 17308              	.LASF259:
 17309 0a63 5F5A4E37 		.ascii	"_ZN7LSM9DS1C2EPN7creator3I2CE\000"
 17309      4C534D39 
 17309      44533143 
 17309      3245504E 
 17309      37637265 
 17310              	.LASF108:
 17311 0a81 5F5A4E37 		.ascii	"_ZN7creator3I2C9WriteByteEhh\000"
 17311      63726561 
 17311      746F7233 
 17311      49324339 
 17311      57726974 
 17312              	.LASF61:
 17313 0a9e 494D5553 		.ascii	"IMUSettings\000"
 17313      65747469 
 17313      6E677300 
 17314              	.LASF137:
 17315 0aaa 63616C69 		.ascii	"calibrate\000"
 17315      62726174 
 17315      6500
 17316              	.LASF23:
 17317 0ab4 70705F6F 		.ascii	"pp_od\000"
 17317      6400
 17318              	.LASF249:
 17319 0aba 626F6F6C 		.ascii	"bool\000"
 17319      00
 17320              	.LASF98:
 17321 0abf 4173796E 		.ascii	"Async\000"
 17321      6300
 17322              	.LASF51:
 17323 0ac5 6D416464 		.ascii	"mAddress\000"
 17323      72657373 
ARM GAS  /tmp/ccxMPRSl.s 			page 314


 17323      00
 17324              	.LASF72:
 17325 0ace 5457495F 		.ascii	"TWI_MMR\000"
 17325      4D4D5200 
 17326              	.LASF298:
 17327 0ad6 474E5520 		.ascii	"GNU C++ 4.8.1 -mcpu=cortex-m3 -mno-thumb-interwork "
 17327      432B2B20 
 17327      342E382E 
 17327      31202D6D 
 17327      6370753D 
 17328 0b09 2D6D7468 		.ascii	"-mthumb -ggdb -O2 -fomit-frame-pointer -falign-func"
 17328      756D6220 
 17328      2D676764 
 17328      62202D4F 
 17328      32202D66 
 17329 0b3c 74696F6E 		.ascii	"tions=16 -ffunction-sections -fdata-sections -fno-c"
 17329      733D3136 
 17329      202D6666 
 17329      756E6374 
 17329      696F6E2D 
 17330 0b6f 6F6D6D6F 		.ascii	"ommon -fno-rtti\000"
 17330      6E202D66 
 17330      6E6F2D72 
 17330      74746900 
 17331              	.LASF113:
 17332 0b7f 5F5A4E37 		.ascii	"_ZN7creator3I2C9ReadBytesEhhPhh\000"
 17332      63726561 
 17332      746F7233 
 17332      49324339 
 17332      52656164 
 17333              	.LASF127:
 17334 0b9f 5F6D4164 		.ascii	"_mAddress\000"
 17334      64726573 
 17334      7300
 17335              	.LASF239:
 17336 0ba9 5F5A4E37 		.ascii	"_ZN7LSM9DS115constrainScalesEv\000"
 17336      4C534D39 
 17336      44533131 
 17336      35636F6E 
 17336      73747261 
 17337              	.LASF15:
 17338 0bc8 494D555F 		.ascii	"IMU_MODE_I2C\000"
 17338      4D4F4445 
 17338      5F493243 
 17338      00
 17339              	.LASF135:
 17340 0bd5 62656769 		.ascii	"begin\000"
 17340      6E00
 17341              	.LASF14:
 17342 0bdb 494D555F 		.ascii	"IMU_MODE_SPI\000"
 17342      4D4F4445 
 17342      5F535049 
 17342      00
 17343              	.LASF178:
 17344 0be8 7365744D 		.ascii	"setMagODR\000"
 17344      61674F44 
 17344      5200
ARM GAS  /tmp/ccxMPRSl.s 			page 315


 17345              	.LASF154:
 17346 0bf2 72656164 		.ascii	"readAccel\000"
 17346      41636365 
 17346      6C00
 17347              	.LASF202:
 17348 0bfc 67657449 		.ascii	"getInactivity\000"
 17348      6E616374 
 17348      69766974 
 17348      7900
 17349              	.LASF30:
 17350 0c0a 4649464F 		.ascii	"FIFO_OFF_TRIGGER\000"
 17350      5F4F4646 
 17350      5F545249 
 17350      47474552 
 17350      00
 17351              	.LASF176:
 17352 0c1b 73657441 		.ascii	"setAccelODR\000"
 17352      6363656C 
 17352      4F445200 
 17353              	.LASF125:
 17354 0c27 61426961 		.ascii	"aBiasRaw\000"
 17354      73526177 
 17354      00
 17355              	.LASF220:
 17356 0c30 6D526561 		.ascii	"mReadByte\000"
 17356      64427974 
 17356      6500
 17357              	.LASF62:
 17358 0c3a 64657669 		.ascii	"device\000"
 17358      636500
 17359              	.LASF151:
 17360 0c41 72656164 		.ascii	"readGyro\000"
 17360      4779726F 
 17360      00
 17361              	.LASF13:
 17362 0c4a 6C6F6E67 		.ascii	"long long unsigned int\000"
 17362      206C6F6E 
 17362      6720756E 
 17362      7369676E 
 17362      65642069 
 17363              	.LASF183:
 17364 0c61 5F5A4E37 		.ascii	"_ZN7LSM9DS114configAccelIntEhb\000"
 17364      4C534D39 
 17364      44533131 
 17364      34636F6E 
 17364      66696741 
 17365              	.LASF7:
 17366 0c80 75696E74 		.ascii	"uint16_t\000"
 17366      31365F74 
 17366      00
 17367              	.LASF222:
 17368 0c89 6D526561 		.ascii	"mReadBytes\000"
 17368      64427974 
 17368      657300
 17369              	.LASF24:
 17370 0c94 494E545F 		.ascii	"INT_PUSH_PULL\000"
 17370      50555348 
ARM GAS  /tmp/ccxMPRSl.s 			page 316


 17370      5F50554C 
 17370      4C00
 17371              	.LASF269:
 17372 0ca2 6374726C 		.ascii	"ctrl1RegValue\000"
 17372      31526567 
 17372      56616C75 
 17372      6500
 17373              	.LASF195:
 17374 0cb0 5F5A4E37 		.ascii	"_ZN7LSM9DS112configMagThsEt\000"
 17374      4C534D39 
 17374      44533131 
 17374      32636F6E 
 17374      6669674D 
 17375              	.LASF203:
 17376 0ccc 5F5A4E37 		.ascii	"_ZN7LSM9DS113getInactivityEv\000"
 17376      4C534D39 
 17376      44533131 
 17376      33676574 
 17376      496E6163 
 17377              	.LASF301:
 17378 0ce9 33547769 		.ascii	"3Twi\000"
 17378      00
 17379              	.LASF240:
 17380 0cee 696E6974 		.ascii	"initI2C\000"
 17380      49324300 
 17381              	.LASF75:
 17382 0cf6 5457495F 		.ascii	"TWI_CWGR\000"
 17382      43574752 
 17382      00
 17383              	.LASF148:
 17384 0cff 5F5A4E37 		.ascii	"_ZN7LSM9DS113tempAvailableEv\000"
 17384      4C534D39 
 17384      44533131 
 17384      3374656D 
 17384      70417661 
 17385              	.LASF221:
 17386 0d1c 5F5A4E37 		.ascii	"_ZN7LSM9DS19mReadByteEh\000"
 17386      4C534D39 
 17386      44533139 
 17386      6D526561 
 17386      64427974 
 17387              	.LASF87:
 17388 0d34 5457495F 		.ascii	"TWI_TCR\000"
 17388      54435200 
 17389              	.LASF245:
 17390 0d3c 5F5A4E37 		.ascii	"_ZN7LSM9DS111I2CreadByteEhh\000"
 17390      4C534D39 
 17390      44533131 
 17390      31493243 
 17390      72656164 
 17391              	.LASF164:
 17392 0d58 63616C63 		.ascii	"calcAccel\000"
 17392      41636365 
 17392      6C00
 17393              	.LASF208:
 17394 0d62 73657446 		.ascii	"setFIFO\000"
 17394      49464F00 
ARM GAS  /tmp/ccxMPRSl.s 			page 317


 17395              	.LASF107:
 17396 0d6a 5F5A4E37 		.ascii	"_ZN7creator3I2C9WriteByteEhhh\000"
 17396      63726561 
 17396      746F7233 
 17396      49324339 
 17396      57726974 
 17397              	.LASF179:
 17398 0d88 5F5A4E37 		.ascii	"_ZN7LSM9DS19setMagODREh\000"
 17398      4C534D39 
 17398      44533139 
 17398      7365744D 
 17398      61674F44 
 17399              	.LASF84:
 17400 0da0 5457495F 		.ascii	"TWI_RPR\000"
 17400      52505200 
 17401              	.LASF120:
 17402 0da8 74656D70 		.ascii	"temperature\000"
 17402      65726174 
 17402      75726500 
 17403              	.LASF168:
 17404 0db4 73657447 		.ascii	"setGyroScale\000"
 17404      79726F53 
 17404      63616C65 
 17404      00
 17405              	.LASF253:
 17406 0dc1 64657374 		.ascii	"dest\000"
 17406      00
 17407              	.LASF99:
 17408 0dc6 5F547769 		.ascii	"_Twid\000"
 17408      6400
 17409              	.LASF186:
 17410 0dcc 636F6E66 		.ascii	"configGyroInt\000"
 17410      69674779 
 17410      726F496E 
 17410      7400
 17411              	.LASF88:
 17412 0dda 5457495F 		.ascii	"TWI_RNPR\000"
 17412      524E5052 
 17412      00
 17413              	.LASF180:
 17414 0de3 636F6E66 		.ascii	"configInactivity\000"
 17414      6967496E 
 17414      61637469 
 17414      76697479 
 17414      00
 17415              	.LASF235:
 17416 0df4 5F5A4E37 		.ascii	"_ZN7LSM9DS18calcmResEv\000"
 17416      4C534D39 
 17416      44533138 
 17416      63616C63 
 17416      6D526573 
 17417              	.LASF226:
 17418 0e0b 78675265 		.ascii	"xgReadByte\000"
 17418      61644279 
 17418      746500
 17419              	.LASF212:
 17420 0e16 696E6974 		.ascii	"init\000"
ARM GAS  /tmp/ccxMPRSl.s 			page 318


 17420      00
 17421              	.LASF76:
 17422 0e1b 52657365 		.ascii	"Reserved1\000"
 17422      72766564 
 17422      3100
 17423              	.LASF83:
 17424 0e25 52657365 		.ascii	"Reserved2\000"
 17424      72766564 
 17424      3200
 17425              	.LASF187:
 17426 0e2f 636F6E66 		.ascii	"configGyroThs\000"
 17426      69674779 
 17426      726F5468 
 17426      7300
 17427              	.LASF90:
 17428 0e3d 5457495F 		.ascii	"TWI_TNPR\000"
 17428      544E5052 
 17428      00
 17429              	.LASF262:
 17430 0e46 6F666673 		.ascii	"offset\000"
 17430      657400
 17431              	.LASF152:
 17432 0e4d 5F5A4E37 		.ascii	"_ZN7LSM9DS18readGyroEv\000"
 17432      4C534D39 
 17432      44533138 
 17432      72656164 
 17432      4779726F 
 17433              	.LASF290:
 17434 0e64 6669666F 		.ascii	"fifoThs\000"
 17434      54687300 
 17435              	.LASF25:
 17436 0e6c 494E545F 		.ascii	"INT_OPEN_DRAIN\000"
 17436      4F50454E 
 17436      5F445241 
 17436      494E00
 17437              	.LASF230:
 17438 0e7b 78675772 		.ascii	"xgWriteByte\000"
 17438      69746542 
 17438      79746500 
 17439              	.LASF38:
 17440 0e87 48504643 		.ascii	"HPFCutoff\000"
 17440      75746F66 
 17440      6600
 17441              	.LASF217:
 17442 0e91 5F5A4E37 		.ascii	"_ZN7LSM9DS19initAccelEv\000"
 17442      4C534D39 
 17442      44533139 
 17442      696E6974 
 17442      41636365 
 17443              	.LASF265:
 17444 0ea9 6D61674D 		.ascii	"magMin\000"
 17444      696E00
 17445              	.LASF56:
 17446 0eb0 74656D70 		.ascii	"tempCompensationEnable\000"
 17446      436F6D70 
 17446      656E7361 
 17446      74696F6E 
ARM GAS  /tmp/ccxMPRSl.s 			page 319


 17446      456E6162 
 17447              	.LASF274:
 17448 0ec7 6D53636C 		.ascii	"mScl\000"
 17448      00
 17449              	.LASF169:
 17450 0ecc 5F5A4E37 		.ascii	"_ZN7LSM9DS112setGyroScaleEt\000"
 17450      4C534D39 
 17450      44533131 
 17450      32736574 
 17450      4779726F 
 17451              	.LASF116:
 17452 0ee8 595F4158 		.ascii	"Y_AXIS\000"
 17452      495300
 17453              	.LASF111:
 17454 0eef 5F5A4E37 		.ascii	"_ZN7creator3I2C8ReadByteEh\000"
 17454      63726561 
 17454      746F7233 
 17454      49324338 
 17454      52656164 
 17455              	.LASF6:
 17456 0f0a 73686F72 		.ascii	"short int\000"
 17456      7420696E 
 17456      7400
 17457              	.LASF124:
 17458 0f14 67426961 		.ascii	"gBiasRaw\000"
 17458      73526177 
 17458      00
 17459              	.LASF42:
 17460 0f1d 6F726965 		.ascii	"orientation\000"
 17460      6E746174 
 17460      696F6E00 
 17461              	.LASF68:
 17462 0f29 526F5265 		.ascii	"RoReg\000"
 17462      6700
 17463              	.LASF5:
 17464 0f2f 696E7431 		.ascii	"int16_t\000"
 17464      365F7400 
 17465              	.LASF80:
 17466 0f37 5457495F 		.ascii	"TWI_IMR\000"
 17466      494D5200 
 17467              	.LASF139:
 17468 0f3f 63616C69 		.ascii	"calibrateMag\000"
 17468      62726174 
 17468      654D6167 
 17468      00
 17469              	.LASF172:
 17470 0f4c 7365744D 		.ascii	"setMagScale\000"
 17470      61675363 
 17470      616C6500 
 17471              	.LASF53:
 17472 0f58 68696768 		.ascii	"highResEnable\000"
 17472      52657345 
 17472      6E61626C 
 17472      6500
 17473              	.LASF175:
 17474 0f66 5F5A4E37 		.ascii	"_ZN7LSM9DS110setGyroODREh\000"
 17474      4C534D39 
ARM GAS  /tmp/ccxMPRSl.s 			page 320


 17474      44533131 
 17474      30736574 
 17474      4779726F 
 17475              	.LASF206:
 17476 0f80 656E6162 		.ascii	"enableFIFO\000"
 17476      6C654649 
 17476      464F00
 17477              	.LASF73:
 17478 0f8b 5457495F 		.ascii	"TWI_SMR\000"
 17478      534D5200 
 17479              	.LASF281:
 17480 0f93 736C6565 		.ascii	"sleepOn\000"
 17480      704F6E00 
 17481              	.LASF161:
 17482 0f9b 5F5A4E37 		.ascii	"_ZN7LSM9DS18readTempEv\000"
 17482      4C534D39 
 17482      44533138 
 17482      72656164 
 17482      54656D70 
 17483              	.LASF70:
 17484 0fb2 52775265 		.ascii	"RwReg\000"
 17484      6700
 17485              	.LASF64:
 17486 0fb8 61636365 		.ascii	"accel\000"
 17486      6C00
 17487              	.LASF293:
 17488 0fbe 61426961 		.ascii	"aBiasRawTemp\000"
 17488      73526177 
 17488      54656D70 
 17488      00
 17489              	.LASF224:
 17490 0fcb 6D577269 		.ascii	"mWriteByte\000"
 17490      74654279 
 17490      746500
 17491              	.LASF82:
 17492 0fd6 5457495F 		.ascii	"TWI_THR\000"
 17492      54485200 
 17493              	.LASF297:
 17494 0fde 77686F41 		.ascii	"whoAmICombined\000"
 17494      6D49436F 
 17494      6D62696E 
 17494      656400
 17495              	.LASF261:
 17496 0fed 74656D70 		.ascii	"tempRegValue\000"
 17496      52656756 
 17496      616C7565 
 17496      00
 17497              	.LASF102:
 17498 0ffa 54776964 		.ascii	"Twid\000"
 17498      00
 17499              	.LASF10:
 17500 0fff 75696E74 		.ascii	"uint32_t\000"
 17500      33325F74 
 17500      00
 17501              	.LASF302:
 17502 1008 63726561 		.ascii	"creator\000"
 17502      746F7200 
ARM GAS  /tmp/ccxMPRSl.s 			page 321


 17503              	.LASF138:
 17504 1010 5F5A4E37 		.ascii	"_ZN7LSM9DS19calibrateEb\000"
 17504      4C534D39 
 17504      44533139 
 17504      63616C69 
 17504      62726174 
 17505              	.LASF275:
 17506 1028 696E7465 		.ascii	"interrupt\000"
 17506      72727570 
 17506      7400
 17507              	.LASF204:
 17508 1032 736C6565 		.ascii	"sleepGyro\000"
 17508      70477972 
 17508      6F00
 17509              	.LASF283:
 17510 103c 77616974 		.ascii	"wait\000"
 17510      00
 17511              	.LASF8:
 17512 1041 73686F72 		.ascii	"short unsigned int\000"
 17512      7420756E 
 17512      7369676E 
 17512      65642069 
 17512      6E7400
 17513              	.LASF94:
 17514 1054 5F417379 		.ascii	"_Async\000"
 17514      6E6300
 17515              	.LASF128:
 17516 105b 5F786741 		.ascii	"_xgAddress\000"
 17516      64647265 
 17516      737300
 17517              	.LASF215:
 17518 1066 5F5A4E37 		.ascii	"_ZN7LSM9DS18initGyroEv\000"
 17518      4C534D39 
 17518      44533138 
 17518      696E6974 
 17518      4779726F 
 17519              	.LASF47:
 17520 107d 6779726F 		.ascii	"gyroSettings\000"
 17520      53657474 
 17520      696E6773 
 17520      00
 17521              	.LASF27:
 17522 108a 4649464F 		.ascii	"FIFO_OFF\000"
 17522      5F4F4646 
 17522      00
 17523              	.LASF114:
 17524 1093 6C736D39 		.ascii	"lsm9ds1_axis\000"
 17524      6473315F 
 17524      61786973 
 17524      00
 17525              	.LASF198:
 17526 10a0 5F5A4E37 		.ascii	"_ZN7LSM9DS113getGyroIntSrcEv\000"
 17526      4C534D39 
 17526      44533131 
 17526      33676574 
 17526      4779726F 
 17527              	.LASF182:
ARM GAS  /tmp/ccxMPRSl.s 			page 322


 17528 10bd 636F6E66 		.ascii	"configAccelInt\000"
 17528      69674163 
 17528      63656C49 
 17528      6E7400
 17529              	.LASF155:
 17530 10cc 5F5A4E37 		.ascii	"_ZN7LSM9DS19readAccelEv\000"
 17530      4C534D39 
 17530      44533139 
 17530      72656164 
 17530      41636365 
 17531              	.LASF130:
 17532 10e4 61526573 		.ascii	"aRes\000"
 17532      00
 17533              	.LASF244:
 17534 10e9 49324372 		.ascii	"I2CreadByte\000"
 17534      65616442 
 17534      79746500 
 17535              	.LASF50:
 17536 10f5 61674164 		.ascii	"agAddress\000"
 17536      64726573 
 17536      7300
 17537              	.LASF126:
 17538 10ff 6D426961 		.ascii	"mBiasRaw\000"
 17538      73526177 
 17538      00
 17539              	.LASF65:
 17540 1108 74656D70 		.ascii	"temp\000"
 17540      00
 17541              	.LASF184:
 17542 110d 636F6E66 		.ascii	"configAccelThs\000"
 17542      69674163 
 17542      63656C54 
 17542      687300
 17543              	.LASF17:
 17544 111c 696E7465 		.ascii	"interrupt_select\000"
 17544      72727570 
 17544      745F7365 
 17544      6C656374 
 17544      00
 17545              	.LASF276:
 17546 112d 67656E65 		.ascii	"generator\000"
 17546      7261746F 
 17546      7200
 17547              	.LASF112:
 17548 1137 52656164 		.ascii	"ReadBytes\000"
 17548      42797465 
 17548      7300
 17549              	.LASF129:
 17550 1141 67526573 		.ascii	"gRes\000"
 17550      00
 17551              	.LASF243:
 17552 1146 5F5A4E37 		.ascii	"_ZN7LSM9DS112I2CwriteByteEhhh\000"
 17552      4C534D39 
 17552      44533131 
 17552      32493243 
 17552      77726974 
 17553              	.LASF241:
ARM GAS  /tmp/ccxMPRSl.s 			page 323


 17554 1164 5F5A4E37 		.ascii	"_ZN7LSM9DS17initI2CEv\000"
 17554      4C534D39 
 17554      44533137 
 17554      696E6974 
 17554      49324345 
 17555              		.ident	"GCC: (Sourcery CodeBench Lite 2013.11-24) 4.8.1"
ARM GAS  /tmp/ccxMPRSl.s 			page 324


DEFINED SYMBOLS
                            *ABS*:00000000 lsm9ds1.cpp
     /tmp/ccxMPRSl.s:19     .text._ZN7LSM9DS14initE14interface_modehh:00000000 $t
     /tmp/ccxMPRSl.s:25     .text._ZN7LSM9DS14initE14interface_modehh:00000000 _ZN7LSM9DS14initE14interface_modehh
.ARM.exidx.text._ZN7LSM9DS14initE14interface_modehh:00000000 $d
     /tmp/ccxMPRSl.s:187    .text._ZN7LSM9DS1C2EPN7creator3I2CE:00000000 $t
     /tmp/ccxMPRSl.s:193    .text._ZN7LSM9DS1C2EPN7creator3I2CE:00000000 _ZN7LSM9DS1C2EPN7creator3I2CE
.ARM.exidx.text._ZN7LSM9DS1C2EPN7creator3I2CE:00000000 $d
     /tmp/ccxMPRSl.s:193    .text._ZN7LSM9DS1C2EPN7creator3I2CE:00000000 _ZN7LSM9DS1C1EPN7creator3I2CE
     /tmp/ccxMPRSl.s:231    .text._ZN7LSM9DS1C2EPN7creator3I2CE14interface_modehh:00000000 $t
     /tmp/ccxMPRSl.s:237    .text._ZN7LSM9DS1C2EPN7creator3I2CE14interface_modehh:00000000 _ZN7LSM9DS1C2EPN7creator3I2CE14interface_modehh
.ARM.exidx.text._ZN7LSM9DS1C2EPN7creator3I2CE14interface_modehh:00000000 $d
     /tmp/ccxMPRSl.s:237    .text._ZN7LSM9DS1C2EPN7creator3I2CE14interface_modehh:00000000 _ZN7LSM9DS1C1EPN7creator3I2CE14interface_modehh
     /tmp/ccxMPRSl.s:278    .text._ZN7LSM9DS18initGyroEv:00000000 $t
     /tmp/ccxMPRSl.s:284    .text._ZN7LSM9DS18initGyroEv:00000000 _ZN7LSM9DS18initGyroEv
.ARM.exidx.text._ZN7LSM9DS18initGyroEv:00000000 $d
     /tmp/ccxMPRSl.s:483    .text._ZN7LSM9DS19initAccelEv:00000000 $t
     /tmp/ccxMPRSl.s:489    .text._ZN7LSM9DS19initAccelEv:00000000 _ZN7LSM9DS19initAccelEv
.ARM.exidx.text._ZN7LSM9DS19initAccelEv:00000000 $d
     /tmp/ccxMPRSl.s:637    .text._ZN7LSM9DS19magOffsetEhs:00000000 $t
     /tmp/ccxMPRSl.s:643    .text._ZN7LSM9DS19magOffsetEhs:00000000 _ZN7LSM9DS19magOffsetEhs
.ARM.exidx.text._ZN7LSM9DS19magOffsetEhs:00000000 $d
     /tmp/ccxMPRSl.s:727    .text._ZN7LSM9DS17initMagEv:00000000 $t
     /tmp/ccxMPRSl.s:733    .text._ZN7LSM9DS17initMagEv:00000000 _ZN7LSM9DS17initMagEv
     /tmp/ccxMPRSl.s:4490   .rodata.CSWTCH.42:00000000 .LANCHOR0
.ARM.exidx.text._ZN7LSM9DS17initMagEv:00000000 $d
     /tmp/ccxMPRSl.s:878    .text._ZN7LSM9DS114accelAvailableEv:00000000 $t
     /tmp/ccxMPRSl.s:884    .text._ZN7LSM9DS114accelAvailableEv:00000000 _ZN7LSM9DS114accelAvailableEv
.ARM.extab.text._ZN7LSM9DS114accelAvailableEv:00000000 $d
.ARM.exidx.text._ZN7LSM9DS114accelAvailableEv:00000000 $d
     /tmp/ccxMPRSl.s:922    .text._ZN7LSM9DS113gyroAvailableEv:00000000 $t
     /tmp/ccxMPRSl.s:928    .text._ZN7LSM9DS113gyroAvailableEv:00000000 _ZN7LSM9DS113gyroAvailableEv
.ARM.extab.text._ZN7LSM9DS113gyroAvailableEv:00000000 $d
.ARM.exidx.text._ZN7LSM9DS113gyroAvailableEv:00000000 $d
     /tmp/ccxMPRSl.s:966    .text._ZN7LSM9DS113tempAvailableEv:00000000 $t
     /tmp/ccxMPRSl.s:972    .text._ZN7LSM9DS113tempAvailableEv:00000000 _ZN7LSM9DS113tempAvailableEv
.ARM.extab.text._ZN7LSM9DS113tempAvailableEv:00000000 $d
.ARM.exidx.text._ZN7LSM9DS113tempAvailableEv:00000000 $d
     /tmp/ccxMPRSl.s:1010   .text._ZN7LSM9DS112magAvailableE12lsm9ds1_axis:00000000 $t
     /tmp/ccxMPRSl.s:1016   .text._ZN7LSM9DS112magAvailableE12lsm9ds1_axis:00000000 _ZN7LSM9DS112magAvailableE12lsm9ds1_axis
.ARM.exidx.text._ZN7LSM9DS112magAvailableE12lsm9ds1_axis:00000000 $d
     /tmp/ccxMPRSl.s:1061   .text._ZN7LSM9DS19readAccelEv:00000000 $t
     /tmp/ccxMPRSl.s:1067   .text._ZN7LSM9DS19readAccelEv:00000000 _ZN7LSM9DS19readAccelEv
.ARM.exidx.text._ZN7LSM9DS19readAccelEv:00000000 $d
     /tmp/ccxMPRSl.s:1167   .text._ZN7LSM9DS19readAccelE12lsm9ds1_axis:00000000 $t
     /tmp/ccxMPRSl.s:1173   .text._ZN7LSM9DS19readAccelE12lsm9ds1_axis:00000000 _ZN7LSM9DS19readAccelE12lsm9ds1_axis
.ARM.exidx.text._ZN7LSM9DS19readAccelE12lsm9ds1_axis:00000000 $d
     /tmp/ccxMPRSl.s:1262   .text._ZN7LSM9DS17readMagEv:00000000 $t
     /tmp/ccxMPRSl.s:1268   .text._ZN7LSM9DS17readMagEv:00000000 _ZN7LSM9DS17readMagEv
.ARM.exidx.text._ZN7LSM9DS17readMagEv:00000000 $d
     /tmp/ccxMPRSl.s:1346   .text._ZN7LSM9DS112calibrateMagEb:00000000 $t
     /tmp/ccxMPRSl.s:1352   .text._ZN7LSM9DS112calibrateMagEb:00000000 _ZN7LSM9DS112calibrateMagEb
.ARM.exidx.text._ZN7LSM9DS112calibrateMagEb:00000000 $d
     /tmp/ccxMPRSl.s:1532   .text._ZN7LSM9DS17readMagE12lsm9ds1_axis:00000000 $t
     /tmp/ccxMPRSl.s:1538   .text._ZN7LSM9DS17readMagE12lsm9ds1_axis:00000000 _ZN7LSM9DS17readMagE12lsm9ds1_axis
.ARM.exidx.text._ZN7LSM9DS17readMagE12lsm9ds1_axis:00000000 $d
     /tmp/ccxMPRSl.s:1600   .text._ZN7LSM9DS18readTempEv:00000000 $t
ARM GAS  /tmp/ccxMPRSl.s 			page 325


     /tmp/ccxMPRSl.s:1606   .text._ZN7LSM9DS18readTempEv:00000000 _ZN7LSM9DS18readTempEv
.ARM.exidx.text._ZN7LSM9DS18readTempEv:00000000 $d
     /tmp/ccxMPRSl.s:1664   .text._ZN7LSM9DS18readGyroEv:00000000 $t
     /tmp/ccxMPRSl.s:1670   .text._ZN7LSM9DS18readGyroEv:00000000 _ZN7LSM9DS18readGyroEv
.ARM.exidx.text._ZN7LSM9DS18readGyroEv:00000000 $d
     /tmp/ccxMPRSl.s:1770   .text._ZN7LSM9DS18readGyroE12lsm9ds1_axis:00000000 $t
     /tmp/ccxMPRSl.s:1776   .text._ZN7LSM9DS18readGyroE12lsm9ds1_axis:00000000 _ZN7LSM9DS18readGyroE12lsm9ds1_axis
.ARM.exidx.text._ZN7LSM9DS18readGyroE12lsm9ds1_axis:00000000 $d
     /tmp/ccxMPRSl.s:1865   .text._ZN7LSM9DS18calcGyroEs:00000000 $t
     /tmp/ccxMPRSl.s:1871   .text._ZN7LSM9DS18calcGyroEs:00000000 _ZN7LSM9DS18calcGyroEs
.ARM.exidx.text._ZN7LSM9DS18calcGyroEs:00000000 $d
     /tmp/ccxMPRSl.s:1901   .text._ZN7LSM9DS19calcAccelEs:00000000 $t
     /tmp/ccxMPRSl.s:1907   .text._ZN7LSM9DS19calcAccelEs:00000000 _ZN7LSM9DS19calcAccelEs
.ARM.exidx.text._ZN7LSM9DS19calcAccelEs:00000000 $d
     /tmp/ccxMPRSl.s:1937   .text._ZN7LSM9DS17calcMagEs:00000000 $t
     /tmp/ccxMPRSl.s:1943   .text._ZN7LSM9DS17calcMagEs:00000000 _ZN7LSM9DS17calcMagEs
.ARM.exidx.text._ZN7LSM9DS17calcMagEs:00000000 $d
     /tmp/ccxMPRSl.s:1974   .text._ZN7LSM9DS112setGyroScaleEt:00000000 $t
     /tmp/ccxMPRSl.s:1980   .text._ZN7LSM9DS112setGyroScaleEt:00000000 _ZN7LSM9DS112setGyroScaleEt
.ARM.exidx.text._ZN7LSM9DS112setGyroScaleEt:00000000 $d
     /tmp/ccxMPRSl.s:2074   .text._ZN7LSM9DS113setAccelScaleEh:00000000 $t
     /tmp/ccxMPRSl.s:2080   .text._ZN7LSM9DS113setAccelScaleEh:00000000 _ZN7LSM9DS113setAccelScaleEh
.ARM.exidx.text._ZN7LSM9DS113setAccelScaleEh:00000000 $d
     /tmp/ccxMPRSl.s:2181   .text._ZN7LSM9DS110setGyroODREh:00000000 $t
     /tmp/ccxMPRSl.s:2187   .text._ZN7LSM9DS110setGyroODREh:00000000 _ZN7LSM9DS110setGyroODREh
.ARM.exidx.text._ZN7LSM9DS110setGyroODREh:00000000 $d
     /tmp/ccxMPRSl.s:2268   .text._ZN7LSM9DS111setAccelODREh:00000000 $t
     /tmp/ccxMPRSl.s:2274   .text._ZN7LSM9DS111setAccelODREh:00000000 _ZN7LSM9DS111setAccelODREh
.ARM.exidx.text._ZN7LSM9DS111setAccelODREh:00000000 $d
     /tmp/ccxMPRSl.s:2355   .text._ZN7LSM9DS19setMagODREh:00000000 $t
     /tmp/ccxMPRSl.s:2361   .text._ZN7LSM9DS19setMagODREh:00000000 _ZN7LSM9DS19setMagODREh
.ARM.exidx.text._ZN7LSM9DS19setMagODREh:00000000 $d
     /tmp/ccxMPRSl.s:2432   .text._ZN7LSM9DS18calcgResEv:00000000 $t
     /tmp/ccxMPRSl.s:2438   .text._ZN7LSM9DS18calcgResEv:00000000 _ZN7LSM9DS18calcgResEv
.ARM.exidx.text._ZN7LSM9DS18calcgResEv:00000000 $d
     /tmp/ccxMPRSl.s:2467   .text._ZN7LSM9DS18calcaResEv:00000000 $t
     /tmp/ccxMPRSl.s:2473   .text._ZN7LSM9DS18calcaResEv:00000000 _ZN7LSM9DS18calcaResEv
.ARM.exidx.text._ZN7LSM9DS18calcaResEv:00000000 $d
     /tmp/ccxMPRSl.s:2502   .text._ZN7LSM9DS18calcmResEv:00000000 $t
     /tmp/ccxMPRSl.s:2508   .text._ZN7LSM9DS18calcmResEv:00000000 _ZN7LSM9DS18calcmResEv
     /tmp/ccxMPRSl.s:2524   .text._ZN7LSM9DS18calcmResEv:0000000e $d
     /tmp/ccxMPRSl.s:4505   .data.magSensitivity:00000000 .LANCHOR1
.ARM.exidx.text._ZN7LSM9DS18calcmResEv:00000000 $d
     /tmp/ccxMPRSl.s:2576   .text._ZN7LSM9DS111setMagScaleEh:00000000 $t
     /tmp/ccxMPRSl.s:2582   .text._ZN7LSM9DS111setMagScaleEh:00000000 _ZN7LSM9DS111setMagScaleEh
.ARM.exidx.text._ZN7LSM9DS111setMagScaleEh:00000000 $d
     /tmp/ccxMPRSl.s:2679   .text._ZN7LSM9DS19configIntE16interrupt_selecth9h_lactive5pp_od:00000000 $t
     /tmp/ccxMPRSl.s:2685   .text._ZN7LSM9DS19configIntE16interrupt_selecth9h_lactive5pp_od:00000000 _ZN7LSM9DS19configIntE16interrupt_selecth9h_lactive5pp_od
.ARM.exidx.text._ZN7LSM9DS19configIntE16interrupt_selecth9h_lactive5pp_od:00000000 $d
     /tmp/ccxMPRSl.s:2787   .text._ZN7LSM9DS116configInactivityEhhb:00000000 $t
     /tmp/ccxMPRSl.s:2793   .text._ZN7LSM9DS116configInactivityEhhb:00000000 _ZN7LSM9DS116configInactivityEhhb
.ARM.exidx.text._ZN7LSM9DS116configInactivityEhhb:00000000 $d
     /tmp/ccxMPRSl.s:2864   .text._ZN7LSM9DS113getInactivityEv:00000000 $t
     /tmp/ccxMPRSl.s:2870   .text._ZN7LSM9DS113getInactivityEv:00000000 _ZN7LSM9DS113getInactivityEv
.ARM.extab.text._ZN7LSM9DS113getInactivityEv:00000000 $d
.ARM.exidx.text._ZN7LSM9DS113getInactivityEv:00000000 $d
     /tmp/ccxMPRSl.s:2908   .text._ZN7LSM9DS114configAccelIntEhb:00000000 $t
ARM GAS  /tmp/ccxMPRSl.s 			page 326


     /tmp/ccxMPRSl.s:2914   .text._ZN7LSM9DS114configAccelIntEhb:00000000 _ZN7LSM9DS114configAccelIntEhb
.ARM.exidx.text._ZN7LSM9DS114configAccelIntEhb:00000000 $d
     /tmp/ccxMPRSl.s:2967   .text._ZN7LSM9DS114configAccelThsEh12lsm9ds1_axishb:00000000 $t
     /tmp/ccxMPRSl.s:2973   .text._ZN7LSM9DS114configAccelThsEh12lsm9ds1_axishb:00000000 _ZN7LSM9DS114configAccelThsEh12lsm9ds1_axishb
.ARM.exidx.text._ZN7LSM9DS114configAccelThsEh12lsm9ds1_axishb:00000000 $d
     /tmp/ccxMPRSl.s:3048   .text._ZN7LSM9DS114getAccelIntSrcEv:00000000 $t
     /tmp/ccxMPRSl.s:3054   .text._ZN7LSM9DS114getAccelIntSrcEv:00000000 _ZN7LSM9DS114getAccelIntSrcEv
.ARM.extab.text._ZN7LSM9DS114getAccelIntSrcEv:00000000 $d
.ARM.exidx.text._ZN7LSM9DS114getAccelIntSrcEv:00000000 $d
     /tmp/ccxMPRSl.s:3099   .text._ZN7LSM9DS113configGyroIntEhbb:00000000 $t
     /tmp/ccxMPRSl.s:3105   .text._ZN7LSM9DS113configGyroIntEhbb:00000000 _ZN7LSM9DS113configGyroIntEhbb
.ARM.exidx.text._ZN7LSM9DS113configGyroIntEhbb:00000000 $d
     /tmp/ccxMPRSl.s:3165   .text._ZN7LSM9DS113configGyroThsEs12lsm9ds1_axishb:00000000 $t
     /tmp/ccxMPRSl.s:3171   .text._ZN7LSM9DS113configGyroThsEs12lsm9ds1_axishb:00000000 _ZN7LSM9DS113configGyroThsEs12lsm9ds1_axishb
.ARM.exidx.text._ZN7LSM9DS113configGyroThsEs12lsm9ds1_axishb:00000000 $d
     /tmp/ccxMPRSl.s:3280   .text._ZN7LSM9DS113getGyroIntSrcEv:00000000 $t
     /tmp/ccxMPRSl.s:3286   .text._ZN7LSM9DS113getGyroIntSrcEv:00000000 _ZN7LSM9DS113getGyroIntSrcEv
.ARM.extab.text._ZN7LSM9DS113getGyroIntSrcEv:00000000 $d
.ARM.exidx.text._ZN7LSM9DS113getGyroIntSrcEv:00000000 $d
     /tmp/ccxMPRSl.s:3331   .text._ZN7LSM9DS112configMagIntEh9h_lactiveb:00000000 $t
     /tmp/ccxMPRSl.s:3337   .text._ZN7LSM9DS112configMagIntEh9h_lactiveb:00000000 _ZN7LSM9DS112configMagIntEh9h_lactiveb
.ARM.exidx.text._ZN7LSM9DS112configMagIntEh9h_lactiveb:00000000 $d
     /tmp/ccxMPRSl.s:3404   .text._ZN7LSM9DS112configMagThsEt:00000000 $t
     /tmp/ccxMPRSl.s:3410   .text._ZN7LSM9DS112configMagThsEt:00000000 _ZN7LSM9DS112configMagThsEt
.ARM.exidx.text._ZN7LSM9DS112configMagThsEt:00000000 $d
     /tmp/ccxMPRSl.s:3466   .text._ZN7LSM9DS112getMagIntSrcEv:00000000 $t
     /tmp/ccxMPRSl.s:3472   .text._ZN7LSM9DS112getMagIntSrcEv:00000000 _ZN7LSM9DS112getMagIntSrcEv
.ARM.extab.text._ZN7LSM9DS112getMagIntSrcEv:00000000 $d
.ARM.exidx.text._ZN7LSM9DS112getMagIntSrcEv:00000000 $d
     /tmp/ccxMPRSl.s:3516   .text._ZN7LSM9DS19sleepGyroEb:00000000 $t
     /tmp/ccxMPRSl.s:3522   .text._ZN7LSM9DS19sleepGyroEb:00000000 _ZN7LSM9DS19sleepGyroEb
.ARM.exidx.text._ZN7LSM9DS19sleepGyroEb:00000000 $d
     /tmp/ccxMPRSl.s:3589   .text._ZN7LSM9DS110enableFIFOEb:00000000 $t
     /tmp/ccxMPRSl.s:3595   .text._ZN7LSM9DS110enableFIFOEb:00000000 _ZN7LSM9DS110enableFIFOEb
.ARM.exidx.text._ZN7LSM9DS110enableFIFOEb:00000000 $d
     /tmp/ccxMPRSl.s:3662   .text._ZN7LSM9DS17setFIFOE13fifoMode_typeh:00000000 $t
     /tmp/ccxMPRSl.s:3668   .text._ZN7LSM9DS17setFIFOE13fifoMode_typeh:00000000 _ZN7LSM9DS17setFIFOE13fifoMode_typeh
.ARM.exidx.text._ZN7LSM9DS17setFIFOE13fifoMode_typeh:00000000 $d
     /tmp/ccxMPRSl.s:3726   .text._ZN7LSM9DS19calibrateEb:00000000 $t
     /tmp/ccxMPRSl.s:3732   .text._ZN7LSM9DS19calibrateEb:00000000 _ZN7LSM9DS19calibrateEb
.ARM.exidx.text._ZN7LSM9DS19calibrateEb:00000000 $d
     /tmp/ccxMPRSl.s:3987   .text._ZN7LSM9DS114getFIFOSamplesEv:00000000 $t
     /tmp/ccxMPRSl.s:3993   .text._ZN7LSM9DS114getFIFOSamplesEv:00000000 _ZN7LSM9DS114getFIFOSamplesEv
.ARM.extab.text._ZN7LSM9DS114getFIFOSamplesEv:00000000 $d
.ARM.exidx.text._ZN7LSM9DS114getFIFOSamplesEv:00000000 $d
     /tmp/ccxMPRSl.s:4028   .text._ZN7LSM9DS115constrainScalesEv:00000000 $t
     /tmp/ccxMPRSl.s:4034   .text._ZN7LSM9DS115constrainScalesEv:00000000 _ZN7LSM9DS115constrainScalesEv
.ARM.exidx.text._ZN7LSM9DS115constrainScalesEv:00000000 $d
     /tmp/ccxMPRSl.s:4098   .text._ZN7LSM9DS15beginEv:00000000 $t
     /tmp/ccxMPRSl.s:4104   .text._ZN7LSM9DS15beginEv:00000000 _ZN7LSM9DS15beginEv
.ARM.exidx.text._ZN7LSM9DS15beginEv:00000000 $d
     /tmp/ccxMPRSl.s:4244   .text._ZN7LSM9DS111xgWriteByteEhh:00000000 $t
     /tmp/ccxMPRSl.s:4250   .text._ZN7LSM9DS111xgWriteByteEhh:00000000 _ZN7LSM9DS111xgWriteByteEhh
.ARM.exidx.text._ZN7LSM9DS111xgWriteByteEhh:00000000 $d
     /tmp/ccxMPRSl.s:4284   .text._ZN7LSM9DS110mWriteByteEhh:00000000 $t
     /tmp/ccxMPRSl.s:4290   .text._ZN7LSM9DS110mWriteByteEhh:00000000 _ZN7LSM9DS110mWriteByteEhh
.ARM.exidx.text._ZN7LSM9DS110mWriteByteEhh:00000000 $d
ARM GAS  /tmp/ccxMPRSl.s 			page 327


     /tmp/ccxMPRSl.s:4324   .text._ZN7LSM9DS110xgReadByteEh:00000000 $t
     /tmp/ccxMPRSl.s:4330   .text._ZN7LSM9DS110xgReadByteEh:00000000 _ZN7LSM9DS110xgReadByteEh
.ARM.exidx.text._ZN7LSM9DS110xgReadByteEh:00000000 $d
     /tmp/ccxMPRSl.s:4355   .text._ZN7LSM9DS111xgReadBytesEhPhh:00000000 $t
     /tmp/ccxMPRSl.s:4361   .text._ZN7LSM9DS111xgReadBytesEhPhh:00000000 _ZN7LSM9DS111xgReadBytesEhPhh
.ARM.exidx.text._ZN7LSM9DS111xgReadBytesEhPhh:00000000 $d
     /tmp/ccxMPRSl.s:4406   .text._ZN7LSM9DS19mReadByteEh:00000000 $t
     /tmp/ccxMPRSl.s:4412   .text._ZN7LSM9DS19mReadByteEh:00000000 _ZN7LSM9DS19mReadByteEh
.ARM.exidx.text._ZN7LSM9DS19mReadByteEh:00000000 $d
     /tmp/ccxMPRSl.s:4437   .text._ZN7LSM9DS110mReadBytesEhPhh:00000000 $t
     /tmp/ccxMPRSl.s:4443   .text._ZN7LSM9DS110mReadBytesEhPhh:00000000 _ZN7LSM9DS110mReadBytesEhPhh
.ARM.exidx.text._ZN7LSM9DS110mReadBytesEhPhh:00000000 $d
     /tmp/ccxMPRSl.s:4508   .data.magSensitivity:00000000 magSensitivity
     /tmp/ccxMPRSl.s:4489   .rodata.CSWTCH.42:00000000 $d
     /tmp/ccxMPRSl.s:4493   .rodata.CSWTCH.42:00000000 CSWTCH.42
     /tmp/ccxMPRSl.s:4504   .data.magSensitivity:00000000 $d
                     .debug_frame:00000010 $d
     /tmp/ccxMPRSl.s:2537   .text._ZN7LSM9DS18calcmResEv:0000001b $d
     /tmp/ccxMPRSl.s:2537   .text._ZN7LSM9DS18calcmResEv:0000001c $t

UNDEFINED SYMBOLS
_ZN7creator3I2C9WriteByteEhhh
__aeabi_unwind_cpp_pr0
_ZN7creator3I2C8ReadByteEhh
__aeabi_unwind_cpp_pr1
_ZN7creator3I2C9ReadBytesEhhPhh
__aeabi_i2f
__aeabi_fmul
__aeabi_ui2f
__aeabi_f2d
__aeabi_ddiv
__aeabi_d2iz
