ARM GAS  /tmp/ccxMPRSl.s 			page 1


   1              		.syntax unified
   2              		.cpu cortex-m3
   3              		.fpu softvfp
   4              		.eabi_attribute 20, 1
   5              		.eabi_attribute 21, 1
   6              		.eabi_attribute 23, 3
   7              		.eabi_attribute 24, 1
   8              		.eabi_attribute 25, 1
   9              		.eabi_attribute 26, 1
  10              		.eabi_attribute 30, 2
  11              		.eabi_attribute 34, 1
  12              		.eabi_attribute 18, 4
  13              		.thumb
  14              		.file	"lsm9ds1.cpp"
  15              		.text
  16              	.Ltext0:
  17              		.cfi_sections	.debug_frame
  18              		.section	.text._ZN7LSM9DS14initE14interface_modehh,"ax",%progbits
  19              		.align	2
  20              		.p2align 4,,15
  21              		.global	_ZN7LSM9DS14initE14interface_modehh
  22              		.thumb
  23              		.thumb_func
  24              		.type	_ZN7LSM9DS14initE14interface_modehh, %function
  25              	_ZN7LSM9DS14initE14interface_modehh:
  26              		.fnstart
  27              	.LFB13:
  28              		.file 1 "lsm9ds1.cpp"
  29              		.loc 1 42 0
  30              		.cfi_startproc
  31              		@ args = 0, pretend = 0, frame = 0
  32              		@ frame_needed = 0, uses_anonymous_args = 0
  33              		@ link register save eliminated.
  34              	.LVL0:
  35 0000 2DE9F00F 		push	{r4, r5, r6, r7, r8, r9, r10, fp}
  36              		.cfi_def_cfa_offset 32
  37              		.cfi_offset 4, -32
  38              		.cfi_offset 5, -28
  39              		.cfi_offset 6, -24
  40              		.cfi_offset 7, -20
  41              		.cfi_offset 8, -16
  42              		.cfi_offset 9, -12
  43              		.cfi_offset 10, -8
  44              		.cfi_offset 11, -4
  45              	.LBB195:
  46              		.loc 1 105 0
  47 0004 4FF0070C 		mov	ip, #7
  48              		.loc 1 61 0
  49 0008 0024     		movs	r4, #0
  50              		.loc 1 47 0
  51 000a 0125     		movs	r5, #1
  52              		.loc 1 57 0
  53 000c 0627     		movs	r7, #6
  54              		.loc 1 110 0
  55 000e 0326     		movs	r6, #3
  56              		.loc 1 52 0
  57 0010 4FF0F50B 		mov	fp, #245
ARM GAS  /tmp/ccxMPRSl.s 			page 2


  58              		.loc 1 79 0
  59 0014 4FF0020A 		mov	r10, #2
  60              		.loc 1 89 0
  61 0018 4FF0FF09 		mov	r9, #255
  62              		.loc 1 99 0
  63 001c 4FF00408 		mov	r8, #4
  64              		.loc 1 43 0
  65 0020 0170     		strb	r1, [r0]
  66              		.loc 1 44 0
  67 0022 4270     		strb	r2, [r0, #1]
  68              		.loc 1 45 0
  69 0024 8370     		strb	r3, [r0, #2]
  70              		.loc 1 57 0
  71 0026 0772     		strb	r7, [r0, #8]
  72              		.loc 1 84 0
  73 0028 0776     		strb	r7, [r0, #24]
  74              		.loc 1 52 0
  75 002a A0F806B0 		strh	fp, [r0, #6]	@ movhi
  76              		.loc 1 79 0
  77 002e 80F817A0 		strb	r10, [r0, #23]
  78              		.loc 1 89 0
  79 0032 80F81C90 		strb	r9, [r0, #28]
  80              		.loc 1 99 0
  81 0036 80F82080 		strb	r8, [r0, #32]
  82              		.loc 1 105 0
  83 003a 80F821C0 		strb	ip, [r0, #33]
  84              		.loc 1 47 0
  85 003e 0571     		strb	r5, [r0, #4]
  86              		.loc 1 48 0
  87 0040 4574     		strb	r5, [r0, #17]
  88              		.loc 1 49 0
  89 0042 8574     		strb	r5, [r0, #18]
  90              		.loc 1 50 0
  91 0044 C574     		strb	r5, [r0, #19]
  92              		.loc 1 72 0
  93 0046 0575     		strb	r5, [r0, #20]
  94              		.loc 1 74 0
  95 0048 8575     		strb	r5, [r0, #22]
  96              		.loc 1 75 0
  97 004a 4576     		strb	r5, [r0, #25]
  98              		.loc 1 76 0
  99 004c 8576     		strb	r5, [r0, #26]
 100              		.loc 1 77 0
 101 004e C576     		strb	r5, [r0, #27]
 102              		.loc 1 97 0
 103 0050 C577     		strb	r5, [r0, #31]
 104              		.loc 1 61 0
 105 0052 4472     		strb	r4, [r0, #9]
 106              		.loc 1 62 0
 107 0054 8472     		strb	r4, [r0, #10]
 108              		.loc 1 63 0
 109 0056 C472     		strb	r4, [r0, #11]
 110              		.loc 1 67 0
 111 0058 0473     		strb	r4, [r0, #12]
 112              		.loc 1 68 0
 113 005a 4473     		strb	r4, [r0, #13]
 114              		.loc 1 69 0
ARM GAS  /tmp/ccxMPRSl.s 			page 3


 115 005c 8473     		strb	r4, [r0, #14]
 116              		.loc 1 70 0
 117 005e C473     		strb	r4, [r0, #15]
 118              		.loc 1 71 0
 119 0060 0474     		strb	r4, [r0, #16]
 120              		.loc 1 90 0
 121 0062 4477     		strb	r4, [r0, #29]
 122              		.loc 1 95 0
 123 0064 8477     		strb	r4, [r0, #30]
 124              		.loc 1 106 0
 125 0066 80F82240 		strb	r4, [r0, #34]
 126              		.loc 1 110 0
 127 006a 80F82360 		strb	r6, [r0, #35]
 128              	.LBB196:
 129              		.loc 1 121 0
 130 006e 0021     		movs	r1, #0
 131              	.LVL1:
 132              	.LBE196:
 133              		.loc 1 111 0
 134 0070 80F82460 		strb	r6, [r0, #36]
 135              	.LBB197:
 136              		.loc 1 124 0
 137 0074 2746     		mov	r7, r4
 138              	.LBE197:
 139              		.loc 1 112 0
 140 0076 80F82540 		strb	r4, [r0, #37]
 141              		.loc 1 119 0
 142 007a 80F82750 		strb	r5, [r0, #39]
 143              	.LVL2:
 144              		.loc 1 117 0
 145 007e 80F82640 		strb	r4, [r0, #38]
 146 0082 0246     		mov	r2, r0
 147              	.LVL3:
 148              		.loc 1 119 0
 149 0084 0346     		mov	r3, r0
 150              	.LVL4:
 151              	.L3:
 152              	.LBB198:
 153              		.loc 1 120 0 discriminator 2
 154 0086 013E     		subs	r6, r6, #1
 155              	.LVL5:
 156              		.loc 1 121 0 discriminator 2
 157 0088 D163     		str	r1, [r2, #60]	@ float
 158              		.loc 1 122 0 discriminator 2
 159 008a 9164     		str	r1, [r2, #72]	@ float
 160              		.loc 1 123 0 discriminator 2
 161 008c 5165     		str	r1, [r2, #84]	@ float
 162              		.loc 1 124 0 discriminator 2
 163 008e 4FF00004 		mov	r4, #0	@ movhi
 164 0092 A3F86070 		strh	r7, [r3, #96]	@ movhi
 165              		.loc 1 125 0 discriminator 2
 166 0096 A3F86670 		strh	r7, [r3, #102]	@ movhi
 167              		.loc 1 126 0 discriminator 2
 168 009a A3F86C70 		strh	r7, [r3, #108]	@ movhi
 169              	.LVL6:
 170 009e 02F10402 		add	r2, r2, #4
 171 00a2 03F10203 		add	r3, r3, #2
ARM GAS  /tmp/ccxMPRSl.s 			page 4


 172              		.loc 1 120 0 discriminator 2
 173 00a6 EED1     		bne	.L3
 174              	.LBE198:
 175              		.loc 1 128 0
 176 00a8 80F88040 		strb	r4, [r0, #128]
 177              	.LBE195:
 178              		.loc 1 129 0
 179 00ac BDE8F00F 		pop	{r4, r5, r6, r7, r8, r9, r10, fp}
 180 00b0 7047     		bx	lr
 181              		.cfi_endproc
 182              	.LFE13:
 183              		.cantunwind
 184              		.fnend
 185              		.size	_ZN7LSM9DS14initE14interface_modehh, .-_ZN7LSM9DS14initE14interface_modehh
 186 00b2 00BFAFF3 		.section	.text._ZN7LSM9DS1C2EPN7creator3I2CE,"ax",%progbits
 186      0080AFF3 
 186      0080AFF3 
 186      0080
 187              		.align	2
 188              		.p2align 4,,15
 189              		.global	_ZN7LSM9DS1C2EPN7creator3I2CE
 190              		.thumb
 191              		.thumb_func
 192              		.type	_ZN7LSM9DS1C2EPN7creator3I2CE, %function
 193              	_ZN7LSM9DS1C2EPN7creator3I2CE:
 194              		.fnstart
 195              	.LFB8:
 196              		.loc 1 32 0
 197              		.cfi_startproc
 198              		@ args = 0, pretend = 0, frame = 0
 199              		@ frame_needed = 0, uses_anonymous_args = 0
 200              	.LVL7:
 201 0000 10B5     		push	{r4, lr}
 202              		.cfi_def_cfa_offset 8
 203              		.cfi_offset 4, -8
 204              		.cfi_offset 14, -4
 205              	.LBB199:
 206              		.loc 1 33 0
 207 0002 6B22     		movs	r2, #107
 208              	.LBE199:
 209              		.loc 1 32 0
 210 0004 0446     		mov	r4, r0
 211              	.LBB200:
 212 0006 C0F88410 		str	r1, [r0, #132]
 213              		.loc 1 33 0
 214 000a 1E23     		movs	r3, #30
 215 000c 0121     		movs	r1, #1
 216              	.LVL8:
 217 000e FFF7FEFF 		bl	_ZN7LSM9DS14initE14interface_modehh
 218              	.LVL9:
 219              	.LBE200:
 220              		.loc 1 34 0
 221 0012 2046     		mov	r0, r4
 222 0014 10BD     		pop	{r4, pc}
 223              		.cfi_endproc
 224              	.LFE8:
 225              		.cantunwind
ARM GAS  /tmp/ccxMPRSl.s 			page 5


 226              		.fnend
 227              		.size	_ZN7LSM9DS1C2EPN7creator3I2CE, .-_ZN7LSM9DS1C2EPN7creator3I2CE
 228              		.global	_ZN7LSM9DS1C1EPN7creator3I2CE
 229              		.thumb_set _ZN7LSM9DS1C1EPN7creator3I2CE,_ZN7LSM9DS1C2EPN7creator3I2CE
 230 0016 00BFAFF3 		.section	.text._ZN7LSM9DS1C2EPN7creator3I2CE14interface_modehh,"ax",%progbits
 230      0080AFF3 
 230      0080
 231              		.align	2
 232              		.p2align 4,,15
 233              		.global	_ZN7LSM9DS1C2EPN7creator3I2CE14interface_modehh
 234              		.thumb
 235              		.thumb_func
 236              		.type	_ZN7LSM9DS1C2EPN7creator3I2CE14interface_modehh, %function
 237              	_ZN7LSM9DS1C2EPN7creator3I2CE14interface_modehh:
 238              		.fnstart
 239              	.LFB11:
 240              		.loc 1 36 0
 241              		.cfi_startproc
 242              		@ args = 4, pretend = 0, frame = 0
 243              		@ frame_needed = 0, uses_anonymous_args = 0
 244              	.LVL10:
 245 0000 38B5     		push	{r3, r4, r5, lr}
 246              		.cfi_def_cfa_offset 16
 247              		.cfi_offset 3, -16
 248              		.cfi_offset 4, -12
 249              		.cfi_offset 5, -8
 250              		.cfi_offset 14, -4
 251              		.loc 1 36 0
 252 0002 9DF81050 		ldrb	r5, [sp, #16]	@ zero_extendqisi2
 253 0006 0446     		mov	r4, r0
 254              	.LBB201:
 255              		.loc 1 38 0
 256 0008 C0F88410 		str	r1, [r0, #132]
 257              		.loc 1 39 0
 258 000c 1146     		mov	r1, r2
 259              	.LVL11:
 260 000e 1A46     		mov	r2, r3
 261              	.LVL12:
 262 0010 2B46     		mov	r3, r5
 263              	.LVL13:
 264 0012 FFF7FEFF 		bl	_ZN7LSM9DS14initE14interface_modehh
 265              	.LVL14:
 266              	.LBE201:
 267              		.loc 1 40 0
 268 0016 2046     		mov	r0, r4
 269 0018 38BD     		pop	{r3, r4, r5, pc}
 270              		.cfi_endproc
 271              	.LFE11:
 272              		.cantunwind
 273              		.fnend
 274              		.size	_ZN7LSM9DS1C2EPN7creator3I2CE14interface_modehh, .-_ZN7LSM9DS1C2EPN7creator3I2CE14interface_
 275              		.global	_ZN7LSM9DS1C1EPN7creator3I2CE14interface_modehh
 276              		.thumb_set _ZN7LSM9DS1C1EPN7creator3I2CE14interface_modehh,_ZN7LSM9DS1C2EPN7creator3I2CE14interfac
 277 001a 00BFAFF3 		.section	.text._ZN7LSM9DS18initGyroEv,"ax",%progbits
 277      0080
 278              		.align	2
 279              		.p2align 4,,15
ARM GAS  /tmp/ccxMPRSl.s 			page 6


 280              		.global	_ZN7LSM9DS18initGyroEv
 281              		.thumb
 282              		.thumb_func
 283              		.type	_ZN7LSM9DS18initGyroEv, %function
 284              	_ZN7LSM9DS18initGyroEv:
 285              		.fnstart
 286              	.LFB15:
 287              		.loc 1 164 0
 288              		.cfi_startproc
 289              		@ args = 0, pretend = 0, frame = 0
 290              		@ frame_needed = 0, uses_anonymous_args = 0
 291              	.LVL15:
 292 0000 10B5     		push	{r4, lr}
 293              		.save {r4, lr}
 294              		.cfi_def_cfa_offset 8
 295              		.cfi_offset 4, -8
 296              		.cfi_offset 14, -4
 297              	.LBB202:
 298              		.loc 1 175 0
 299 0002 0279     		ldrb	r2, [r0, #4]	@ zero_extendqisi2
 300              	.LBE202:
 301              		.loc 1 164 0
 302 0004 0446     		mov	r4, r0
 303              	.LBB217:
 304              		.loc 1 175 0
 305 0006 12B1     		cbz	r2, .L8
 306              		.loc 1 176 0
 307 0008 027A     		ldrb	r2, [r0, #8]	@ zero_extendqisi2
 308 000a 5201     		lsls	r2, r2, #5
 309 000c D2B2     		uxtb	r2, r2
 310              	.LVL16:
 311              	.L8:
 312              		.loc 1 178 0
 313 000e E388     		ldrh	r3, [r4, #6]
 314 0010 B3F5FA7F 		cmp	r3, #500
 315              		.loc 1 180 0
 316 0014 08BF     		it	eq
 317 0016 42F00802 		orreq	r2, r2, #8
 318              	.LVL17:
 319              		.loc 1 178 0
 320 001a 04D0     		beq	.L9
 321 001c B3F5FA6F 		cmp	r3, #2000
 322              		.loc 1 183 0
 323 0020 08BF     		it	eq
 324 0022 42F01802 		orreq	r2, r2, #24
 325              	.LVL18:
 326              	.L9:
 327              		.loc 1 187 0
 328 0026 637A     		ldrb	r3, [r4, #9]	@ zero_extendqisi2
 329              	.LBB203:
 330              	.LBB204:
 331              		.loc 1 887 0
 332 0028 D4F88400 		ldr	r0, [r4, #132]
 333              	.LVL19:
 334              	.LBE204:
 335              	.LBE203:
 336              		.loc 1 187 0
ARM GAS  /tmp/ccxMPRSl.s 			page 7


 337 002c 03F00303 		and	r3, r3, #3
 338              	.LVL20:
 339              	.LBB206:
 340              	.LBB205:
 341              		.loc 1 887 0
 342 0030 1343     		orrs	r3, r3, r2
 343              	.LVL21:
 344 0032 94F87310 		ldrb	r1, [r4, #115]	@ zero_extendqisi2
 345 0036 1022     		movs	r2, #16
 346              	.LVL22:
 347 0038 FFF7FEFF 		bl	_ZN7creator3I2C9WriteByteEhhh
 348              	.LVL23:
 349              	.LBE205:
 350              	.LBE206:
 351              	.LBB207:
 352              	.LBB208:
 353 003c 1122     		movs	r2, #17
 354 003e 0023     		movs	r3, #0
 355 0040 D4F88400 		ldr	r0, [r4, #132]
 356 0044 94F87310 		ldrb	r1, [r4, #115]	@ zero_extendqisi2
 357 0048 FFF7FEFF 		bl	_ZN7creator3I2C9WriteByteEhhh
 358              	.LVL24:
 359              	.LBE208:
 360              	.LBE207:
 361              		.loc 1 201 0
 362 004c A37A     		ldrb	r3, [r4, #10]	@ zero_extendqisi2
 363              		.loc 1 202 0
 364 004e E27A     		ldrb	r2, [r4, #11]	@ zero_extendqisi2
 365              		.loc 1 201 0
 366 0050 002B     		cmp	r3, #0
 367 0052 14BF     		ite	ne
 368 0054 8023     		movne	r3, #128
 369 0056 0023     		moveq	r3, #0
 370              	.LVL25:
 371              		.loc 1 202 0
 372 0058 2AB1     		cbz	r2, .L13
 373              		.loc 1 203 0
 374 005a 227B     		ldrb	r2, [r4, #12]	@ zero_extendqisi2
 375 005c 02F00F02 		and	r2, r2, #15
 376 0060 42F04002 		orr	r2, r2, #64
 377 0064 1343     		orrs	r3, r3, r2
 378              	.LVL26:
 379              	.L13:
 380              	.LBB209:
 381              	.LBB210:
 382              		.loc 1 887 0
 383 0066 1222     		movs	r2, #18
 384 0068 D4F88400 		ldr	r0, [r4, #132]
 385 006c 94F87310 		ldrb	r1, [r4, #115]	@ zero_extendqisi2
 386 0070 FFF7FEFF 		bl	_ZN7creator3I2C9WriteByteEhhh
 387              	.LVL27:
 388              	.LBE210:
 389              	.LBE209:
 390              		.loc 1 215 0
 391 0074 E37C     		ldrb	r3, [r4, #19]	@ zero_extendqisi2
 392              		.loc 1 216 0
 393 0076 A27C     		ldrb	r2, [r4, #18]	@ zero_extendqisi2
ARM GAS  /tmp/ccxMPRSl.s 			page 8


 394              		.loc 1 214 0
 395 0078 002B     		cmp	r3, #0
 396 007a 14BF     		ite	ne
 397 007c 2023     		movne	r3, #32
 398 007e 0023     		moveq	r3, #0
 399              	.LVL28:
 400              		.loc 1 216 0
 401 0080 12B1     		cbz	r2, .L15
 402              		.loc 1 216 0 is_stmt 0 discriminator 1
 403 0082 43F01003 		orr	r3, r3, #16
 404              	.LVL29:
 405 0086 DBB2     		uxtb	r3, r3
 406              	.LVL30:
 407              	.L15:
 408              		.loc 1 217 0 is_stmt 1
 409 0088 627C     		ldrb	r2, [r4, #17]	@ zero_extendqisi2
 410 008a 0AB1     		cbz	r2, .L16
 411              		.loc 1 217 0 is_stmt 0 discriminator 1
 412 008c 43F00803 		orr	r3, r3, #8
 413              	.LVL31:
 414              	.L16:
 415              		.loc 1 218 0 is_stmt 1
 416 0090 227D     		ldrb	r2, [r4, #20]	@ zero_extendqisi2
 417 0092 0AB1     		cbz	r2, .L17
 418              		.loc 1 218 0 is_stmt 0 discriminator 1
 419 0094 43F00203 		orr	r3, r3, #2
 420              	.LVL32:
 421              	.L17:
 422              	.LBB211:
 423              	.LBB212:
 424              		.loc 1 887 0 is_stmt 1
 425 0098 1E22     		movs	r2, #30
 426 009a D4F88400 		ldr	r0, [r4, #132]
 427 009e 94F87310 		ldrb	r1, [r4, #115]	@ zero_extendqisi2
 428 00a2 FFF7FEFF 		bl	_ZN7creator3I2C9WriteByteEhhh
 429              	.LVL33:
 430              	.LBE212:
 431              	.LBE211:
 432              		.loc 1 226 0
 433 00a6 637B     		ldrb	r3, [r4, #13]	@ zero_extendqisi2
 434              		.loc 1 227 0
 435 00a8 A27B     		ldrb	r2, [r4, #14]	@ zero_extendqisi2
 436              		.loc 1 225 0
 437 00aa 002B     		cmp	r3, #0
 438 00ac 14BF     		ite	ne
 439 00ae 2023     		movne	r3, #32
 440 00b0 0023     		moveq	r3, #0
 441              	.LVL34:
 442              		.loc 1 227 0
 443 00b2 12B1     		cbz	r2, .L19
 444              		.loc 1 227 0 is_stmt 0 discriminator 1
 445 00b4 43F01003 		orr	r3, r3, #16
 446              	.LVL35:
 447 00b8 DBB2     		uxtb	r3, r3
 448              	.LVL36:
 449              	.L19:
 450              		.loc 1 228 0 is_stmt 1
ARM GAS  /tmp/ccxMPRSl.s 			page 9


 451 00ba E27B     		ldrb	r2, [r4, #15]	@ zero_extendqisi2
 452 00bc 0AB1     		cbz	r2, .L20
 453              		.loc 1 228 0 is_stmt 0 discriminator 1
 454 00be 43F00803 		orr	r3, r3, #8
 455              	.LVL37:
 456              	.L20:
 457              	.LBB213:
 458              	.LBB214:
 459              		.loc 1 887 0 is_stmt 1
 460 00c2 D4F88400 		ldr	r0, [r4, #132]
 461 00c6 94F87310 		ldrb	r1, [r4, #115]	@ zero_extendqisi2
 462 00ca 1322     		movs	r2, #19
 463              	.LBE214:
 464              	.LBE213:
 465              	.LBE217:
 466              		.loc 1 230 0
 467 00cc BDE81040 		pop	{r4, lr}
 468              	.LVL38:
 469              	.LBB218:
 470              	.LBB216:
 471              	.LBB215:
 472              		.loc 1 887 0
 473 00d0 FFF7FEBF 		b	_ZN7creator3I2C9WriteByteEhhh
 474              	.LVL39:
 475              	.LBE215:
 476              	.LBE216:
 477              	.LBE218:
 478              		.cfi_endproc
 479              	.LFE15:
 480              		.fnend
 481              		.size	_ZN7LSM9DS18initGyroEv, .-_ZN7LSM9DS18initGyroEv
 482 00d4 AFF30080 		.section	.text._ZN7LSM9DS19initAccelEv,"ax",%progbits
 482      AFF30080 
 482      AFF30080 
 483              		.align	2
 484              		.p2align 4,,15
 485              		.global	_ZN7LSM9DS19initAccelEv
 486              		.thumb
 487              		.thumb_func
 488              		.type	_ZN7LSM9DS19initAccelEv, %function
 489              	_ZN7LSM9DS19initAccelEv:
 490              		.fnstart
 491              	.LFB16:
 492              		.loc 1 232 0
 493              		.cfi_startproc
 494              		@ args = 0, pretend = 0, frame = 0
 495              		@ frame_needed = 0, uses_anonymous_args = 0
 496              	.LVL40:
 497 0000 10B5     		push	{r4, lr}
 498              		.save {r4, lr}
 499              		.cfi_def_cfa_offset 8
 500              		.cfi_offset 4, -8
 501              		.cfi_offset 14, -4
 502              	.LBB219:
 503              		.loc 1 242 0
 504 0002 C37E     		ldrb	r3, [r0, #27]	@ zero_extendqisi2
 505              		.loc 1 243 0
ARM GAS  /tmp/ccxMPRSl.s 			page 10


 506 0004 827E     		ldrb	r2, [r0, #26]	@ zero_extendqisi2
 507              	.LBE219:
 508              		.loc 1 232 0
 509 0006 0446     		mov	r4, r0
 510              	.LBB230:
 511              		.loc 1 233 0
 512 0008 002B     		cmp	r3, #0
 513 000a 14BF     		ite	ne
 514 000c 2023     		movne	r3, #32
 515 000e 0023     		moveq	r3, #0
 516              	.LVL41:
 517              		.loc 1 243 0
 518 0010 12B1     		cbz	r2, .L45
 519              		.loc 1 243 0 is_stmt 0 discriminator 1
 520 0012 43F01003 		orr	r3, r3, #16
 521              	.LVL42:
 522 0016 DBB2     		uxtb	r3, r3
 523              	.LVL43:
 524              	.L45:
 525              		.loc 1 244 0 is_stmt 1
 526 0018 627E     		ldrb	r2, [r4, #25]	@ zero_extendqisi2
 527 001a 0AB1     		cbz	r2, .L46
 528              		.loc 1 244 0 is_stmt 0 discriminator 1
 529 001c 43F00803 		orr	r3, r3, #8
 530              	.LVL44:
 531              	.L46:
 532              	.LBB220:
 533              	.LBB221:
 534              		.loc 1 887 0 is_stmt 1
 535 0020 D4F88400 		ldr	r0, [r4, #132]
 536              	.LVL45:
 537 0024 94F87310 		ldrb	r1, [r4, #115]	@ zero_extendqisi2
 538 0028 1F22     		movs	r2, #31
 539 002a FFF7FEFF 		bl	_ZN7creator3I2C9WriteByteEhhh
 540              	.LVL46:
 541              	.LBE221:
 542              	.LBE220:
 543              		.loc 1 256 0
 544 002e A37D     		ldrb	r3, [r4, #22]	@ zero_extendqisi2
 545 0030 13B1     		cbz	r3, .L47
 546              		.loc 1 257 0
 547 0032 237E     		ldrb	r3, [r4, #24]	@ zero_extendqisi2
 548 0034 5B01     		lsls	r3, r3, #5
 549 0036 DBB2     		uxtb	r3, r3
 550              	.LVL47:
 551              	.L47:
 552              		.loc 1 259 0
 553 0038 E27D     		ldrb	r2, [r4, #23]	@ zero_extendqisi2
 554 003a 082A     		cmp	r2, #8
 555              		.loc 1 264 0
 556 003c 08BF     		it	eq
 557 003e 43F01803 		orreq	r3, r3, #24
 558              	.LVL48:
 559              		.loc 1 259 0
 560 0042 08D0     		beq	.L48
 561 0044 102A     		cmp	r2, #16
 562              		.loc 1 267 0
ARM GAS  /tmp/ccxMPRSl.s 			page 11


 563 0046 08BF     		it	eq
 564 0048 43F00803 		orreq	r3, r3, #8
 565              		.loc 1 259 0
 566 004c 03D0     		beq	.L48
 567 004e 042A     		cmp	r2, #4
 568              		.loc 1 261 0
 569 0050 08BF     		it	eq
 570 0052 43F01003 		orreq	r3, r3, #16
 571              	.L48:
 572              	.LVL49:
 573              		.loc 1 271 0
 574 0056 227F     		ldrb	r2, [r4, #28]	@ zero_extendqisi2
 575              	.LBB222:
 576              	.LBB223:
 577              		.loc 1 887 0
 578 0058 D4F88400 		ldr	r0, [r4, #132]
 579              	.LBE223:
 580              	.LBE222:
 581              		.loc 1 271 0
 582 005c 1106     		lsls	r1, r2, #24
 583              		.loc 1 273 0
 584 005e 5FBF     		itttt	pl
 585 0060 02F00302 		andpl	r2, r2, #3
 586 0064 1343     		orrpl	r3, r3, r2
 587              	.LVL50:
 588 0066 43F00403 		orrpl	r3, r3, #4
 589 006a DBB2     		uxtbpl	r3, r3
 590              	.LVL51:
 591              	.LBB225:
 592              	.LBB224:
 593              		.loc 1 887 0
 594 006c 94F87310 		ldrb	r1, [r4, #115]	@ zero_extendqisi2
 595 0070 2022     		movs	r2, #32
 596 0072 FFF7FEFF 		bl	_ZN7creator3I2C9WriteByteEhhh
 597              	.LVL52:
 598              	.LBE224:
 599              	.LBE225:
 600              		.loc 1 284 0
 601 0076 637F     		ldrb	r3, [r4, #29]	@ zero_extendqisi2
 602 0078 2BB1     		cbz	r3, .L53
 603              	.LVL53:
 604              		.loc 1 286 0
 605 007a A37F     		ldrb	r3, [r4, #30]	@ zero_extendqisi2
 606 007c 03F00303 		and	r3, r3, #3
 607 0080 5B01     		lsls	r3, r3, #5
 608 0082 43F08003 		orr	r3, r3, #128
 609              	.LVL54:
 610              	.L53:
 611              	.LBB226:
 612              	.LBB227:
 613              		.loc 1 887 0
 614 0086 D4F88400 		ldr	r0, [r4, #132]
 615 008a 94F87310 		ldrb	r1, [r4, #115]	@ zero_extendqisi2
 616 008e 2122     		movs	r2, #33
 617              	.LBE227:
 618              	.LBE226:
 619              	.LBE230:
ARM GAS  /tmp/ccxMPRSl.s 			page 12


 620              		.loc 1 289 0
 621 0090 BDE81040 		pop	{r4, lr}
 622              	.LVL55:
 623              	.LBB231:
 624              	.LBB229:
 625              	.LBB228:
 626              		.loc 1 887 0
 627 0094 FFF7FEBF 		b	_ZN7creator3I2C9WriteByteEhhh
 628              	.LVL56:
 629              	.LBE228:
 630              	.LBE229:
 631              	.LBE231:
 632              		.cfi_endproc
 633              	.LFE16:
 634              		.fnend
 635              		.size	_ZN7LSM9DS19initAccelEv, .-_ZN7LSM9DS19initAccelEv
 636 0098 AFF30080 		.section	.text._ZN7LSM9DS19magOffsetEhs,"ax",%progbits
 636      AFF30080 
 637              		.align	2
 638              		.p2align 4,,15
 639              		.global	_ZN7LSM9DS19magOffsetEhs
 640              		.thumb
 641              		.thumb_func
 642              		.type	_ZN7LSM9DS19magOffsetEhs, %function
 643              	_ZN7LSM9DS19magOffsetEhs:
 644              		.fnstart
 645              	.LFB19:
 646              		.loc 1 363 0
 647              		.cfi_startproc
 648              		@ args = 0, pretend = 0, frame = 0
 649              		@ frame_needed = 0, uses_anonymous_args = 0
 650              	.LVL57:
 651              	.LBB232:
 652              		.loc 1 364 0
 653 0000 0229     		cmp	r1, #2
 654              	.LBE232:
 655              		.loc 1 363 0
 656 0002 70B5     		push	{r4, r5, r6, lr}
 657              		.save {r4, r5, r6, lr}
 658              		.cfi_def_cfa_offset 16
 659              		.cfi_offset 4, -16
 660              		.cfi_offset 5, -12
 661              		.cfi_offset 6, -8
 662              		.cfi_offset 14, -4
 663              		.loc 1 363 0
 664 0004 0C46     		mov	r4, r1
 665 0006 0546     		mov	r5, r0
 666 0008 1646     		mov	r6, r2
 667              	.LBB241:
 668              		.loc 1 364 0
 669 000a 00D9     		bls	.L65
 670 000c 70BD     		pop	{r4, r5, r6, pc}
 671              	.L65:
 672              	.LVL58:
 673              		.loc 1 368 0
 674 000e 4A00     		lsls	r2, r1, #1
 675              	.LVL59:
ARM GAS  /tmp/ccxMPRSl.s 			page 13


 676 0010 0532     		adds	r2, r2, #5
 677              	.LBB233:
 678              	.LBB234:
 679              		.loc 1 891 0
 680 0012 95F87210 		ldrb	r1, [r5, #114]	@ zero_extendqisi2
 681              	.LVL60:
 682 0016 F3B2     		uxtb	r3, r6
 683 0018 D2B2     		uxtb	r2, r2
 684 001a D0F88400 		ldr	r0, [r0, #132]
 685              	.LVL61:
 686              	.LBE234:
 687              	.LBE233:
 688              		.loc 1 369 0
 689 001e 0334     		adds	r4, r4, #3
 690              	.LVL62:
 691              	.LBB236:
 692              	.LBB235:
 693              		.loc 1 891 0
 694 0020 FFF7FEFF 		bl	_ZN7creator3I2C9WriteByteEhhh
 695              	.LVL63:
 696              	.LBE235:
 697              	.LBE236:
 698              		.loc 1 369 0
 699 0024 6200     		lsls	r2, r4, #1
 700              	.LBB237:
 701              	.LBB238:
 702              		.loc 1 891 0
 703 0026 C6F30723 		ubfx	r3, r6, #8, #8
 704 002a D5F88400 		ldr	r0, [r5, #132]
 705 002e 95F87210 		ldrb	r1, [r5, #114]	@ zero_extendqisi2
 706 0032 02F0FE02 		and	r2, r2, #254
 707              	.LBE238:
 708              	.LBE237:
 709              	.LBE241:
 710              		.loc 1 370 0
 711 0036 BDE87040 		pop	{r4, r5, r6, lr}
 712              	.LVL64:
 713              	.LBB242:
 714              	.LBB240:
 715              	.LBB239:
 716              		.loc 1 891 0
 717 003a FFF7FEBF 		b	_ZN7creator3I2C9WriteByteEhhh
 718              	.LVL65:
 719              	.LBE239:
 720              	.LBE240:
 721              	.LBE242:
 722              		.cfi_endproc
 723              	.LFE19:
 724              		.fnend
 725              		.size	_ZN7LSM9DS19magOffsetEhs, .-_ZN7LSM9DS19magOffsetEhs
 726 003e 00BF     		.section	.text._ZN7LSM9DS17initMagEv,"ax",%progbits
 727              		.align	2
 728              		.p2align 4,,15
 729              		.global	_ZN7LSM9DS17initMagEv
 730              		.thumb
 731              		.thumb_func
 732              		.type	_ZN7LSM9DS17initMagEv, %function
ARM GAS  /tmp/ccxMPRSl.s 			page 14


 733              	_ZN7LSM9DS17initMagEv:
 734              		.fnstart
 735              	.LFB20:
 736              		.loc 1 372 0
 737              		.cfi_startproc
 738              		@ args = 0, pretend = 0, frame = 0
 739              		@ frame_needed = 0, uses_anonymous_args = 0
 740              	.LVL66:
 741 0000 10B5     		push	{r4, lr}
 742              		.save {r4, lr}
 743              		.cfi_def_cfa_offset 8
 744              		.cfi_offset 4, -8
 745              		.cfi_offset 14, -4
 746              	.LBB243:
 747              		.loc 1 384 0
 748 0002 90F82310 		ldrb	r1, [r0, #35]	@ zero_extendqisi2
 749              		.loc 1 385 0
 750 0006 90F82120 		ldrb	r2, [r0, #33]	@ zero_extendqisi2
 751              		.loc 1 383 0
 752 000a 90F82230 		ldrb	r3, [r0, #34]	@ zero_extendqisi2
 753              		.loc 1 384 0
 754 000e 01F00301 		and	r1, r1, #3
 755 0012 4901     		lsls	r1, r1, #5
 756              		.loc 1 385 0
 757 0014 02F00702 		and	r2, r2, #7
 758              	.LBE243:
 759              		.loc 1 372 0
 760 0018 0446     		mov	r4, r0
 761              	.LBB260:
 762              		.loc 1 384 0
 763 001a 41EA8202 		orr	r2, r1, r2, lsl #2
 764              		.loc 1 383 0
 765 001e 002B     		cmp	r3, #0
 766 0020 14BF     		ite	ne
 767 0022 8023     		movne	r3, #128
 768 0024 0023     		moveq	r3, #0
 769              	.LVL67:
 770              	.LBB244:
 771              	.LBB245:
 772              		.loc 1 891 0
 773 0026 1343     		orrs	r3, r3, r2
 774              	.LVL68:
 775 0028 94F87210 		ldrb	r1, [r4, #114]	@ zero_extendqisi2
 776 002c 2022     		movs	r2, #32
 777 002e D0F88400 		ldr	r0, [r0, #132]
 778              	.LVL69:
 779 0032 FFF7FEFF 		bl	_ZN7creator3I2C9WriteByteEhhh
 780              	.LVL70:
 781 0036 94F82030 		ldrb	r3, [r4, #32]	@ zero_extendqisi2
 782              	.LBE245:
 783              	.LBE244:
 784              	.LBB246:
 785              	.LBB247:
 786 003a D4F88400 		ldr	r0, [r4, #132]
 787 003e 083B     		subs	r3, r3, #8
 788 0040 DBB2     		uxtb	r3, r3
 789 0042 082B     		cmp	r3, #8
ARM GAS  /tmp/ccxMPRSl.s 			page 15


 790 0044 9DBF     		ittte	ls
 791 0046 40F20002 		movwls	r2, #:lower16:.LANCHOR0
 792 004a C0F20002 		movtls	r2, #:upper16:.LANCHOR0
 793 004e D35C     		ldrbls	r3, [r2, r3]	@ zero_extendqisi2
 794              	.LBE247:
 795              	.LBE246:
 796              		.loc 1 394 0
 797 0050 0023     		movhi	r3, #0
 798              	.LVL71:
 799              	.LBB249:
 800              	.LBB248:
 801              		.loc 1 891 0
 802 0052 94F87210 		ldrb	r1, [r4, #114]	@ zero_extendqisi2
 803 0056 2122     		movs	r2, #33
 804 0058 FFF7FEFF 		bl	_ZN7creator3I2C9WriteByteEhhh
 805              	.LVL72:
 806              	.LBE248:
 807              	.LBE249:
 808              		.loc 1 417 0
 809 005c 94F82520 		ldrb	r2, [r4, #37]	@ zero_extendqisi2
 810              		.loc 1 418 0
 811 0060 94F82630 		ldrb	r3, [r4, #38]	@ zero_extendqisi2
 812              		.loc 1 417 0
 813 0064 002A     		cmp	r2, #0
 814 0066 14BF     		ite	ne
 815 0068 2022     		movne	r2, #32
 816 006a 0022     		moveq	r2, #0
 817              	.LVL73:
 818              		.loc 1 418 0
 819 006c 03F00303 		and	r3, r3, #3
 820              	.LBB250:
 821              	.LBB251:
 822              		.loc 1 891 0
 823 0070 1343     		orrs	r3, r3, r2
 824 0072 D4F88400 		ldr	r0, [r4, #132]
 825 0076 94F87210 		ldrb	r1, [r4, #114]	@ zero_extendqisi2
 826 007a 2222     		movs	r2, #34
 827              	.LVL74:
 828 007c FFF7FEFF 		bl	_ZN7creator3I2C9WriteByteEhhh
 829              	.LVL75:
 830              	.LBE251:
 831              	.LBE250:
 832              		.loc 1 428 0
 833 0080 94F82430 		ldrb	r3, [r4, #36]	@ zero_extendqisi2
 834              	.LBB252:
 835              	.LBB253:
 836              		.loc 1 891 0
 837 0084 D4F88400 		ldr	r0, [r4, #132]
 838              	.LBE253:
 839              	.LBE252:
 840              		.loc 1 428 0
 841 0088 03F00303 		and	r3, r3, #3
 842              	.LBB255:
 843              	.LBB254:
 844              		.loc 1 891 0
 845 008c 94F87210 		ldrb	r1, [r4, #114]	@ zero_extendqisi2
 846 0090 9B00     		lsls	r3, r3, #2
ARM GAS  /tmp/ccxMPRSl.s 			page 16


 847 0092 2322     		movs	r2, #35
 848 0094 FFF7FEFF 		bl	_ZN7creator3I2C9WriteByteEhhh
 849              	.LVL76:
 850              	.LBE254:
 851              	.LBE255:
 852              	.LBB256:
 853              	.LBB257:
 854 0098 D4F88400 		ldr	r0, [r4, #132]
 855 009c 94F87210 		ldrb	r1, [r4, #114]	@ zero_extendqisi2
 856 00a0 2422     		movs	r2, #36
 857 00a2 0023     		movs	r3, #0
 858              	.LBE257:
 859              	.LBE256:
 860              	.LBE260:
 861              		.loc 1 437 0
 862 00a4 BDE81040 		pop	{r4, lr}
 863              	.LVL77:
 864              	.LBB261:
 865              	.LBB259:
 866              	.LBB258:
 867              		.loc 1 891 0
 868 00a8 FFF7FEBF 		b	_ZN7creator3I2C9WriteByteEhhh
 869              	.LVL78:
 870              	.LBE258:
 871              	.LBE259:
 872              	.LBE261:
 873              		.cfi_endproc
 874              	.LFE20:
 875              		.fnend
 876              		.size	_ZN7LSM9DS17initMagEv, .-_ZN7LSM9DS17initMagEv
 877 00ac AFF30080 		.section	.text._ZN7LSM9DS114accelAvailableEv,"ax",%progbits
 878              		.align	2
 879              		.p2align 4,,15
 880              		.global	_ZN7LSM9DS114accelAvailableEv
 881              		.thumb
 882              		.thumb_func
 883              		.type	_ZN7LSM9DS114accelAvailableEv, %function
 884              	_ZN7LSM9DS114accelAvailableEv:
 885              		.fnstart
 886              	.LFB21:
 887              		.loc 1 439 0
 888              		.cfi_startproc
 889              		@ args = 0, pretend = 0, frame = 0
 890              		@ frame_needed = 0, uses_anonymous_args = 0
 891              	.LVL79:
 892 0000 08B5     		push	{r3, lr}
 893              		.save {r3, lr}
 894              		.cfi_def_cfa_offset 8
 895              		.cfi_offset 3, -8
 896              		.cfi_offset 14, -4
 897              		.loc 1 439 0
 898 0002 0346     		mov	r3, r0
 899              	.LVL80:
 900              	.LBB262:
 901              	.LBB263:
 902              	.LBB264:
 903              		.loc 1 895 0
ARM GAS  /tmp/ccxMPRSl.s 			page 17


 904 0004 93F87310 		ldrb	r1, [r3, #115]	@ zero_extendqisi2
 905 0008 2722     		movs	r2, #39
 906 000a D0F88400 		ldr	r0, [r0, #132]
 907              	.LVL81:
 908 000e FFF7FEFF 		bl	_ZN7creator3I2C8ReadByteEhh
 909              	.LVL82:
 910              	.LBE264:
 911              	.LBE263:
 912              	.LBE262:
 913              		.loc 1 443 0
 914 0012 00F00100 		and	r0, r0, #1
 915              	.LVL83:
 916 0016 08BD     		pop	{r3, pc}
 917              		.cfi_endproc
 918              	.LFE21:
 919              		.fnend
 920              		.size	_ZN7LSM9DS114accelAvailableEv, .-_ZN7LSM9DS114accelAvailableEv
 921 0018 AFF30080 		.section	.text._ZN7LSM9DS113gyroAvailableEv,"ax",%progbits
 921      AFF30080 
 922              		.align	2
 923              		.p2align 4,,15
 924              		.global	_ZN7LSM9DS113gyroAvailableEv
 925              		.thumb
 926              		.thumb_func
 927              		.type	_ZN7LSM9DS113gyroAvailableEv, %function
 928              	_ZN7LSM9DS113gyroAvailableEv:
 929              		.fnstart
 930              	.LFB22:
 931              		.loc 1 445 0
 932              		.cfi_startproc
 933              		@ args = 0, pretend = 0, frame = 0
 934              		@ frame_needed = 0, uses_anonymous_args = 0
 935              	.LVL84:
 936 0000 08B5     		push	{r3, lr}
 937              		.save {r3, lr}
 938              		.cfi_def_cfa_offset 8
 939              		.cfi_offset 3, -8
 940              		.cfi_offset 14, -4
 941              		.loc 1 445 0
 942 0002 0346     		mov	r3, r0
 943              	.LVL85:
 944              	.LBB265:
 945              	.LBB266:
 946              	.LBB267:
 947              		.loc 1 895 0
 948 0004 93F87310 		ldrb	r1, [r3, #115]	@ zero_extendqisi2
 949 0008 2722     		movs	r2, #39
 950 000a D0F88400 		ldr	r0, [r0, #132]
 951              	.LVL86:
 952 000e FFF7FEFF 		bl	_ZN7creator3I2C8ReadByteEhh
 953              	.LVL87:
 954              	.LBE267:
 955              	.LBE266:
 956              	.LBE265:
 957              		.loc 1 449 0
 958 0012 C0F34000 		ubfx	r0, r0, #1, #1
 959              	.LVL88:
ARM GAS  /tmp/ccxMPRSl.s 			page 18


 960 0016 08BD     		pop	{r3, pc}
 961              		.cfi_endproc
 962              	.LFE22:
 963              		.fnend
 964              		.size	_ZN7LSM9DS113gyroAvailableEv, .-_ZN7LSM9DS113gyroAvailableEv
 965 0018 AFF30080 		.section	.text._ZN7LSM9DS113tempAvailableEv,"ax",%progbits
 965      AFF30080 
 966              		.align	2
 967              		.p2align 4,,15
 968              		.global	_ZN7LSM9DS113tempAvailableEv
 969              		.thumb
 970              		.thumb_func
 971              		.type	_ZN7LSM9DS113tempAvailableEv, %function
 972              	_ZN7LSM9DS113tempAvailableEv:
 973              		.fnstart
 974              	.LFB23:
 975              		.loc 1 451 0
 976              		.cfi_startproc
 977              		@ args = 0, pretend = 0, frame = 0
 978              		@ frame_needed = 0, uses_anonymous_args = 0
 979              	.LVL89:
 980 0000 08B5     		push	{r3, lr}
 981              		.save {r3, lr}
 982              		.cfi_def_cfa_offset 8
 983              		.cfi_offset 3, -8
 984              		.cfi_offset 14, -4
 985              		.loc 1 451 0
 986 0002 0346     		mov	r3, r0
 987              	.LVL90:
 988              	.LBB268:
 989              	.LBB269:
 990              	.LBB270:
 991              		.loc 1 895 0
 992 0004 93F87310 		ldrb	r1, [r3, #115]	@ zero_extendqisi2
 993 0008 2722     		movs	r2, #39
 994 000a D0F88400 		ldr	r0, [r0, #132]
 995              	.LVL91:
 996 000e FFF7FEFF 		bl	_ZN7creator3I2C8ReadByteEhh
 997              	.LVL92:
 998              	.LBE270:
 999              	.LBE269:
 1000              	.LBE268:
 1001              		.loc 1 455 0
 1002 0012 C0F38000 		ubfx	r0, r0, #2, #1
 1003              	.LVL93:
 1004 0016 08BD     		pop	{r3, pc}
 1005              		.cfi_endproc
 1006              	.LFE23:
 1007              		.fnend
 1008              		.size	_ZN7LSM9DS113tempAvailableEv, .-_ZN7LSM9DS113tempAvailableEv
 1009 0018 AFF30080 		.section	.text._ZN7LSM9DS112magAvailableE12lsm9ds1_axis,"ax",%progbits
 1009      AFF30080 
 1010              		.align	2
 1011              		.p2align 4,,15
 1012              		.global	_ZN7LSM9DS112magAvailableE12lsm9ds1_axis
 1013              		.thumb
 1014              		.thumb_func
ARM GAS  /tmp/ccxMPRSl.s 			page 19


 1015              		.type	_ZN7LSM9DS112magAvailableE12lsm9ds1_axis, %function
 1016              	_ZN7LSM9DS112magAvailableE12lsm9ds1_axis:
 1017              		.fnstart
 1018              	.LFB24:
 1019              		.loc 1 457 0
 1020              		.cfi_startproc
 1021              		@ args = 0, pretend = 0, frame = 0
 1022              		@ frame_needed = 0, uses_anonymous_args = 0
 1023              	.LVL94:
 1024 0000 10B5     		push	{r4, lr}
 1025              		.save {r4, lr}
 1026              		.cfi_def_cfa_offset 8
 1027              		.cfi_offset 4, -8
 1028              		.cfi_offset 14, -4
 1029              		.loc 1 457 0
 1030 0002 0346     		mov	r3, r0
 1031              	.LVL95:
 1032 0004 0C46     		mov	r4, r1
 1033              	.LBB271:
 1034              	.LBB272:
 1035              	.LBB273:
 1036              		.loc 1 903 0
 1037 0006 2722     		movs	r2, #39
 1038 0008 93F87210 		ldrb	r1, [r3, #114]	@ zero_extendqisi2
 1039              	.LVL96:
 1040 000c D0F88400 		ldr	r0, [r0, #132]
 1041              	.LVL97:
 1042 0010 FFF7FEFF 		bl	_ZN7creator3I2C8ReadByteEhh
 1043              	.LVL98:
 1044              	.LBE273:
 1045              	.LBE272:
 1046              		.loc 1 461 0
 1047 0014 0123     		movs	r3, #1
 1048 0016 A340     		lsls	r3, r3, r4
 1049 0018 1840     		ands	r0, r0, r3
 1050              	.LVL99:
 1051 001a 2041     		asrs	r0, r0, r4
 1052              	.LBE271:
 1053              		.loc 1 462 0
 1054 001c C0B2     		uxtb	r0, r0
 1055 001e 10BD     		pop	{r4, pc}
 1056              		.cfi_endproc
 1057              	.LFE24:
 1058              		.fnend
 1059              		.size	_ZN7LSM9DS112magAvailableE12lsm9ds1_axis, .-_ZN7LSM9DS112magAvailableE12lsm9ds1_axis
 1060              		.section	.text._ZN7LSM9DS19readAccelEv,"ax",%progbits
 1061              		.align	2
 1062              		.p2align 4,,15
 1063              		.global	_ZN7LSM9DS19readAccelEv
 1064              		.thumb
 1065              		.thumb_func
 1066              		.type	_ZN7LSM9DS19readAccelEv, %function
 1067              	_ZN7LSM9DS19readAccelEv:
 1068              		.fnstart
 1069              	.LFB25:
 1070              		.loc 1 464 0
 1071              		.cfi_startproc
ARM GAS  /tmp/ccxMPRSl.s 			page 20


 1072              		@ args = 0, pretend = 0, frame = 8
 1073              		@ frame_needed = 0, uses_anonymous_args = 0
 1074              	.LVL100:
 1075 0000 F0B5     		push	{r4, r5, r6, r7, lr}
 1076              		.save {r4, r5, r6, r7, lr}
 1077              		.cfi_def_cfa_offset 20
 1078              		.cfi_offset 4, -20
 1079              		.cfi_offset 5, -16
 1080              		.cfi_offset 6, -12
 1081              		.cfi_offset 7, -8
 1082              		.cfi_offset 14, -4
 1083              	.LBB274:
 1084              	.LBB275:
 1085              	.LBB276:
 1086              		.loc 1 899 0
 1087 0002 0623     		movs	r3, #6
 1088              	.LBE276:
 1089              	.LBE275:
 1090              	.LBE274:
 1091              		.loc 1 464 0
 1092              		.pad #20
 1093 0004 85B0     		sub	sp, sp, #20
 1094              		.cfi_def_cfa_offset 40
 1095              		.loc 1 464 0
 1096 0006 0446     		mov	r4, r0
 1097              	.LVL101:
 1098              	.LBB279:
 1099              	.LBB278:
 1100              	.LBB277:
 1101              		.loc 1 899 0
 1102 0008 94F87310 		ldrb	r1, [r4, #115]	@ zero_extendqisi2
 1103 000c D0F88400 		ldr	r0, [r0, #132]
 1104              	.LVL102:
 1105 0010 2822     		movs	r2, #40
 1106 0012 0093     		str	r3, [sp]
 1107 0014 02AB     		add	r3, sp, #8
 1108              	.LVL103:
 1109 0016 FFF7FEFF 		bl	_ZN7creator3I2C9ReadBytesEhhPhh
 1110              	.LVL104:
 1111              	.LBE277:
 1112              	.LBE278:
 1113              		.loc 1 467 0
 1114 001a 9DF80970 		ldrb	r7, [sp, #9]	@ zero_extendqisi2
 1115 001e 9DF80810 		ldrb	r1, [sp, #8]	@ zero_extendqisi2
 1116              		.loc 1 468 0
 1117 0022 9DF80B60 		ldrb	r6, [sp, #11]	@ zero_extendqisi2
 1118 0026 9DF80A20 		ldrb	r2, [sp, #10]	@ zero_extendqisi2
 1119              		.loc 1 469 0
 1120 002a 9DF80D50 		ldrb	r5, [sp, #13]	@ zero_extendqisi2
 1121 002e 9DF80C30 		ldrb	r3, [sp, #12]	@ zero_extendqisi2
 1122              		.loc 1 470 0
 1123 0032 94F88000 		ldrb	r0, [r4, #128]	@ zero_extendqisi2
 1124              		.loc 1 467 0
 1125 0036 41EA0721 		orr	r1, r1, r7, lsl #8
 1126              		.loc 1 468 0
 1127 003a 42EA0622 		orr	r2, r2, r6, lsl #8
 1128              		.loc 1 469 0
ARM GAS  /tmp/ccxMPRSl.s 			page 21


 1129 003e 43EA0523 		orr	r3, r3, r5, lsl #8
 1130              		.loc 1 467 0
 1131 0042 E185     		strh	r1, [r4, #46]	@ movhi
 1132              		.loc 1 468 0
 1133 0044 2286     		strh	r2, [r4, #48]	@ movhi
 1134              		.loc 1 469 0
 1135 0046 6386     		strh	r3, [r4, #50]	@ movhi
 1136              		.loc 1 470 0
 1137 0048 58B1     		cbz	r0, .L77
 1138              		.loc 1 471 0
 1139 004a B4F86660 		ldrh	r6, [r4, #102]
 1140              		.loc 1 472 0
 1141 004e B4F86850 		ldrh	r5, [r4, #104]
 1142              		.loc 1 473 0
 1143 0052 B4F86A00 		ldrh	r0, [r4, #106]
 1144              		.loc 1 471 0
 1145 0056 891B     		subs	r1, r1, r6
 1146              		.loc 1 472 0
 1147 0058 521B     		subs	r2, r2, r5
 1148              		.loc 1 473 0
 1149 005a 1B1A     		subs	r3, r3, r0
 1150              		.loc 1 471 0
 1151 005c E185     		strh	r1, [r4, #46]	@ movhi
 1152              		.loc 1 472 0
 1153 005e 2286     		strh	r2, [r4, #48]	@ movhi
 1154              		.loc 1 473 0
 1155 0060 6386     		strh	r3, [r4, #50]	@ movhi
 1156              	.L77:
 1157              	.LBE279:
 1158              		.loc 1 475 0
 1159 0062 05B0     		add	sp, sp, #20
 1160              		@ sp needed
 1161 0064 F0BD     		pop	{r4, r5, r6, r7, pc}
 1162              		.cfi_endproc
 1163              	.LFE25:
 1164              		.fnend
 1165              		.size	_ZN7LSM9DS19readAccelEv, .-_ZN7LSM9DS19readAccelEv
 1166 0066 00BFAFF3 		.section	.text._ZN7LSM9DS19readAccelE12lsm9ds1_axis,"ax",%progbits
 1166      0080AFF3 
 1166      0080
 1167              		.align	2
 1168              		.p2align 4,,15
 1169              		.global	_ZN7LSM9DS19readAccelE12lsm9ds1_axis
 1170              		.thumb
 1171              		.thumb_func
 1172              		.type	_ZN7LSM9DS19readAccelE12lsm9ds1_axis, %function
 1173              	_ZN7LSM9DS19readAccelE12lsm9ds1_axis:
 1174              		.fnstart
 1175              	.LFB26:
 1176              		.loc 1 477 0
 1177              		.cfi_startproc
 1178              		@ args = 0, pretend = 0, frame = 8
 1179              		@ frame_needed = 0, uses_anonymous_args = 0
 1180              	.LVL105:
 1181 0000 30B5     		push	{r4, r5, lr}
 1182              		.save {r4, r5, lr}
 1183              		.cfi_def_cfa_offset 12
ARM GAS  /tmp/ccxMPRSl.s 			page 22


 1184              		.cfi_offset 4, -12
 1185              		.cfi_offset 5, -8
 1186              		.cfi_offset 14, -4
 1187              	.LBB280:
 1188              		.loc 1 480 0
 1189 0002 01F11402 		add	r2, r1, #20
 1190              	.LBE280:
 1191              		.loc 1 477 0
 1192              		.pad #20
 1193 0006 85B0     		sub	sp, sp, #20
 1194              		.cfi_def_cfa_offset 32
 1195              		.loc 1 477 0
 1196 0008 0446     		mov	r4, r0
 1197              	.LVL106:
 1198              	.LBB287:
 1199              	.LBB281:
 1200              	.LBB282:
 1201              		.loc 1 899 0
 1202 000a 0223     		movs	r3, #2
 1203              	.LBE282:
 1204              	.LBE281:
 1205              		.loc 1 480 0
 1206 000c 5200     		lsls	r2, r2, #1
 1207              	.LBB285:
 1208              	.LBB283:
 1209              		.loc 1 899 0
 1210 000e D0F88400 		ldr	r0, [r0, #132]
 1211              	.LVL107:
 1212 0012 02F0FE02 		and	r2, r2, #254
 1213              	.LBE283:
 1214              	.LBE285:
 1215              	.LBE287:
 1216              		.loc 1 477 0
 1217 0016 0D46     		mov	r5, r1
 1218              	.LBB288:
 1219              	.LBB286:
 1220              	.LBB284:
 1221              		.loc 1 899 0
 1222 0018 94F87310 		ldrb	r1, [r4, #115]	@ zero_extendqisi2
 1223              	.LVL108:
 1224 001c 0093     		str	r3, [sp]
 1225 001e 03AB     		add	r3, sp, #12
 1226              	.LVL109:
 1227 0020 FFF7FEFF 		bl	_ZN7creator3I2C9ReadBytesEhhPhh
 1228              	.LVL110:
 1229              	.LBE284:
 1230              	.LBE286:
 1231              		.loc 1 481 0
 1232 0024 9DF80D00 		ldrb	r0, [sp, #13]	@ zero_extendqisi2
 1233 0028 9DF80C20 		ldrb	r2, [sp, #12]	@ zero_extendqisi2
 1234              		.loc 1 483 0
 1235 002c 94F88030 		ldrb	r3, [r4, #128]	@ zero_extendqisi2
 1236              		.loc 1 481 0
 1237 0030 42EA0020 		orr	r0, r2, r0, lsl #8
 1238              	.LVL111:
 1239              		.loc 1 483 0
 1240 0034 2BB1     		cbz	r3, .L83
ARM GAS  /tmp/ccxMPRSl.s 			page 23


 1241              		.loc 1 483 0 is_stmt 0 discriminator 1
 1242 0036 04EB4504 		add	r4, r4, r5, lsl #1
 1243              	.LVL112:
 1244 003a B4F86630 		ldrh	r3, [r4, #102]
 1245 003e C01A     		subs	r0, r0, r3
 1246              	.LVL113:
 1247 0040 80B2     		uxth	r0, r0
 1248              	.LVL114:
 1249              	.L83:
 1250              	.LBE288:
 1251              		.loc 1 486 0 is_stmt 1
 1252 0042 00B2     		sxth	r0, r0
 1253              	.LVL115:
 1254 0044 05B0     		add	sp, sp, #20
 1255              		@ sp needed
 1256 0046 30BD     		pop	{r4, r5, pc}
 1257              		.cfi_endproc
 1258              	.LFE26:
 1259              		.fnend
 1260              		.size	_ZN7LSM9DS19readAccelE12lsm9ds1_axis, .-_ZN7LSM9DS19readAccelE12lsm9ds1_axis
 1261 0048 AFF30080 		.section	.text._ZN7LSM9DS17readMagEv,"ax",%progbits
 1261      AFF30080 
 1262              		.align	2
 1263              		.p2align 4,,15
 1264              		.global	_ZN7LSM9DS17readMagEv
 1265              		.thumb
 1266              		.thumb_func
 1267              		.type	_ZN7LSM9DS17readMagEv, %function
 1268              	_ZN7LSM9DS17readMagEv:
 1269              		.fnstart
 1270              	.LFB27:
 1271              		.loc 1 488 0
 1272              		.cfi_startproc
 1273              		@ args = 0, pretend = 0, frame = 8
 1274              		@ frame_needed = 0, uses_anonymous_args = 0
 1275              	.LVL116:
 1276 0000 70B5     		push	{r4, r5, r6, lr}
 1277              		.save {r4, r5, r6, lr}
 1278              		.cfi_def_cfa_offset 16
 1279              		.cfi_offset 4, -16
 1280              		.cfi_offset 5, -12
 1281              		.cfi_offset 6, -8
 1282              		.cfi_offset 14, -4
 1283              	.LBB289:
 1284              	.LBB290:
 1285              	.LBB291:
 1286              		.loc 1 907 0
 1287 0002 0623     		movs	r3, #6
 1288              	.LBE291:
 1289              	.LBE290:
 1290              	.LBE289:
 1291              		.loc 1 488 0
 1292              		.pad #16
 1293 0004 84B0     		sub	sp, sp, #16
 1294              		.cfi_def_cfa_offset 32
 1295              		.loc 1 488 0
 1296 0006 0446     		mov	r4, r0
ARM GAS  /tmp/ccxMPRSl.s 			page 24


 1297              	.LVL117:
 1298              	.LBB294:
 1299              	.LBB293:
 1300              	.LBB292:
 1301              		.loc 1 907 0
 1302 0008 94F87210 		ldrb	r1, [r4, #114]	@ zero_extendqisi2
 1303 000c D0F88400 		ldr	r0, [r0, #132]
 1304              	.LVL118:
 1305 0010 2822     		movs	r2, #40
 1306 0012 0093     		str	r3, [sp]
 1307 0014 02AB     		add	r3, sp, #8
 1308              	.LVL119:
 1309 0016 FFF7FEFF 		bl	_ZN7creator3I2C9ReadBytesEhhPhh
 1310              	.LVL120:
 1311              	.LBE292:
 1312              	.LBE293:
 1313              		.loc 1 491 0
 1314 001a 9DF80960 		ldrb	r6, [sp, #9]	@ zero_extendqisi2
 1315 001e 9DF80810 		ldrb	r1, [sp, #8]	@ zero_extendqisi2
 1316              		.loc 1 492 0
 1317 0022 9DF80B50 		ldrb	r5, [sp, #11]	@ zero_extendqisi2
 1318 0026 9DF80A20 		ldrb	r2, [sp, #10]	@ zero_extendqisi2
 1319              		.loc 1 493 0
 1320 002a 9DF80D00 		ldrb	r0, [sp, #13]	@ zero_extendqisi2
 1321 002e 9DF80C30 		ldrb	r3, [sp, #12]	@ zero_extendqisi2
 1322              		.loc 1 491 0
 1323 0032 41EA0621 		orr	r1, r1, r6, lsl #8
 1324              		.loc 1 492 0
 1325 0036 42EA0522 		orr	r2, r2, r5, lsl #8
 1326              		.loc 1 493 0
 1327 003a 43EA0023 		orr	r3, r3, r0, lsl #8
 1328              		.loc 1 491 0
 1329 003e A186     		strh	r1, [r4, #52]	@ movhi
 1330              		.loc 1 492 0
 1331 0040 E286     		strh	r2, [r4, #54]	@ movhi
 1332              		.loc 1 493 0
 1333 0042 2387     		strh	r3, [r4, #56]	@ movhi
 1334              	.LBE294:
 1335              		.loc 1 494 0
 1336 0044 04B0     		add	sp, sp, #16
 1337              		@ sp needed
 1338 0046 70BD     		pop	{r4, r5, r6, pc}
 1339              		.cfi_endproc
 1340              	.LFE27:
 1341              		.fnend
 1342              		.size	_ZN7LSM9DS17readMagEv, .-_ZN7LSM9DS17readMagEv
 1343              		.global	__aeabi_i2f
 1344              		.global	__aeabi_fmul
 1345 0048 AFF30080 		.section	.text._ZN7LSM9DS112calibrateMagEb,"ax",%progbits
 1345      AFF30080 
 1346              		.align	2
 1347              		.p2align 4,,15
 1348              		.global	_ZN7LSM9DS112calibrateMagEb
 1349              		.thumb
 1350              		.thumb_func
 1351              		.type	_ZN7LSM9DS112calibrateMagEb, %function
 1352              	_ZN7LSM9DS112calibrateMagEb:
ARM GAS  /tmp/ccxMPRSl.s 			page 25


 1353              		.fnstart
 1354              	.LFB18:
 1355              		.loc 1 339 0
 1356              		.cfi_startproc
 1357              		@ args = 0, pretend = 0, frame = 24
 1358              		@ frame_needed = 0, uses_anonymous_args = 0
 1359              	.LVL121:
 1360 0000 2DE9F047 		push	{r4, r5, r6, r7, r8, r9, r10, lr}
 1361              		.save {r4, r5, r6, r7, r8, r9, r10, lr}
 1362              		.cfi_def_cfa_offset 32
 1363              		.cfi_offset 4, -32
 1364              		.cfi_offset 5, -28
 1365              		.cfi_offset 6, -24
 1366              		.cfi_offset 7, -20
 1367              		.cfi_offset 8, -16
 1368              		.cfi_offset 9, -12
 1369              		.cfi_offset 10, -8
 1370              		.cfi_offset 14, -4
 1371              	.LBB295:
 1372              		.loc 1 341 0
 1373 0004 0023     		movs	r3, #0
 1374              	.LBE295:
 1375              		.loc 1 339 0
 1376              		.pad #24
 1377 0006 86B0     		sub	sp, sp, #24
 1378              		.cfi_def_cfa_offset 56
 1379              		.loc 1 339 0
 1380 0008 0446     		mov	r4, r0
 1381 000a 8846     		mov	r8, r1
 1382              	.LBB306:
 1383              		.loc 1 341 0
 1384 000c ADF80030 		strh	r3, [sp]	@ movhi
 1385 0010 ADF80230 		strh	r3, [sp, #2]	@ movhi
 1386 0014 ADF80430 		strh	r3, [sp, #4]	@ movhi
 1387              		.loc 1 342 0
 1388 0018 ADF80830 		strh	r3, [sp, #8]	@ movhi
 1389 001c ADF80A30 		strh	r3, [sp, #10]	@ movhi
 1390 0020 ADF80C30 		strh	r3, [sp, #12]	@ movhi
 1391              	.LVL122:
 1392 0024 8027     		movs	r7, #128
 1393 0026 02AE     		add	r6, sp, #8
 1394              	.LVL123:
 1395              	.L90:
 1396              	.LBB296:
 1397              	.LBB297:
 1398              	.LBB298:
 1399              	.LBB299:
 1400              	.LBB300:
 1401              	.LBB301:
 1402              		.loc 1 903 0 discriminator 1
 1403 0028 D4F88400 		ldr	r0, [r4, #132]
 1404 002c 94F87210 		ldrb	r1, [r4, #114]	@ zero_extendqisi2
 1405 0030 2722     		movs	r2, #39
 1406 0032 FFF7FEFF 		bl	_ZN7creator3I2C8ReadByteEhh
 1407              	.LVL124:
 1408              	.LBE301:
 1409              	.LBE300:
ARM GAS  /tmp/ccxMPRSl.s 			page 26


 1410              	.LBE299:
 1411              	.LBE298:
 1412              		.loc 1 345 0 discriminator 1
 1413 0036 0007     		lsls	r0, r0, #28
 1414              	.LVL125:
 1415 0038 F6D5     		bpl	.L90
 1416              		.loc 1 347 0
 1417 003a 2046     		mov	r0, r4
 1418 003c FFF7FEFF 		bl	_ZN7LSM9DS17readMagEv
 1419              	.LVL126:
 1420              		.loc 1 351 0
 1421 0040 238F     		ldrh	r3, [r4, #56]
 1422              		.loc 1 349 0
 1423 0042 A28E     		ldrh	r2, [r4, #52]
 1424              		.loc 1 350 0
 1425 0044 E18E     		ldrh	r1, [r4, #54]
 1426              		.loc 1 351 0
 1427 0046 ADF81430 		strh	r3, [sp, #20]	@ movhi
 1428              	.LVL127:
 1429              		.loc 1 349 0
 1430 004a ADF81020 		strh	r2, [sp, #16]	@ movhi
 1431              		.loc 1 350 0
 1432 004e ADF81210 		strh	r1, [sp, #18]	@ movhi
 1433              		.loc 1 351 0
 1434 0052 0023     		movs	r3, #0
 1435              	.LVL128:
 1436              	.L94:
 1437              		.loc 1 353 0
 1438 0054 F15E     		ldrsh	r1, [r6, r3]
 1439              		.loc 1 354 0
 1440 0056 3DF90350 		ldrsh	r5, [sp, r3]
 1441              		.loc 1 353 0
 1442 005a 10B2     		sxth	r0, r2
 1443 005c 8142     		cmp	r1, r0
 1444 005e B8BF     		it	lt
 1445 0060 F252     		strhlt	r2, [r6, r3]	@ movhi
 1446              		.loc 1 354 0
 1447 0062 8542     		cmp	r5, r0
 1448 0064 C8BF     		it	gt
 1449 0066 2DF80320 		strhgt	r2, [sp, r3]	@ movhi
 1450 006a 0233     		adds	r3, r3, #2
 1451              		.loc 1 352 0
 1452 006c 062B     		cmp	r3, #6
 1453 006e 04D0     		beq	.L93
 1454 0070 03F11001 		add	r1, r3, #16
 1455 0074 6846     		mov	r0, sp
 1456 0076 0A5A     		ldrh	r2, [r1, r0]
 1457 0078 ECE7     		b	.L94
 1458              	.L93:
 1459              	.LVL129:
 1460              	.LBE297:
 1461              		.loc 1 344 0
 1462 007a 013F     		subs	r7, r7, #1
 1463              	.LVL130:
 1464 007c D4D1     		bne	.L90
 1465 007e B946     		mov	r9, r7
 1466 0080 2546     		mov	r5, r4
ARM GAS  /tmp/ccxMPRSl.s 			page 27


 1467              	.LVL131:
 1468              	.L99:
 1469              	.LBE296:
 1470              		.loc 1 358 0
 1471 0082 F15F     		ldrsh	r1, [r6, r7]
 1472 0084 3DF90730 		ldrsh	r3, [sp, r7]
 1473 0088 E219     		adds	r2, r4, r7
 1474 008a 0B44     		add	r3, r3, r1
 1475 008c 03EBD373 		add	r3, r3, r3, lsr #31
 1476 0090 C3F34F03 		ubfx	r3, r3, #1, #16
 1477              	.LBB302:
 1478              	.LBB303:
 1479              		.loc 1 547 0
 1480 0094 0FFA83FA 		sxth	r10, r3
 1481              	.LBE303:
 1482              	.LBE302:
 1483              		.loc 1 358 0
 1484 0098 A2F86C30 		strh	r3, [r2, #108]	@ movhi
 1485              	.LVL132:
 1486              	.LBB305:
 1487              	.LBB304:
 1488              		.loc 1 547 0
 1489 009c 5046     		mov	r0, r10
 1490 009e FFF7FEFF 		bl	__aeabi_i2f
 1491              	.LVL133:
 1492 00a2 0146     		mov	r1, r0
 1493 00a4 E06F     		ldr	r0, [r4, #124]	@ float
 1494 00a6 FFF7FEFF 		bl	__aeabi_fmul
 1495              	.LVL134:
 1496 00aa 0237     		adds	r7, r7, #2
 1497              	.LBE304:
 1498              	.LBE305:
 1499              		.loc 1 359 0
 1500 00ac 6865     		str	r0, [r5, #84]	@ float
 1501 00ae 0435     		adds	r5, r5, #4
 1502              		.loc 1 360 0
 1503 00b0 B8F1000F 		cmp	r8, #0
 1504 00b4 06D1     		bne	.L103
 1505              	.L97:
 1506              		.loc 1 357 0
 1507 00b6 062F     		cmp	r7, #6
 1508 00b8 09F10109 		add	r9, r9, #1
 1509              	.LVL135:
 1510 00bc E1D1     		bne	.L99
 1511              	.LBE306:
 1512              		.loc 1 362 0
 1513 00be 06B0     		add	sp, sp, #24
 1514              		@ sp needed
 1515 00c0 BDE8F087 		pop	{r4, r5, r6, r7, r8, r9, r10, pc}
 1516              	.LVL136:
 1517              	.L103:
 1518              	.LBB307:
 1519              		.loc 1 360 0 discriminator 1
 1520 00c4 5246     		mov	r2, r10
 1521 00c6 2046     		mov	r0, r4
 1522 00c8 5FFA89F1 		uxtb	r1, r9
 1523 00cc FFF7FEFF 		bl	_ZN7LSM9DS19magOffsetEhs
ARM GAS  /tmp/ccxMPRSl.s 			page 28


 1524              	.LVL137:
 1525 00d0 F1E7     		b	.L97
 1526              	.LBE307:
 1527              		.cfi_endproc
 1528              	.LFE18:
 1529              		.fnend
 1530              		.size	_ZN7LSM9DS112calibrateMagEb, .-_ZN7LSM9DS112calibrateMagEb
 1531 00d2 00BFAFF3 		.section	.text._ZN7LSM9DS17readMagE12lsm9ds1_axis,"ax",%progbits
 1531      0080AFF3 
 1531      0080AFF3 
 1531      0080
 1532              		.align	2
 1533              		.p2align 4,,15
 1534              		.global	_ZN7LSM9DS17readMagE12lsm9ds1_axis
 1535              		.thumb
 1536              		.thumb_func
 1537              		.type	_ZN7LSM9DS17readMagE12lsm9ds1_axis, %function
 1538              	_ZN7LSM9DS17readMagE12lsm9ds1_axis:
 1539              		.fnstart
 1540              	.LFB28:
 1541              		.loc 1 496 0
 1542              		.cfi_startproc
 1543              		@ args = 0, pretend = 0, frame = 8
 1544              		@ frame_needed = 0, uses_anonymous_args = 0
 1545              	.LVL138:
 1546 0000 00B5     		push	{lr}
 1547              		.save {lr}
 1548              		.cfi_def_cfa_offset 4
 1549              		.cfi_offset 14, -4
 1550 0002 0346     		mov	r3, r0
 1551              	.LVL139:
 1552              	.LBB308:
 1553              		.loc 1 498 0
 1554 0004 01F11402 		add	r2, r1, #20
 1555              	.LBE308:
 1556              		.loc 1 496 0
 1557              		.pad #20
 1558 0008 85B0     		sub	sp, sp, #20
 1559              		.cfi_def_cfa_offset 24
 1560              	.LVL140:
 1561              	.LBB313:
 1562              	.LBB309:
 1563              	.LBB310:
 1564              		.loc 1 907 0
 1565 000a 93F87210 		ldrb	r1, [r3, #114]	@ zero_extendqisi2
 1566              	.LVL141:
 1567              	.LBE310:
 1568              	.LBE309:
 1569              		.loc 1 498 0
 1570 000e 5200     		lsls	r2, r2, #1
 1571              	.LBB312:
 1572              	.LBB311:
 1573              		.loc 1 907 0
 1574 0010 0223     		movs	r3, #2
 1575 0012 D0F88400 		ldr	r0, [r0, #132]
 1576              	.LVL142:
 1577 0016 02F0FE02 		and	r2, r2, #254
ARM GAS  /tmp/ccxMPRSl.s 			page 29


 1578 001a 0093     		str	r3, [sp]
 1579 001c 03AB     		add	r3, sp, #12
 1580              	.LVL143:
 1581 001e FFF7FEFF 		bl	_ZN7creator3I2C9ReadBytesEhhPhh
 1582              	.LVL144:
 1583              	.LBE311:
 1584              	.LBE312:
 1585              		.loc 1 499 0
 1586 0022 9DF80D00 		ldrb	r0, [sp, #13]	@ zero_extendqisi2
 1587 0026 9DF80C30 		ldrb	r3, [sp, #12]	@ zero_extendqisi2
 1588 002a 43EA0020 		orr	r0, r3, r0, lsl #8
 1589              	.LBE313:
 1590              		.loc 1 500 0
 1591 002e 00B2     		sxth	r0, r0
 1592 0030 05B0     		add	sp, sp, #20
 1593              		@ sp needed
 1594 0032 5DF804FB 		ldr	pc, [sp], #4
 1595              		.cfi_endproc
 1596              	.LFE28:
 1597              		.fnend
 1598              		.size	_ZN7LSM9DS17readMagE12lsm9ds1_axis, .-_ZN7LSM9DS17readMagE12lsm9ds1_axis
 1599 0036 00BFAFF3 		.section	.text._ZN7LSM9DS18readTempEv,"ax",%progbits
 1599      0080AFF3 
 1599      0080
 1600              		.align	2
 1601              		.p2align 4,,15
 1602              		.global	_ZN7LSM9DS18readTempEv
 1603              		.thumb
 1604              		.thumb_func
 1605              		.type	_ZN7LSM9DS18readTempEv, %function
 1606              	_ZN7LSM9DS18readTempEv:
 1607              		.fnstart
 1608              	.LFB29:
 1609              		.loc 1 502 0
 1610              		.cfi_startproc
 1611              		@ args = 0, pretend = 0, frame = 8
 1612              		@ frame_needed = 0, uses_anonymous_args = 0
 1613              	.LVL145:
 1614 0000 10B5     		push	{r4, lr}
 1615              		.save {r4, lr}
 1616              		.cfi_def_cfa_offset 8
 1617              		.cfi_offset 4, -8
 1618              		.cfi_offset 14, -4
 1619              	.LBB314:
 1620              	.LBB315:
 1621              	.LBB316:
 1622              		.loc 1 899 0
 1623 0002 0223     		movs	r3, #2
 1624              	.LBE316:
 1625              	.LBE315:
 1626              	.LBE314:
 1627              		.loc 1 502 0
 1628              		.pad #16
 1629 0004 84B0     		sub	sp, sp, #16
 1630              		.cfi_def_cfa_offset 24
 1631              		.loc 1 502 0
 1632 0006 0446     		mov	r4, r0
ARM GAS  /tmp/ccxMPRSl.s 			page 30


 1633              	.LVL146:
 1634              	.LBB319:
 1635              	.LBB318:
 1636              	.LBB317:
 1637              		.loc 1 899 0
 1638 0008 94F87310 		ldrb	r1, [r4, #115]	@ zero_extendqisi2
 1639 000c D0F88400 		ldr	r0, [r0, #132]
 1640              	.LVL147:
 1641 0010 1522     		movs	r2, #21
 1642 0012 0093     		str	r3, [sp]
 1643 0014 03AB     		add	r3, sp, #12
 1644              	.LVL148:
 1645 0016 FFF7FEFF 		bl	_ZN7creator3I2C9ReadBytesEhhPhh
 1646              	.LVL149:
 1647              	.LBE317:
 1648              	.LBE318:
 1649              		.loc 1 506 0
 1650 001a 9DF80D20 		ldrb	r2, [sp, #13]	@ zero_extendqisi2
 1651 001e 9DF80C30 		ldrb	r3, [sp, #12]	@ zero_extendqisi2
 1652 0022 43EA0223 		orr	r3, r3, r2, lsl #8
 1653 0026 6387     		strh	r3, [r4, #58]	@ movhi
 1654              	.LBE319:
 1655              		.loc 1 507 0
 1656 0028 04B0     		add	sp, sp, #16
 1657              		@ sp needed
 1658 002a 10BD     		pop	{r4, pc}
 1659              		.cfi_endproc
 1660              	.LFE29:
 1661              		.fnend
 1662              		.size	_ZN7LSM9DS18readTempEv, .-_ZN7LSM9DS18readTempEv
 1663 002c AFF30080 		.section	.text._ZN7LSM9DS18readGyroEv,"ax",%progbits
 1664              		.align	2
 1665              		.p2align 4,,15
 1666              		.global	_ZN7LSM9DS18readGyroEv
 1667              		.thumb
 1668              		.thumb_func
 1669              		.type	_ZN7LSM9DS18readGyroEv, %function
 1670              	_ZN7LSM9DS18readGyroEv:
 1671              		.fnstart
 1672              	.LFB30:
 1673              		.loc 1 509 0
 1674              		.cfi_startproc
 1675              		@ args = 0, pretend = 0, frame = 8
 1676              		@ frame_needed = 0, uses_anonymous_args = 0
 1677              	.LVL150:
 1678 0000 F0B5     		push	{r4, r5, r6, r7, lr}
 1679              		.save {r4, r5, r6, r7, lr}
 1680              		.cfi_def_cfa_offset 20
 1681              		.cfi_offset 4, -20
 1682              		.cfi_offset 5, -16
 1683              		.cfi_offset 6, -12
 1684              		.cfi_offset 7, -8
 1685              		.cfi_offset 14, -4
 1686              	.LBB320:
 1687              	.LBB321:
 1688              	.LBB322:
 1689              		.loc 1 899 0
ARM GAS  /tmp/ccxMPRSl.s 			page 31


 1690 0002 0623     		movs	r3, #6
 1691              	.LBE322:
 1692              	.LBE321:
 1693              	.LBE320:
 1694              		.loc 1 509 0
 1695              		.pad #20
 1696 0004 85B0     		sub	sp, sp, #20
 1697              		.cfi_def_cfa_offset 40
 1698              		.loc 1 509 0
 1699 0006 0446     		mov	r4, r0
 1700              	.LVL151:
 1701              	.LBB325:
 1702              	.LBB324:
 1703              	.LBB323:
 1704              		.loc 1 899 0
 1705 0008 94F87310 		ldrb	r1, [r4, #115]	@ zero_extendqisi2
 1706 000c D0F88400 		ldr	r0, [r0, #132]
 1707              	.LVL152:
 1708 0010 1822     		movs	r2, #24
 1709 0012 0093     		str	r3, [sp]
 1710 0014 02AB     		add	r3, sp, #8
 1711              	.LVL153:
 1712 0016 FFF7FEFF 		bl	_ZN7creator3I2C9ReadBytesEhhPhh
 1713              	.LVL154:
 1714              	.LBE323:
 1715              	.LBE324:
 1716              		.loc 1 512 0
 1717 001a 9DF80970 		ldrb	r7, [sp, #9]	@ zero_extendqisi2
 1718 001e 9DF80810 		ldrb	r1, [sp, #8]	@ zero_extendqisi2
 1719              		.loc 1 513 0
 1720 0022 9DF80B60 		ldrb	r6, [sp, #11]	@ zero_extendqisi2
 1721 0026 9DF80A20 		ldrb	r2, [sp, #10]	@ zero_extendqisi2
 1722              		.loc 1 514 0
 1723 002a 9DF80D50 		ldrb	r5, [sp, #13]	@ zero_extendqisi2
 1724 002e 9DF80C30 		ldrb	r3, [sp, #12]	@ zero_extendqisi2
 1725              		.loc 1 515 0
 1726 0032 94F88000 		ldrb	r0, [r4, #128]	@ zero_extendqisi2
 1727              		.loc 1 512 0
 1728 0036 41EA0721 		orr	r1, r1, r7, lsl #8
 1729              		.loc 1 513 0
 1730 003a 42EA0622 		orr	r2, r2, r6, lsl #8
 1731              		.loc 1 514 0
 1732 003e 43EA0523 		orr	r3, r3, r5, lsl #8
 1733              		.loc 1 512 0
 1734 0042 2185     		strh	r1, [r4, #40]	@ movhi
 1735              		.loc 1 513 0
 1736 0044 6285     		strh	r2, [r4, #42]	@ movhi
 1737              		.loc 1 514 0
 1738 0046 A385     		strh	r3, [r4, #44]	@ movhi
 1739              		.loc 1 515 0
 1740 0048 58B1     		cbz	r0, .L106
 1741              		.loc 1 516 0
 1742 004a B4F86060 		ldrh	r6, [r4, #96]
 1743              		.loc 1 517 0
 1744 004e B4F86250 		ldrh	r5, [r4, #98]
 1745              		.loc 1 518 0
 1746 0052 B4F86400 		ldrh	r0, [r4, #100]
ARM GAS  /tmp/ccxMPRSl.s 			page 32


 1747              		.loc 1 516 0
 1748 0056 891B     		subs	r1, r1, r6
 1749              		.loc 1 517 0
 1750 0058 521B     		subs	r2, r2, r5
 1751              		.loc 1 518 0
 1752 005a 1B1A     		subs	r3, r3, r0
 1753              		.loc 1 516 0
 1754 005c 2185     		strh	r1, [r4, #40]	@ movhi
 1755              		.loc 1 517 0
 1756 005e 6285     		strh	r2, [r4, #42]	@ movhi
 1757              		.loc 1 518 0
 1758 0060 A385     		strh	r3, [r4, #44]	@ movhi
 1759              	.L106:
 1760              	.LBE325:
 1761              		.loc 1 520 0
 1762 0062 05B0     		add	sp, sp, #20
 1763              		@ sp needed
 1764 0064 F0BD     		pop	{r4, r5, r6, r7, pc}
 1765              		.cfi_endproc
 1766              	.LFE30:
 1767              		.fnend
 1768              		.size	_ZN7LSM9DS18readGyroEv, .-_ZN7LSM9DS18readGyroEv
 1769 0066 00BFAFF3 		.section	.text._ZN7LSM9DS18readGyroE12lsm9ds1_axis,"ax",%progbits
 1769      0080AFF3 
 1769      0080
 1770              		.align	2
 1771              		.p2align 4,,15
 1772              		.global	_ZN7LSM9DS18readGyroE12lsm9ds1_axis
 1773              		.thumb
 1774              		.thumb_func
 1775              		.type	_ZN7LSM9DS18readGyroE12lsm9ds1_axis, %function
 1776              	_ZN7LSM9DS18readGyroE12lsm9ds1_axis:
 1777              		.fnstart
 1778              	.LFB31:
 1779              		.loc 1 522 0
 1780              		.cfi_startproc
 1781              		@ args = 0, pretend = 0, frame = 8
 1782              		@ frame_needed = 0, uses_anonymous_args = 0
 1783              	.LVL155:
 1784 0000 30B5     		push	{r4, r5, lr}
 1785              		.save {r4, r5, lr}
 1786              		.cfi_def_cfa_offset 12
 1787              		.cfi_offset 4, -12
 1788              		.cfi_offset 5, -8
 1789              		.cfi_offset 14, -4
 1790              	.LBB326:
 1791              		.loc 1 526 0
 1792 0002 01F10C02 		add	r2, r1, #12
 1793              	.LBE326:
 1794              		.loc 1 522 0
 1795              		.pad #20
 1796 0006 85B0     		sub	sp, sp, #20
 1797              		.cfi_def_cfa_offset 32
 1798              		.loc 1 522 0
 1799 0008 0446     		mov	r4, r0
 1800              	.LVL156:
 1801              	.LBB333:
ARM GAS  /tmp/ccxMPRSl.s 			page 33


 1802              	.LBB327:
 1803              	.LBB328:
 1804              		.loc 1 899 0
 1805 000a 0223     		movs	r3, #2
 1806              	.LBE328:
 1807              	.LBE327:
 1808              		.loc 1 526 0
 1809 000c 5200     		lsls	r2, r2, #1
 1810              	.LBB331:
 1811              	.LBB329:
 1812              		.loc 1 899 0
 1813 000e D0F88400 		ldr	r0, [r0, #132]
 1814              	.LVL157:
 1815 0012 02F0FE02 		and	r2, r2, #254
 1816              	.LBE329:
 1817              	.LBE331:
 1818              	.LBE333:
 1819              		.loc 1 522 0
 1820 0016 0D46     		mov	r5, r1
 1821              	.LBB334:
 1822              	.LBB332:
 1823              	.LBB330:
 1824              		.loc 1 899 0
 1825 0018 94F87310 		ldrb	r1, [r4, #115]	@ zero_extendqisi2
 1826              	.LVL158:
 1827 001c 0093     		str	r3, [sp]
 1828 001e 03AB     		add	r3, sp, #12
 1829              	.LVL159:
 1830 0020 FFF7FEFF 		bl	_ZN7creator3I2C9ReadBytesEhhPhh
 1831              	.LVL160:
 1832              	.LBE330:
 1833              	.LBE332:
 1834              		.loc 1 528 0
 1835 0024 9DF80D00 		ldrb	r0, [sp, #13]	@ zero_extendqisi2
 1836 0028 9DF80C20 		ldrb	r2, [sp, #12]	@ zero_extendqisi2
 1837              		.loc 1 530 0
 1838 002c 94F88030 		ldrb	r3, [r4, #128]	@ zero_extendqisi2
 1839              		.loc 1 528 0
 1840 0030 42EA0020 		orr	r0, r2, r0, lsl #8
 1841              	.LVL161:
 1842              		.loc 1 530 0
 1843 0034 23B1     		cbz	r3, .L112
 1844              		.loc 1 530 0 is_stmt 0 discriminator 1
 1845 0036 3035     		adds	r5, r5, #48
 1846              	.LVL162:
 1847 0038 34F81530 		ldrh	r3, [r4, r5, lsl #1]
 1848 003c C01A     		subs	r0, r0, r3
 1849              	.LVL163:
 1850 003e 80B2     		uxth	r0, r0
 1851              	.LVL164:
 1852              	.L112:
 1853              	.LBE334:
 1854              		.loc 1 533 0 is_stmt 1
 1855 0040 00B2     		sxth	r0, r0
 1856              	.LVL165:
 1857 0042 05B0     		add	sp, sp, #20
 1858              		@ sp needed
ARM GAS  /tmp/ccxMPRSl.s 			page 34


 1859 0044 30BD     		pop	{r4, r5, pc}
 1860              		.cfi_endproc
 1861              	.LFE31:
 1862              		.fnend
 1863              		.size	_ZN7LSM9DS18readGyroE12lsm9ds1_axis, .-_ZN7LSM9DS18readGyroE12lsm9ds1_axis
 1864 0046 00BFAFF3 		.section	.text._ZN7LSM9DS18calcGyroEs,"ax",%progbits
 1864      0080AFF3 
 1864      0080
 1865              		.align	2
 1866              		.p2align 4,,15
 1867              		.global	_ZN7LSM9DS18calcGyroEs
 1868              		.thumb
 1869              		.thumb_func
 1870              		.type	_ZN7LSM9DS18calcGyroEs, %function
 1871              	_ZN7LSM9DS18calcGyroEs:
 1872              		.fnstart
 1873              	.LFB32:
 1874              		.loc 1 535 0
 1875              		.cfi_startproc
 1876              		@ args = 0, pretend = 0, frame = 0
 1877              		@ frame_needed = 0, uses_anonymous_args = 0
 1878              	.LVL166:
 1879 0000 10B5     		push	{r4, lr}
 1880              		.cfi_def_cfa_offset 8
 1881              		.cfi_offset 4, -8
 1882              		.cfi_offset 14, -4
 1883              		.loc 1 535 0
 1884 0002 0446     		mov	r4, r0
 1885              		.loc 1 537 0
 1886 0004 0846     		mov	r0, r1
 1887              	.LVL167:
 1888 0006 FFF7FEFF 		bl	__aeabi_i2f
 1889              	.LVL168:
 1890 000a 616F     		ldr	r1, [r4, #116]	@ float
 1891 000c FFF7FEFF 		bl	__aeabi_fmul
 1892              	.LVL169:
 1893              		.loc 1 538 0
 1894 0010 10BD     		pop	{r4, pc}
 1895              		.cfi_endproc
 1896              	.LFE32:
 1897              		.cantunwind
 1898              		.fnend
 1899              		.size	_ZN7LSM9DS18calcGyroEs, .-_ZN7LSM9DS18calcGyroEs
 1900 0012 00BFAFF3 		.section	.text._ZN7LSM9DS19calcAccelEs,"ax",%progbits
 1900      0080AFF3 
 1900      0080AFF3 
 1900      0080
 1901              		.align	2
 1902              		.p2align 4,,15
 1903              		.global	_ZN7LSM9DS19calcAccelEs
 1904              		.thumb
 1905              		.thumb_func
 1906              		.type	_ZN7LSM9DS19calcAccelEs, %function
 1907              	_ZN7LSM9DS19calcAccelEs:
 1908              		.fnstart
 1909              	.LFB33:
 1910              		.loc 1 540 0
ARM GAS  /tmp/ccxMPRSl.s 			page 35


 1911              		.cfi_startproc
 1912              		@ args = 0, pretend = 0, frame = 0
 1913              		@ frame_needed = 0, uses_anonymous_args = 0
 1914              	.LVL170:
 1915 0000 10B5     		push	{r4, lr}
 1916              		.cfi_def_cfa_offset 8
 1917              		.cfi_offset 4, -8
 1918              		.cfi_offset 14, -4
 1919              		.loc 1 540 0
 1920 0002 0446     		mov	r4, r0
 1921              		.loc 1 542 0
 1922 0004 0846     		mov	r0, r1
 1923              	.LVL171:
 1924 0006 FFF7FEFF 		bl	__aeabi_i2f
 1925              	.LVL172:
 1926 000a A16F     		ldr	r1, [r4, #120]	@ float
 1927 000c FFF7FEFF 		bl	__aeabi_fmul
 1928              	.LVL173:
 1929              		.loc 1 543 0
 1930 0010 10BD     		pop	{r4, pc}
 1931              		.cfi_endproc
 1932              	.LFE33:
 1933              		.cantunwind
 1934              		.fnend
 1935              		.size	_ZN7LSM9DS19calcAccelEs, .-_ZN7LSM9DS19calcAccelEs
 1936 0012 00BFAFF3 		.section	.text._ZN7LSM9DS17calcMagEs,"ax",%progbits
 1936      0080AFF3 
 1936      0080AFF3 
 1936      0080
 1937              		.align	2
 1938              		.p2align 4,,15
 1939              		.global	_ZN7LSM9DS17calcMagEs
 1940              		.thumb
 1941              		.thumb_func
 1942              		.type	_ZN7LSM9DS17calcMagEs, %function
 1943              	_ZN7LSM9DS17calcMagEs:
 1944              		.fnstart
 1945              	.LFB34:
 1946              		.loc 1 545 0
 1947              		.cfi_startproc
 1948              		@ args = 0, pretend = 0, frame = 0
 1949              		@ frame_needed = 0, uses_anonymous_args = 0
 1950              	.LVL174:
 1951 0000 10B5     		push	{r4, lr}
 1952              		.cfi_def_cfa_offset 8
 1953              		.cfi_offset 4, -8
 1954              		.cfi_offset 14, -4
 1955              		.loc 1 545 0
 1956 0002 0446     		mov	r4, r0
 1957              		.loc 1 547 0
 1958 0004 0846     		mov	r0, r1
 1959              	.LVL175:
 1960 0006 FFF7FEFF 		bl	__aeabi_i2f
 1961              	.LVL176:
 1962 000a E16F     		ldr	r1, [r4, #124]	@ float
 1963 000c FFF7FEFF 		bl	__aeabi_fmul
 1964              	.LVL177:
ARM GAS  /tmp/ccxMPRSl.s 			page 36


 1965              		.loc 1 548 0
 1966 0010 10BD     		pop	{r4, pc}
 1967              		.cfi_endproc
 1968              	.LFE34:
 1969              		.cantunwind
 1970              		.fnend
 1971              		.size	_ZN7LSM9DS17calcMagEs, .-_ZN7LSM9DS17calcMagEs
 1972              		.global	__aeabi_ui2f
 1973 0012 00BFAFF3 		.section	.text._ZN7LSM9DS112setGyroScaleEt,"ax",%progbits
 1973      0080AFF3 
 1973      0080AFF3 
 1973      0080
 1974              		.align	2
 1975              		.p2align 4,,15
 1976              		.global	_ZN7LSM9DS112setGyroScaleEt
 1977              		.thumb
 1978              		.thumb_func
 1979              		.type	_ZN7LSM9DS112setGyroScaleEt, %function
 1980              	_ZN7LSM9DS112setGyroScaleEt:
 1981              		.fnstart
 1982              	.LFB35:
 1983              		.loc 1 550 0
 1984              		.cfi_startproc
 1985              		@ args = 0, pretend = 0, frame = 0
 1986              		@ frame_needed = 0, uses_anonymous_args = 0
 1987              	.LVL178:
 1988 0000 38B5     		push	{r3, r4, r5, lr}
 1989              		.save {r3, r4, r5, lr}
 1990              		.cfi_def_cfa_offset 16
 1991              		.cfi_offset 3, -16
 1992              		.cfi_offset 4, -12
 1993              		.cfi_offset 5, -8
 1994              		.cfi_offset 14, -4
 1995              		.loc 1 550 0
 1996 0002 0446     		mov	r4, r0
 1997              	.LVL179:
 1998 0004 0D46     		mov	r5, r1
 1999              	.LBB335:
 2000              	.LBB336:
 2001              	.LBB337:
 2002              		.loc 1 895 0
 2003 0006 D0F88400 		ldr	r0, [r0, #132]
 2004              	.LVL180:
 2005 000a 94F87310 		ldrb	r1, [r4, #115]	@ zero_extendqisi2
 2006              	.LVL181:
 2007 000e 1022     		movs	r2, #16
 2008 0010 FFF7FEFF 		bl	_ZN7creator3I2C8ReadByteEhh
 2009              	.LVL182:
 2010              	.LBE337:
 2011              	.LBE336:
 2012              		.loc 1 555 0
 2013 0014 B5F5FA7F 		cmp	r5, #500
 2014              		.loc 1 554 0
 2015 0018 00F0E703 		and	r3, r0, #231
 2016              	.LVL183:
 2017              		.loc 1 555 0
 2018 001c 19D0     		beq	.L121
ARM GAS  /tmp/ccxMPRSl.s 			page 37


 2019 001e B5F5FA6F 		cmp	r5, #2000
 2020              		.loc 1 561 0
 2021 0022 04BF     		itt	eq
 2022 0024 43F01803 		orreq	r3, r3, #24
 2023              	.LVL184:
 2024              		.loc 1 562 0
 2025 0028 E580     		strheq	r5, [r4, #6]	@ movhi
 2026              		.loc 1 555 0
 2027 002a 0FD1     		bne	.L125
 2028              	.LVL185:
 2029              	.L123:
 2030              	.LBB338:
 2031              	.LBB339:
 2032              		.loc 1 887 0
 2033 002c 94F87310 		ldrb	r1, [r4, #115]	@ zero_extendqisi2
 2034 0030 1022     		movs	r2, #16
 2035 0032 D4F88400 		ldr	r0, [r4, #132]
 2036 0036 FFF7FEFF 		bl	_ZN7creator3I2C9WriteByteEhhh
 2037              	.LVL186:
 2038              	.LBE339:
 2039              	.LBE338:
 2040              	.LBB340:
 2041              	.LBB341:
 2042              		.loc 1 678 0
 2043 003a E088     		ldrh	r0, [r4, #6]
 2044 003c FFF7FEFF 		bl	__aeabi_ui2f
 2045              	.LVL187:
 2046 0040 4FF06051 		mov	r1, #939524096
 2047 0044 FFF7FEFF 		bl	__aeabi_fmul
 2048              	.LVL188:
 2049 0048 6067     		str	r0, [r4, #116]	@ float
 2050 004a 38BD     		pop	{r3, r4, r5, pc}
 2051              	.LVL189:
 2052              	.L125:
 2053              	.LBE341:
 2054              	.LBE340:
 2055              		.loc 1 565 0
 2056 004c F522     		movs	r2, #245
 2057 004e E280     		strh	r2, [r4, #6]	@ movhi
 2058              		.loc 1 566 0
 2059 0050 ECE7     		b	.L123
 2060              	.L121:
 2061              		.loc 1 557 0
 2062 0052 43F00803 		orr	r3, r3, #8
 2063              	.LVL190:
 2064              		.loc 1 558 0
 2065 0056 E580     		strh	r5, [r4, #6]	@ movhi
 2066              		.loc 1 559 0
 2067 0058 E8E7     		b	.L123
 2068              	.LBE335:
 2069              		.cfi_endproc
 2070              	.LFE35:
 2071              		.fnend
 2072              		.size	_ZN7LSM9DS112setGyroScaleEt, .-_ZN7LSM9DS112setGyroScaleEt
 2073 005a 00BFAFF3 		.section	.text._ZN7LSM9DS113setAccelScaleEh,"ax",%progbits
 2073      0080
 2074              		.align	2
ARM GAS  /tmp/ccxMPRSl.s 			page 38


 2075              		.p2align 4,,15
 2076              		.global	_ZN7LSM9DS113setAccelScaleEh
 2077              		.thumb
 2078              		.thumb_func
 2079              		.type	_ZN7LSM9DS113setAccelScaleEh, %function
 2080              	_ZN7LSM9DS113setAccelScaleEh:
 2081              		.fnstart
 2082              	.LFB36:
 2083              		.loc 1 573 0
 2084              		.cfi_startproc
 2085              		@ args = 0, pretend = 0, frame = 0
 2086              		@ frame_needed = 0, uses_anonymous_args = 0
 2087              	.LVL191:
 2088 0000 38B5     		push	{r3, r4, r5, lr}
 2089              		.save {r3, r4, r5, lr}
 2090              		.cfi_def_cfa_offset 16
 2091              		.cfi_offset 3, -16
 2092              		.cfi_offset 4, -12
 2093              		.cfi_offset 5, -8
 2094              		.cfi_offset 14, -4
 2095              		.loc 1 573 0
 2096 0002 0446     		mov	r4, r0
 2097              	.LVL192:
 2098 0004 0D46     		mov	r5, r1
 2099              	.LBB342:
 2100              	.LBB343:
 2101              	.LBB344:
 2102              		.loc 1 895 0
 2103 0006 D0F88400 		ldr	r0, [r0, #132]
 2104              	.LVL193:
 2105 000a 94F87310 		ldrb	r1, [r4, #115]	@ zero_extendqisi2
 2106              	.LVL194:
 2107 000e 2022     		movs	r2, #32
 2108 0010 FFF7FEFF 		bl	_ZN7creator3I2C8ReadByteEhh
 2109              	.LVL195:
 2110              	.LBE344:
 2111              	.LBE343:
 2112              		.loc 1 579 0
 2113 0014 082D     		cmp	r5, #8
 2114              		.loc 1 577 0
 2115 0016 00F0E703 		and	r3, r0, #231
 2116              	.LVL196:
 2117              		.loc 1 579 0
 2118 001a 1DD0     		beq	.L128
 2119 001c 102D     		cmp	r5, #16
 2120 001e 17D0     		beq	.L129
 2121 0020 042D     		cmp	r5, #4
 2122              		.loc 1 581 0
 2123 0022 04BF     		itt	eq
 2124 0024 43F01003 		orreq	r3, r3, #16
 2125              	.LVL197:
 2126              		.loc 1 582 0
 2127 0028 E575     		strbeq	r5, [r4, #23]
 2128              		.loc 1 579 0
 2129 002a 01D0     		beq	.L131
 2130              		.loc 1 593 0
 2131 002c 0222     		movs	r2, #2
ARM GAS  /tmp/ccxMPRSl.s 			page 39


 2132 002e E275     		strb	r2, [r4, #23]
 2133              	.LVL198:
 2134              	.L131:
 2135              	.LBB345:
 2136              	.LBB346:
 2137              		.loc 1 887 0
 2138 0030 94F87310 		ldrb	r1, [r4, #115]	@ zero_extendqisi2
 2139 0034 2022     		movs	r2, #32
 2140 0036 D4F88400 		ldr	r0, [r4, #132]
 2141 003a FFF7FEFF 		bl	_ZN7creator3I2C9WriteByteEhhh
 2142              	.LVL199:
 2143              	.LBE346:
 2144              	.LBE345:
 2145              	.LBB347:
 2146              	.LBB348:
 2147              		.loc 1 680 0
 2148 003e E07D     		ldrb	r0, [r4, #23]	@ zero_extendqisi2
 2149 0040 FFF7FEFF 		bl	__aeabi_ui2f
 2150              	.LVL200:
 2151 0044 4FF06051 		mov	r1, #939524096
 2152 0048 FFF7FEFF 		bl	__aeabi_fmul
 2153              	.LVL201:
 2154 004c A067     		str	r0, [r4, #120]	@ float
 2155 004e 38BD     		pop	{r3, r4, r5, pc}
 2156              	.LVL202:
 2157              	.L129:
 2158              	.LBE348:
 2159              	.LBE347:
 2160              		.loc 1 589 0
 2161 0050 43F00803 		orr	r3, r3, #8
 2162              	.LVL203:
 2163              		.loc 1 590 0
 2164 0054 E575     		strb	r5, [r4, #23]
 2165              		.loc 1 591 0
 2166 0056 EBE7     		b	.L131
 2167              	.L128:
 2168              		.loc 1 585 0
 2169 0058 43F01803 		orr	r3, r3, #24
 2170              	.LVL204:
 2171              		.loc 1 586 0
 2172 005c E575     		strb	r5, [r4, #23]
 2173              		.loc 1 587 0
 2174 005e E7E7     		b	.L131
 2175              	.LBE342:
 2176              		.cfi_endproc
 2177              	.LFE36:
 2178              		.fnend
 2179              		.size	_ZN7LSM9DS113setAccelScaleEh, .-_ZN7LSM9DS113setAccelScaleEh
 2180              		.section	.text._ZN7LSM9DS110setGyroODREh,"ax",%progbits
 2181              		.align	2
 2182              		.p2align 4,,15
 2183              		.global	_ZN7LSM9DS110setGyroODREh
 2184              		.thumb
 2185              		.thumb_func
 2186              		.type	_ZN7LSM9DS110setGyroODREh, %function
 2187              	_ZN7LSM9DS110setGyroODREh:
 2188              		.fnstart
ARM GAS  /tmp/ccxMPRSl.s 			page 40


 2189              	.LFB38:
 2190              		.loc 1 636 0
 2191              		.cfi_startproc
 2192              		@ args = 0, pretend = 0, frame = 0
 2193              		@ frame_needed = 0, uses_anonymous_args = 0
 2194              	.LVL205:
 2195 0000 70B5     		push	{r4, r5, r6, lr}
 2196              		.save {r4, r5, r6, lr}
 2197              		.cfi_def_cfa_offset 16
 2198              		.cfi_offset 4, -16
 2199              		.cfi_offset 5, -12
 2200              		.cfi_offset 6, -8
 2201              		.cfi_offset 14, -4
 2202              	.LBB349:
 2203              		.loc 1 638 0
 2204 0002 11F00706 		ands	r6, r1, #7
 2205              	.LBE349:
 2206              		.loc 1 636 0
 2207 0006 0C46     		mov	r4, r1
 2208 0008 0546     		mov	r5, r0
 2209              	.LBB358:
 2210              		.loc 1 638 0
 2211 000a 00D1     		bne	.L135
 2212 000c 70BD     		pop	{r4, r5, r6, pc}
 2213              	.L135:
 2214              	.LVL206:
 2215              	.LBB350:
 2216              	.LBB351:
 2217              	.LBB352:
 2218              		.loc 1 895 0
 2219 000e 95F87310 		ldrb	r1, [r5, #115]	@ zero_extendqisi2
 2220              	.LVL207:
 2221 0012 1022     		movs	r2, #16
 2222 0014 D0F88400 		ldr	r0, [r0, #132]
 2223              	.LVL208:
 2224 0018 FFF7FEFF 		bl	_ZN7creator3I2C8ReadByteEhh
 2225              	.LVL209:
 2226              	.LBE352:
 2227              	.LBE351:
 2228              		.loc 1 642 0
 2229 001c 00F01F00 		and	r0, r0, #31
 2230              	.LVL210:
 2231              		.loc 1 643 0
 2232 0020 40EA4413 		orr	r3, r0, r4, lsl #5
 2233              	.LVL211:
 2234              		.loc 1 645 0
 2235 0024 2E72     		strb	r6, [r5, #8]
 2236              	.LVL212:
 2237              	.LBB353:
 2238              	.LBB354:
 2239              		.loc 1 887 0
 2240 0026 D5F88400 		ldr	r0, [r5, #132]
 2241 002a 95F87310 		ldrb	r1, [r5, #115]	@ zero_extendqisi2
 2242 002e DBB2     		uxtb	r3, r3
 2243              	.LVL213:
 2244 0030 1022     		movs	r2, #16
 2245              	.LBE354:
ARM GAS  /tmp/ccxMPRSl.s 			page 41


 2246              	.LBE353:
 2247              	.LBE350:
 2248              	.LBE358:
 2249              		.loc 1 649 0
 2250 0032 BDE87040 		pop	{r4, r5, r6, lr}
 2251              	.LVL214:
 2252              	.LBB359:
 2253              	.LBB357:
 2254              	.LBB356:
 2255              	.LBB355:
 2256              		.loc 1 887 0
 2257 0036 FFF7FEBF 		b	_ZN7creator3I2C9WriteByteEhhh
 2258              	.LVL215:
 2259              	.LBE355:
 2260              	.LBE356:
 2261              	.LBE357:
 2262              	.LBE359:
 2263              		.cfi_endproc
 2264              	.LFE38:
 2265              		.fnend
 2266              		.size	_ZN7LSM9DS110setGyroODREh, .-_ZN7LSM9DS110setGyroODREh
 2267 003a 00BFAFF3 		.section	.text._ZN7LSM9DS111setAccelODREh,"ax",%progbits
 2267      0080
 2268              		.align	2
 2269              		.p2align 4,,15
 2270              		.global	_ZN7LSM9DS111setAccelODREh
 2271              		.thumb
 2272              		.thumb_func
 2273              		.type	_ZN7LSM9DS111setAccelODREh, %function
 2274              	_ZN7LSM9DS111setAccelODREh:
 2275              		.fnstart
 2276              	.LFB39:
 2277              		.loc 1 651 0
 2278              		.cfi_startproc
 2279              		@ args = 0, pretend = 0, frame = 0
 2280              		@ frame_needed = 0, uses_anonymous_args = 0
 2281              	.LVL216:
 2282 0000 70B5     		push	{r4, r5, r6, lr}
 2283              		.save {r4, r5, r6, lr}
 2284              		.cfi_def_cfa_offset 16
 2285              		.cfi_offset 4, -16
 2286              		.cfi_offset 5, -12
 2287              		.cfi_offset 6, -8
 2288              		.cfi_offset 14, -4
 2289              	.LBB360:
 2290              		.loc 1 653 0
 2291 0002 11F00706 		ands	r6, r1, #7
 2292              	.LBE360:
 2293              		.loc 1 651 0
 2294 0006 0C46     		mov	r4, r1
 2295 0008 0546     		mov	r5, r0
 2296              	.LBB369:
 2297              		.loc 1 653 0
 2298 000a 00D1     		bne	.L138
 2299 000c 70BD     		pop	{r4, r5, r6, pc}
 2300              	.L138:
 2301              	.LVL217:
ARM GAS  /tmp/ccxMPRSl.s 			page 42


 2302              	.LBB361:
 2303              	.LBB362:
 2304              	.LBB363:
 2305              		.loc 1 895 0
 2306 000e 95F87310 		ldrb	r1, [r5, #115]	@ zero_extendqisi2
 2307              	.LVL218:
 2308 0012 2022     		movs	r2, #32
 2309 0014 D0F88400 		ldr	r0, [r0, #132]
 2310              	.LVL219:
 2311 0018 FFF7FEFF 		bl	_ZN7creator3I2C8ReadByteEhh
 2312              	.LVL220:
 2313              	.LBE363:
 2314              	.LBE362:
 2315              		.loc 1 657 0
 2316 001c 00F01F00 		and	r0, r0, #31
 2317              	.LVL221:
 2318              		.loc 1 659 0
 2319 0020 40EA4413 		orr	r3, r0, r4, lsl #5
 2320              	.LVL222:
 2321              		.loc 1 660 0
 2322 0024 2E76     		strb	r6, [r5, #24]
 2323              	.LVL223:
 2324              	.LBB364:
 2325              	.LBB365:
 2326              		.loc 1 887 0
 2327 0026 D5F88400 		ldr	r0, [r5, #132]
 2328 002a 95F87310 		ldrb	r1, [r5, #115]	@ zero_extendqisi2
 2329 002e DBB2     		uxtb	r3, r3
 2330              	.LVL224:
 2331 0030 2022     		movs	r2, #32
 2332              	.LBE365:
 2333              	.LBE364:
 2334              	.LBE361:
 2335              	.LBE369:
 2336              		.loc 1 664 0
 2337 0032 BDE87040 		pop	{r4, r5, r6, lr}
 2338              	.LVL225:
 2339              	.LBB370:
 2340              	.LBB368:
 2341              	.LBB367:
 2342              	.LBB366:
 2343              		.loc 1 887 0
 2344 0036 FFF7FEBF 		b	_ZN7creator3I2C9WriteByteEhhh
 2345              	.LVL226:
 2346              	.LBE366:
 2347              	.LBE367:
 2348              	.LBE368:
 2349              	.LBE370:
 2350              		.cfi_endproc
 2351              	.LFE39:
 2352              		.fnend
 2353              		.size	_ZN7LSM9DS111setAccelODREh, .-_ZN7LSM9DS111setAccelODREh
 2354 003a 00BFAFF3 		.section	.text._ZN7LSM9DS19setMagODREh,"ax",%progbits
 2354      0080
 2355              		.align	2
 2356              		.p2align 4,,15
 2357              		.global	_ZN7LSM9DS19setMagODREh
ARM GAS  /tmp/ccxMPRSl.s 			page 43


 2358              		.thumb
 2359              		.thumb_func
 2360              		.type	_ZN7LSM9DS19setMagODREh, %function
 2361              	_ZN7LSM9DS19setMagODREh:
 2362              		.fnstart
 2363              	.LFB40:
 2364              		.loc 1 666 0
 2365              		.cfi_startproc
 2366              		@ args = 0, pretend = 0, frame = 0
 2367              		@ frame_needed = 0, uses_anonymous_args = 0
 2368              	.LVL227:
 2369 0000 70B5     		push	{r4, r5, r6, lr}
 2370              		.save {r4, r5, r6, lr}
 2371              		.cfi_def_cfa_offset 16
 2372              		.cfi_offset 4, -16
 2373              		.cfi_offset 5, -12
 2374              		.cfi_offset 6, -8
 2375              		.cfi_offset 14, -4
 2376              		.loc 1 666 0
 2377 0002 0446     		mov	r4, r0
 2378              	.LVL228:
 2379 0004 0D46     		mov	r5, r1
 2380              	.LBB371:
 2381              	.LBB372:
 2382              	.LBB373:
 2383              		.loc 1 903 0
 2384 0006 2022     		movs	r2, #32
 2385 0008 94F87210 		ldrb	r1, [r4, #114]	@ zero_extendqisi2
 2386              	.LVL229:
 2387 000c D0F88400 		ldr	r0, [r0, #132]
 2388              	.LVL230:
 2389 0010 FFF7FEFF 		bl	_ZN7creator3I2C8ReadByteEhh
 2390              	.LVL231:
 2391              	.LBE373:
 2392              	.LBE372:
 2393              		.loc 1 672 0
 2394 0014 05F00701 		and	r1, r5, #7
 2395              		.loc 1 670 0
 2396 0018 20F01C00 		bic	r0, r0, #28
 2397              	.LVL232:
 2398              		.loc 1 672 0
 2399 001c 40EA8103 		orr	r3, r0, r1, lsl #2
 2400              	.LVL233:
 2401              		.loc 1 673 0
 2402 0020 84F82110 		strb	r1, [r4, #33]
 2403              	.LVL234:
 2404              	.LBB374:
 2405              	.LBB375:
 2406              		.loc 1 891 0
 2407 0024 D4F88400 		ldr	r0, [r4, #132]
 2408 0028 94F87210 		ldrb	r1, [r4, #114]	@ zero_extendqisi2
 2409 002c DBB2     		uxtb	r3, r3
 2410              	.LVL235:
 2411 002e 2022     		movs	r2, #32
 2412              	.LBE375:
 2413              	.LBE374:
 2414              	.LBE371:
ARM GAS  /tmp/ccxMPRSl.s 			page 44


 2415              		.loc 1 676 0
 2416 0030 BDE87040 		pop	{r4, r5, r6, lr}
 2417              	.LVL236:
 2418              	.LBB378:
 2419              	.LBB377:
 2420              	.LBB376:
 2421              		.loc 1 891 0
 2422 0034 FFF7FEBF 		b	_ZN7creator3I2C9WriteByteEhhh
 2423              	.LVL237:
 2424              	.LBE376:
 2425              	.LBE377:
 2426              	.LBE378:
 2427              		.cfi_endproc
 2428              	.LFE40:
 2429              		.fnend
 2430              		.size	_ZN7LSM9DS19setMagODREh, .-_ZN7LSM9DS19setMagODREh
 2431 0038 AFF30080 		.section	.text._ZN7LSM9DS18calcgResEv,"ax",%progbits
 2431      AFF30080 
 2432              		.align	2
 2433              		.p2align 4,,15
 2434              		.global	_ZN7LSM9DS18calcgResEv
 2435              		.thumb
 2436              		.thumb_func
 2437              		.type	_ZN7LSM9DS18calcgResEv, %function
 2438              	_ZN7LSM9DS18calcgResEv:
 2439              		.fnstart
 2440              	.LFB41:
 2441              		.loc 1 678 0
 2442              		.cfi_startproc
 2443              		@ args = 0, pretend = 0, frame = 0
 2444              		@ frame_needed = 0, uses_anonymous_args = 0
 2445              	.LVL238:
 2446 0000 10B5     		push	{r4, lr}
 2447              		.cfi_def_cfa_offset 8
 2448              		.cfi_offset 4, -8
 2449              		.cfi_offset 14, -4
 2450              		.loc 1 678 0
 2451 0002 0446     		mov	r4, r0
 2452 0004 C088     		ldrh	r0, [r0, #6]
 2453              	.LVL239:
 2454 0006 FFF7FEFF 		bl	__aeabi_ui2f
 2455              	.LVL240:
 2456 000a 4FF06051 		mov	r1, #939524096
 2457 000e FFF7FEFF 		bl	__aeabi_fmul
 2458              	.LVL241:
 2459 0012 6067     		str	r0, [r4, #116]	@ float
 2460 0014 10BD     		pop	{r4, pc}
 2461              		.cfi_endproc
 2462              	.LFE41:
 2463              		.cantunwind
 2464              		.fnend
 2465              		.size	_ZN7LSM9DS18calcgResEv, .-_ZN7LSM9DS18calcgResEv
 2466 0016 00BFAFF3 		.section	.text._ZN7LSM9DS18calcaResEv,"ax",%progbits
 2466      0080AFF3 
 2466      0080
 2467              		.align	2
 2468              		.p2align 4,,15
ARM GAS  /tmp/ccxMPRSl.s 			page 45


 2469              		.global	_ZN7LSM9DS18calcaResEv
 2470              		.thumb
 2471              		.thumb_func
 2472              		.type	_ZN7LSM9DS18calcaResEv, %function
 2473              	_ZN7LSM9DS18calcaResEv:
 2474              		.fnstart
 2475              	.LFB42:
 2476              		.loc 1 680 0
 2477              		.cfi_startproc
 2478              		@ args = 0, pretend = 0, frame = 0
 2479              		@ frame_needed = 0, uses_anonymous_args = 0
 2480              	.LVL242:
 2481 0000 10B5     		push	{r4, lr}
 2482              		.cfi_def_cfa_offset 8
 2483              		.cfi_offset 4, -8
 2484              		.cfi_offset 14, -4
 2485              		.loc 1 680 0
 2486 0002 0446     		mov	r4, r0
 2487 0004 C07D     		ldrb	r0, [r0, #23]	@ zero_extendqisi2
 2488              	.LVL243:
 2489 0006 FFF7FEFF 		bl	__aeabi_ui2f
 2490              	.LVL244:
 2491 000a 4FF06051 		mov	r1, #939524096
 2492 000e FFF7FEFF 		bl	__aeabi_fmul
 2493              	.LVL245:
 2494 0012 A067     		str	r0, [r4, #120]	@ float
 2495 0014 10BD     		pop	{r4, pc}
 2496              		.cfi_endproc
 2497              	.LFE42:
 2498              		.cantunwind
 2499              		.fnend
 2500              		.size	_ZN7LSM9DS18calcaResEv, .-_ZN7LSM9DS18calcaResEv
 2501 0016 00BFAFF3 		.section	.text._ZN7LSM9DS18calcmResEv,"ax",%progbits
 2501      0080AFF3 
 2501      0080
 2502              		.align	2
 2503              		.p2align 4,,15
 2504              		.global	_ZN7LSM9DS18calcmResEv
 2505              		.thumb
 2506              		.thumb_func
 2507              		.type	_ZN7LSM9DS18calcmResEv, %function
 2508              	_ZN7LSM9DS18calcmResEv:
 2509              		.fnstart
 2510              	.LFB43:
 2511              		.loc 1 682 0
 2512              		.cfi_startproc
 2513              		@ args = 0, pretend = 0, frame = 0
 2514              		@ frame_needed = 0, uses_anonymous_args = 0
 2515              		@ link register save eliminated.
 2516              	.LVL246:
 2517              		.loc 1 684 0
 2518 0000 90F82030 		ldrb	r3, [r0, #32]	@ zero_extendqisi2
 2519 0004 043B     		subs	r3, r3, #4
 2520 0006 0C2B     		cmp	r3, #12
 2521 0008 0ED8     		bhi	.L142
 2522 000a DFE803F0 		tbb	[pc, r3]
 2523              	.L145:
ARM GAS  /tmp/ccxMPRSl.s 			page 46


 2524 000e 1C       		.byte	(.L144-.L145)/2
 2525 000f 0D       		.byte	(.L142-.L145)/2
 2526 0010 0D       		.byte	(.L142-.L145)/2
 2527 0011 0D       		.byte	(.L142-.L145)/2
 2528 0012 15       		.byte	(.L146-.L145)/2
 2529 0013 0D       		.byte	(.L142-.L145)/2
 2530 0014 0D       		.byte	(.L142-.L145)/2
 2531 0015 0D       		.byte	(.L142-.L145)/2
 2532 0016 0E       		.byte	(.L147-.L145)/2
 2533 0017 0D       		.byte	(.L142-.L145)/2
 2534 0018 0D       		.byte	(.L142-.L145)/2
 2535 0019 0D       		.byte	(.L142-.L145)/2
 2536 001a 07       		.byte	(.L148-.L145)/2
 2537 001b 00       		.align	1
 2538              	.L148:
 2539              		.loc 1 695 0
 2540 001c 40F20003 		movw	r3, #:lower16:.LANCHOR1
 2541 0020 C0F20003 		movt	r3, #:upper16:.LANCHOR1
 2542 0024 DB68     		ldr	r3, [r3, #12]	@ float
 2543 0026 C367     		str	r3, [r0, #124]	@ float
 2544              	.L142:
 2545 0028 7047     		bx	lr
 2546              	.L147:
 2547              		.loc 1 692 0
 2548 002a 40F20003 		movw	r3, #:lower16:.LANCHOR1
 2549 002e C0F20003 		movt	r3, #:upper16:.LANCHOR1
 2550 0032 9B68     		ldr	r3, [r3, #8]	@ float
 2551 0034 C367     		str	r3, [r0, #124]	@ float
 2552              		.loc 1 693 0
 2553 0036 7047     		bx	lr
 2554              	.L146:
 2555              		.loc 1 689 0
 2556 0038 40F20003 		movw	r3, #:lower16:.LANCHOR1
 2557 003c C0F20003 		movt	r3, #:upper16:.LANCHOR1
 2558 0040 5B68     		ldr	r3, [r3, #4]	@ float
 2559 0042 C367     		str	r3, [r0, #124]	@ float
 2560              		.loc 1 690 0
 2561 0044 7047     		bx	lr
 2562              	.L144:
 2563              		.loc 1 686 0
 2564 0046 40F20003 		movw	r3, #:lower16:.LANCHOR1
 2565 004a C0F20003 		movt	r3, #:upper16:.LANCHOR1
 2566 004e 1B68     		ldr	r3, [r3]	@ float
 2567 0050 C367     		str	r3, [r0, #124]	@ float
 2568              		.loc 1 687 0
 2569 0052 7047     		bx	lr
 2570              		.cfi_endproc
 2571              	.LFE43:
 2572              		.cantunwind
 2573              		.fnend
 2574              		.size	_ZN7LSM9DS18calcmResEv, .-_ZN7LSM9DS18calcmResEv
 2575 0054 AFF30080 		.section	.text._ZN7LSM9DS111setMagScaleEh,"ax",%progbits
 2575      AFF30080 
 2575      AFF30080 
 2576              		.align	2
 2577              		.p2align 4,,15
 2578              		.global	_ZN7LSM9DS111setMagScaleEh
ARM GAS  /tmp/ccxMPRSl.s 			page 47


 2579              		.thumb
 2580              		.thumb_func
 2581              		.type	_ZN7LSM9DS111setMagScaleEh, %function
 2582              	_ZN7LSM9DS111setMagScaleEh:
 2583              		.fnstart
 2584              	.LFB37:
 2585              		.loc 1 602 0
 2586              		.cfi_startproc
 2587              		@ args = 0, pretend = 0, frame = 0
 2588              		@ frame_needed = 0, uses_anonymous_args = 0
 2589              	.LVL247:
 2590 0000 38B5     		push	{r3, r4, r5, lr}
 2591              		.save {r3, r4, r5, lr}
 2592              		.cfi_def_cfa_offset 16
 2593              		.cfi_offset 3, -16
 2594              		.cfi_offset 4, -12
 2595              		.cfi_offset 5, -8
 2596              		.cfi_offset 14, -4
 2597              		.loc 1 602 0
 2598 0002 0446     		mov	r4, r0
 2599              	.LVL248:
 2600 0004 0D46     		mov	r5, r1
 2601              	.LBB379:
 2602              	.LBB380:
 2603              	.LBB381:
 2604              		.loc 1 903 0
 2605 0006 D0F88400 		ldr	r0, [r0, #132]
 2606              	.LVL249:
 2607 000a 94F87210 		ldrb	r1, [r4, #114]	@ zero_extendqisi2
 2608              	.LVL250:
 2609 000e 2122     		movs	r2, #33
 2610 0010 FFF7FEFF 		bl	_ZN7creator3I2C8ReadByteEhh
 2611              	.LVL251:
 2612              	.LBE381:
 2613              	.LBE380:
 2614              		.loc 1 608 0
 2615 0014 0C2D     		cmp	r5, #12
 2616              		.loc 1 606 0
 2617 0016 00F09F03 		and	r3, r0, #159
 2618              	.LVL252:
 2619              		.loc 1 608 0
 2620 001a 1CD0     		beq	.L151
 2621 001c 102D     		cmp	r5, #16
 2622 001e 15D0     		beq	.L152
 2623 0020 082D     		cmp	r5, #8
 2624              		.loc 1 610 0
 2625 0022 04BF     		itt	eq
 2626 0024 43F02003 		orreq	r3, r3, #32
 2627              	.LVL253:
 2628              		.loc 1 611 0
 2629 0028 84F82050 		strbeq	r5, [r4, #32]
 2630              		.loc 1 608 0
 2631 002c 02D0     		beq	.L154
 2632              		.loc 1 622 0
 2633 002e 0422     		movs	r2, #4
 2634 0030 84F82020 		strb	r2, [r4, #32]
 2635              	.LVL254:
ARM GAS  /tmp/ccxMPRSl.s 			page 48


 2636              	.L154:
 2637              	.LBB382:
 2638              	.LBB383:
 2639              		.loc 1 891 0
 2640 0034 D4F88400 		ldr	r0, [r4, #132]
 2641 0038 94F87210 		ldrb	r1, [r4, #114]	@ zero_extendqisi2
 2642 003c 2122     		movs	r2, #33
 2643 003e FFF7FEFF 		bl	_ZN7creator3I2C9WriteByteEhhh
 2644              	.LVL255:
 2645              	.LBE383:
 2646              	.LBE382:
 2647              		.loc 1 633 0
 2648 0042 2046     		mov	r0, r4
 2649              	.LBE379:
 2650              		.loc 1 634 0
 2651 0044 BDE83840 		pop	{r3, r4, r5, lr}
 2652              	.LVL256:
 2653              	.LBB384:
 2654              		.loc 1 633 0
 2655 0048 FFF7FEBF 		b	_ZN7LSM9DS18calcmResEv
 2656              	.LVL257:
 2657              	.L152:
 2658              		.loc 1 618 0
 2659 004c 43F06003 		orr	r3, r3, #96
 2660              	.LVL258:
 2661              		.loc 1 619 0
 2662 0050 84F82050 		strb	r5, [r4, #32]
 2663              		.loc 1 620 0
 2664 0054 EEE7     		b	.L154
 2665              	.L151:
 2666              		.loc 1 614 0
 2667 0056 43F04003 		orr	r3, r3, #64
 2668              	.LVL259:
 2669              		.loc 1 615 0
 2670 005a 84F82050 		strb	r5, [r4, #32]
 2671              		.loc 1 616 0
 2672 005e E9E7     		b	.L154
 2673              	.LBE384:
 2674              		.cfi_endproc
 2675              	.LFE37:
 2676              		.fnend
 2677              		.size	_ZN7LSM9DS111setMagScaleEh, .-_ZN7LSM9DS111setMagScaleEh
 2678              		.section	.text._ZN7LSM9DS19configIntE16interrupt_selecth9h_lactive5pp_od,"ax",%progbits
 2679              		.align	2
 2680              		.p2align 4,,15
 2681              		.global	_ZN7LSM9DS19configIntE16interrupt_selecth9h_lactive5pp_od
 2682              		.thumb
 2683              		.thumb_func
 2684              		.type	_ZN7LSM9DS19configIntE16interrupt_selecth9h_lactive5pp_od, %function
 2685              	_ZN7LSM9DS19configIntE16interrupt_selecth9h_lactive5pp_od:
 2686              		.fnstart
 2687              	.LFB44:
 2688              		.loc 1 701 0
 2689              		.cfi_startproc
 2690              		@ args = 4, pretend = 0, frame = 0
 2691              		@ frame_needed = 0, uses_anonymous_args = 0
 2692              	.LVL260:
ARM GAS  /tmp/ccxMPRSl.s 			page 49


 2693 0000 70B5     		push	{r4, r5, r6, lr}
 2694              		.save {r4, r5, r6, lr}
 2695              		.cfi_def_cfa_offset 16
 2696              		.cfi_offset 4, -16
 2697              		.cfi_offset 5, -12
 2698              		.cfi_offset 6, -8
 2699              		.cfi_offset 14, -4
 2700              		.loc 1 701 0
 2701 0002 0446     		mov	r4, r0
 2702              	.LVL261:
 2703 0004 1046     		mov	r0, r2
 2704              	.LVL262:
 2705 0006 1E46     		mov	r6, r3
 2706              	.LBB385:
 2707              	.LBB386:
 2708              	.LBB387:
 2709              		.loc 1 887 0
 2710 0008 0A46     		mov	r2, r1
 2711              	.LVL263:
 2712 000a 0346     		mov	r3, r0
 2713              	.LVL264:
 2714 000c 94F87310 		ldrb	r1, [r4, #115]	@ zero_extendqisi2
 2715              	.LVL265:
 2716 0010 D4F88400 		ldr	r0, [r4, #132]
 2717              	.LVL266:
 2718              	.LBE387:
 2719              	.LBE386:
 2720              	.LBE385:
 2721              		.loc 1 701 0
 2722 0014 9DF81050 		ldrb	r5, [sp, #16]	@ zero_extendqisi2
 2723              	.LBB396:
 2724              	.LBB389:
 2725              	.LBB388:
 2726              		.loc 1 887 0
 2727 0018 FFF7FEFF 		bl	_ZN7creator3I2C9WriteByteEhhh
 2728              	.LVL267:
 2729              	.LBE388:
 2730              	.LBE389:
 2731              	.LBB390:
 2732              	.LBB391:
 2733              		.loc 1 895 0
 2734 001c D4F88400 		ldr	r0, [r4, #132]
 2735 0020 94F87310 		ldrb	r1, [r4, #115]	@ zero_extendqisi2
 2736 0024 2222     		movs	r2, #34
 2737 0026 FFF7FEFF 		bl	_ZN7creator3I2C8ReadByteEhh
 2738              	.LVL268:
 2739              	.LBE391:
 2740              	.LBE390:
 2741              		.loc 1 713 0
 2742 002a 40F02003 		orr	r3, r0, #32
 2743 002e DBB2     		uxtb	r3, r3
 2744              		.loc 1 712 0
 2745 0030 0EB9     		cbnz	r6, .L158
 2746              		.loc 1 715 0
 2747 0032 00F0DF03 		and	r3, r0, #223
 2748              	.LVL269:
 2749              	.L158:
ARM GAS  /tmp/ccxMPRSl.s 			page 50


 2750              		.loc 1 717 0
 2751 0036 55B9     		cbnz	r5, .L161
 2752              		.loc 1 720 0
 2753 0038 43F01003 		orr	r3, r3, #16
 2754              	.LVL270:
 2755              	.L160:
 2756              	.LBB392:
 2757              	.LBB393:
 2758              		.loc 1 887 0
 2759 003c D4F88400 		ldr	r0, [r4, #132]
 2760 0040 94F87310 		ldrb	r1, [r4, #115]	@ zero_extendqisi2
 2761 0044 2222     		movs	r2, #34
 2762              	.LBE393:
 2763              	.LBE392:
 2764              	.LBE396:
 2765              		.loc 1 723 0
 2766 0046 BDE87040 		pop	{r4, r5, r6, lr}
 2767              	.LVL271:
 2768              	.LBB397:
 2769              	.LBB395:
 2770              	.LBB394:
 2771              		.loc 1 887 0
 2772 004a FFF7FEBF 		b	_ZN7creator3I2C9WriteByteEhhh
 2773              	.LVL272:
 2774              	.L161:
 2775              	.LBE394:
 2776              	.LBE395:
 2777              		.loc 1 718 0
 2778 004e 03F0EF03 		and	r3, r3, #239
 2779              	.LVL273:
 2780 0052 F3E7     		b	.L160
 2781              	.LBE397:
 2782              		.cfi_endproc
 2783              	.LFE44:
 2784              		.fnend
 2785              		.size	_ZN7LSM9DS19configIntE16interrupt_selecth9h_lactive5pp_od, .-_ZN7LSM9DS19configIntE16interru
 2786 0054 AFF30080 		.section	.text._ZN7LSM9DS116configInactivityEhhb,"ax",%progbits
 2786      AFF30080 
 2786      AFF30080 
 2787              		.align	2
 2788              		.p2align 4,,15
 2789              		.global	_ZN7LSM9DS116configInactivityEhhb
 2790              		.thumb
 2791              		.thumb_func
 2792              		.type	_ZN7LSM9DS116configInactivityEhhb, %function
 2793              	_ZN7LSM9DS116configInactivityEhhb:
 2794              		.fnstart
 2795              	.LFB45:
 2796              		.loc 1 726 0
 2797              		.cfi_startproc
 2798              		@ args = 0, pretend = 0, frame = 0
 2799              		@ frame_needed = 0, uses_anonymous_args = 0
 2800              	.LVL274:
 2801 0000 70B5     		push	{r4, r5, r6, lr}
 2802              		.save {r4, r5, r6, lr}
 2803              		.cfi_def_cfa_offset 16
 2804              		.cfi_offset 4, -16
ARM GAS  /tmp/ccxMPRSl.s 			page 51


 2805              		.cfi_offset 5, -12
 2806              		.cfi_offset 6, -8
 2807              		.cfi_offset 14, -4
 2808              	.LBB398:
 2809              		.loc 1 729 0
 2810 0002 02F07F02 		and	r2, r2, #127
 2811              	.LVL275:
 2812              	.LBE398:
 2813              		.loc 1 726 0
 2814 0006 0446     		mov	r4, r0
 2815 0008 0D46     		mov	r5, r1
 2816              	.LBB405:
 2817              		.loc 1 730 0
 2818 000a 0BB1     		cbz	r3, .L163
 2819              		.loc 1 730 0 is_stmt 0 discriminator 1
 2820 000c 42F08002 		orr	r2, r2, #128
 2821              	.LVL276:
 2822              	.L163:
 2823              	.LBB399:
 2824              	.LBB400:
 2825              		.loc 1 887 0 is_stmt 1
 2826 0010 1346     		mov	r3, r2
 2827              	.LVL277:
 2828 0012 D4F88400 		ldr	r0, [r4, #132]
 2829              	.LVL278:
 2830 0016 94F87310 		ldrb	r1, [r4, #115]	@ zero_extendqisi2
 2831              	.LVL279:
 2832 001a 0422     		movs	r2, #4
 2833              	.LVL280:
 2834 001c FFF7FEFF 		bl	_ZN7creator3I2C9WriteByteEhhh
 2835              	.LVL281:
 2836              	.LBE400:
 2837              	.LBE399:
 2838              	.LBB401:
 2839              	.LBB402:
 2840 0020 2B46     		mov	r3, r5
 2841 0022 D4F88400 		ldr	r0, [r4, #132]
 2842 0026 94F87310 		ldrb	r1, [r4, #115]	@ zero_extendqisi2
 2843 002a 0522     		movs	r2, #5
 2844              	.LBE402:
 2845              	.LBE401:
 2846              	.LBE405:
 2847              		.loc 1 734 0
 2848 002c BDE87040 		pop	{r4, r5, r6, lr}
 2849              	.LVL282:
 2850              	.LBB406:
 2851              	.LBB404:
 2852              	.LBB403:
 2853              		.loc 1 887 0
 2854 0030 FFF7FEBF 		b	_ZN7creator3I2C9WriteByteEhhh
 2855              	.LVL283:
 2856              	.LBE403:
 2857              	.LBE404:
 2858              	.LBE406:
 2859              		.cfi_endproc
 2860              	.LFE45:
 2861              		.fnend
ARM GAS  /tmp/ccxMPRSl.s 			page 52


 2862              		.size	_ZN7LSM9DS116configInactivityEhhb, .-_ZN7LSM9DS116configInactivityEhhb
 2863 0034 AFF30080 		.section	.text._ZN7LSM9DS113getInactivityEv,"ax",%progbits
 2863      AFF30080 
 2863      AFF30080 
 2864              		.align	2
 2865              		.p2align 4,,15
 2866              		.global	_ZN7LSM9DS113getInactivityEv
 2867              		.thumb
 2868              		.thumb_func
 2869              		.type	_ZN7LSM9DS113getInactivityEv, %function
 2870              	_ZN7LSM9DS113getInactivityEv:
 2871              		.fnstart
 2872              	.LFB46:
 2873              		.loc 1 736 0
 2874              		.cfi_startproc
 2875              		@ args = 0, pretend = 0, frame = 0
 2876              		@ frame_needed = 0, uses_anonymous_args = 0
 2877              	.LVL284:
 2878 0000 08B5     		push	{r3, lr}
 2879              		.save {r3, lr}
 2880              		.cfi_def_cfa_offset 8
 2881              		.cfi_offset 3, -8
 2882              		.cfi_offset 14, -4
 2883              		.loc 1 736 0
 2884 0002 0346     		mov	r3, r0
 2885              	.LVL285:
 2886              	.LBB407:
 2887              	.LBB408:
 2888              	.LBB409:
 2889              		.loc 1 895 0
 2890 0004 93F87310 		ldrb	r1, [r3, #115]	@ zero_extendqisi2
 2891 0008 1722     		movs	r2, #23
 2892 000a D0F88400 		ldr	r0, [r0, #132]
 2893              	.LVL286:
 2894 000e FFF7FEFF 		bl	_ZN7creator3I2C8ReadByteEhh
 2895              	.LVL287:
 2896              	.LBE409:
 2897              	.LBE408:
 2898              	.LBE407:
 2899              		.loc 1 740 0
 2900 0012 00F01000 		and	r0, r0, #16
 2901              	.LVL288:
 2902 0016 08BD     		pop	{r3, pc}
 2903              		.cfi_endproc
 2904              	.LFE46:
 2905              		.fnend
 2906              		.size	_ZN7LSM9DS113getInactivityEv, .-_ZN7LSM9DS113getInactivityEv
 2907 0018 AFF30080 		.section	.text._ZN7LSM9DS114configAccelIntEhb,"ax",%progbits
 2907      AFF30080 
 2908              		.align	2
 2909              		.p2align 4,,15
 2910              		.global	_ZN7LSM9DS114configAccelIntEhb
 2911              		.thumb
 2912              		.thumb_func
 2913              		.type	_ZN7LSM9DS114configAccelIntEhb, %function
 2914              	_ZN7LSM9DS114configAccelIntEhb:
 2915              		.fnstart
ARM GAS  /tmp/ccxMPRSl.s 			page 53


 2916              	.LFB47:
 2917              		.loc 1 742 0
 2918              		.cfi_startproc
 2919              		@ args = 0, pretend = 0, frame = 0
 2920              		@ frame_needed = 0, uses_anonymous_args = 0
 2921              		@ link register save eliminated.
 2922              	.LVL289:
 2923 0000 10B4     		push	{r4}
 2924              		.cfi_def_cfa_offset 4
 2925              		.cfi_offset 4, -4
 2926              		.loc 1 742 0
 2927 0002 0B46     		mov	r3, r1
 2928              	.LVL290:
 2929 0004 0446     		mov	r4, r0
 2930              	.LBB410:
 2931              		.loc 1 746 0
 2932 0006 0AB1     		cbz	r2, .L169
 2933              		.loc 1 746 0 is_stmt 0 discriminator 1
 2934 0008 41F08003 		orr	r3, r1, #128
 2935              	.LVL291:
 2936              	.L169:
 2937              	.LBB411:
 2938              	.LBB412:
 2939              		.loc 1 887 0 is_stmt 1
 2940 000c D4F88400 		ldr	r0, [r4, #132]
 2941              	.LVL292:
 2942 0010 94F87310 		ldrb	r1, [r4, #115]	@ zero_extendqisi2
 2943              	.LVL293:
 2944 0014 0622     		movs	r2, #6
 2945              	.LVL294:
 2946              	.LBE412:
 2947              	.LBE411:
 2948              	.LBE410:
 2949              		.loc 1 748 0
 2950 0016 5DF8044B 		ldr	r4, [sp], #4
 2951              	.LVL295:
 2952              	.LBB415:
 2953              	.LBB414:
 2954              	.LBB413:
 2955              		.loc 1 887 0
 2956 001a FFF7FEBF 		b	_ZN7creator3I2C9WriteByteEhhh
 2957              	.LVL296:
 2958              	.LBE413:
 2959              	.LBE414:
 2960              	.LBE415:
 2961              		.cfi_endproc
 2962              	.LFE47:
 2963              		.cantunwind
 2964              		.fnend
 2965              		.size	_ZN7LSM9DS114configAccelIntEhb, .-_ZN7LSM9DS114configAccelIntEhb
 2966 001e 00BF     		.section	.text._ZN7LSM9DS114configAccelThsEh12lsm9ds1_axishb,"ax",%progbits
 2967              		.align	2
 2968              		.p2align 4,,15
 2969              		.global	_ZN7LSM9DS114configAccelThsEh12lsm9ds1_axishb
 2970              		.thumb
 2971              		.thumb_func
 2972              		.type	_ZN7LSM9DS114configAccelThsEh12lsm9ds1_axishb, %function
ARM GAS  /tmp/ccxMPRSl.s 			page 54


 2973              	_ZN7LSM9DS114configAccelThsEh12lsm9ds1_axishb:
 2974              		.fnstart
 2975              	.LFB48:
 2976              		.loc 1 751 0
 2977              		.cfi_startproc
 2978              		@ args = 4, pretend = 0, frame = 0
 2979              		@ frame_needed = 0, uses_anonymous_args = 0
 2980              	.LVL297:
 2981 0000 70B5     		push	{r4, r5, r6, lr}
 2982              		.save {r4, r5, r6, lr}
 2983              		.cfi_def_cfa_offset 16
 2984              		.cfi_offset 4, -16
 2985              		.cfi_offset 5, -12
 2986              		.cfi_offset 6, -8
 2987              		.cfi_offset 14, -4
 2988              	.LBB416:
 2989              		.loc 1 754 0
 2990 0002 0732     		adds	r2, r2, #7
 2991              	.LVL298:
 2992              	.LBE416:
 2993              		.loc 1 751 0
 2994 0004 0446     		mov	r4, r0
 2995              	.LVL299:
 2996 0006 9DF81050 		ldrb	r5, [sp, #16]	@ zero_extendqisi2
 2997 000a 1E46     		mov	r6, r3
 2998              	.LBB423:
 2999              	.LBB417:
 3000              	.LBB418:
 3001              		.loc 1 887 0
 3002 000c D2B2     		uxtb	r2, r2
 3003 000e 0B46     		mov	r3, r1
 3004              	.LVL300:
 3005 0010 D0F88400 		ldr	r0, [r0, #132]
 3006              	.LVL301:
 3007 0014 94F87310 		ldrb	r1, [r4, #115]	@ zero_extendqisi2
 3008              	.LVL302:
 3009 0018 FFF7FEFF 		bl	_ZN7creator3I2C9WriteByteEhhh
 3010              	.LVL303:
 3011              	.LBE418:
 3012              	.LBE417:
 3013              		.loc 1 758 0
 3014 001c 06F07F03 		and	r3, r6, #127
 3015              	.LVL304:
 3016              		.loc 1 759 0
 3017 0020 0DB1     		cbz	r5, .L174
 3018              		.loc 1 759 0 is_stmt 0 discriminator 1
 3019 0022 43F08003 		orr	r3, r3, #128
 3020              	.LVL305:
 3021              	.L174:
 3022              	.LBB419:
 3023              	.LBB420:
 3024              		.loc 1 887 0 is_stmt 1
 3025 0026 D4F88400 		ldr	r0, [r4, #132]
 3026 002a 94F87310 		ldrb	r1, [r4, #115]	@ zero_extendqisi2
 3027 002e 0A22     		movs	r2, #10
 3028              	.LBE420:
 3029              	.LBE419:
ARM GAS  /tmp/ccxMPRSl.s 			page 55


 3030              	.LBE423:
 3031              		.loc 1 761 0
 3032 0030 BDE87040 		pop	{r4, r5, r6, lr}
 3033              	.LVL306:
 3034              	.LBB424:
 3035              	.LBB422:
 3036              	.LBB421:
 3037              		.loc 1 887 0
 3038 0034 FFF7FEBF 		b	_ZN7creator3I2C9WriteByteEhhh
 3039              	.LVL307:
 3040              	.LBE421:
 3041              	.LBE422:
 3042              	.LBE424:
 3043              		.cfi_endproc
 3044              	.LFE48:
 3045              		.fnend
 3046              		.size	_ZN7LSM9DS114configAccelThsEh12lsm9ds1_axishb, .-_ZN7LSM9DS114configAccelThsEh12lsm9ds1_axis
 3047 0038 AFF30080 		.section	.text._ZN7LSM9DS114getAccelIntSrcEv,"ax",%progbits
 3047      AFF30080 
 3048              		.align	2
 3049              		.p2align 4,,15
 3050              		.global	_ZN7LSM9DS114getAccelIntSrcEv
 3051              		.thumb
 3052              		.thumb_func
 3053              		.type	_ZN7LSM9DS114getAccelIntSrcEv, %function
 3054              	_ZN7LSM9DS114getAccelIntSrcEv:
 3055              		.fnstart
 3056              	.LFB49:
 3057              		.loc 1 763 0
 3058              		.cfi_startproc
 3059              		@ args = 0, pretend = 0, frame = 0
 3060              		@ frame_needed = 0, uses_anonymous_args = 0
 3061              	.LVL308:
 3062 0000 08B5     		push	{r3, lr}
 3063              		.save {r3, lr}
 3064              		.cfi_def_cfa_offset 8
 3065              		.cfi_offset 3, -8
 3066              		.cfi_offset 14, -4
 3067              		.loc 1 763 0
 3068 0002 0346     		mov	r3, r0
 3069              	.LVL309:
 3070              	.LBB425:
 3071              	.LBB426:
 3072              	.LBB427:
 3073              		.loc 1 895 0
 3074 0004 93F87310 		ldrb	r1, [r3, #115]	@ zero_extendqisi2
 3075 0008 2622     		movs	r2, #38
 3076 000a D0F88400 		ldr	r0, [r0, #132]
 3077              	.LVL310:
 3078 000e FFF7FEFF 		bl	_ZN7creator3I2C8ReadByteEhh
 3079              	.LVL311:
 3080              	.LBE427:
 3081              	.LBE426:
 3082              		.loc 1 767 0
 3083 0012 00F04003 		and	r3, r0, #64
 3084 0016 03F0FF02 		and	r2, r3, #255
 3085 001a 0BB1     		cbz	r3, .L179
ARM GAS  /tmp/ccxMPRSl.s 			page 56


 3086              		.loc 1 768 0
 3087 001c 00F03F02 		and	r2, r0, #63
 3088              	.L179:
 3089              	.LBE425:
 3090              		.loc 1 772 0
 3091 0020 1046     		mov	r0, r2
 3092              	.LVL312:
 3093 0022 08BD     		pop	{r3, pc}
 3094              		.cfi_endproc
 3095              	.LFE49:
 3096              		.fnend
 3097              		.size	_ZN7LSM9DS114getAccelIntSrcEv, .-_ZN7LSM9DS114getAccelIntSrcEv
 3098 0024 AFF30080 		.section	.text._ZN7LSM9DS113configGyroIntEhbb,"ax",%progbits
 3098      AFF30080 
 3098      AFF30080 
 3099              		.align	2
 3100              		.p2align 4,,15
 3101              		.global	_ZN7LSM9DS113configGyroIntEhbb
 3102              		.thumb
 3103              		.thumb_func
 3104              		.type	_ZN7LSM9DS113configGyroIntEhbb, %function
 3105              	_ZN7LSM9DS113configGyroIntEhbb:
 3106              		.fnstart
 3107              	.LFB50:
 3108              		.loc 1 774 0
 3109              		.cfi_startproc
 3110              		@ args = 0, pretend = 0, frame = 0
 3111              		@ frame_needed = 0, uses_anonymous_args = 0
 3112              		@ link register save eliminated.
 3113              	.LVL313:
 3114 0000 10B4     		push	{r4}
 3115              		.cfi_def_cfa_offset 4
 3116              		.cfi_offset 4, -4
 3117              		.loc 1 774 0
 3118 0002 0446     		mov	r4, r0
 3119              	.LVL314:
 3120              	.LBB428:
 3121              		.loc 1 778 0
 3122 0004 0AB1     		cbz	r2, .L184
 3123              		.loc 1 778 0 is_stmt 0 discriminator 1
 3124 0006 41F08001 		orr	r1, r1, #128
 3125              	.LVL315:
 3126              	.L184:
 3127              		.loc 1 779 0 is_stmt 1
 3128 000a 0BB1     		cbz	r3, .L185
 3129              		.loc 1 779 0 is_stmt 0 discriminator 1
 3130 000c 41F04001 		orr	r1, r1, #64
 3131              	.LVL316:
 3132              	.L185:
 3133              	.LBB429:
 3134              	.LBB430:
 3135              		.loc 1 887 0 is_stmt 1
 3136 0010 0B46     		mov	r3, r1
 3137              	.LVL317:
 3138 0012 D4F88400 		ldr	r0, [r4, #132]
 3139              	.LVL318:
 3140 0016 94F87310 		ldrb	r1, [r4, #115]	@ zero_extendqisi2
ARM GAS  /tmp/ccxMPRSl.s 			page 57


 3141              	.LVL319:
 3142 001a 3022     		movs	r2, #48
 3143              	.LVL320:
 3144              	.LBE430:
 3145              	.LBE429:
 3146              	.LBE428:
 3147              		.loc 1 781 0
 3148 001c 5DF8044B 		ldr	r4, [sp], #4
 3149              	.LVL321:
 3150              	.LBB433:
 3151              	.LBB432:
 3152              	.LBB431:
 3153              		.loc 1 887 0
 3154 0020 FFF7FEBF 		b	_ZN7creator3I2C9WriteByteEhhh
 3155              	.LVL322:
 3156              	.LBE431:
 3157              	.LBE432:
 3158              	.LBE433:
 3159              		.cfi_endproc
 3160              	.LFE50:
 3161              		.cantunwind
 3162              		.fnend
 3163              		.size	_ZN7LSM9DS113configGyroIntEhbb, .-_ZN7LSM9DS113configGyroIntEhbb
 3164 0024 AFF30080 		.section	.text._ZN7LSM9DS113configGyroThsEs12lsm9ds1_axishb,"ax",%progbits
 3164      AFF30080 
 3164      AFF30080 
 3165              		.align	2
 3166              		.p2align 4,,15
 3167              		.global	_ZN7LSM9DS113configGyroThsEs12lsm9ds1_axishb
 3168              		.thumb
 3169              		.thumb_func
 3170              		.type	_ZN7LSM9DS113configGyroThsEs12lsm9ds1_axishb, %function
 3171              	_ZN7LSM9DS113configGyroThsEs12lsm9ds1_axishb:
 3172              		.fnstart
 3173              	.LFB51:
 3174              		.loc 1 784 0
 3175              		.cfi_startproc
 3176              		@ args = 4, pretend = 0, frame = 0
 3177              		@ frame_needed = 0, uses_anonymous_args = 0
 3178              	.LVL323:
 3179 0000 2DE9F041 		push	{r4, r5, r6, r7, r8, lr}
 3180              		.save {r4, r5, r6, r7, r8, lr}
 3181              		.cfi_def_cfa_offset 24
 3182              		.cfi_offset 4, -24
 3183              		.cfi_offset 5, -20
 3184              		.cfi_offset 6, -16
 3185              		.cfi_offset 7, -12
 3186              		.cfi_offset 8, -8
 3187              		.cfi_offset 14, -4
 3188              		.loc 1 784 0
 3189 0004 1646     		mov	r6, r2
 3190              	.LBB434:
 3191              		.loc 1 790 0
 3192 0006 5200     		lsls	r2, r2, #1
 3193              	.LVL324:
 3194              	.LBE434:
 3195              		.loc 1 784 0
ARM GAS  /tmp/ccxMPRSl.s 			page 58


 3196 0008 0446     		mov	r4, r0
 3197 000a 0D46     		mov	r5, r1
 3198              	.LVL325:
 3199              	.LBB445:
 3200              		.loc 1 790 0
 3201 000c 3132     		adds	r2, r2, #49
 3202              	.LBE445:
 3203              		.loc 1 784 0
 3204 000e 9846     		mov	r8, r3
 3205              	.LBB446:
 3206              	.LBB435:
 3207              	.LBB436:
 3208              		.loc 1 887 0
 3209 0010 D2B2     		uxtb	r2, r2
 3210 0012 D0F88400 		ldr	r0, [r0, #132]
 3211              	.LVL326:
 3212 0016 94F87310 		ldrb	r1, [r4, #115]	@ zero_extendqisi2
 3213              	.LVL327:
 3214 001a C5F30623 		ubfx	r3, r5, #8, #7
 3215              	.LVL328:
 3216              	.LBE436:
 3217              	.LBE435:
 3218              		.loc 1 791 0
 3219 001e 1936     		adds	r6, r6, #25
 3220              	.LVL329:
 3221              	.LBE446:
 3222              		.loc 1 784 0
 3223 0020 9DF81870 		ldrb	r7, [sp, #24]	@ zero_extendqisi2
 3224              	.LBB447:
 3225              	.LBB438:
 3226              	.LBB437:
 3227              		.loc 1 887 0
 3228 0024 FFF7FEFF 		bl	_ZN7creator3I2C9WriteByteEhhh
 3229              	.LVL330:
 3230              	.LBE437:
 3231              	.LBE438:
 3232              		.loc 1 791 0
 3233 0028 7200     		lsls	r2, r6, #1
 3234              	.LBB439:
 3235              	.LBB440:
 3236              		.loc 1 887 0
 3237 002a EBB2     		uxtb	r3, r5
 3238 002c 02F0FE02 		and	r2, r2, #254
 3239 0030 D4F88400 		ldr	r0, [r4, #132]
 3240 0034 94F87310 		ldrb	r1, [r4, #115]	@ zero_extendqisi2
 3241 0038 FFF7FEFF 		bl	_ZN7creator3I2C9WriteByteEhhh
 3242              	.LVL331:
 3243              	.LBE440:
 3244              	.LBE439:
 3245              		.loc 1 795 0
 3246 003c 08F07F03 		and	r3, r8, #127
 3247              	.LVL332:
 3248              		.loc 1 796 0
 3249 0040 0FB1     		cbz	r7, .L193
 3250              		.loc 1 796 0 is_stmt 0 discriminator 1
 3251 0042 43F08003 		orr	r3, r3, #128
 3252              	.LVL333:
ARM GAS  /tmp/ccxMPRSl.s 			page 59


 3253              	.L193:
 3254              	.LBB441:
 3255              	.LBB442:
 3256              		.loc 1 887 0 is_stmt 1
 3257 0046 D4F88400 		ldr	r0, [r4, #132]
 3258 004a 94F87310 		ldrb	r1, [r4, #115]	@ zero_extendqisi2
 3259 004e 3722     		movs	r2, #55
 3260              	.LBE442:
 3261              	.LBE441:
 3262              	.LBE447:
 3263              		.loc 1 798 0
 3264 0050 BDE8F041 		pop	{r4, r5, r6, r7, r8, lr}
 3265              	.LVL334:
 3266              	.LBB448:
 3267              	.LBB444:
 3268              	.LBB443:
 3269              		.loc 1 887 0
 3270 0054 FFF7FEBF 		b	_ZN7creator3I2C9WriteByteEhhh
 3271              	.LVL335:
 3272              	.LBE443:
 3273              	.LBE444:
 3274              	.LBE448:
 3275              		.cfi_endproc
 3276              	.LFE51:
 3277              		.fnend
 3278              		.size	_ZN7LSM9DS113configGyroThsEs12lsm9ds1_axishb, .-_ZN7LSM9DS113configGyroThsEs12lsm9ds1_axishb
 3279 0058 AFF30080 		.section	.text._ZN7LSM9DS113getGyroIntSrcEv,"ax",%progbits
 3279      AFF30080 
 3280              		.align	2
 3281              		.p2align 4,,15
 3282              		.global	_ZN7LSM9DS113getGyroIntSrcEv
 3283              		.thumb
 3284              		.thumb_func
 3285              		.type	_ZN7LSM9DS113getGyroIntSrcEv, %function
 3286              	_ZN7LSM9DS113getGyroIntSrcEv:
 3287              		.fnstart
 3288              	.LFB52:
 3289              		.loc 1 800 0
 3290              		.cfi_startproc
 3291              		@ args = 0, pretend = 0, frame = 0
 3292              		@ frame_needed = 0, uses_anonymous_args = 0
 3293              	.LVL336:
 3294 0000 08B5     		push	{r3, lr}
 3295              		.save {r3, lr}
 3296              		.cfi_def_cfa_offset 8
 3297              		.cfi_offset 3, -8
 3298              		.cfi_offset 14, -4
 3299              		.loc 1 800 0
 3300 0002 0346     		mov	r3, r0
 3301              	.LVL337:
 3302              	.LBB449:
 3303              	.LBB450:
 3304              	.LBB451:
 3305              		.loc 1 895 0
 3306 0004 93F87310 		ldrb	r1, [r3, #115]	@ zero_extendqisi2
 3307 0008 1422     		movs	r2, #20
 3308 000a D0F88400 		ldr	r0, [r0, #132]
ARM GAS  /tmp/ccxMPRSl.s 			page 60


 3309              	.LVL338:
 3310 000e FFF7FEFF 		bl	_ZN7creator3I2C8ReadByteEhh
 3311              	.LVL339:
 3312              	.LBE451:
 3313              	.LBE450:
 3314              		.loc 1 804 0
 3315 0012 00F04003 		and	r3, r0, #64
 3316 0016 03F0FF02 		and	r2, r3, #255
 3317 001a 0BB1     		cbz	r3, .L198
 3318              		.loc 1 805 0
 3319 001c 00F03F02 		and	r2, r0, #63
 3320              	.L198:
 3321              	.LBE449:
 3322              		.loc 1 809 0
 3323 0020 1046     		mov	r0, r2
 3324              	.LVL340:
 3325 0022 08BD     		pop	{r3, pc}
 3326              		.cfi_endproc
 3327              	.LFE52:
 3328              		.fnend
 3329              		.size	_ZN7LSM9DS113getGyroIntSrcEv, .-_ZN7LSM9DS113getGyroIntSrcEv
 3330 0024 AFF30080 		.section	.text._ZN7LSM9DS112configMagIntEh9h_lactiveb,"ax",%progbits
 3330      AFF30080 
 3330      AFF30080 
 3331              		.align	2
 3332              		.p2align 4,,15
 3333              		.global	_ZN7LSM9DS112configMagIntEh9h_lactiveb
 3334              		.thumb
 3335              		.thumb_func
 3336              		.type	_ZN7LSM9DS112configMagIntEh9h_lactiveb, %function
 3337              	_ZN7LSM9DS112configMagIntEh9h_lactiveb:
 3338              		.fnstart
 3339              	.LFB53:
 3340              		.loc 1 811 0
 3341              		.cfi_startproc
 3342              		@ args = 0, pretend = 0, frame = 0
 3343              		@ frame_needed = 0, uses_anonymous_args = 0
 3344              		@ link register save eliminated.
 3345              	.LVL341:
 3346 0000 10B4     		push	{r4}
 3347              		.cfi_def_cfa_offset 4
 3348              		.cfi_offset 4, -4
 3349              		.loc 1 811 0
 3350 0002 0446     		mov	r4, r0
 3351 0004 1846     		mov	r0, r3
 3352              	.LVL342:
 3353              	.LBB452:
 3354              		.loc 1 813 0
 3355 0006 01F0E003 		and	r3, r1, #224
 3356              	.LVL343:
 3357              		.loc 1 815 0
 3358 000a 0AB9     		cbnz	r2, .L203
 3359              		.loc 1 815 0 is_stmt 0 discriminator 1
 3360 000c 43F00403 		orr	r3, r3, #4
 3361              	.LVL344:
 3362              	.L203:
 3363              		.loc 1 817 0 is_stmt 1
ARM GAS  /tmp/ccxMPRSl.s 			page 61


 3364 0010 08B9     		cbnz	r0, .L204
 3365              		.loc 1 817 0 is_stmt 0 discriminator 1
 3366 0012 43F00203 		orr	r3, r3, #2
 3367              	.LVL345:
 3368              	.L204:
 3369              		.loc 1 819 0 is_stmt 1
 3370 0016 09B1     		cbz	r1, .L205
 3371              		.loc 1 819 0 is_stmt 0 discriminator 1
 3372 0018 43F00103 		orr	r3, r3, #1
 3373              	.LVL346:
 3374              	.L205:
 3375              	.LBB453:
 3376              	.LBB454:
 3377              		.loc 1 891 0 is_stmt 1
 3378 001c D4F88400 		ldr	r0, [r4, #132]
 3379 0020 94F87210 		ldrb	r1, [r4, #114]	@ zero_extendqisi2
 3380              	.LVL347:
 3381 0024 3022     		movs	r2, #48
 3382              	.LVL348:
 3383              	.LBE454:
 3384              	.LBE453:
 3385              	.LBE452:
 3386              		.loc 1 822 0
 3387 0026 5DF8044B 		ldr	r4, [sp], #4
 3388              	.LVL349:
 3389              	.LBB457:
 3390              	.LBB456:
 3391              	.LBB455:
 3392              		.loc 1 891 0
 3393 002a FFF7FEBF 		b	_ZN7creator3I2C9WriteByteEhhh
 3394              	.LVL350:
 3395              	.LBE455:
 3396              	.LBE456:
 3397              	.LBE457:
 3398              		.cfi_endproc
 3399              	.LFE53:
 3400              		.cantunwind
 3401              		.fnend
 3402              		.size	_ZN7LSM9DS112configMagIntEh9h_lactiveb, .-_ZN7LSM9DS112configMagIntEh9h_lactiveb
 3403 002e 00BF     		.section	.text._ZN7LSM9DS112configMagThsEt,"ax",%progbits
 3404              		.align	2
 3405              		.p2align 4,,15
 3406              		.global	_ZN7LSM9DS112configMagThsEt
 3407              		.thumb
 3408              		.thumb_func
 3409              		.type	_ZN7LSM9DS112configMagThsEt, %function
 3410              	_ZN7LSM9DS112configMagThsEt:
 3411              		.fnstart
 3412              	.LFB54:
 3413              		.loc 1 824 0
 3414              		.cfi_startproc
 3415              		@ args = 0, pretend = 0, frame = 0
 3416              		@ frame_needed = 0, uses_anonymous_args = 0
 3417              	.LVL351:
 3418 0000 70B5     		push	{r4, r5, r6, lr}
 3419              		.save {r4, r5, r6, lr}
 3420              		.cfi_def_cfa_offset 16
ARM GAS  /tmp/ccxMPRSl.s 			page 62


 3421              		.cfi_offset 4, -16
 3422              		.cfi_offset 5, -12
 3423              		.cfi_offset 6, -8
 3424              		.cfi_offset 14, -4
 3425              		.loc 1 824 0
 3426 0002 0446     		mov	r4, r0
 3427              	.LVL352:
 3428 0004 0D46     		mov	r5, r1
 3429              	.LVL353:
 3430              	.LBB458:
 3431              	.LBB459:
 3432              		.loc 1 891 0
 3433 0006 C5F30623 		ubfx	r3, r5, #8, #7
 3434 000a 94F87210 		ldrb	r1, [r4, #114]	@ zero_extendqisi2
 3435              	.LVL354:
 3436 000e D0F88400 		ldr	r0, [r0, #132]
 3437              	.LVL355:
 3438 0012 3322     		movs	r2, #51
 3439 0014 FFF7FEFF 		bl	_ZN7creator3I2C9WriteByteEhhh
 3440              	.LVL356:
 3441              	.LBE459:
 3442              	.LBE458:
 3443              	.LBB460:
 3444              	.LBB461:
 3445 0018 EBB2     		uxtb	r3, r5
 3446 001a D4F88400 		ldr	r0, [r4, #132]
 3447 001e 94F87210 		ldrb	r1, [r4, #114]	@ zero_extendqisi2
 3448 0022 3222     		movs	r2, #50
 3449              	.LBE461:
 3450              	.LBE460:
 3451              		.loc 1 829 0
 3452 0024 BDE87040 		pop	{r4, r5, r6, lr}
 3453              	.LVL357:
 3454              	.LBB463:
 3455              	.LBB462:
 3456              		.loc 1 891 0
 3457 0028 FFF7FEBF 		b	_ZN7creator3I2C9WriteByteEhhh
 3458              	.LVL358:
 3459              	.LBE462:
 3460              	.LBE463:
 3461              		.cfi_endproc
 3462              	.LFE54:
 3463              		.fnend
 3464              		.size	_ZN7LSM9DS112configMagThsEt, .-_ZN7LSM9DS112configMagThsEt
 3465 002c AFF30080 		.section	.text._ZN7LSM9DS112getMagIntSrcEv,"ax",%progbits
 3466              		.align	2
 3467              		.p2align 4,,15
 3468              		.global	_ZN7LSM9DS112getMagIntSrcEv
 3469              		.thumb
 3470              		.thumb_func
 3471              		.type	_ZN7LSM9DS112getMagIntSrcEv, %function
 3472              	_ZN7LSM9DS112getMagIntSrcEv:
 3473              		.fnstart
 3474              	.LFB55:
 3475              		.loc 1 831 0
 3476              		.cfi_startproc
 3477              		@ args = 0, pretend = 0, frame = 0
ARM GAS  /tmp/ccxMPRSl.s 			page 63


 3478              		@ frame_needed = 0, uses_anonymous_args = 0
 3479              	.LVL359:
 3480 0000 08B5     		push	{r3, lr}
 3481              		.save {r3, lr}
 3482              		.cfi_def_cfa_offset 8
 3483              		.cfi_offset 3, -8
 3484              		.cfi_offset 14, -4
 3485              		.loc 1 831 0
 3486 0002 0346     		mov	r3, r0
 3487              	.LVL360:
 3488              	.LBB464:
 3489              	.LBB465:
 3490              	.LBB466:
 3491              		.loc 1 903 0
 3492 0004 93F87210 		ldrb	r1, [r3, #114]	@ zero_extendqisi2
 3493 0008 3022     		movs	r2, #48
 3494 000a D0F88400 		ldr	r0, [r0, #132]
 3495              	.LVL361:
 3496 000e FFF7FEFF 		bl	_ZN7creator3I2C8ReadByteEhh
 3497              	.LVL362:
 3498 0012 0346     		mov	r3, r0
 3499              	.LVL363:
 3500              	.LBE466:
 3501              	.LBE465:
 3502              		.loc 1 835 0
 3503 0014 10F00100 		ands	r0, r0, #1
 3504              	.LVL364:
 3505              		.loc 1 836 0
 3506 0018 18BF     		it	ne
 3507 001a 03F0FE00 		andne	r0, r3, #254
 3508              	.LBE464:
 3509              		.loc 1 840 0
 3510 001e 08BD     		pop	{r3, pc}
 3511              		.cfi_endproc
 3512              	.LFE55:
 3513              		.fnend
 3514              		.size	_ZN7LSM9DS112getMagIntSrcEv, .-_ZN7LSM9DS112getMagIntSrcEv
 3515              		.section	.text._ZN7LSM9DS19sleepGyroEb,"ax",%progbits
 3516              		.align	2
 3517              		.p2align 4,,15
 3518              		.global	_ZN7LSM9DS19sleepGyroEb
 3519              		.thumb
 3520              		.thumb_func
 3521              		.type	_ZN7LSM9DS19sleepGyroEb, %function
 3522              	_ZN7LSM9DS19sleepGyroEb:
 3523              		.fnstart
 3524              	.LFB56:
 3525              		.loc 1 842 0
 3526              		.cfi_startproc
 3527              		@ args = 0, pretend = 0, frame = 0
 3528              		@ frame_needed = 0, uses_anonymous_args = 0
 3529              	.LVL365:
 3530 0000 70B5     		push	{r4, r5, r6, lr}
 3531              		.save {r4, r5, r6, lr}
 3532              		.cfi_def_cfa_offset 16
 3533              		.cfi_offset 4, -16
 3534              		.cfi_offset 5, -12
ARM GAS  /tmp/ccxMPRSl.s 			page 64


 3535              		.cfi_offset 6, -8
 3536              		.cfi_offset 14, -4
 3537              		.loc 1 842 0
 3538 0002 0446     		mov	r4, r0
 3539              	.LVL366:
 3540 0004 0D46     		mov	r5, r1
 3541              	.LBB467:
 3542              	.LBB468:
 3543              	.LBB469:
 3544              		.loc 1 895 0
 3545 0006 D0F88400 		ldr	r0, [r0, #132]
 3546              	.LVL367:
 3547 000a 94F87310 		ldrb	r1, [r4, #115]	@ zero_extendqisi2
 3548              	.LVL368:
 3549 000e 2322     		movs	r2, #35
 3550 0010 FFF7FEFF 		bl	_ZN7creator3I2C8ReadByteEhh
 3551              	.LVL369:
 3552              	.LBE469:
 3553              	.LBE468:
 3554              		.loc 1 845 0
 3555 0014 40F04003 		orr	r3, r0, #64
 3556 0018 DBB2     		uxtb	r3, r3
 3557              		.loc 1 844 0
 3558 001a 0DB9     		cbnz	r5, .L217
 3559              		.loc 1 847 0
 3560 001c 00F0BF03 		and	r3, r0, #191
 3561              	.LVL370:
 3562              	.L217:
 3563              	.LBB470:
 3564              	.LBB471:
 3565              		.loc 1 887 0
 3566 0020 D4F88400 		ldr	r0, [r4, #132]
 3567 0024 94F87310 		ldrb	r1, [r4, #115]	@ zero_extendqisi2
 3568 0028 2322     		movs	r2, #35
 3569              	.LBE471:
 3570              	.LBE470:
 3571              	.LBE467:
 3572              		.loc 1 849 0
 3573 002a BDE87040 		pop	{r4, r5, r6, lr}
 3574              	.LVL371:
 3575              	.LBB474:
 3576              	.LBB473:
 3577              	.LBB472:
 3578              		.loc 1 887 0
 3579 002e FFF7FEBF 		b	_ZN7creator3I2C9WriteByteEhhh
 3580              	.LVL372:
 3581              	.LBE472:
 3582              	.LBE473:
 3583              	.LBE474:
 3584              		.cfi_endproc
 3585              	.LFE56:
 3586              		.fnend
 3587              		.size	_ZN7LSM9DS19sleepGyroEb, .-_ZN7LSM9DS19sleepGyroEb
 3588 0032 00BFAFF3 		.section	.text._ZN7LSM9DS110enableFIFOEb,"ax",%progbits
 3588      0080AFF3 
 3588      0080AFF3 
 3588      0080
ARM GAS  /tmp/ccxMPRSl.s 			page 65


 3589              		.align	2
 3590              		.p2align 4,,15
 3591              		.global	_ZN7LSM9DS110enableFIFOEb
 3592              		.thumb
 3593              		.thumb_func
 3594              		.type	_ZN7LSM9DS110enableFIFOEb, %function
 3595              	_ZN7LSM9DS110enableFIFOEb:
 3596              		.fnstart
 3597              	.LFB57:
 3598              		.loc 1 851 0
 3599              		.cfi_startproc
 3600              		@ args = 0, pretend = 0, frame = 0
 3601              		@ frame_needed = 0, uses_anonymous_args = 0
 3602              	.LVL373:
 3603 0000 70B5     		push	{r4, r5, r6, lr}
 3604              		.save {r4, r5, r6, lr}
 3605              		.cfi_def_cfa_offset 16
 3606              		.cfi_offset 4, -16
 3607              		.cfi_offset 5, -12
 3608              		.cfi_offset 6, -8
 3609              		.cfi_offset 14, -4
 3610              		.loc 1 851 0
 3611 0002 0446     		mov	r4, r0
 3612              	.LVL374:
 3613 0004 0D46     		mov	r5, r1
 3614              	.LBB475:
 3615              	.LBB476:
 3616              	.LBB477:
 3617              		.loc 1 895 0
 3618 0006 D0F88400 		ldr	r0, [r0, #132]
 3619              	.LVL375:
 3620 000a 94F87310 		ldrb	r1, [r4, #115]	@ zero_extendqisi2
 3621              	.LVL376:
 3622 000e 2322     		movs	r2, #35
 3623 0010 FFF7FEFF 		bl	_ZN7creator3I2C8ReadByteEhh
 3624              	.LVL377:
 3625              	.LBE477:
 3626              	.LBE476:
 3627              		.loc 1 854 0
 3628 0014 40F00203 		orr	r3, r0, #2
 3629 0018 DBB2     		uxtb	r3, r3
 3630              		.loc 1 853 0
 3631 001a 0DB9     		cbnz	r5, .L220
 3632              		.loc 1 856 0
 3633 001c 00F0FD03 		and	r3, r0, #253
 3634              	.LVL378:
 3635              	.L220:
 3636              	.LBB478:
 3637              	.LBB479:
 3638              		.loc 1 887 0
 3639 0020 D4F88400 		ldr	r0, [r4, #132]
 3640 0024 94F87310 		ldrb	r1, [r4, #115]	@ zero_extendqisi2
 3641 0028 2322     		movs	r2, #35
 3642              	.LBE479:
 3643              	.LBE478:
 3644              	.LBE475:
 3645              		.loc 1 858 0
ARM GAS  /tmp/ccxMPRSl.s 			page 66


 3646 002a BDE87040 		pop	{r4, r5, r6, lr}
 3647              	.LVL379:
 3648              	.LBB482:
 3649              	.LBB481:
 3650              	.LBB480:
 3651              		.loc 1 887 0
 3652 002e FFF7FEBF 		b	_ZN7creator3I2C9WriteByteEhhh
 3653              	.LVL380:
 3654              	.LBE480:
 3655              	.LBE481:
 3656              	.LBE482:
 3657              		.cfi_endproc
 3658              	.LFE57:
 3659              		.fnend
 3660              		.size	_ZN7LSM9DS110enableFIFOEb, .-_ZN7LSM9DS110enableFIFOEb
 3661 0032 00BFAFF3 		.section	.text._ZN7LSM9DS17setFIFOE13fifoMode_typeh,"ax",%progbits
 3661      0080AFF3 
 3661      0080AFF3 
 3661      0080
 3662              		.align	2
 3663              		.p2align 4,,15
 3664              		.global	_ZN7LSM9DS17setFIFOE13fifoMode_typeh
 3665              		.thumb
 3666              		.thumb_func
 3667              		.type	_ZN7LSM9DS17setFIFOE13fifoMode_typeh, %function
 3668              	_ZN7LSM9DS17setFIFOE13fifoMode_typeh:
 3669              		.fnstart
 3670              	.LFB58:
 3671              		.loc 1 860 0
 3672              		.cfi_startproc
 3673              		@ args = 0, pretend = 0, frame = 0
 3674              		@ frame_needed = 0, uses_anonymous_args = 0
 3675              		@ link register save eliminated.
 3676              	.LVL381:
 3677 0000 10B4     		push	{r4}
 3678              		.cfi_def_cfa_offset 4
 3679              		.cfi_offset 4, -4
 3680              	.LBB483:
 3681              		.loc 1 864 0
 3682 0002 4901     		lsls	r1, r1, #5
 3683              	.LVL382:
 3684 0004 1F2A     		cmp	r2, #31
 3685 0006 94BF     		ite	ls
 3686 0008 41EA0203 		orrls	r3, r1, r2
 3687 000c 41F01F03 		orrhi	r3, r1, #31
 3688              	.LBE483:
 3689              		.loc 1 860 0
 3690 0010 0446     		mov	r4, r0
 3691              	.LVL383:
 3692              	.LBB488:
 3693              	.LBB484:
 3694              	.LBB485:
 3695              		.loc 1 887 0
 3696 0012 94F87310 		ldrb	r1, [r4, #115]	@ zero_extendqisi2
 3697 0016 DBB2     		uxtb	r3, r3
 3698 0018 D0F88400 		ldr	r0, [r0, #132]
 3699              	.LVL384:
ARM GAS  /tmp/ccxMPRSl.s 			page 67


 3700 001c 2E22     		movs	r2, #46
 3701              	.LVL385:
 3702              	.LBE485:
 3703              	.LBE484:
 3704              	.LBE488:
 3705              		.loc 1 865 0
 3706 001e 5DF8044B 		ldr	r4, [sp], #4
 3707              	.LVL386:
 3708              	.LBB489:
 3709              	.LBB487:
 3710              	.LBB486:
 3711              		.loc 1 887 0
 3712 0022 FFF7FEBF 		b	_ZN7creator3I2C9WriteByteEhhh
 3713              	.LVL387:
 3714              	.LBE486:
 3715              	.LBE487:
 3716              	.LBE489:
 3717              		.cfi_endproc
 3718              	.LFE58:
 3719              		.cantunwind
 3720              		.fnend
 3721              		.size	_ZN7LSM9DS17setFIFOE13fifoMode_typeh, .-_ZN7LSM9DS17setFIFOE13fifoMode_typeh
 3722              		.global	__aeabi_f2d
 3723              		.global	__aeabi_ddiv
 3724              		.global	__aeabi_d2iz
 3725 0026 00BFAFF3 		.section	.text._ZN7LSM9DS19calibrateEb,"ax",%progbits
 3725      0080AFF3 
 3725      0080
 3726              		.align	2
 3727              		.p2align 4,,15
 3728              		.global	_ZN7LSM9DS19calibrateEb
 3729              		.thumb
 3730              		.thumb_func
 3731              		.type	_ZN7LSM9DS19calibrateEb, %function
 3732              	_ZN7LSM9DS19calibrateEb:
 3733              		.fnstart
 3734              	.LFB17:
 3735              		.loc 1 304 0
 3736              		.cfi_startproc
 3737              		@ args = 0, pretend = 0, frame = 40
 3738              		@ frame_needed = 0, uses_anonymous_args = 0
 3739              	.LVL388:
 3740 0000 2DE9F04F 		push	{r4, r5, r6, r7, r8, r9, r10, fp, lr}
 3741              		.save {r4, r5, r6, r7, r8, r9, r10, fp, lr}
 3742              		.cfi_def_cfa_offset 36
 3743              		.cfi_offset 4, -36
 3744              		.cfi_offset 5, -32
 3745              		.cfi_offset 6, -28
 3746              		.cfi_offset 7, -24
 3747              		.cfi_offset 8, -20
 3748              		.cfi_offset 9, -16
 3749              		.cfi_offset 10, -12
 3750              		.cfi_offset 11, -8
 3751              		.cfi_offset 14, -4
 3752              		.pad #44
 3753 0004 8BB0     		sub	sp, sp, #44
 3754              		.cfi_def_cfa_offset 80
ARM GAS  /tmp/ccxMPRSl.s 			page 68


 3755              	.LBB490:
 3756              		.loc 1 307 0
 3757 0006 0023     		movs	r3, #0
 3758              	.LBE490:
 3759              		.loc 1 304 0
 3760 0008 0291     		str	r1, [sp, #8]
 3761 000a 0446     		mov	r4, r0
 3762              	.LBB497:
 3763              		.loc 1 311 0
 3764 000c 0121     		movs	r1, #1
 3765              	.LVL389:
 3766              		.loc 1 307 0
 3767 000e 0493     		str	r3, [sp, #16]
 3768 0010 0593     		str	r3, [sp, #20]
 3769 0012 0693     		str	r3, [sp, #24]
 3770              		.loc 1 308 0
 3771 0014 0793     		str	r3, [sp, #28]
 3772 0016 0893     		str	r3, [sp, #32]
 3773 0018 0993     		str	r3, [sp, #36]
 3774              		.loc 1 311 0
 3775 001a FFF7FEFF 		bl	_ZN7LSM9DS110enableFIFOEb
 3776              	.LVL390:
 3777              		.loc 1 312 0
 3778 001e 2046     		mov	r0, r4
 3779 0020 0121     		movs	r1, #1
 3780 0022 1F22     		movs	r2, #31
 3781 0024 FFF7FEFF 		bl	_ZN7LSM9DS17setFIFOE13fifoMode_typeh
 3782              	.LVL391:
 3783              	.L224:
 3784              	.LBB491:
 3785              	.LBB492:
 3786              		.loc 1 895 0
 3787 0028 D4F88400 		ldr	r0, [r4, #132]
 3788 002c 94F87310 		ldrb	r1, [r4, #115]	@ zero_extendqisi2
 3789 0030 2F22     		movs	r2, #47
 3790 0032 FFF7FEFF 		bl	_ZN7creator3I2C8ReadByteEhh
 3791              	.LVL392:
 3792              	.LBE492:
 3793              	.LBE491:
 3794              		.loc 1 314 0
 3795 0036 00F03F00 		and	r0, r0, #63
 3796              	.LVL393:
 3797              		.loc 1 313 0
 3798 003a 1E28     		cmp	r0, #30
 3799 003c F4D9     		bls	.L224
 3800              	.LVL394:
 3801              		.loc 1 316 0 discriminator 1
 3802 003e 4FF0000C 		mov	ip, #0
 3803 0042 421C     		adds	r2, r0, #1
 3804 0044 E246     		mov	r10, ip
 3805 0046 6746     		mov	r7, ip
 3806 0048 E146     		mov	r9, ip
 3807 004a E046     		mov	r8, ip
 3808 004c 6646     		mov	r6, ip
 3809 004e 0192     		str	r2, [sp, #4]
 3810 0050 0125     		movs	r5, #1
 3811 0052 0390     		str	r0, [sp, #12]
ARM GAS  /tmp/ccxMPRSl.s 			page 69


 3812 0054 E346     		mov	fp, ip
 3813 0056 00E0     		b	.L226
 3814              	.LVL395:
 3815              	.L233:
 3816              		.loc 1 316 0 is_stmt 0
 3817 0058 9B46     		mov	fp, r3
 3818              	.L226:
 3819              	.LVL396:
 3820              		.loc 1 317 0 is_stmt 1
 3821 005a 2046     		mov	r0, r4
 3822 005c FFF7FEFF 		bl	_ZN7LSM9DS18readGyroEv
 3823              	.LVL397:
 3824              		.loc 1 318 0
 3825 0060 B4F92810 		ldrsh	r1, [r4, #40]
 3826              		.loc 1 319 0
 3827 0064 B4F92A20 		ldrsh	r2, [r4, #42]
 3828              		.loc 1 320 0
 3829 0068 B4F92C30 		ldrsh	r3, [r4, #44]
 3830              		.loc 1 318 0
 3831 006c 0E44     		add	r6, r6, r1
 3832              		.loc 1 319 0
 3833 006e 9044     		add	r8, r8, r2
 3834              		.loc 1 320 0
 3835 0070 9944     		add	r9, r9, r3
 3836              		.loc 1 321 0
 3837 0072 2046     		mov	r0, r4
 3838              		.loc 1 318 0
 3839 0074 0796     		str	r6, [sp, #28]
 3840              		.loc 1 319 0
 3841 0076 CDF82080 		str	r8, [sp, #32]
 3842              		.loc 1 320 0
 3843 007a CDF82490 		str	r9, [sp, #36]
 3844              		.loc 1 321 0
 3845 007e FFF7FEFF 		bl	_ZN7LSM9DS19readAccelEv
 3846              	.LVL398:
 3847              		.loc 1 324 0
 3848 0082 D4F878C0 		ldr	ip, [r4, #120]	@ float
 3849              		.loc 1 322 0
 3850 0086 B4F92E20 		ldrsh	r2, [r4, #46]
 3851              		.loc 1 323 0
 3852 008a B4F93030 		ldrsh	r3, [r4, #48]
 3853              		.loc 1 324 0
 3854 008e 6046     		mov	r0, ip
 3855              		.loc 1 322 0
 3856 0090 1744     		add	r7, r7, r2
 3857              		.loc 1 323 0
 3858 0092 9A44     		add	r10, r10, r3
 3859              		.loc 1 324 0
 3860 0094 CDF800C0 		str	ip, [sp]
 3861              		.loc 1 322 0
 3862 0098 0497     		str	r7, [sp, #16]
 3863              		.loc 1 323 0
 3864 009a CDF814A0 		str	r10, [sp, #20]
 3865              		.loc 1 324 0
 3866 009e FFF7FEFF 		bl	__aeabi_f2d
 3867              	.LVL399:
 3868 00a2 0B46     		mov	r3, r1
ARM GAS  /tmp/ccxMPRSl.s 			page 70


 3869 00a4 0021     		movs	r1, #0
 3870 00a6 0246     		mov	r2, r0
 3871 00a8 C3F6F071 		movt	r1, 16368
 3872 00ac 0020     		movs	r0, #0
 3873 00ae FFF7FEFF 		bl	__aeabi_ddiv
 3874              	.LVL400:
 3875 00b2 FFF7FEFF 		bl	__aeabi_d2iz
 3876              	.LVL401:
 3877 00b6 B4F93230 		ldrsh	r3, [r4, #50]
 3878 00ba 00B2     		sxth	r0, r0
 3879              		.loc 1 316 0
 3880 00bc 019A     		ldr	r2, [sp, #4]
 3881              		.loc 1 324 0
 3882 00be 1B1A     		subs	r3, r3, r0
 3883 00c0 0135     		adds	r5, r5, #1
 3884              	.LVL402:
 3885 00c2 5B44     		add	r3, r3, fp
 3886              		.loc 1 316 0
 3887 00c4 9542     		cmp	r5, r2
 3888              		.loc 1 324 0
 3889 00c6 0693     		str	r3, [sp, #24]
 3890              	.LVL403:
 3891              		.loc 1 316 0
 3892 00c8 DDF800C0 		ldr	ip, [sp]
 3893 00cc C4D1     		bne	.L233
 3894 00ce D4F87480 		ldr	r8, [r4, #116]	@ float
 3895 00d2 DDF80CB0 		ldr	fp, [sp, #12]
 3896              	.LVL404:
 3897 00d6 3046     		mov	r0, r6
 3898 00d8 A246     		mov	r10, r4
 3899 00da 4646     		mov	r6, r8
 3900 00dc A146     		mov	r9, r4
 3901 00de 0025     		movs	r5, #0
 3902 00e0 E046     		mov	r8, ip
 3903              	.LVL405:
 3904              	.L228:
 3905              		.loc 1 327 0 discriminator 2
 3906 00e2 90FBFBF0 		sdiv	r0, r0, fp
 3907 00e6 80B2     		uxth	r0, r0
 3908 00e8 AAF86000 		strh	r0, [r10, #96]	@ movhi
 3909              	.LVL406:
 3910              	.LBB493:
 3911              	.LBB494:
 3912              		.loc 1 537 0 discriminator 2
 3913 00ec 00B2     		sxth	r0, r0
 3914              	.LVL407:
 3915 00ee FFF7FEFF 		bl	__aeabi_i2f
 3916              	.LVL408:
 3917 00f2 3146     		mov	r1, r6
 3918 00f4 FFF7FEFF 		bl	__aeabi_fmul
 3919              	.LVL409:
 3920              	.LBE494:
 3921              	.LBE493:
 3922              		.loc 1 329 0 discriminator 2
 3923 00f8 97FBFBF3 		sdiv	r3, r7, fp
 3924 00fc 9BB2     		uxth	r3, r3
 3925              		.loc 1 328 0 discriminator 2
ARM GAS  /tmp/ccxMPRSl.s 			page 71


 3926 00fe C9F83C00 		str	r0, [r9, #60]	@ float
 3927              		.loc 1 329 0 discriminator 2
 3928 0102 AAF86630 		strh	r3, [r10, #102]	@ movhi
 3929              	.LVL410:
 3930              	.LBB495:
 3931              	.LBB496:
 3932              		.loc 1 542 0 discriminator 2
 3933 0106 18B2     		sxth	r0, r3
 3934 0108 FFF7FEFF 		bl	__aeabi_i2f
 3935              	.LVL411:
 3936 010c 4146     		mov	r1, r8
 3937 010e FFF7FEFF 		bl	__aeabi_fmul
 3938              	.LVL412:
 3939 0112 0435     		adds	r5, r5, #4
 3940              	.LBE496:
 3941              	.LBE495:
 3942              		.loc 1 326 0 discriminator 2
 3943 0114 0C2D     		cmp	r5, #12
 3944              		.loc 1 330 0 discriminator 2
 3945 0116 C9F84800 		str	r0, [r9, #72]	@ float
 3946 011a 0AF1020A 		add	r10, r10, #2
 3947 011e 09F10409 		add	r9, r9, #4
 3948              		.loc 1 326 0 discriminator 2
 3949 0122 06D0     		beq	.L227
 3950 0124 07AB     		add	r3, sp, #28
 3951 0126 E858     		ldr	r0, [r5, r3]
 3952 0128 05F11002 		add	r2, r5, #16
 3953 012c 6B46     		mov	r3, sp
 3954 012e D758     		ldr	r7, [r2, r3]
 3955              	.LVL413:
 3956 0130 D7E7     		b	.L228
 3957              	.LVL414:
 3958              	.L227:
 3959              		.loc 1 333 0
 3960 0132 2046     		mov	r0, r4
 3961 0134 0021     		movs	r1, #0
 3962 0136 FFF7FEFF 		bl	_ZN7LSM9DS110enableFIFOEb
 3963              	.LVL415:
 3964              		.loc 1 334 0
 3965 013a 0021     		movs	r1, #0
 3966 013c 2046     		mov	r0, r4
 3967 013e 0A46     		mov	r2, r1
 3968 0140 FFF7FEFF 		bl	_ZN7LSM9DS17setFIFOE13fifoMode_typeh
 3969              	.LVL416:
 3970              		.loc 1 336 0
 3971 0144 029B     		ldr	r3, [sp, #8]
 3972 0146 13B1     		cbz	r3, .L222
 3973              		.loc 1 336 0 is_stmt 0 discriminator 1
 3974 0148 0123     		movs	r3, #1
 3975 014a 84F88030 		strb	r3, [r4, #128]
 3976              	.L222:
 3977              	.LBE497:
 3978              		.loc 1 337 0 is_stmt 1
 3979 014e 0BB0     		add	sp, sp, #44
 3980              		@ sp needed
 3981 0150 BDE8F08F 		pop	{r4, r5, r6, r7, r8, r9, r10, fp, pc}
 3982              		.cfi_endproc
ARM GAS  /tmp/ccxMPRSl.s 			page 72


 3983              	.LFE17:
 3984              		.fnend
 3985              		.size	_ZN7LSM9DS19calibrateEb, .-_ZN7LSM9DS19calibrateEb
 3986 0154 AFF30080 		.section	.text._ZN7LSM9DS114getFIFOSamplesEv,"ax",%progbits
 3986      AFF30080 
 3986      AFF30080 
 3987              		.align	2
 3988              		.p2align 4,,15
 3989              		.global	_ZN7LSM9DS114getFIFOSamplesEv
 3990              		.thumb
 3991              		.thumb_func
 3992              		.type	_ZN7LSM9DS114getFIFOSamplesEv, %function
 3993              	_ZN7LSM9DS114getFIFOSamplesEv:
 3994              		.fnstart
 3995              	.LFB59:
 3996              		.loc 1 867 0
 3997              		.cfi_startproc
 3998              		@ args = 0, pretend = 0, frame = 0
 3999              		@ frame_needed = 0, uses_anonymous_args = 0
 4000              	.LVL417:
 4001 0000 08B5     		push	{r3, lr}
 4002              		.save {r3, lr}
 4003              		.cfi_def_cfa_offset 8
 4004              		.cfi_offset 3, -8
 4005              		.cfi_offset 14, -4
 4006              		.loc 1 867 0
 4007 0002 0346     		mov	r3, r0
 4008              	.LVL418:
 4009              	.LBB498:
 4010              	.LBB499:
 4011              		.loc 1 895 0
 4012 0004 93F87310 		ldrb	r1, [r3, #115]	@ zero_extendqisi2
 4013 0008 2F22     		movs	r2, #47
 4014 000a D0F88400 		ldr	r0, [r0, #132]
 4015              	.LVL419:
 4016 000e FFF7FEFF 		bl	_ZN7creator3I2C8ReadByteEhh
 4017              	.LVL420:
 4018              	.LBE499:
 4019              	.LBE498:
 4020              		.loc 1 867 0
 4021 0012 00F03F00 		and	r0, r0, #63
 4022 0016 08BD     		pop	{r3, pc}
 4023              		.cfi_endproc
 4024              	.LFE59:
 4025              		.fnend
 4026              		.size	_ZN7LSM9DS114getFIFOSamplesEv, .-_ZN7LSM9DS114getFIFOSamplesEv
 4027 0018 AFF30080 		.section	.text._ZN7LSM9DS115constrainScalesEv,"ax",%progbits
 4027      AFF30080 
 4028              		.align	2
 4029              		.p2align 4,,15
 4030              		.global	_ZN7LSM9DS115constrainScalesEv
 4031              		.thumb
 4032              		.thumb_func
 4033              		.type	_ZN7LSM9DS115constrainScalesEv, %function
 4034              	_ZN7LSM9DS115constrainScalesEv:
 4035              		.fnstart
 4036              	.LFB60:
ARM GAS  /tmp/ccxMPRSl.s 			page 73


 4037              		.loc 1 869 0
 4038              		.cfi_startproc
 4039              		@ args = 0, pretend = 0, frame = 0
 4040              		@ frame_needed = 0, uses_anonymous_args = 0
 4041              		@ link register save eliminated.
 4042              	.LVL421:
 4043              		.loc 1 870 0
 4044 0000 C388     		ldrh	r3, [r0, #6]
 4045 0002 F52B     		cmp	r3, #245
 4046 0004 18BF     		it	ne
 4047 0006 B3F5FA7F 		cmpne	r3, #500
 4048 000a 04D0     		beq	.L236
 4049              		.loc 1 870 0 is_stmt 0 discriminator 1
 4050 000c B3F5FA6F 		cmp	r3, #2000
 4051              		.loc 1 872 0 is_stmt 1 discriminator 1
 4052 0010 1CBF     		itt	ne
 4053 0012 F523     		movne	r3, #245
 4054 0014 C380     		strhne	r3, [r0, #6]	@ movhi
 4055              	.L236:
 4056              		.loc 1 875 0
 4057 0016 C37D     		ldrb	r3, [r0, #23]	@ zero_extendqisi2
 4058              		.loc 1 876 0
 4059 0018 022B     		cmp	r3, #2
 4060 001a 18BF     		it	ne
 4061 001c 042B     		cmpne	r3, #4
 4062 001e 05D0     		beq	.L238
 4063              		.loc 1 875 0 discriminator 1
 4064 0020 082B     		cmp	r3, #8
 4065 0022 03D0     		beq	.L238
 4066              		.loc 1 876 0
 4067 0024 102B     		cmp	r3, #16
 4068              		.loc 1 877 0
 4069 0026 1CBF     		itt	ne
 4070 0028 0223     		movne	r3, #2
 4071 002a C375     		strbne	r3, [r0, #23]
 4072              	.L238:
 4073              		.loc 1 880 0
 4074 002c 90F82030 		ldrb	r3, [r0, #32]	@ zero_extendqisi2
 4075 0030 03F0F702 		and	r2, r3, #247
 4076              		.loc 1 881 0
 4077 0034 042A     		cmp	r2, #4
 4078 0036 18BF     		it	ne
 4079 0038 082B     		cmpne	r3, #8
 4080 003a 05D0     		beq	.L235
 4081 003c 102B     		cmp	r3, #16
 4082              		.loc 1 882 0
 4083 003e 1CBF     		itt	ne
 4084 0040 0423     		movne	r3, #4
 4085 0042 80F82030 		strbne	r3, [r0, #32]
 4086              		.loc 1 881 0
 4087 0046 00D0     		beq	.L254
 4088              	.L235:
 4089 0048 7047     		bx	lr
 4090              	.L254:
 4091 004a 7047     		bx	lr
 4092              		.cfi_endproc
 4093              	.LFE60:
ARM GAS  /tmp/ccxMPRSl.s 			page 74


 4094              		.cantunwind
 4095              		.fnend
 4096              		.size	_ZN7LSM9DS115constrainScalesEv, .-_ZN7LSM9DS115constrainScalesEv
 4097 004c AFF30080 		.section	.text._ZN7LSM9DS15beginEv,"ax",%progbits
 4098              		.align	2
 4099              		.p2align 4,,15
 4100              		.global	_ZN7LSM9DS15beginEv
 4101              		.thumb
 4102              		.thumb_func
 4103              		.type	_ZN7LSM9DS15beginEv, %function
 4104              	_ZN7LSM9DS15beginEv:
 4105              		.fnstart
 4106              	.LFB14:
 4107              		.loc 1 131 0
 4108              		.cfi_startproc
 4109              		@ args = 0, pretend = 0, frame = 0
 4110              		@ frame_needed = 0, uses_anonymous_args = 0
 4111              	.LVL422:
 4112 0000 38B5     		push	{r3, r4, r5, lr}
 4113              		.save {r3, r4, r5, lr}
 4114              		.cfi_def_cfa_offset 16
 4115              		.cfi_offset 3, -16
 4116              		.cfi_offset 4, -12
 4117              		.cfi_offset 5, -8
 4118              		.cfi_offset 14, -4
 4119              	.LBB500:
 4120              		.loc 1 134 0
 4121 0002 8378     		ldrb	r3, [r0, #2]	@ zero_extendqisi2
 4122              		.loc 1 133 0
 4123 0004 4278     		ldrb	r2, [r0, #1]	@ zero_extendqisi2
 4124              	.LBE500:
 4125              		.loc 1 131 0
 4126 0006 0446     		mov	r4, r0
 4127              	.LBB517:
 4128              		.loc 1 134 0
 4129 0008 80F87230 		strb	r3, [r0, #114]
 4130              		.loc 1 133 0
 4131 000c 80F87320 		strb	r2, [r0, #115]
 4132              		.loc 1 136 0
 4133 0010 FFF7FEFF 		bl	_ZN7LSM9DS115constrainScalesEv
 4134              	.LVL423:
 4135              	.LBB501:
 4136              	.LBB502:
 4137              		.loc 1 678 0
 4138 0014 E088     		ldrh	r0, [r4, #6]
 4139 0016 FFF7FEFF 		bl	__aeabi_ui2f
 4140              	.LVL424:
 4141 001a 4FF06051 		mov	r1, #939524096
 4142 001e FFF7FEFF 		bl	__aeabi_fmul
 4143              	.LVL425:
 4144 0022 6067     		str	r0, [r4, #116]	@ float
 4145              	.LBE502:
 4146              	.LBE501:
 4147              		.loc 1 140 0
 4148 0024 2046     		mov	r0, r4
 4149 0026 FFF7FEFF 		bl	_ZN7LSM9DS18calcmResEv
 4150              	.LVL426:
ARM GAS  /tmp/ccxMPRSl.s 			page 75


 4151              	.LBB503:
 4152              	.LBB504:
 4153              		.loc 1 680 0
 4154 002a E07D     		ldrb	r0, [r4, #23]	@ zero_extendqisi2
 4155 002c FFF7FEFF 		bl	__aeabi_ui2f
 4156              	.LVL427:
 4157 0030 4FF06051 		mov	r1, #939524096
 4158 0034 FFF7FEFF 		bl	__aeabi_fmul
 4159              	.LVL428:
 4160              	.LBE504:
 4161              	.LBE503:
 4162              	.LBB506:
 4163              	.LBB507:
 4164              		.loc 1 903 0
 4165 0038 94F87210 		ldrb	r1, [r4, #114]	@ zero_extendqisi2
 4166              	.LBE507:
 4167              	.LBE506:
 4168              	.LBB510:
 4169              	.LBB505:
 4170              		.loc 1 680 0
 4171 003c A067     		str	r0, [r4, #120]	@ float
 4172              	.LVL429:
 4173              	.LBE505:
 4174              	.LBE510:
 4175              	.LBB511:
 4176              	.LBB508:
 4177              		.loc 1 903 0
 4178 003e 0F22     		movs	r2, #15
 4179 0040 D4F88400 		ldr	r0, [r4, #132]
 4180 0044 FFF7FEFF 		bl	_ZN7creator3I2C8ReadByteEhh
 4181              	.LVL430:
 4182              	.LBE508:
 4183              	.LBE511:
 4184              	.LBB512:
 4185              	.LBB513:
 4186              		.loc 1 895 0
 4187 0048 94F87310 		ldrb	r1, [r4, #115]	@ zero_extendqisi2
 4188              	.LBE513:
 4189              	.LBE512:
 4190              	.LBB515:
 4191              	.LBB509:
 4192              		.loc 1 903 0
 4193 004c 0546     		mov	r5, r0
 4194              	.LVL431:
 4195              	.LBE509:
 4196              	.LBE515:
 4197              	.LBB516:
 4198              	.LBB514:
 4199              		.loc 1 895 0
 4200 004e 0F22     		movs	r2, #15
 4201 0050 D4F88400 		ldr	r0, [r4, #132]
 4202              	.LVL432:
 4203 0054 FFF7FEFF 		bl	_ZN7creator3I2C8ReadByteEhh
 4204              	.LVL433:
 4205              	.LBE514:
 4206              	.LBE516:
 4207              		.loc 1 147 0
ARM GAS  /tmp/ccxMPRSl.s 			page 76


 4208 0058 45EA0020 		orr	r0, r5, r0, lsl #8
 4209              	.LVL434:
 4210              		.loc 1 149 0
 4211 005c 05B2     		sxth	r5, r0
 4212              	.LVL435:
 4213 005e 46F63D03 		movw	r3, #26685
 4214 0062 9D42     		cmp	r5, r3
 4215 0064 01D0     		beq	.L258
 4216 0066 0020     		movs	r0, #0
 4217              	.LBE517:
 4218              		.loc 1 162 0
 4219 0068 38BD     		pop	{r3, r4, r5, pc}
 4220              	.LVL436:
 4221              	.L258:
 4222              	.LBB518:
 4223              		.loc 1 152 0
 4224 006a 2046     		mov	r0, r4
 4225 006c FFF7FEFF 		bl	_ZN7LSM9DS18initGyroEv
 4226              	.LVL437:
 4227              		.loc 1 155 0
 4228 0070 2046     		mov	r0, r4
 4229 0072 FFF7FEFF 		bl	_ZN7LSM9DS19initAccelEv
 4230              	.LVL438:
 4231              		.loc 1 158 0
 4232 0076 2046     		mov	r0, r4
 4233 0078 FFF7FEFF 		bl	_ZN7LSM9DS17initMagEv
 4234              	.LVL439:
 4235              		.loc 1 161 0
 4236 007c 2846     		mov	r0, r5
 4237 007e 38BD     		pop	{r3, r4, r5, pc}
 4238              	.LBE518:
 4239              		.cfi_endproc
 4240              	.LFE14:
 4241              		.fnend
 4242              		.size	_ZN7LSM9DS15beginEv, .-_ZN7LSM9DS15beginEv
 4243              		.section	.text._ZN7LSM9DS111xgWriteByteEhh,"ax",%progbits
 4244              		.align	2
 4245              		.p2align 4,,15
 4246              		.global	_ZN7LSM9DS111xgWriteByteEhh
 4247              		.thumb
 4248              		.thumb_func
 4249              		.type	_ZN7LSM9DS111xgWriteByteEhh, %function
 4250              	_ZN7LSM9DS111xgWriteByteEhh:
 4251              		.fnstart
 4252              	.LFB61:
 4253              		.loc 1 886 0
 4254              		.cfi_startproc
 4255              		@ args = 0, pretend = 0, frame = 0
 4256              		@ frame_needed = 0, uses_anonymous_args = 0
 4257              		@ link register save eliminated.
 4258              	.LVL440:
 4259 0000 10B4     		push	{r4}
 4260              		.cfi_def_cfa_offset 4
 4261              		.cfi_offset 4, -4
 4262              		.loc 1 886 0
 4263 0002 0446     		mov	r4, r0
 4264 0004 1346     		mov	r3, r2
ARM GAS  /tmp/ccxMPRSl.s 			page 77


 4265              		.loc 1 887 0
 4266 0006 D0F88400 		ldr	r0, [r0, #132]
 4267              	.LVL441:
 4268 000a 0A46     		mov	r2, r1
 4269              	.LVL442:
 4270 000c 94F87310 		ldrb	r1, [r4, #115]	@ zero_extendqisi2
 4271              	.LVL443:
 4272              		.loc 1 888 0
 4273 0010 5DF8044B 		ldr	r4, [sp], #4
 4274              	.LVL444:
 4275              		.loc 1 887 0
 4276 0014 FFF7FEBF 		b	_ZN7creator3I2C9WriteByteEhhh
 4277              	.LVL445:
 4278              		.cfi_endproc
 4279              	.LFE61:
 4280              		.cantunwind
 4281              		.fnend
 4282              		.size	_ZN7LSM9DS111xgWriteByteEhh, .-_ZN7LSM9DS111xgWriteByteEhh
 4283 0018 AFF30080 		.section	.text._ZN7LSM9DS110mWriteByteEhh,"ax",%progbits
 4283      AFF30080 
 4284              		.align	2
 4285              		.p2align 4,,15
 4286              		.global	_ZN7LSM9DS110mWriteByteEhh
 4287              		.thumb
 4288              		.thumb_func
 4289              		.type	_ZN7LSM9DS110mWriteByteEhh, %function
 4290              	_ZN7LSM9DS110mWriteByteEhh:
 4291              		.fnstart
 4292              	.LFB62:
 4293              		.loc 1 890 0
 4294              		.cfi_startproc
 4295              		@ args = 0, pretend = 0, frame = 0
 4296              		@ frame_needed = 0, uses_anonymous_args = 0
 4297              		@ link register save eliminated.
 4298              	.LVL446:
 4299 0000 10B4     		push	{r4}
 4300              		.cfi_def_cfa_offset 4
 4301              		.cfi_offset 4, -4
 4302              		.loc 1 890 0
 4303 0002 0446     		mov	r4, r0
 4304 0004 1346     		mov	r3, r2
 4305              		.loc 1 891 0
 4306 0006 D0F88400 		ldr	r0, [r0, #132]
 4307              	.LVL447:
 4308 000a 0A46     		mov	r2, r1
 4309              	.LVL448:
 4310 000c 94F87210 		ldrb	r1, [r4, #114]	@ zero_extendqisi2
 4311              	.LVL449:
 4312              		.loc 1 892 0
 4313 0010 5DF8044B 		ldr	r4, [sp], #4
 4314              	.LVL450:
 4315              		.loc 1 891 0
 4316 0014 FFF7FEBF 		b	_ZN7creator3I2C9WriteByteEhhh
 4317              	.LVL451:
 4318              		.cfi_endproc
 4319              	.LFE62:
 4320              		.cantunwind
ARM GAS  /tmp/ccxMPRSl.s 			page 78


 4321              		.fnend
 4322              		.size	_ZN7LSM9DS110mWriteByteEhh, .-_ZN7LSM9DS110mWriteByteEhh
 4323 0018 AFF30080 		.section	.text._ZN7LSM9DS110xgReadByteEh,"ax",%progbits
 4323      AFF30080 
 4324              		.align	2
 4325              		.p2align 4,,15
 4326              		.global	_ZN7LSM9DS110xgReadByteEh
 4327              		.thumb
 4328              		.thumb_func
 4329              		.type	_ZN7LSM9DS110xgReadByteEh, %function
 4330              	_ZN7LSM9DS110xgReadByteEh:
 4331              		.fnstart
 4332              	.LFB63:
 4333              		.loc 1 894 0
 4334              		.cfi_startproc
 4335              		@ args = 0, pretend = 0, frame = 0
 4336              		@ frame_needed = 0, uses_anonymous_args = 0
 4337              		@ link register save eliminated.
 4338              	.LVL452:
 4339              		.loc 1 894 0
 4340 0000 0346     		mov	r3, r0
 4341 0002 0A46     		mov	r2, r1
 4342              		.loc 1 895 0
 4343 0004 D0F88400 		ldr	r0, [r0, #132]
 4344              	.LVL453:
 4345 0008 93F87310 		ldrb	r1, [r3, #115]	@ zero_extendqisi2
 4346              	.LVL454:
 4347 000c FFF7FEBF 		b	_ZN7creator3I2C8ReadByteEhh
 4348              	.LVL455:
 4349              		.cfi_endproc
 4350              	.LFE63:
 4351              		.cantunwind
 4352              		.fnend
 4353              		.size	_ZN7LSM9DS110xgReadByteEh, .-_ZN7LSM9DS110xgReadByteEh
 4354              		.section	.text._ZN7LSM9DS111xgReadBytesEhPhh,"ax",%progbits
 4355              		.align	2
 4356              		.p2align 4,,15
 4357              		.global	_ZN7LSM9DS111xgReadBytesEhPhh
 4358              		.thumb
 4359              		.thumb_func
 4360              		.type	_ZN7LSM9DS111xgReadBytesEhPhh, %function
 4361              	_ZN7LSM9DS111xgReadBytesEhPhh:
 4362              		.fnstart
 4363              	.LFB64:
 4364              		.loc 1 898 0
 4365              		.cfi_startproc
 4366              		@ args = 0, pretend = 0, frame = 0
 4367              		@ frame_needed = 0, uses_anonymous_args = 0
 4368              	.LVL456:
 4369 0000 30B5     		push	{r4, r5, lr}
 4370              		.save {r4, r5, lr}
 4371              		.cfi_def_cfa_offset 12
 4372              		.cfi_offset 4, -12
 4373              		.cfi_offset 5, -8
 4374              		.cfi_offset 14, -4
 4375              		.loc 1 899 0
 4376 0002 D0F88450 		ldr	r5, [r0, #132]
ARM GAS  /tmp/ccxMPRSl.s 			page 79


 4377 0006 90F87340 		ldrb	r4, [r0, #115]	@ zero_extendqisi2
 4378              		.loc 1 898 0
 4379              		.pad #12
 4380 000a 83B0     		sub	sp, sp, #12
 4381              		.cfi_def_cfa_offset 24
 4382              		.loc 1 898 0
 4383 000c 1046     		mov	r0, r2
 4384              	.LVL457:
 4385              		.loc 1 899 0
 4386 000e 0093     		str	r3, [sp]
 4387 0010 0A46     		mov	r2, r1
 4388              	.LVL458:
 4389 0012 0346     		mov	r3, r0
 4390              	.LVL459:
 4391 0014 2146     		mov	r1, r4
 4392              	.LVL460:
 4393 0016 2846     		mov	r0, r5
 4394              	.LVL461:
 4395 0018 FFF7FEFF 		bl	_ZN7creator3I2C9ReadBytesEhhPhh
 4396              	.LVL462:
 4397              		.loc 1 900 0
 4398 001c 03B0     		add	sp, sp, #12
 4399              		@ sp needed
 4400 001e 30BD     		pop	{r4, r5, pc}
 4401              		.cfi_endproc
 4402              	.LFE64:
 4403              		.fnend
 4404              		.size	_ZN7LSM9DS111xgReadBytesEhPhh, .-_ZN7LSM9DS111xgReadBytesEhPhh
 4405              		.section	.text._ZN7LSM9DS19mReadByteEh,"ax",%progbits
 4406              		.align	2
 4407              		.p2align 4,,15
 4408              		.global	_ZN7LSM9DS19mReadByteEh
 4409              		.thumb
 4410              		.thumb_func
 4411              		.type	_ZN7LSM9DS19mReadByteEh, %function
 4412              	_ZN7LSM9DS19mReadByteEh:
 4413              		.fnstart
 4414              	.LFB65:
 4415              		.loc 1 902 0
 4416              		.cfi_startproc
 4417              		@ args = 0, pretend = 0, frame = 0
 4418              		@ frame_needed = 0, uses_anonymous_args = 0
 4419              		@ link register save eliminated.
 4420              	.LVL463:
 4421              		.loc 1 902 0
 4422 0000 0346     		mov	r3, r0
 4423 0002 0A46     		mov	r2, r1
 4424              		.loc 1 903 0
 4425 0004 D0F88400 		ldr	r0, [r0, #132]
 4426              	.LVL464:
 4427 0008 93F87210 		ldrb	r1, [r3, #114]	@ zero_extendqisi2
 4428              	.LVL465:
 4429 000c FFF7FEBF 		b	_ZN7creator3I2C8ReadByteEhh
 4430              	.LVL466:
 4431              		.cfi_endproc
 4432              	.LFE65:
 4433              		.cantunwind
ARM GAS  /tmp/ccxMPRSl.s 			page 80


 4434              		.fnend
 4435              		.size	_ZN7LSM9DS19mReadByteEh, .-_ZN7LSM9DS19mReadByteEh
 4436              		.section	.text._ZN7LSM9DS110mReadBytesEhPhh,"ax",%progbits
 4437              		.align	2
 4438              		.p2align 4,,15
 4439              		.global	_ZN7LSM9DS110mReadBytesEhPhh
 4440              		.thumb
 4441              		.thumb_func
 4442              		.type	_ZN7LSM9DS110mReadBytesEhPhh, %function
 4443              	_ZN7LSM9DS110mReadBytesEhPhh:
 4444              		.fnstart
 4445              	.LFB66:
 4446              		.loc 1 906 0
 4447              		.cfi_startproc
 4448              		@ args = 0, pretend = 0, frame = 0
 4449              		@ frame_needed = 0, uses_anonymous_args = 0
 4450              	.LVL467:
 4451 0000 30B5     		push	{r4, r5, lr}
 4452              		.save {r4, r5, lr}
 4453              		.cfi_def_cfa_offset 12
 4454              		.cfi_offset 4, -12
 4455              		.cfi_offset 5, -8
 4456              		.cfi_offset 14, -4
 4457              		.loc 1 907 0
 4458 0002 D0F88450 		ldr	r5, [r0, #132]
 4459 0006 90F87240 		ldrb	r4, [r0, #114]	@ zero_extendqisi2
 4460              		.loc 1 906 0
 4461              		.pad #12
 4462 000a 83B0     		sub	sp, sp, #12
 4463              		.cfi_def_cfa_offset 24
 4464              		.loc 1 906 0
 4465 000c 1046     		mov	r0, r2
 4466              	.LVL468:
 4467              		.loc 1 907 0
 4468 000e 0093     		str	r3, [sp]
 4469 0010 0A46     		mov	r2, r1
 4470              	.LVL469:
 4471 0012 0346     		mov	r3, r0
 4472              	.LVL470:
 4473 0014 2146     		mov	r1, r4
 4474              	.LVL471:
 4475 0016 2846     		mov	r0, r5
 4476              	.LVL472:
 4477 0018 FFF7FEFF 		bl	_ZN7creator3I2C9ReadBytesEhhPhh
 4478              	.LVL473:
 4479              		.loc 1 908 0
 4480 001c 03B0     		add	sp, sp, #12
 4481              		@ sp needed
 4482 001e 30BD     		pop	{r4, r5, pc}
 4483              		.cfi_endproc
 4484              	.LFE66:
 4485              		.fnend
 4486              		.size	_ZN7LSM9DS110mReadBytesEhPhh, .-_ZN7LSM9DS110mReadBytesEhPhh
 4487              		.global	magSensitivity
 4488              		.section	.rodata.CSWTCH.42,"a",%progbits
 4489              		.align	2
 4490              		.set	.LANCHOR0,. + 0
ARM GAS  /tmp/ccxMPRSl.s 			page 81


 4491              		.type	CSWTCH.42, %object
 4492              		.size	CSWTCH.42, 9
 4493              	CSWTCH.42:
 4494 0000 20       		.byte	32
 4495 0001 00       		.byte	0
 4496 0002 00       		.byte	0
 4497 0003 00       		.byte	0
 4498 0004 40       		.byte	64
 4499 0005 00       		.byte	0
 4500 0006 00       		.byte	0
 4501 0007 00       		.byte	0
 4502 0008 60       		.byte	96
 4503 0009 000000   		.section	.data.magSensitivity,"aw",%progbits
 4504              		.align	2
 4505              		.set	.LANCHOR1,. + 0
 4506              		.type	magSensitivity, %object
 4507              		.size	magSensitivity, 16
 4508              	magSensitivity:
 4509 0000 F7CC1239 		.word	957533431
 4510 0004 240B9839 		.word	966265636
 4511 0008 9F71E139 		.word	971075999
 4512 000c 240B183A 		.word	974654244
 4513              		.text
 4514              	.Letext0:
 4515              		.file 2 "/home/santi/arm-2013.11/arm-none-eabi/include/stdint.h"
 4516              		.file 3 "lsm9ds1_types.h"
 4517              		.file 4 "../third_party/ChibiOS/os/hal/platforms/AT91SAM3S/SAM3S.h"
 4518              		.file 5 "../third_party/ChibiOS/os/hal/platforms/AT91SAM3S/async.h"
 4519              		.file 6 "../third_party/ChibiOS/os/hal/platforms/AT91SAM3S/atmel_twid.h"
 4520              		.file 7 "./i2c.h"
 4521              		.file 8 "lsm9ds1.h"