ARM GAS  /tmp/cczVQ4UU.s 			page 1


   1              		.syntax unified
   2              		.cpu cortex-m3
   3              		.fpu softvfp
   4              		.eabi_attribute 20, 1
   5              		.eabi_attribute 21, 1
   6              		.eabi_attribute 23, 3
   7              		.eabi_attribute 24, 1
   8              		.eabi_attribute 25, 1
   9              		.eabi_attribute 26, 1
  10              		.eabi_attribute 30, 2
  11              		.eabi_attribute 34, 1
  12              		.eabi_attribute 18, 4
  13              		.thumb
  14              		.file	"main.cpp"
  15              		.text
  16              	.Ltext0:
  17              		.cfi_sections	.debug_frame
  18              		.section	.text._ZL9EnvThreadPv,"ax",%progbits
  19              		.align	2
  20              		.p2align 4,,15
  21              		.thumb
  22              		.thumb_func
  23              		.type	_ZL9EnvThreadPv, %function
  24              	_ZL9EnvThreadPv:
  25              		.fnstart
  26              	.LFB37:
  27              		.file 1 "main.cpp"
  28              		.loc 1 57 0
  29              		.cfi_startproc
  30              		@ args = 0, pretend = 0, frame = 88
  31              		@ frame_needed = 0, uses_anonymous_args = 0
  32              	.LVL0:
  33 0000 F0B5     		push	{r4, r5, r6, r7, lr}
  34              		.save {r4, r5, r6, r7, lr}
  35              		.cfi_def_cfa_offset 20
  36              		.cfi_offset 4, -20
  37              		.cfi_offset 5, -16
  38              		.cfi_offset 6, -12
  39              		.cfi_offset 7, -8
  40              		.cfi_offset 14, -4
  41              	.LBB24:
  42              		.loc 1 60 0
  43 0002 40F20001 		movw	r1, #:lower16:.LANCHOR0
  44              	.LBE24:
  45              		.loc 1 57 0
  46              		.pad #92
  47 0006 97B0     		sub	sp, sp, #92
  48              		.cfi_def_cfa_offset 112
  49              	.LBB55:
  50              		.loc 1 60 0
  51 0008 C0F20001 		movt	r1, #:upper16:.LANCHOR0
  52 000c 6022     		movs	r2, #96
  53 000e 6846     		mov	r0, sp
  54              	.LVL1:
  55 0010 FFF7FEFF 		bl	_ZN7creator9MPL3115A2C1EPNS_3I2CEh
  56              	.LVL2:
  57              		.loc 1 61 0
ARM GAS  /tmp/cczVQ4UU.s 			page 2


  58 0014 40F20001 		movw	r1, #:lower16:.LANCHOR0
  59 0018 5F22     		movs	r2, #95
  60 001a C0F20001 		movt	r1, #:upper16:.LANCHOR0
  61 001e 0BA8     		add	r0, sp, #44
  62 0020 FFF7FEFF 		bl	_ZN7creator6HTS221C1EPNS_3I2CEh
  63              	.LVL3:
  64              		.loc 1 62 0
  65 0024 40F20001 		movw	r1, #:lower16:.LANCHOR0
  66 0028 C0F20001 		movt	r1, #:upper16:.LANCHOR0
  67 002c 02A8     		add	r0, sp, #8
  68 002e FFF7FEFF 		bl	_ZN7creator8VEML6070C1EPNS_3I2CE
  69              	.LVL4:
  70              		.loc 1 64 0
  71 0032 6846     		mov	r0, sp
  72 0034 FFF7FEFF 		bl	_ZN7creator9MPL3115A25BeginEv
  73              	.LVL5:
  74              		.loc 1 65 0
  75 0038 0BA8     		add	r0, sp, #44
  76 003a FFF7FEFF 		bl	_ZN7creator6HTS2215BeginEv
  77              	.LVL6:
  78              		.loc 1 66 0
  79 003e 02A8     		add	r0, sp, #8
  80 0040 FFF7FEFF 		bl	_ZN7creator8VEML60705BeginEv
  81              	.LVL7:
  82              		.loc 1 74 0
  83 0044 41F21703 		movw	r3, #4119
  84 0048 C0F21703 		movt	r3, 23
  85              		.loc 1 73 0
  86 004c 1022     		movs	r2, #16
  87              		.loc 1 77 0
  88 004e 4FF49054 		mov	r4, #4608
  89 0052 4FF40035 		mov	r5, #131072
  90              	.LBB25:
  91              	.LBB26:
  92              	.LBB27:
  93              		.loc 1 51 0
  94 0056 9727     		movs	r7, #151
  95              	.LBE27:
  96              	.LBE26:
  97              	.LBE25:
  98              		.loc 1 74 0
  99 0058 0793     		str	r3, [sp, #28]
 100              		.loc 1 73 0
 101 005a 0692     		str	r2, [sp, #24]
 102              		.loc 1 77 0
 103 005c C4F20E04 		movt	r4, 16398
 104 0060 2E46     		mov	r6, r5
 105              	.LBB34:
 106              	.LBB31:
 107              	.LBB28:
 108              		.loc 1 51 0
 109 0062 C6F20037 		movt	r7, 25344
 110              	.L8:
 111              	.LBE28:
 112              	.LBE31:
 113              	.LBE34:
 114              		.loc 1 78 0
ARM GAS  /tmp/cczVQ4UU.s 			page 3


 115 0066 0120     		movs	r0, #1
 116              		.loc 1 77 0
 117 0068 2663     		str	r6, [r4, #48]
 118              		.loc 1 78 0
 119 006a FFF7FEFF 		bl	chThdSleep
 120              	.LVL8:
 121              		.loc 1 81 0
 122 006e 05AA     		add	r2, sp, #20
 123 0070 04A9     		add	r1, sp, #16
 124 0072 0BA8     		add	r0, sp, #44
 125              		.loc 1 79 0
 126 0074 6563     		str	r5, [r4, #52]
 127              		.loc 1 81 0
 128 0076 FFF7FEFF 		bl	_ZN7creator6HTS2217GetDataERfS1_
 129              	.LVL9:
 130              		.loc 1 83 0
 131 007a 6846     		mov	r0, sp
 132 007c FFF7FEFF 		bl	_ZN7creator9MPL3115A211GetAltitudeEv
 133              	.LVL10:
 134 0080 0890     		str	r0, [sp, #32]	@ float
 135              		.loc 1 84 0
 136 0082 6846     		mov	r0, sp
 137 0084 FFF7FEFF 		bl	_ZN7creator9MPL3115A211GetPressureEv
 138              	.LVL11:
 139 0088 0990     		str	r0, [sp, #36]	@ float
 140              		.loc 1 85 0
 141 008a 6846     		mov	r0, sp
 142 008c FFF7FEFF 		bl	_ZN7creator9MPL3115A214GetTemperatureEv
 143              	.LVL12:
 144 0090 0A90     		str	r0, [sp, #40]	@ float
 145              		.loc 1 87 0
 146 0092 02A8     		add	r0, sp, #8
 147 0094 FFF7FEFF 		bl	_ZN7creator8VEML60705GetUVEv
 148              	.LVL13:
 149 0098 8F23     		movs	r3, #143
 150 009a C6F20033 		movt	r3, 25344
 151 009e 0DF11702 		add	r2, sp, #23
 152              	.LVL14:
 153              	.L3:
 154              	.LBB35:
 155              	.LBB32:
 156              	.LBB29:
 157              		.loc 1 52 0
 158 00a2 12F8011F 		ldrb	r1, [r2, #1]!	@ zero_extendqisi2
 159 00a6 03F8011F 		strb	r1, [r3, #1]!
 160              	.LVL15:
 161              		.loc 1 51 0
 162 00aa BB42     		cmp	r3, r7
 163 00ac F9D1     		bne	.L3
 164 00ae 0F23     		movs	r3, #15
 165              	.LVL16:
 166              	.LBE29:
 167              	.LBE32:
 168              	.LBE35:
 169              	.LBB36:
 170              	.LBB37:
 171              	.LBB38:
ARM GAS  /tmp/cczVQ4UU.s 			page 4


 172 00b0 4FF01B0E 		mov	lr, #27
 173              	.LBE38:
 174              	.LBE37:
 175              	.LBE36:
 176              	.LBB43:
 177              	.LBB33:
 178              	.LBB30:
 179 00b4 C6F20033 		movt	r3, 25344
 180              	.LBE30:
 181              	.LBE33:
 182              	.LBE43:
 183              	.LBB44:
 184              	.LBB41:
 185              	.LBB39:
 186 00b8 C6F2003E 		movt	lr, 25344
 187 00bc 0DF11F02 		add	r2, sp, #31
 188              	.L5:
 189              	.LVL17:
 190              		.loc 1 52 0
 191 00c0 12F8011F 		ldrb	r1, [r2, #1]!	@ zero_extendqisi2
 192 00c4 03F8011F 		strb	r1, [r3, #1]!
 193              	.LVL18:
 194              		.loc 1 51 0
 195 00c8 7345     		cmp	r3, lr
 196 00ca F9D1     		bne	.L5
 197 00cc 1F23     		movs	r3, #31
 198              	.LVL19:
 199              	.LBE39:
 200              	.LBE41:
 201              	.LBE44:
 202              	.LBB45:
 203              	.LBB46:
 204              	.LBB47:
 205 00ce 4FF0270E 		mov	lr, #39
 206              	.LBE47:
 207              	.LBE46:
 208              	.LBE45:
 209              	.LBB50:
 210              	.LBB42:
 211              	.LBB40:
 212 00d2 C6F20033 		movt	r3, 25344
 213              	.LBE40:
 214              	.LBE42:
 215              	.LBE50:
 216              	.LBB51:
 217              	.LBB49:
 218              	.LBB48:
 219 00d6 C6F2003E 		movt	lr, 25344
 220 00da 0DF10F02 		add	r2, sp, #15
 221              	.L7:
 222              	.LVL20:
 223              		.loc 1 52 0
 224 00de 12F8011F 		ldrb	r1, [r2, #1]!	@ zero_extendqisi2
 225 00e2 03F8011F 		strb	r1, [r3, #1]!
 226              	.LVL21:
 227              		.loc 1 51 0
 228 00e6 7345     		cmp	r3, lr
ARM GAS  /tmp/cczVQ4UU.s 			page 5


 229 00e8 F9D1     		bne	.L7
 230              	.LVL22:
 231              	.LBE48:
 232              	.LBE49:
 233              	.LBE51:
 234              	.LBB52:
 235              	.LBB53:
 236              	.LBB54:
 237              		.loc 1 52 0
 238 00ea 4FF0C641 		mov	r1, #1660944384
 239 00ee 0123     		movs	r3, #1
 240              	.LVL23:
 241 00f0 0870     		strb	r0, [r1]
 242              	.LVL24:
 243 00f2 C6F20033 		movt	r3, 25344
 244 00f6 C0F30721 		ubfx	r1, r0, #8, #8
 245 00fa 1970     		strb	r1, [r3]
 246              	.LVL25:
 247 00fc 0222     		movs	r2, #2
 248 00fe 0323     		movs	r3, #3
 249 0100 C0F30741 		ubfx	r1, r0, #16, #8
 250 0104 C6F20032 		movt	r2, 25344
 251 0108 C0F30760 		ubfx	r0, r0, #24, #8
 252 010c C6F20033 		movt	r3, 25344
 253 0110 1170     		strb	r1, [r2]
 254              	.LVL26:
 255 0112 1870     		strb	r0, [r3]
 256              	.LVL27:
 257 0114 A7E7     		b	.L8
 258              	.LBE54:
 259              	.LBE53:
 260              	.LBE52:
 261              	.LBE55:
 262              		.cfi_endproc
 263              	.LFE37:
 264              		.fnend
 265              		.size	_ZL9EnvThreadPv, .-_ZL9EnvThreadPv
 266              		.global	__aeabi_f2d
 267              		.global	__aeabi_dmul
 268              		.global	__aeabi_ddiv
 269              		.global	__aeabi_d2f
 270              		.global	__aeabi_fmul
 271              		.global	__aeabi_fadd
 272 0116 00BFAFF3 		.section	.text._ZL9IMUThreadPv,"ax",%progbits
 272      0080AFF3 
 272      0080
 273              		.align	2
 274              		.p2align 4,,15
 275              		.thumb
 276              		.thumb_func
 277              		.type	_ZL9IMUThreadPv, %function
 278              	_ZL9IMUThreadPv:
 279              		.fnstart
 280              	.LFB38:
 281              		.loc 1 98 0
 282              		.cfi_startproc
 283              		@ args = 0, pretend = 0, frame = 184
ARM GAS  /tmp/cczVQ4UU.s 			page 6


 284              		@ frame_needed = 0, uses_anonymous_args = 0
 285              	.LVL28:
 286 0000 2DE9F047 		push	{r4, r5, r6, r7, r8, r9, r10, lr}
 287              		.save {r4, r5, r6, r7, r8, r9, r10, lr}
 288              		.cfi_def_cfa_offset 32
 289              		.cfi_offset 4, -32
 290              		.cfi_offset 5, -28
 291              		.cfi_offset 6, -24
 292              		.cfi_offset 7, -20
 293              		.cfi_offset 8, -16
 294              		.cfi_offset 9, -12
 295              		.cfi_offset 10, -8
 296              		.cfi_offset 14, -4
 297              		.pad #192
 298 0004 B0B0     		sub	sp, sp, #192
 299              		.cfi_def_cfa_offset 224
 300              	.LBB56:
 301              		.loc 1 100 0
 302 0006 0EAE     		add	r6, sp, #56
 303 0008 1C23     		movs	r3, #28
 304 000a 40F20001 		movw	r1, #:lower16:.LANCHOR0
 305 000e 0093     		str	r3, [sp]
 306 0010 3046     		mov	r0, r6
 307              	.LVL29:
 308 0012 C0F20001 		movt	r1, #:upper16:.LANCHOR0
 309 0016 0122     		movs	r2, #1
 310 0018 6A23     		movs	r3, #106
 311 001a FFF7FEFF 		bl	_ZN7LSM9DS1C1EPN7creator3I2CE14interface_modehh
 312              	.LVL30:
 313              		.loc 1 102 0
 314 001e 3046     		mov	r0, r6
 315 0020 FFF7FEFF 		bl	_ZN7LSM9DS15beginEv
 316              	.LVL31:
 317              	.L16:
 318              		.loc 1 107 0
 319 0024 3046     		mov	r0, r6
 320 0026 FFF7FEFF 		bl	_ZN7LSM9DS18readGyroEv
 321              	.LVL32:
 322              		.loc 1 108 0
 323 002a BDF96010 		ldrsh	r1, [sp, #96]
 324 002e 3046     		mov	r0, r6
 325 0030 FFF7FEFF 		bl	_ZN7LSM9DS18calcGyroEs
 326              	.LVL33:
 327              		.loc 1 109 0
 328 0034 BDF96210 		ldrsh	r1, [sp, #98]
 329              		.loc 1 108 0
 330 0038 0890     		str	r0, [sp, #32]	@ float
 331              		.loc 1 109 0
 332 003a 3046     		mov	r0, r6
 333 003c FFF7FEFF 		bl	_ZN7LSM9DS18calcGyroEs
 334              	.LVL34:
 335              		.loc 1 110 0
 336 0040 BDF96410 		ldrsh	r1, [sp, #100]
 337              		.loc 1 109 0
 338 0044 0990     		str	r0, [sp, #36]	@ float
 339              		.loc 1 110 0
 340 0046 3046     		mov	r0, r6
ARM GAS  /tmp/cczVQ4UU.s 			page 7


 341 0048 FFF7FEFF 		bl	_ZN7LSM9DS18calcGyroEs
 342              	.LVL35:
 343 004c 0A90     		str	r0, [sp, #40]	@ float
 344              		.loc 1 112 0
 345 004e 3046     		mov	r0, r6
 346 0050 FFF7FEFF 		bl	_ZN7LSM9DS17readMagEv
 347              	.LVL36:
 348              		.loc 1 113 0
 349 0054 BDF96C10 		ldrsh	r1, [sp, #108]
 350 0058 3046     		mov	r0, r6
 351 005a FFF7FEFF 		bl	_ZN7LSM9DS17calcMagEs
 352              	.LVL37:
 353              		.loc 1 114 0
 354 005e BDF96E10 		ldrsh	r1, [sp, #110]
 355              		.loc 1 113 0
 356 0062 8246     		mov	r10, r0
 357              		.loc 1 114 0
 358 0064 3046     		mov	r0, r6
 359              		.loc 1 113 0
 360 0066 CDF82CA0 		str	r10, [sp, #44]	@ float
 361              		.loc 1 114 0
 362 006a FFF7FEFF 		bl	_ZN7LSM9DS17calcMagEs
 363              	.LVL38:
 364              		.loc 1 115 0
 365 006e BDF97010 		ldrsh	r1, [sp, #112]
 366              		.loc 1 114 0
 367 0072 0446     		mov	r4, r0
 368              		.loc 1 115 0
 369 0074 3046     		mov	r0, r6
 370              		.loc 1 114 0
 371 0076 0C94     		str	r4, [sp, #48]	@ float
 372              		.loc 1 115 0
 373 0078 FFF7FEFF 		bl	_ZN7LSM9DS17calcMagEs
 374              	.LVL39:
 375 007c 0D90     		str	r0, [sp, #52]	@ float
 376              		.loc 1 117 0
 377 007e 3046     		mov	r0, r6
 378 0080 FFF7FEFF 		bl	_ZN7LSM9DS19readAccelEv
 379              	.LVL40:
 380              		.loc 1 118 0
 381 0084 BDF96610 		ldrsh	r1, [sp, #102]
 382 0088 3046     		mov	r0, r6
 383 008a FFF7FEFF 		bl	_ZN7LSM9DS19calcAccelEs
 384              	.LVL41:
 385              		.loc 1 119 0
 386 008e BDF96810 		ldrsh	r1, [sp, #104]
 387              		.loc 1 118 0
 388 0092 8146     		mov	r9, r0
 389              		.loc 1 119 0
 390 0094 3046     		mov	r0, r6
 391              		.loc 1 118 0
 392 0096 CDF81490 		str	r9, [sp, #20]	@ float
 393              		.loc 1 119 0
 394 009a FFF7FEFF 		bl	_ZN7LSM9DS19calcAccelEs
 395              	.LVL42:
 396              		.loc 1 120 0
 397 009e BDF96A10 		ldrsh	r1, [sp, #106]
ARM GAS  /tmp/cczVQ4UU.s 			page 8


 398              		.loc 1 119 0
 399 00a2 8046     		mov	r8, r0
 400              		.loc 1 120 0
 401 00a4 3046     		mov	r0, r6
 402              		.loc 1 119 0
 403 00a6 CDF81880 		str	r8, [sp, #24]	@ float
 404              		.loc 1 120 0
 405 00aa FFF7FEFF 		bl	_ZN7LSM9DS19calcAccelEs
 406              	.LVL43:
 407 00ae 0746     		mov	r7, r0
 408              		.loc 1 122 0
 409 00b0 2046     		mov	r0, r4
 410              		.loc 1 120 0
 411 00b2 0797     		str	r7, [sp, #28]	@ float
 412              		.loc 1 122 0
 413 00b4 FFF7FEFF 		bl	__aeabi_f2d
 414              	.LVL44:
 415 00b8 0446     		mov	r4, r0
 416 00ba 0AF10040 		add	r0, r10, #-2147483648
 417 00be 0D46     		mov	r5, r1
 418 00c0 FFF7FEFF 		bl	__aeabi_f2d
 419              	.LVL45:
 420 00c4 0246     		mov	r2, r0
 421 00c6 0B46     		mov	r3, r1
 422 00c8 2046     		mov	r0, r4
 423 00ca 2946     		mov	r1, r5
 424 00cc FFF7FEFF 		bl	atan2
 425              	.LVL46:
 426 00d0 4FF40043 		mov	r3, #32768
 427 00d4 0022     		movs	r2, #0
 428 00d6 C4F26603 		movt	r3, 16486
 429 00da FFF7FEFF 		bl	__aeabi_dmul
 430              	.LVL47:
 431 00de 32A3     		adr	r3, .L18
 432 00e0 D3E90023 		ldrd	r2, [r3]
 433 00e4 FFF7FEFF 		bl	__aeabi_ddiv
 434              	.LVL48:
 435 00e8 FFF7FEFF 		bl	__aeabi_d2f
 436              	.LVL49:
 437 00ec 0290     		str	r0, [sp, #8]	@ float
 438              		.loc 1 123 0
 439 00ee 4046     		mov	r0, r8
 440 00f0 FFF7FEFF 		bl	__aeabi_f2d
 441              	.LVL50:
 442 00f4 0446     		mov	r4, r0
 443 00f6 3846     		mov	r0, r7
 444 00f8 0D46     		mov	r5, r1
 445 00fa FFF7FEFF 		bl	__aeabi_f2d
 446              	.LVL51:
 447 00fe 0246     		mov	r2, r0
 448 0100 0B46     		mov	r3, r1
 449 0102 2046     		mov	r0, r4
 450 0104 2946     		mov	r1, r5
 451 0106 FFF7FEFF 		bl	atan2
 452              	.LVL52:
 453 010a 4FF40043 		mov	r3, #32768
 454 010e 0022     		movs	r2, #0
ARM GAS  /tmp/cczVQ4UU.s 			page 9


 455 0110 C4F26603 		movt	r3, 16486
 456 0114 FFF7FEFF 		bl	__aeabi_dmul
 457              	.LVL53:
 458 0118 23A3     		adr	r3, .L18
 459 011a D3E90023 		ldrd	r2, [r3]
 460 011e FFF7FEFF 		bl	__aeabi_ddiv
 461              	.LVL54:
 462 0122 FFF7FEFF 		bl	__aeabi_d2f
 463              	.LVL55:
 464              		.loc 1 124 0
 465 0126 4146     		mov	r1, r8
 466              		.loc 1 123 0
 467 0128 0490     		str	r0, [sp, #16]	@ float
 468              		.loc 1 124 0
 469 012a 4046     		mov	r0, r8
 470 012c FFF7FEFF 		bl	__aeabi_fmul
 471              	.LVL56:
 472              		.loc 1 125 0
 473 0130 3946     		mov	r1, r7
 474              		.loc 1 124 0
 475 0132 0446     		mov	r4, r0
 476              		.loc 1 125 0
 477 0134 3846     		mov	r0, r7
 478 0136 FFF7FEFF 		bl	__aeabi_fmul
 479              	.LVL57:
 480 013a 0146     		mov	r1, r0
 481              		.loc 1 124 0
 482 013c 2046     		mov	r0, r4
 483 013e FFF7FEFF 		bl	__aeabi_fadd
 484              	.LVL58:
 485              		.loc 1 125 0
 486 0142 FFF7FEFF 		bl	__aeabi_f2d
 487              	.LVL59:
 488 0146 FFF7FEFF 		bl	sqrt
 489              	.LVL60:
 490 014a 0446     		mov	r4, r0
 491 014c 0D46     		mov	r5, r1
 492 014e 09F10040 		add	r0, r9, #-2147483648
 493 0152 FFF7FEFF 		bl	__aeabi_f2d
 494              	.LVL61:
 495 0156 2246     		mov	r2, r4
 496 0158 2B46     		mov	r3, r5
 497 015a FFF7FEFF 		bl	atan2
 498              	.LVL62:
 499 015e 4FF40043 		mov	r3, #32768
 500 0162 0022     		movs	r2, #0
 501 0164 C4F26603 		movt	r3, 16486
 502 0168 FFF7FEFF 		bl	__aeabi_dmul
 503              	.LVL63:
 504              		.loc 1 126 0
 505 016c 0EA3     		adr	r3, .L18
 506 016e D3E90023 		ldrd	r2, [r3]
 507 0172 FFF7FEFF 		bl	__aeabi_ddiv
 508              	.LVL64:
 509 0176 FFF7FEFF 		bl	__aeabi_d2f
 510              	.LVL65:
 511 017a 2F22     		movs	r2, #47
ARM GAS  /tmp/cczVQ4UU.s 			page 10


 512 017c 0390     		str	r0, [sp, #12]	@ float
 513              	.LVL66:
 514 017e C6F20032 		movt	r2, 25344
 515 0182 02AB     		add	r3, sp, #8
 516              	.LVL67:
 517              	.L15:
 518              	.LBB57:
 519              	.LBB58:
 520              	.LBB59:
 521              		.loc 1 52 0
 522 0184 13F8011B 		ldrb	r1, [r3], #1	@ zero_extendqisi2
 523              		.loc 1 51 0
 524 0188 B342     		cmp	r3, r6
 525              		.loc 1 52 0
 526 018a 02F8011F 		strb	r1, [r2, #1]!
 527              	.LVL68:
 528              		.loc 1 51 0
 529 018e F9D1     		bne	.L15
 530              	.LBE59:
 531              	.LBE58:
 532              	.LBE57:
 533              		.loc 1 130 0 discriminator 1
 534 0190 1420     		movs	r0, #20
 535 0192 FFF7FEFF 		bl	chThdSleep
 536              	.LVL69:
 537              		.loc 1 132 0 discriminator 1
 538 0196 41F25040 		movw	r0, #5200
 539 019a C4F20E00 		movt	r0, 16398
 540 019e FFF7FEFF 		bl	WDT_Restart
 541              	.LVL70:
 542 01a2 3FE7     		b	.L16
 543              	.L19:
 544 01a4 AFF30080 		.align	3
 545              	.L18:
 546 01a8 182D4454 		.word	1413754136
 547 01ac FB210940 		.word	1074340347
 548              	.LBE56:
 549              		.cfi_endproc
 550              	.LFE38:
 551              		.fnend
 552              		.size	_ZL9IMUThreadPv, .-_ZL9IMUThreadPv
 553              		.section	.text._Z10psram_copyhPch,"ax",%progbits
 554              		.align	2
 555              		.p2align 4,,15
 556              		.global	_Z10psram_copyhPch
 557              		.thumb
 558              		.thumb_func
 559              		.type	_Z10psram_copyhPch, %function
 560              	_Z10psram_copyhPch:
 561              		.fnstart
 562              	.LFB36:
 563              		.loc 1 48 0
 564              		.cfi_startproc
 565              		@ args = 0, pretend = 0, frame = 0
 566              		@ frame_needed = 0, uses_anonymous_args = 0
 567              		@ link register save eliminated.
 568              	.LVL71:
ARM GAS  /tmp/cczVQ4UU.s 			page 11


 569 0000 10B4     		push	{r4}
 570              		.cfi_def_cfa_offset 4
 571              		.cfi_offset 4, -4
 572              	.LBB60:
 573              	.LBB61:
 574              		.loc 1 51 0
 575 0002 4AB1     		cbz	r2, .L20
 576 0004 00F1C640 		add	r0, r0, #1660944384
 577              	.LVL72:
 578 0008 0138     		subs	r0, r0, #1
 579 000a 0023     		movs	r3, #0
 580              	.LVL73:
 581              	.L23:
 582              		.loc 1 52 0 discriminator 2
 583 000c CC5C     		ldrb	r4, [r1, r3]	@ zero_extendqisi2
 584              		.loc 1 51 0 discriminator 2
 585 000e 0133     		adds	r3, r3, #1
 586              	.LVL74:
 587 0010 9342     		cmp	r3, r2
 588              		.loc 1 52 0 discriminator 2
 589 0012 00F8014F 		strb	r4, [r0, #1]!
 590              		.loc 1 51 0 discriminator 2
 591 0016 F9DB     		blt	.L23
 592              	.LVL75:
 593              	.L20:
 594              	.LBE61:
 595              	.LBE60:
 596              		.loc 1 54 0
 597 0018 5DF8044B 		ldr	r4, [sp], #4
 598 001c 7047     		bx	lr
 599              		.cfi_endproc
 600              	.LFE36:
 601              		.cantunwind
 602              		.fnend
 603              		.size	_Z10psram_copyhPch, .-_Z10psram_copyhPch
 604 001e 00BF     		.section	.text.startup.main,"ax",%progbits
 605              		.align	2
 606              		.p2align 4,,15
 607              		.global	main
 608              		.thumb
 609              		.thumb_func
 610              		.type	main, %function
 611              	main:
 612              		.fnstart
 613              	.LFB39:
 614              		.loc 1 140 0
 615              		.cfi_startproc
 616              		@ args = 0, pretend = 0, frame = 0
 617              		@ frame_needed = 0, uses_anonymous_args = 0
 618 0000 10B5     		push	{r4, lr}
 619              		.save {r4, lr}
 620              		.cfi_def_cfa_offset 8
 621              		.cfi_offset 4, -8
 622              		.cfi_offset 14, -4
 623              		.pad #8
 624 0002 82B0     		sub	sp, sp, #8
 625              		.cfi_def_cfa_offset 16
ARM GAS  /tmp/cczVQ4UU.s 			page 12


 626              		.loc 1 141 0
 627 0004 FFF7FEFF 		bl	halInit
 628              	.LVL76:
 629              		.loc 1 143 0
 630 0008 FFF7FEFF 		bl	chSysInit
 631              	.LVL77:
 632              		.loc 1 146 0
 633 000c 40F20000 		movw	r0, #:lower16:.LANCHOR1
 634 0010 0521     		movs	r1, #5
 635 0012 C0F20000 		movt	r0, #:upper16:.LANCHOR1
 636 0016 FFF7FEFF 		bl	PIO_Configure
 637              	.LVL78:
 638              		.loc 1 149 0
 639 001a 0020     		movs	r0, #0
 640 001c C4F20E00 		movt	r0, 16398
 641 0020 FFF7FEFF 		bl	BOARD_ConfigurePSRAM
 642              	.LVL79:
 643              		.loc 1 151 0
 644 0024 40F20000 		movw	r0, #:lower16:.LANCHOR0
 645 0028 C0F20000 		movt	r0, #:upper16:.LANCHOR0
 646 002c FFF7FEFF 		bl	_ZN7creator3I2C4InitEv
 647              	.LVL80:
 648              		.loc 1 154 0
 649 0030 0024     		movs	r4, #0
 650 0032 40F20000 		movw	r0, #:lower16:.LANCHOR2
 651 0036 40F20003 		movw	r3, #:lower16:_ZL9IMUThreadPv
 652 003a 0094     		str	r4, [sp]
 653 003c C0F20003 		movt	r3, #:upper16:_ZL9IMUThreadPv
 654 0040 4FF42C71 		mov	r1, #688
 655 0044 4022     		movs	r2, #64
 656 0046 C0F20000 		movt	r0, #:upper16:.LANCHOR2
 657 004a FFF7FEFF 		bl	chThdCreateStatic
 658              	.LVL81:
 659              		.loc 1 158 0
 660 004e 40F20000 		movw	r0, #:lower16:.LANCHOR3
 661 0052 40F20003 		movw	r3, #:lower16:_ZL9EnvThreadPv
 662 0056 0094     		str	r4, [sp]
 663 0058 C0F20003 		movt	r3, #:upper16:_ZL9EnvThreadPv
 664 005c 4FF4D871 		mov	r1, #432
 665 0060 4022     		movs	r2, #64
 666 0062 C0F20000 		movt	r0, #:upper16:.LANCHOR3
 667 0066 FFF7FEFF 		bl	chThdCreateStatic
 668              	.LVL82:
 669              		.loc 1 161 0
 670 006a 2046     		mov	r0, r4
 671 006c 02B0     		add	sp, sp, #8
 672              		@ sp needed
 673 006e 10BD     		pop	{r4, pc}
 674              		.cfi_endproc
 675              	.LFE39:
 676              		.fnend
 677              		.size	main, .-main
 678              		.global	i2c
 679              		.section	.bss._ZL11waEnvThread,"aw",%nobits
 680              		.align	3
 681              		.set	.LANCHOR3,. + 0
 682              		.type	_ZL11waEnvThread, %object
ARM GAS  /tmp/cczVQ4UU.s 			page 13


 683              		.size	_ZL11waEnvThread, 432
 684              	_ZL11waEnvThread:
 685 0000 00000000 		.space	432
 685      00000000 
 685      00000000 
 685      00000000 
 685      00000000 
 686              		.section	.rodata._ZL8pinPsram,"a",%progbits
 687              		.align	2
 688              		.set	.LANCHOR1,. + 0
 689              		.type	_ZL8pinPsram, %object
 690              		.size	_ZL8pinPsram, 60
 691              	_ZL8pinPsram:
 692 0000 FF000000 		.word	255
 693 0004 00120E40 		.word	1074663936
 694 0008 0D       		.byte	13
 695 0009 00       		.byte	0
 696 000a 01       		.byte	1
 697 000b 00       		.space	1
 698 000c 00080000 		.word	2048
 699 0010 00120E40 		.word	1074663936
 700 0014 0D       		.byte	13
 701 0015 00       		.byte	0
 702 0016 01       		.byte	1
 703 0017 00       		.space	1
 704 0018 00010000 		.word	256
 705 001c 00120E40 		.word	1074663936
 706 0020 0D       		.byte	13
 707 0021 00       		.byte	0
 708 0022 01       		.byte	1
 709 0023 00       		.space	1
 710 0024 00100000 		.word	4096
 711 0028 00120E40 		.word	1074663936
 712 002c 0D       		.byte	13
 713 002d 00       		.byte	0
 714 002e 01       		.byte	1
 715 002f 00       		.space	1
 716 0030 0000FCFF 		.word	-262144
 717 0034 00120E40 		.word	1074663936
 718 0038 0D       		.byte	13
 719 0039 00       		.byte	0
 720 003a 01       		.byte	1
 721 003b 00       		.space	1
 722              		.section	.bss.i2c,"aw",%nobits
 723              		.align	2
 724              		.set	.LANCHOR0,. + 0
 725              		.type	i2c, %object
 726              		.size	i2c, 8
 727              	i2c:
 728 0000 00000000 		.space	8
 728      00000000 
 729              		.section	.bss._ZL11waIMUThread,"aw",%nobits
 730              		.align	3
 731              		.set	.LANCHOR2,. + 0
 732              		.type	_ZL11waIMUThread, %object
 733              		.size	_ZL11waIMUThread, 688
 734              	_ZL11waIMUThread:
ARM GAS  /tmp/cczVQ4UU.s 			page 14


 735 0000 00000000 		.space	688
 735      00000000 
 735      00000000 
 735      00000000 
 735      00000000 
 736              		.text
 737              	.Letext0:
 738              		.file 2 "/home/santi/arm-2013.11/lib/gcc/arm-none-eabi/4.8.1/include/stddef.h"
 739              		.file 3 "/home/santi/arm-2013.11/arm-none-eabi/include/stdint.h"
 740              		.file 4 "../third_party/ChibiOS/os/ports/GCC/ARMCMx/chtypes.h"
 741              		.file 5 "../third_party/ChibiOS/os/kernel/include/chlists.h"
 742              		.file 6 "../third_party/ChibiOS/os/kernel/include/chthreads.h"
 743              		.file 7 "../third_party/ChibiOS/os/ports/GCC/ARMCMx/chcore_v7m.h"
 744              		.file 8 "../third_party/ChibiOS/os/kernel/include/chmtx.h"
 745              		.file 9 "../third_party/ChibiOS/os/hal/platforms/AT91SAM3S/at91lib/SAM3S.h"
 746              		.file 10 "../third_party/ChibiOS/os/hal/platforms/AT91SAM3S/pal_lld.h"
 747              		.file 11 "../third_party/ChibiOS/os/hal/platforms/AT91SAM3S/async.h"
 748              		.file 12 "../third_party/ChibiOS/os/hal/platforms/AT91SAM3S/atmel_twid.h"
 749              		.file 13 "./i2c.h"
 750              		.file 14 "./mpl3115a2.h"
 751              		.file 15 "./hts221.h"
 752              		.file 16 "./veml6070.h"
 753              		.file 17 "./sensors_data.h"
 754              		.file 18 "./lsm9ds1_types.h"
 755              		.file 19 "./lsm9ds1.h"
 756              		.file 20 "../third_party/ChibiOS/os/hal/platforms/AT91SAM3S/atmel_pio.h"
 757              		.file 21 "../third_party/ChibiOS/os/hal/platforms/AT91SAM3S/atmel_psram.h"
 758              		.file 22 "/home/santi/arm-2013.11/arm-none-eabi/include/math.h"
 759              		.file 23 "../third_party/ChibiOS/os/hal/platforms/AT91SAM3S/wdt.h"
 760              		.file 24 "../third_party/ChibiOS/os/hal/include/hal.h"
 761              		.file 25 "../third_party/ChibiOS/os/kernel/include/chsys.h"
 762              		.file 26 "../third_party/ChibiOS/os/hal/platforms/AT91SAM3S/core_cm3.h"