ARM GAS  /tmp/ccy0gwUg.s 			page 1


   1              		.syntax unified
   2              		.cpu cortex-m3
   3              		.fpu softvfp
   4              		.eabi_attribute 20, 1
   5              		.eabi_attribute 21, 1
   6              		.eabi_attribute 23, 3
   7              		.eabi_attribute 24, 1
   8              		.eabi_attribute 25, 1
   9              		.eabi_attribute 26, 1
  10              		.eabi_attribute 30, 2
  11              		.eabi_attribute 34, 1
  12              		.eabi_attribute 18, 4
  13              		.thumb
  14              		.file	"nvic.c"
  15              		.text
  16              	.Ltext0:
  17              		.cfi_sections	.debug_frame
  18              		.section	.text.nvicEnableVector,"ax",%progbits
  19              		.align	2
  20              		.p2align 4,,15
  21              		.global	nvicEnableVector
  22              		.thumb
  23              		.thumb_func
  24              		.type	nvicEnableVector, %function
  25              	nvicEnableVector:
  26              	.LFB7:
  27              		.file 1 "../third_party/ChibiOS/os/ports/common/ARMCMx/nvic.c"
  28              		.loc 1 46 0
  29              		.cfi_startproc
  30              		@ args = 0, pretend = 0, frame = 0
  31              		@ frame_needed = 0, uses_anonymous_args = 0
  32              		@ link register save eliminated.
  33              	.LVL0:
  34              		.loc 1 47 0
  35 0000 00F00303 		and	r3, r0, #3
  36              		.loc 1 46 0
  37 0004 30B4     		push	{r4, r5}
  38              		.cfi_def_cfa_offset 8
  39              		.cfi_offset 4, -8
  40              		.cfi_offset 5, -4
  41              		.loc 1 47 0
  42 0006 DB00     		lsls	r3, r3, #3
  43              	.LVL1:
  44              		.loc 1 49 0
  45 0008 FF25     		movs	r5, #255
  46 000a 9D40     		lsls	r5, r5, r3
  47 000c 9940     		lsls	r1, r1, r3
  48              	.LVL2:
  49              		.loc 1 50 0
  50 000e 0122     		movs	r2, #1
  51 0010 00F01F03 		and	r3, r0, #31
  52              	.LVL3:
  53 0014 9A40     		lsls	r2, r2, r3
  54 0016 20F00304 		bic	r4, r0, #3
  55 001a 04F16044 		add	r4, r4, #-536870912
  56 001e 04F56144 		add	r4, r4, #57600
  57              		.loc 1 49 0
ARM GAS  /tmp/ccy0gwUg.s 			page 2


  58 0022 D4F80033 		ldr	r3, [r4, #768]
  59              		.loc 1 50 0
  60 0026 4009     		lsrs	r0, r0, #5
  61              	.LVL4:
  62 0028 8000     		lsls	r0, r0, #2
  63              		.loc 1 49 0
  64 002a 23EA0503 		bic	r3, r3, r5
  65 002e 00F16040 		add	r0, r0, #-536870912
  66 0032 00F56140 		add	r0, r0, #57600
  67 0036 0B43     		orrs	r3, r3, r1
  68 0038 C4F80033 		str	r3, [r4, #768]
  69              		.loc 1 50 0
  70 003c C0F88021 		str	r2, [r0, #384]
  71              		.loc 1 52 0
  72 0040 30BC     		pop	{r4, r5}
  73              		.loc 1 51 0
  74 0042 0260     		str	r2, [r0]
  75              		.loc 1 52 0
  76 0044 7047     		bx	lr
  77              		.cfi_endproc
  78              	.LFE7:
  79              		.size	nvicEnableVector, .-nvicEnableVector
  80 0046 00BFAFF3 		.section	.text.nvicDisableVector,"ax",%progbits
  80      0080AFF3 
  80      0080
  81              		.align	2
  82              		.p2align 4,,15
  83              		.global	nvicDisableVector
  84              		.thumb
  85              		.thumb_func
  86              		.type	nvicDisableVector, %function
  87              	nvicDisableVector:
  88              	.LFB8:
  89              		.loc 1 60 0
  90              		.cfi_startproc
  91              		@ args = 0, pretend = 0, frame = 0
  92              		@ frame_needed = 0, uses_anonymous_args = 0
  93              		@ link register save eliminated.
  94              	.LVL5:
  95 0000 10B4     		push	{r4}
  96              		.cfi_def_cfa_offset 4
  97              		.cfi_offset 4, -4
  98              		.loc 1 63 0
  99 0002 00F01F03 		and	r3, r0, #31
 100 0006 0124     		movs	r4, #1
 101 0008 9C40     		lsls	r4, r4, r3
 102              		.loc 1 61 0
 103 000a 00F00301 		and	r1, r0, #3
 104              		.loc 1 64 0
 105 000e FF23     		movs	r3, #255
 106              		.loc 1 61 0
 107 0010 C900     		lsls	r1, r1, #3
 108              	.LVL6:
 109              		.loc 1 64 0
 110 0012 03FA01F1 		lsl	r1, r3, r1
 111              	.LVL7:
 112              		.loc 1 63 0
ARM GAS  /tmp/ccy0gwUg.s 			page 3


 113 0016 4209     		lsrs	r2, r0, #5
 114 0018 4FF46143 		mov	r3, #57600
 115 001c 20F00300 		bic	r0, r0, #3
 116              	.LVL8:
 117 0020 2032     		adds	r2, r2, #32
 118 0022 CEF20003 		movt	r3, 57344
 119 0026 00F16040 		add	r0, r0, #-536870912
 120 002a 43F82240 		str	r4, [r3, r2, lsl #2]
 121 002e 00F56140 		add	r0, r0, #57600
 122              		.loc 1 64 0
 123 0032 D0F80023 		ldr	r2, [r0, #768]
 124              		.loc 1 65 0
 125 0036 5DF8044B 		ldr	r4, [sp], #4
 126              		.loc 1 64 0
 127 003a 22EA0103 		bic	r3, r2, r1
 128 003e C0F80033 		str	r3, [r0, #768]
 129              		.loc 1 65 0
 130 0042 7047     		bx	lr
 131              		.cfi_endproc
 132              	.LFE8:
 133              		.size	nvicDisableVector, .-nvicDisableVector
 134 0044 AFF30080 		.section	.text.nvicSetSystemHandlerPriority,"ax",%progbits
 134      AFF30080 
 134      AFF30080 
 135              		.align	2
 136              		.p2align 4,,15
 137              		.global	nvicSetSystemHandlerPriority
 138              		.thumb
 139              		.thumb_func
 140              		.type	nvicSetSystemHandlerPriority, %function
 141              	nvicSetSystemHandlerPriority:
 142              	.LFB9:
 143              		.loc 1 74 0
 144              		.cfi_startproc
 145              		@ args = 0, pretend = 0, frame = 0
 146              		@ frame_needed = 0, uses_anonymous_args = 0
 147              		@ link register save eliminated.
 148              	.LVL9:
 149              		.loc 1 75 0
 150 0000 00F00303 		and	r3, r0, #3
 151 0004 DB00     		lsls	r3, r3, #3
 152              	.LVL10:
 153              		.loc 1 78 0
 154 0006 FF22     		movs	r2, #255
 155 0008 9A40     		lsls	r2, r2, r3
 156 000a 9940     		lsls	r1, r1, r3
 157              	.LVL11:
 158 000c 20F00300 		bic	r0, r0, #3
 159              	.LVL12:
 160 0010 00F16040 		add	r0, r0, #-536870912
 161 0014 00F56D40 		add	r0, r0, #60672
 162              		.loc 1 77 0
 163 0018 8369     		ldr	r3, [r0, #24]
 164              	.LVL13:
 165 001a 23EA0203 		bic	r3, r3, r2
 166              		.loc 1 78 0
 167 001e 0B43     		orrs	r3, r3, r1
ARM GAS  /tmp/ccy0gwUg.s 			page 4


 168              		.loc 1 77 0
 169 0020 8361     		str	r3, [r0, #24]
 170 0022 7047     		bx	lr
 171              		.cfi_endproc
 172              	.LFE9:
 173              		.size	nvicSetSystemHandlerPriority, .-nvicSetSystemHandlerPriority
 174 0024 AFF30080 		.text
 174      AFF30080 
 174      AFF30080 
 175              	.Letext0:
 176              		.file 2 "/home/santi/arm-2013.11/arm-none-eabi/include/stdint.h"
 177              		.file 3 "../third_party/ChibiOS/os/ports/common/ARMCMx/nvic.h"
 178              		.section	.debug_info,"",%progbits
 179              	.Ldebug_info0:
 180 0000 F0030000 		.4byte	0x3f0
 181 0004 0400     		.2byte	0x4
 182 0006 00000000 		.4byte	.Ldebug_abbrev0
 183 000a 04       		.byte	0x4
 184 000b 01       		.uleb128 0x1
 185 000c 69010000 		.4byte	.LASF45
 186 0010 01       		.byte	0x1
 187 0011 5C000000 		.4byte	.LASF46
 188 0015 27000000 		.4byte	.LASF47
 189 0019 00000000 		.4byte	.Ldebug_ranges0+0
 190 001d 00000000 		.4byte	0
 191 0021 00000000 		.4byte	.Ldebug_line0
 192 0025 02       		.uleb128 0x2
 193 0026 04       		.byte	0x4
 194 0027 05       		.byte	0x5
 195 0028 696E7400 		.ascii	"int\000"
 196 002c 03       		.uleb128 0x3
 197 002d 04       		.byte	0x4
 198 002e 07       		.byte	0x7
 199 002f 2E010000 		.4byte	.LASF0
 200 0033 03       		.uleb128 0x3
 201 0034 01       		.byte	0x1
 202 0035 06       		.byte	0x6
 203 0036 6D020000 		.4byte	.LASF1
 204 003a 03       		.uleb128 0x3
 205 003b 01       		.byte	0x1
 206 003c 08       		.byte	0x8
 207 003d AC000000 		.4byte	.LASF2
 208 0041 03       		.uleb128 0x3
 209 0042 02       		.byte	0x2
 210 0043 05       		.byte	0x5
 211 0044 24010000 		.4byte	.LASF3
 212 0048 03       		.uleb128 0x3
 213 0049 02       		.byte	0x2
 214 004a 07       		.byte	0x7
 215 004b EA000000 		.4byte	.LASF4
 216 004f 03       		.uleb128 0x3
 217 0050 04       		.byte	0x4
 218 0051 05       		.byte	0x5
 219 0052 5F020000 		.4byte	.LASF5
 220 0056 04       		.uleb128 0x4
 221 0057 56020000 		.4byte	.LASF9
 222 005b 02       		.byte	0x2
ARM GAS  /tmp/ccy0gwUg.s 			page 5


 223 005c 50       		.byte	0x50
 224 005d 61000000 		.4byte	0x61
 225 0061 03       		.uleb128 0x3
 226 0062 04       		.byte	0x4
 227 0063 07       		.byte	0x7
 228 0064 07010000 		.4byte	.LASF6
 229 0068 03       		.uleb128 0x3
 230 0069 08       		.byte	0x8
 231 006a 05       		.byte	0x5
 232 006b 2D020000 		.4byte	.LASF7
 233 006f 03       		.uleb128 0x3
 234 0070 08       		.byte	0x8
 235 0071 07       		.byte	0x7
 236 0072 45010000 		.4byte	.LASF8
 237 0076 04       		.uleb128 0x4
 238 0077 A4000000 		.4byte	.LASF10
 239 007b 03       		.byte	0x3
 240 007c 3A       		.byte	0x3a
 241 007d 81000000 		.4byte	0x81
 242 0081 05       		.uleb128 0x5
 243 0082 56000000 		.4byte	0x56
 244 0086 06       		.uleb128 0x6
 245 0087 040E     		.2byte	0xe04
 246 0089 03       		.byte	0x3
 247 008a 6A       		.byte	0x6a
 248 008b 35010000 		.4byte	0x135
 249 008f 07       		.uleb128 0x7
 250 0090 46020000 		.4byte	.LASF11
 251 0094 03       		.byte	0x3
 252 0095 6B       		.byte	0x6b
 253 0096 4C010000 		.4byte	0x14c
 254 009a 00       		.byte	0
 255 009b 07       		.uleb128 0x7
 256 009c BA000000 		.4byte	.LASF12
 257 00a0 03       		.byte	0x3
 258 00a1 6C       		.byte	0x6c
 259 00a2 61010000 		.4byte	0x161
 260 00a6 20       		.byte	0x20
 261 00a7 07       		.uleb128 0x7
 262 00a8 9F000000 		.4byte	.LASF13
 263 00ac 03       		.byte	0x3
 264 00ad 6D       		.byte	0x6d
 265 00ae 66010000 		.4byte	0x166
 266 00b2 80       		.byte	0x80
 267 00b3 07       		.uleb128 0x7
 268 00b4 C2000000 		.4byte	.LASF14
 269 00b8 03       		.byte	0x3
 270 00b9 6E       		.byte	0x6e
 271 00ba 6B010000 		.4byte	0x16b
 272 00be A0       		.byte	0xa0
 273 00bf 08       		.uleb128 0x8
 274 00c0 3B010000 		.4byte	.LASF15
 275 00c4 03       		.byte	0x3
 276 00c5 6F       		.byte	0x6f
 277 00c6 70010000 		.4byte	0x170
 278 00ca 0001     		.2byte	0x100
 279 00cc 08       		.uleb128 0x8
ARM GAS  /tmp/ccy0gwUg.s 			page 6


 280 00cd CA000000 		.4byte	.LASF16
 281 00d1 03       		.byte	0x3
 282 00d2 70       		.byte	0x70
 283 00d3 75010000 		.4byte	0x175
 284 00d7 2001     		.2byte	0x120
 285 00d9 08       		.uleb128 0x8
 286 00da 05000000 		.4byte	.LASF17
 287 00de 03       		.byte	0x3
 288 00df 71       		.byte	0x71
 289 00e0 7A010000 		.4byte	0x17a
 290 00e4 8001     		.2byte	0x180
 291 00e6 08       		.uleb128 0x8
 292 00e7 D2000000 		.4byte	.LASF18
 293 00eb 03       		.byte	0x3
 294 00ec 72       		.byte	0x72
 295 00ed 7F010000 		.4byte	0x17f
 296 00f1 A001     		.2byte	0x1a0
 297 00f3 08       		.uleb128 0x8
 298 00f4 96020000 		.4byte	.LASF19
 299 00f8 03       		.byte	0x3
 300 00f9 73       		.byte	0x73
 301 00fa 84010000 		.4byte	0x184
 302 00fe 0002     		.2byte	0x200
 303 0100 08       		.uleb128 0x8
 304 0101 DA000000 		.4byte	.LASF20
 305 0105 03       		.byte	0x3
 306 0106 74       		.byte	0x74
 307 0107 99010000 		.4byte	0x199
 308 010b 2002     		.2byte	0x220
 309 010d 09       		.uleb128 0x9
 310 010e 49505200 		.ascii	"IPR\000"
 311 0112 03       		.byte	0x3
 312 0113 75       		.byte	0x75
 313 0114 AE010000 		.4byte	0x1ae
 314 0118 0003     		.2byte	0x300
 315 011a 08       		.uleb128 0x8
 316 011b E2000000 		.4byte	.LASF21
 317 011f 03       		.byte	0x3
 318 0120 76       		.byte	0x76
 319 0121 C4010000 		.4byte	0x1c4
 320 0125 F003     		.2byte	0x3f0
 321 0127 08       		.uleb128 0x8
 322 0128 1F010000 		.4byte	.LASF22
 323 012c 03       		.byte	0x3
 324 012d 77       		.byte	0x77
 325 012e 76000000 		.4byte	0x76
 326 0132 000E     		.2byte	0xe00
 327 0134 00       		.byte	0
 328 0135 0A       		.uleb128 0xa
 329 0136 76000000 		.4byte	0x76
 330 013a 45010000 		.4byte	0x145
 331 013e 0B       		.uleb128 0xb
 332 013f 45010000 		.4byte	0x145
 333 0143 07       		.byte	0x7
 334 0144 00       		.byte	0
 335 0145 03       		.uleb128 0x3
 336 0146 04       		.byte	0x4
ARM GAS  /tmp/ccy0gwUg.s 			page 7


 337 0147 07       		.byte	0x7
 338 0148 24020000 		.4byte	.LASF23
 339 014c 05       		.uleb128 0x5
 340 014d 35010000 		.4byte	0x135
 341 0151 0A       		.uleb128 0xa
 342 0152 76000000 		.4byte	0x76
 343 0156 61010000 		.4byte	0x161
 344 015a 0B       		.uleb128 0xb
 345 015b 45010000 		.4byte	0x145
 346 015f 17       		.byte	0x17
 347 0160 00       		.byte	0
 348 0161 05       		.uleb128 0x5
 349 0162 51010000 		.4byte	0x151
 350 0166 05       		.uleb128 0x5
 351 0167 35010000 		.4byte	0x135
 352 016b 05       		.uleb128 0x5
 353 016c 51010000 		.4byte	0x151
 354 0170 05       		.uleb128 0x5
 355 0171 35010000 		.4byte	0x135
 356 0175 05       		.uleb128 0x5
 357 0176 51010000 		.4byte	0x151
 358 017a 05       		.uleb128 0x5
 359 017b 35010000 		.4byte	0x135
 360 017f 05       		.uleb128 0x5
 361 0180 51010000 		.4byte	0x151
 362 0184 05       		.uleb128 0x5
 363 0185 35010000 		.4byte	0x135
 364 0189 0A       		.uleb128 0xa
 365 018a 76000000 		.4byte	0x76
 366 018e 99010000 		.4byte	0x199
 367 0192 0B       		.uleb128 0xb
 368 0193 45010000 		.4byte	0x145
 369 0197 37       		.byte	0x37
 370 0198 00       		.byte	0
 371 0199 05       		.uleb128 0x5
 372 019a 89010000 		.4byte	0x189
 373 019e 0A       		.uleb128 0xa
 374 019f 76000000 		.4byte	0x76
 375 01a3 AE010000 		.4byte	0x1ae
 376 01a7 0B       		.uleb128 0xb
 377 01a8 45010000 		.4byte	0x145
 378 01ac 3B       		.byte	0x3b
 379 01ad 00       		.byte	0
 380 01ae 05       		.uleb128 0x5
 381 01af 9E010000 		.4byte	0x19e
 382 01b3 0A       		.uleb128 0xa
 383 01b4 76000000 		.4byte	0x76
 384 01b8 C4010000 		.4byte	0x1c4
 385 01bc 0C       		.uleb128 0xc
 386 01bd 45010000 		.4byte	0x145
 387 01c1 8302     		.2byte	0x283
 388 01c3 00       		.byte	0
 389 01c4 05       		.uleb128 0x5
 390 01c5 B3010000 		.4byte	0x1b3
 391 01c9 04       		.uleb128 0x4
 392 01ca 91000000 		.4byte	.LASF24
 393 01ce 03       		.byte	0x3
ARM GAS  /tmp/ccy0gwUg.s 			page 8


 394 01cf 78       		.byte	0x78
 395 01d0 86000000 		.4byte	0x86
 396 01d4 0D       		.uleb128 0xd
 397 01d5 8C       		.byte	0x8c
 398 01d6 03       		.byte	0x3
 399 01d7 89       		.byte	0x89
 400 01d8 D9020000 		.4byte	0x2d9
 401 01dc 07       		.uleb128 0x7
 402 01dd 3B020000 		.4byte	.LASF25
 403 01e1 03       		.byte	0x3
 404 01e2 8A       		.byte	0x8a
 405 01e3 76000000 		.4byte	0x76
 406 01e7 00       		.byte	0
 407 01e8 07       		.uleb128 0x7
 408 01e9 5C010000 		.4byte	.LASF26
 409 01ed 03       		.byte	0x3
 410 01ee 8B       		.byte	0x8b
 411 01ef 76000000 		.4byte	0x76
 412 01f3 04       		.byte	0x4
 413 01f4 07       		.uleb128 0x7
 414 01f5 9A000000 		.4byte	.LASF27
 415 01f9 03       		.byte	0x3
 416 01fa 8C       		.byte	0x8c
 417 01fb 76000000 		.4byte	0x76
 418 01ff 08       		.byte	0x8
 419 0200 07       		.uleb128 0x7
 420 0201 11020000 		.4byte	.LASF28
 421 0205 03       		.byte	0x3
 422 0206 8D       		.byte	0x8d
 423 0207 76000000 		.4byte	0x76
 424 020b 0C       		.byte	0xc
 425 020c 0E       		.uleb128 0xe
 426 020d 53435200 		.ascii	"SCR\000"
 427 0211 03       		.byte	0x3
 428 0212 8E       		.byte	0x8e
 429 0213 76000000 		.4byte	0x76
 430 0217 10       		.byte	0x10
 431 0218 0E       		.uleb128 0xe
 432 0219 43435200 		.ascii	"CCR\000"
 433 021d 03       		.byte	0x3
 434 021e 8F       		.byte	0x8f
 435 021f 76000000 		.4byte	0x76
 436 0223 14       		.byte	0x14
 437 0224 07       		.uleb128 0x7
 438 0225 68020000 		.4byte	.LASF29
 439 0229 03       		.byte	0x3
 440 022a 90       		.byte	0x90
 441 022b E9020000 		.4byte	0x2e9
 442 022f 18       		.byte	0x18
 443 0230 07       		.uleb128 0x7
 444 0231 0F000000 		.4byte	.LASF30
 445 0235 03       		.byte	0x3
 446 0236 91       		.byte	0x91
 447 0237 76000000 		.4byte	0x76
 448 023b 24       		.byte	0x24
 449 023c 07       		.uleb128 0x7
 450 023d FD000000 		.4byte	.LASF31
ARM GAS  /tmp/ccy0gwUg.s 			page 9


 451 0241 03       		.byte	0x3
 452 0242 92       		.byte	0x92
 453 0243 76000000 		.4byte	0x76
 454 0247 28       		.byte	0x28
 455 0248 07       		.uleb128 0x7
 456 0249 02010000 		.4byte	.LASF32
 457 024d 03       		.byte	0x3
 458 024e 93       		.byte	0x93
 459 024f 76000000 		.4byte	0x76
 460 0253 2C       		.byte	0x2c
 461 0254 07       		.uleb128 0x7
 462 0255 40010000 		.4byte	.LASF33
 463 0259 03       		.byte	0x3
 464 025a 94       		.byte	0x94
 465 025b 76000000 		.4byte	0x76
 466 025f 30       		.byte	0x30
 467 0260 07       		.uleb128 0x7
 468 0261 50020000 		.4byte	.LASF34
 469 0265 03       		.byte	0x3
 470 0266 95       		.byte	0x95
 471 0267 76000000 		.4byte	0x76
 472 026b 34       		.byte	0x34
 473 026c 07       		.uleb128 0x7
 474 026d 17020000 		.4byte	.LASF35
 475 0271 03       		.byte	0x3
 476 0272 96       		.byte	0x96
 477 0273 76000000 		.4byte	0x76
 478 0277 38       		.byte	0x38
 479 0278 07       		.uleb128 0x7
 480 0279 4B020000 		.4byte	.LASF36
 481 027d 03       		.byte	0x3
 482 027e 97       		.byte	0x97
 483 027f 76000000 		.4byte	0x76
 484 0283 3C       		.byte	0x3c
 485 0284 0E       		.uleb128 0xe
 486 0285 50465200 		.ascii	"PFR\000"
 487 0289 03       		.byte	0x3
 488 028a 98       		.byte	0x98
 489 028b FE020000 		.4byte	0x2fe
 490 028f 40       		.byte	0x40
 491 0290 0E       		.uleb128 0xe
 492 0291 44465200 		.ascii	"DFR\000"
 493 0295 03       		.byte	0x3
 494 0296 99       		.byte	0x99
 495 0297 76000000 		.4byte	0x76
 496 029b 48       		.byte	0x48
 497 029c 0E       		.uleb128 0xe
 498 029d 41445200 		.ascii	"ADR\000"
 499 02a1 03       		.byte	0x3
 500 02a2 9A       		.byte	0x9a
 501 02a3 76000000 		.4byte	0x76
 502 02a7 4C       		.byte	0x4c
 503 02a8 07       		.uleb128 0x7
 504 02a9 0A000000 		.4byte	.LASF37
 505 02ad 03       		.byte	0x3
 506 02ae 9B       		.byte	0x9b
 507 02af 13030000 		.4byte	0x313
ARM GAS  /tmp/ccy0gwUg.s 			page 10


 508 02b3 50       		.byte	0x50
 509 02b4 0E       		.uleb128 0xe
 510 02b5 53415200 		.ascii	"SAR\000"
 511 02b9 03       		.byte	0x3
 512 02ba 9C       		.byte	0x9c
 513 02bb 28030000 		.4byte	0x328
 514 02bf 60       		.byte	0x60
 515 02c0 07       		.uleb128 0x7
 516 02c1 BA000000 		.4byte	.LASF12
 517 02c5 03       		.byte	0x3
 518 02c6 9D       		.byte	0x9d
 519 02c7 2D030000 		.4byte	0x32d
 520 02cb 74       		.byte	0x74
 521 02cc 07       		.uleb128 0x7
 522 02cd 19010000 		.4byte	.LASF38
 523 02d1 03       		.byte	0x3
 524 02d2 9E       		.byte	0x9e
 525 02d3 76000000 		.4byte	0x76
 526 02d7 88       		.byte	0x88
 527 02d8 00       		.byte	0
 528 02d9 0A       		.uleb128 0xa
 529 02da 76000000 		.4byte	0x76
 530 02de E9020000 		.4byte	0x2e9
 531 02e2 0B       		.uleb128 0xb
 532 02e3 45010000 		.4byte	0x145
 533 02e7 02       		.byte	0x2
 534 02e8 00       		.byte	0
 535 02e9 05       		.uleb128 0x5
 536 02ea D9020000 		.4byte	0x2d9
 537 02ee 0A       		.uleb128 0xa
 538 02ef 76000000 		.4byte	0x76
 539 02f3 FE020000 		.4byte	0x2fe
 540 02f7 0B       		.uleb128 0xb
 541 02f8 45010000 		.4byte	0x145
 542 02fc 01       		.byte	0x1
 543 02fd 00       		.byte	0
 544 02fe 05       		.uleb128 0x5
 545 02ff EE020000 		.4byte	0x2ee
 546 0303 0A       		.uleb128 0xa
 547 0304 76000000 		.4byte	0x76
 548 0308 13030000 		.4byte	0x313
 549 030c 0B       		.uleb128 0xb
 550 030d 45010000 		.4byte	0x145
 551 0311 03       		.byte	0x3
 552 0312 00       		.byte	0
 553 0313 05       		.uleb128 0x5
 554 0314 03030000 		.4byte	0x303
 555 0318 0A       		.uleb128 0xa
 556 0319 76000000 		.4byte	0x76
 557 031d 28030000 		.4byte	0x328
 558 0321 0B       		.uleb128 0xb
 559 0322 45010000 		.4byte	0x145
 560 0326 04       		.byte	0x4
 561 0327 00       		.byte	0
 562 0328 05       		.uleb128 0x5
 563 0329 18030000 		.4byte	0x318
 564 032d 05       		.uleb128 0x5
ARM GAS  /tmp/ccy0gwUg.s 			page 11


 565 032e 18030000 		.4byte	0x318
 566 0332 04       		.uleb128 0x4
 567 0333 61010000 		.4byte	.LASF39
 568 0337 03       		.byte	0x3
 569 0338 9F       		.byte	0x9f
 570 0339 D4010000 		.4byte	0x1d4
 571 033d 03       		.uleb128 0x3
 572 033e 01       		.byte	0x1
 573 033f 08       		.byte	0x8
 574 0340 41020000 		.4byte	.LASF40
 575 0344 0F       		.uleb128 0xf
 576 0345 9B020000 		.4byte	.LASF42
 577 0349 01       		.byte	0x1
 578 034a 2E       		.byte	0x2e
 579 034b 00000000 		.4byte	.LFB7
 580 034f 46000000 		.4byte	.LFE7-.LFB7
 581 0353 01       		.uleb128 0x1
 582 0354 9C       		.byte	0x9c
 583 0355 84030000 		.4byte	0x384
 584 0359 10       		.uleb128 0x10
 585 035a 6E00     		.ascii	"n\000"
 586 035c 01       		.byte	0x1
 587 035d 2E       		.byte	0x2e
 588 035e 56000000 		.4byte	0x56
 589 0362 00000000 		.4byte	.LLST0
 590 0366 11       		.uleb128 0x11
 591 0367 00000000 		.4byte	.LASF41
 592 036b 01       		.byte	0x1
 593 036c 2E       		.byte	0x2e
 594 036d 56000000 		.4byte	0x56
 595 0371 21000000 		.4byte	.LLST1
 596 0375 12       		.uleb128 0x12
 597 0376 736800   		.ascii	"sh\000"
 598 0379 01       		.byte	0x1
 599 037a 2F       		.byte	0x2f
 600 037b 2C000000 		.4byte	0x2c
 601 037f 42000000 		.4byte	.LLST2
 602 0383 00       		.byte	0
 603 0384 0F       		.uleb128 0xf
 604 0385 15000000 		.4byte	.LASF43
 605 0389 01       		.byte	0x1
 606 038a 3C       		.byte	0x3c
 607 038b 00000000 		.4byte	.LFB8
 608 038f 44000000 		.4byte	.LFE8-.LFB8
 609 0393 01       		.uleb128 0x1
 610 0394 9C       		.byte	0x9c
 611 0395 B5030000 		.4byte	0x3b5
 612 0399 10       		.uleb128 0x10
 613 039a 6E00     		.ascii	"n\000"
 614 039c 01       		.byte	0x1
 615 039d 3C       		.byte	0x3c
 616 039e 56000000 		.4byte	0x56
 617 03a2 89000000 		.4byte	.LLST3
 618 03a6 12       		.uleb128 0x12
 619 03a7 736800   		.ascii	"sh\000"
 620 03aa 01       		.byte	0x1
 621 03ab 3D       		.byte	0x3d
ARM GAS  /tmp/ccy0gwUg.s 			page 12


 622 03ac 2C000000 		.4byte	0x2c
 623 03b0 AA000000 		.4byte	.LLST4
 624 03b4 00       		.byte	0
 625 03b5 13       		.uleb128 0x13
 626 03b6 79020000 		.4byte	.LASF48
 627 03ba 01       		.byte	0x1
 628 03bb 4A       		.byte	0x4a
 629 03bc 00000000 		.4byte	.LFB9
 630 03c0 24000000 		.4byte	.LFE9-.LFB9
 631 03c4 01       		.uleb128 0x1
 632 03c5 9C       		.byte	0x9c
 633 03c6 11       		.uleb128 0x11
 634 03c7 1C020000 		.4byte	.LASF44
 635 03cb 01       		.byte	0x1
 636 03cc 4A       		.byte	0x4a
 637 03cd 56000000 		.4byte	0x56
 638 03d1 F1000000 		.4byte	.LLST5
 639 03d5 11       		.uleb128 0x11
 640 03d6 00000000 		.4byte	.LASF41
 641 03da 01       		.byte	0x1
 642 03db 4A       		.byte	0x4a
 643 03dc 56000000 		.4byte	0x56
 644 03e0 12010000 		.4byte	.LLST6
 645 03e4 12       		.uleb128 0x12
 646 03e5 736800   		.ascii	"sh\000"
 647 03e8 01       		.byte	0x1
 648 03e9 4B       		.byte	0x4b
 649 03ea 2C000000 		.4byte	0x2c
 650 03ee 33010000 		.4byte	.LLST7
 651 03f2 00       		.byte	0
 652 03f3 00       		.byte	0
 653              		.section	.debug_abbrev,"",%progbits
 654              	.Ldebug_abbrev0:
 655 0000 01       		.uleb128 0x1
 656 0001 11       		.uleb128 0x11
 657 0002 01       		.byte	0x1
 658 0003 25       		.uleb128 0x25
 659 0004 0E       		.uleb128 0xe
 660 0005 13       		.uleb128 0x13
 661 0006 0B       		.uleb128 0xb
 662 0007 03       		.uleb128 0x3
 663 0008 0E       		.uleb128 0xe
 664 0009 1B       		.uleb128 0x1b
 665 000a 0E       		.uleb128 0xe
 666 000b 55       		.uleb128 0x55
 667 000c 17       		.uleb128 0x17
 668 000d 11       		.uleb128 0x11
 669 000e 01       		.uleb128 0x1
 670 000f 10       		.uleb128 0x10
 671 0010 17       		.uleb128 0x17
 672 0011 00       		.byte	0
 673 0012 00       		.byte	0
 674 0013 02       		.uleb128 0x2
 675 0014 24       		.uleb128 0x24
 676 0015 00       		.byte	0
 677 0016 0B       		.uleb128 0xb
 678 0017 0B       		.uleb128 0xb
ARM GAS  /tmp/ccy0gwUg.s 			page 13


 679 0018 3E       		.uleb128 0x3e
 680 0019 0B       		.uleb128 0xb
 681 001a 03       		.uleb128 0x3
 682 001b 08       		.uleb128 0x8
 683 001c 00       		.byte	0
 684 001d 00       		.byte	0
 685 001e 03       		.uleb128 0x3
 686 001f 24       		.uleb128 0x24
 687 0020 00       		.byte	0
 688 0021 0B       		.uleb128 0xb
 689 0022 0B       		.uleb128 0xb
 690 0023 3E       		.uleb128 0x3e
 691 0024 0B       		.uleb128 0xb
 692 0025 03       		.uleb128 0x3
 693 0026 0E       		.uleb128 0xe
 694 0027 00       		.byte	0
 695 0028 00       		.byte	0
 696 0029 04       		.uleb128 0x4
 697 002a 16       		.uleb128 0x16
 698 002b 00       		.byte	0
 699 002c 03       		.uleb128 0x3
 700 002d 0E       		.uleb128 0xe
 701 002e 3A       		.uleb128 0x3a
 702 002f 0B       		.uleb128 0xb
 703 0030 3B       		.uleb128 0x3b
 704 0031 0B       		.uleb128 0xb
 705 0032 49       		.uleb128 0x49
 706 0033 13       		.uleb128 0x13
 707 0034 00       		.byte	0
 708 0035 00       		.byte	0
 709 0036 05       		.uleb128 0x5
 710 0037 35       		.uleb128 0x35
 711 0038 00       		.byte	0
 712 0039 49       		.uleb128 0x49
 713 003a 13       		.uleb128 0x13
 714 003b 00       		.byte	0
 715 003c 00       		.byte	0
 716 003d 06       		.uleb128 0x6
 717 003e 13       		.uleb128 0x13
 718 003f 01       		.byte	0x1
 719 0040 0B       		.uleb128 0xb
 720 0041 05       		.uleb128 0x5
 721 0042 3A       		.uleb128 0x3a
 722 0043 0B       		.uleb128 0xb
 723 0044 3B       		.uleb128 0x3b
 724 0045 0B       		.uleb128 0xb
 725 0046 01       		.uleb128 0x1
 726 0047 13       		.uleb128 0x13
 727 0048 00       		.byte	0
 728 0049 00       		.byte	0
 729 004a 07       		.uleb128 0x7
 730 004b 0D       		.uleb128 0xd
 731 004c 00       		.byte	0
 732 004d 03       		.uleb128 0x3
 733 004e 0E       		.uleb128 0xe
 734 004f 3A       		.uleb128 0x3a
 735 0050 0B       		.uleb128 0xb
ARM GAS  /tmp/ccy0gwUg.s 			page 14


 736 0051 3B       		.uleb128 0x3b
 737 0052 0B       		.uleb128 0xb
 738 0053 49       		.uleb128 0x49
 739 0054 13       		.uleb128 0x13
 740 0055 38       		.uleb128 0x38
 741 0056 0B       		.uleb128 0xb
 742 0057 00       		.byte	0
 743 0058 00       		.byte	0
 744 0059 08       		.uleb128 0x8
 745 005a 0D       		.uleb128 0xd
 746 005b 00       		.byte	0
 747 005c 03       		.uleb128 0x3
 748 005d 0E       		.uleb128 0xe
 749 005e 3A       		.uleb128 0x3a
 750 005f 0B       		.uleb128 0xb
 751 0060 3B       		.uleb128 0x3b
 752 0061 0B       		.uleb128 0xb
 753 0062 49       		.uleb128 0x49
 754 0063 13       		.uleb128 0x13
 755 0064 38       		.uleb128 0x38
 756 0065 05       		.uleb128 0x5
 757 0066 00       		.byte	0
 758 0067 00       		.byte	0
 759 0068 09       		.uleb128 0x9
 760 0069 0D       		.uleb128 0xd
 761 006a 00       		.byte	0
 762 006b 03       		.uleb128 0x3
 763 006c 08       		.uleb128 0x8
 764 006d 3A       		.uleb128 0x3a
 765 006e 0B       		.uleb128 0xb
 766 006f 3B       		.uleb128 0x3b
 767 0070 0B       		.uleb128 0xb
 768 0071 49       		.uleb128 0x49
 769 0072 13       		.uleb128 0x13
 770 0073 38       		.uleb128 0x38
 771 0074 05       		.uleb128 0x5
 772 0075 00       		.byte	0
 773 0076 00       		.byte	0
 774 0077 0A       		.uleb128 0xa
 775 0078 01       		.uleb128 0x1
 776 0079 01       		.byte	0x1
 777 007a 49       		.uleb128 0x49
 778 007b 13       		.uleb128 0x13
 779 007c 01       		.uleb128 0x1
 780 007d 13       		.uleb128 0x13
 781 007e 00       		.byte	0
 782 007f 00       		.byte	0
 783 0080 0B       		.uleb128 0xb
 784 0081 21       		.uleb128 0x21
 785 0082 00       		.byte	0
 786 0083 49       		.uleb128 0x49
 787 0084 13       		.uleb128 0x13
 788 0085 2F       		.uleb128 0x2f
 789 0086 0B       		.uleb128 0xb
 790 0087 00       		.byte	0
 791 0088 00       		.byte	0
 792 0089 0C       		.uleb128 0xc
ARM GAS  /tmp/ccy0gwUg.s 			page 15


 793 008a 21       		.uleb128 0x21
 794 008b 00       		.byte	0
 795 008c 49       		.uleb128 0x49
 796 008d 13       		.uleb128 0x13
 797 008e 2F       		.uleb128 0x2f
 798 008f 05       		.uleb128 0x5
 799 0090 00       		.byte	0
 800 0091 00       		.byte	0
 801 0092 0D       		.uleb128 0xd
 802 0093 13       		.uleb128 0x13
 803 0094 01       		.byte	0x1
 804 0095 0B       		.uleb128 0xb
 805 0096 0B       		.uleb128 0xb
 806 0097 3A       		.uleb128 0x3a
 807 0098 0B       		.uleb128 0xb
 808 0099 3B       		.uleb128 0x3b
 809 009a 0B       		.uleb128 0xb
 810 009b 01       		.uleb128 0x1
 811 009c 13       		.uleb128 0x13
 812 009d 00       		.byte	0
 813 009e 00       		.byte	0
 814 009f 0E       		.uleb128 0xe
 815 00a0 0D       		.uleb128 0xd
 816 00a1 00       		.byte	0
 817 00a2 03       		.uleb128 0x3
 818 00a3 08       		.uleb128 0x8
 819 00a4 3A       		.uleb128 0x3a
 820 00a5 0B       		.uleb128 0xb
 821 00a6 3B       		.uleb128 0x3b
 822 00a7 0B       		.uleb128 0xb
 823 00a8 49       		.uleb128 0x49
 824 00a9 13       		.uleb128 0x13
 825 00aa 38       		.uleb128 0x38
 826 00ab 0B       		.uleb128 0xb
 827 00ac 00       		.byte	0
 828 00ad 00       		.byte	0
 829 00ae 0F       		.uleb128 0xf
 830 00af 2E       		.uleb128 0x2e
 831 00b0 01       		.byte	0x1
 832 00b1 3F       		.uleb128 0x3f
 833 00b2 19       		.uleb128 0x19
 834 00b3 03       		.uleb128 0x3
 835 00b4 0E       		.uleb128 0xe
 836 00b5 3A       		.uleb128 0x3a
 837 00b6 0B       		.uleb128 0xb
 838 00b7 3B       		.uleb128 0x3b
 839 00b8 0B       		.uleb128 0xb
 840 00b9 27       		.uleb128 0x27
 841 00ba 19       		.uleb128 0x19
 842 00bb 11       		.uleb128 0x11
 843 00bc 01       		.uleb128 0x1
 844 00bd 12       		.uleb128 0x12
 845 00be 06       		.uleb128 0x6
 846 00bf 40       		.uleb128 0x40
 847 00c0 18       		.uleb128 0x18
 848 00c1 9742     		.uleb128 0x2117
 849 00c3 19       		.uleb128 0x19
ARM GAS  /tmp/ccy0gwUg.s 			page 16


 850 00c4 01       		.uleb128 0x1
 851 00c5 13       		.uleb128 0x13
 852 00c6 00       		.byte	0
 853 00c7 00       		.byte	0
 854 00c8 10       		.uleb128 0x10
 855 00c9 05       		.uleb128 0x5
 856 00ca 00       		.byte	0
 857 00cb 03       		.uleb128 0x3
 858 00cc 08       		.uleb128 0x8
 859 00cd 3A       		.uleb128 0x3a
 860 00ce 0B       		.uleb128 0xb
 861 00cf 3B       		.uleb128 0x3b
 862 00d0 0B       		.uleb128 0xb
 863 00d1 49       		.uleb128 0x49
 864 00d2 13       		.uleb128 0x13
 865 00d3 02       		.uleb128 0x2
 866 00d4 17       		.uleb128 0x17
 867 00d5 00       		.byte	0
 868 00d6 00       		.byte	0
 869 00d7 11       		.uleb128 0x11
 870 00d8 05       		.uleb128 0x5
 871 00d9 00       		.byte	0
 872 00da 03       		.uleb128 0x3
 873 00db 0E       		.uleb128 0xe
 874 00dc 3A       		.uleb128 0x3a
 875 00dd 0B       		.uleb128 0xb
 876 00de 3B       		.uleb128 0x3b
 877 00df 0B       		.uleb128 0xb
 878 00e0 49       		.uleb128 0x49
 879 00e1 13       		.uleb128 0x13
 880 00e2 02       		.uleb128 0x2
 881 00e3 17       		.uleb128 0x17
 882 00e4 00       		.byte	0
 883 00e5 00       		.byte	0
 884 00e6 12       		.uleb128 0x12
 885 00e7 34       		.uleb128 0x34
 886 00e8 00       		.byte	0
 887 00e9 03       		.uleb128 0x3
 888 00ea 08       		.uleb128 0x8
 889 00eb 3A       		.uleb128 0x3a
 890 00ec 0B       		.uleb128 0xb
 891 00ed 3B       		.uleb128 0x3b
 892 00ee 0B       		.uleb128 0xb
 893 00ef 49       		.uleb128 0x49
 894 00f0 13       		.uleb128 0x13
 895 00f1 02       		.uleb128 0x2
 896 00f2 17       		.uleb128 0x17
 897 00f3 00       		.byte	0
 898 00f4 00       		.byte	0
 899 00f5 13       		.uleb128 0x13
 900 00f6 2E       		.uleb128 0x2e
 901 00f7 01       		.byte	0x1
 902 00f8 3F       		.uleb128 0x3f
 903 00f9 19       		.uleb128 0x19
 904 00fa 03       		.uleb128 0x3
 905 00fb 0E       		.uleb128 0xe
 906 00fc 3A       		.uleb128 0x3a
ARM GAS  /tmp/ccy0gwUg.s 			page 17


 907 00fd 0B       		.uleb128 0xb
 908 00fe 3B       		.uleb128 0x3b
 909 00ff 0B       		.uleb128 0xb
 910 0100 27       		.uleb128 0x27
 911 0101 19       		.uleb128 0x19
 912 0102 11       		.uleb128 0x11
 913 0103 01       		.uleb128 0x1
 914 0104 12       		.uleb128 0x12
 915 0105 06       		.uleb128 0x6
 916 0106 40       		.uleb128 0x40
 917 0107 18       		.uleb128 0x18
 918 0108 9742     		.uleb128 0x2117
 919 010a 19       		.uleb128 0x19
 920 010b 00       		.byte	0
 921 010c 00       		.byte	0
 922 010d 00       		.byte	0
 923              		.section	.debug_loc,"",%progbits
 924              	.Ldebug_loc0:
 925              	.LLST0:
 926 0000 00000000 		.4byte	.LVL0
 927 0004 28000000 		.4byte	.LVL4
 928 0008 0100     		.2byte	0x1
 929 000a 50       		.byte	0x50
 930 000b 28000000 		.4byte	.LVL4
 931 000f 46000000 		.4byte	.LFE7
 932 0013 0400     		.2byte	0x4
 933 0015 F3       		.byte	0xf3
 934 0016 01       		.uleb128 0x1
 935 0017 50       		.byte	0x50
 936 0018 9F       		.byte	0x9f
 937 0019 00000000 		.4byte	0
 938 001d 00000000 		.4byte	0
 939              	.LLST1:
 940 0021 00000000 		.4byte	.LVL0
 941 0025 0E000000 		.4byte	.LVL2
 942 0029 0100     		.2byte	0x1
 943 002b 51       		.byte	0x51
 944 002c 0E000000 		.4byte	.LVL2
 945 0030 46000000 		.4byte	.LFE7
 946 0034 0400     		.2byte	0x4
 947 0036 F3       		.byte	0xf3
 948 0037 01       		.uleb128 0x1
 949 0038 51       		.byte	0x51
 950 0039 9F       		.byte	0x9f
 951 003a 00000000 		.4byte	0
 952 003e 00000000 		.4byte	0
 953              	.LLST2:
 954 0042 00000000 		.4byte	.LVL0
 955 0046 08000000 		.4byte	.LVL1
 956 004a 0700     		.2byte	0x7
 957 004c 70       		.byte	0x70
 958 004d 00       		.sleb128 0
 959 004e 33       		.byte	0x33
 960 004f 1A       		.byte	0x1a
 961 0050 33       		.byte	0x33
 962 0051 24       		.byte	0x24
 963 0052 9F       		.byte	0x9f
ARM GAS  /tmp/ccy0gwUg.s 			page 18


 964 0053 08000000 		.4byte	.LVL1
 965 0057 14000000 		.4byte	.LVL3
 966 005b 0100     		.2byte	0x1
 967 005d 53       		.byte	0x53
 968 005e 14000000 		.4byte	.LVL3
 969 0062 28000000 		.4byte	.LVL4
 970 0066 0700     		.2byte	0x7
 971 0068 70       		.byte	0x70
 972 0069 00       		.sleb128 0
 973 006a 33       		.byte	0x33
 974 006b 1A       		.byte	0x1a
 975 006c 33       		.byte	0x33
 976 006d 24       		.byte	0x24
 977 006e 9F       		.byte	0x9f
 978 006f 28000000 		.4byte	.LVL4
 979 0073 46000000 		.4byte	.LFE7
 980 0077 0800     		.2byte	0x8
 981 0079 F3       		.byte	0xf3
 982 007a 01       		.uleb128 0x1
 983 007b 50       		.byte	0x50
 984 007c 33       		.byte	0x33
 985 007d 1A       		.byte	0x1a
 986 007e 33       		.byte	0x33
 987 007f 24       		.byte	0x24
 988 0080 9F       		.byte	0x9f
 989 0081 00000000 		.4byte	0
 990 0085 00000000 		.4byte	0
 991              	.LLST3:
 992 0089 00000000 		.4byte	.LVL5
 993 008d 20000000 		.4byte	.LVL8
 994 0091 0100     		.2byte	0x1
 995 0093 50       		.byte	0x50
 996 0094 20000000 		.4byte	.LVL8
 997 0098 44000000 		.4byte	.LFE8
 998 009c 0400     		.2byte	0x4
 999 009e F3       		.byte	0xf3
 1000 009f 01       		.uleb128 0x1
 1001 00a0 50       		.byte	0x50
 1002 00a1 9F       		.byte	0x9f
 1003 00a2 00000000 		.4byte	0
 1004 00a6 00000000 		.4byte	0
 1005              	.LLST4:
 1006 00aa 00000000 		.4byte	.LVL5
 1007 00ae 12000000 		.4byte	.LVL6
 1008 00b2 0700     		.2byte	0x7
 1009 00b4 70       		.byte	0x70
 1010 00b5 00       		.sleb128 0
 1011 00b6 33       		.byte	0x33
 1012 00b7 1A       		.byte	0x1a
 1013 00b8 33       		.byte	0x33
 1014 00b9 24       		.byte	0x24
 1015 00ba 9F       		.byte	0x9f
 1016 00bb 12000000 		.4byte	.LVL6
 1017 00bf 16000000 		.4byte	.LVL7
 1018 00c3 0100     		.2byte	0x1
 1019 00c5 51       		.byte	0x51
 1020 00c6 16000000 		.4byte	.LVL7
ARM GAS  /tmp/ccy0gwUg.s 			page 19


 1021 00ca 20000000 		.4byte	.LVL8
 1022 00ce 0700     		.2byte	0x7
 1023 00d0 70       		.byte	0x70
 1024 00d1 00       		.sleb128 0
 1025 00d2 33       		.byte	0x33
 1026 00d3 1A       		.byte	0x1a
 1027 00d4 33       		.byte	0x33
 1028 00d5 24       		.byte	0x24
 1029 00d6 9F       		.byte	0x9f
 1030 00d7 20000000 		.4byte	.LVL8
 1031 00db 44000000 		.4byte	.LFE8
 1032 00df 0800     		.2byte	0x8
 1033 00e1 F3       		.byte	0xf3
 1034 00e2 01       		.uleb128 0x1
 1035 00e3 50       		.byte	0x50
 1036 00e4 33       		.byte	0x33
 1037 00e5 1A       		.byte	0x1a
 1038 00e6 33       		.byte	0x33
 1039 00e7 24       		.byte	0x24
 1040 00e8 9F       		.byte	0x9f
 1041 00e9 00000000 		.4byte	0
 1042 00ed 00000000 		.4byte	0
 1043              	.LLST5:
 1044 00f1 00000000 		.4byte	.LVL9
 1045 00f5 10000000 		.4byte	.LVL12
 1046 00f9 0100     		.2byte	0x1
 1047 00fb 50       		.byte	0x50
 1048 00fc 10000000 		.4byte	.LVL12
 1049 0100 24000000 		.4byte	.LFE9
 1050 0104 0400     		.2byte	0x4
 1051 0106 F3       		.byte	0xf3
 1052 0107 01       		.uleb128 0x1
 1053 0108 50       		.byte	0x50
 1054 0109 9F       		.byte	0x9f
 1055 010a 00000000 		.4byte	0
 1056 010e 00000000 		.4byte	0
 1057              	.LLST6:
 1058 0112 00000000 		.4byte	.LVL9
 1059 0116 0C000000 		.4byte	.LVL11
 1060 011a 0100     		.2byte	0x1
 1061 011c 51       		.byte	0x51
 1062 011d 0C000000 		.4byte	.LVL11
 1063 0121 24000000 		.4byte	.LFE9
 1064 0125 0400     		.2byte	0x4
 1065 0127 F3       		.byte	0xf3
 1066 0128 01       		.uleb128 0x1
 1067 0129 51       		.byte	0x51
 1068 012a 9F       		.byte	0x9f
 1069 012b 00000000 		.4byte	0
 1070 012f 00000000 		.4byte	0
 1071              	.LLST7:
 1072 0133 00000000 		.4byte	.LVL9
 1073 0137 06000000 		.4byte	.LVL10
 1074 013b 0700     		.2byte	0x7
 1075 013d 70       		.byte	0x70
 1076 013e 00       		.sleb128 0
 1077 013f 33       		.byte	0x33
ARM GAS  /tmp/ccy0gwUg.s 			page 20


 1078 0140 1A       		.byte	0x1a
 1079 0141 33       		.byte	0x33
 1080 0142 24       		.byte	0x24
 1081 0143 9F       		.byte	0x9f
 1082 0144 06000000 		.4byte	.LVL10
 1083 0148 1A000000 		.4byte	.LVL13
 1084 014c 0100     		.2byte	0x1
 1085 014e 53       		.byte	0x53
 1086 014f 1A000000 		.4byte	.LVL13
 1087 0153 24000000 		.4byte	.LFE9
 1088 0157 0800     		.2byte	0x8
 1089 0159 F3       		.byte	0xf3
 1090 015a 01       		.uleb128 0x1
 1091 015b 50       		.byte	0x50
 1092 015c 33       		.byte	0x33
 1093 015d 1A       		.byte	0x1a
 1094 015e 33       		.byte	0x33
 1095 015f 24       		.byte	0x24
 1096 0160 9F       		.byte	0x9f
 1097 0161 00000000 		.4byte	0
 1098 0165 00000000 		.4byte	0
 1099              		.section	.debug_aranges,"",%progbits
 1100 0000 2C000000 		.4byte	0x2c
 1101 0004 0200     		.2byte	0x2
 1102 0006 00000000 		.4byte	.Ldebug_info0
 1103 000a 04       		.byte	0x4
 1104 000b 00       		.byte	0
 1105 000c 0000     		.2byte	0
 1106 000e 0000     		.2byte	0
 1107 0010 00000000 		.4byte	.LFB7
 1108 0014 46000000 		.4byte	.LFE7-.LFB7
 1109 0018 00000000 		.4byte	.LFB8
 1110 001c 44000000 		.4byte	.LFE8-.LFB8
 1111 0020 00000000 		.4byte	.LFB9
 1112 0024 24000000 		.4byte	.LFE9-.LFB9
 1113 0028 00000000 		.4byte	0
 1114 002c 00000000 		.4byte	0
 1115              		.section	.debug_ranges,"",%progbits
 1116              	.Ldebug_ranges0:
 1117 0000 00000000 		.4byte	.LFB7
 1118 0004 46000000 		.4byte	.LFE7
 1119 0008 00000000 		.4byte	.LFB8
 1120 000c 44000000 		.4byte	.LFE8
 1121 0010 00000000 		.4byte	.LFB9
 1122 0014 24000000 		.4byte	.LFE9
 1123 0018 00000000 		.4byte	0
 1124 001c 00000000 		.4byte	0
 1125              		.section	.debug_line,"",%progbits
 1126              	.Ldebug_line0:
 1127 0000 DE000000 		.section	.debug_str,"MS",%progbits,1
 1127      02008F00 
 1127      00000201 
 1127      FB0E0D00 
 1127      01010101 
 1128              	.LASF41:
 1129 0000 7072696F 		.ascii	"prio\000"
 1129      00
ARM GAS  /tmp/ccy0gwUg.s 			page 21


 1130              	.LASF17:
 1131 0005 49435052 		.ascii	"ICPR\000"
 1131      00
 1132              	.LASF37:
 1133 000a 4D4D4652 		.ascii	"MMFR\000"
 1133      00
 1134              	.LASF30:
 1135 000f 53484353 		.ascii	"SHCSR\000"
 1135      5200
 1136              	.LASF43:
 1137 0015 6E766963 		.ascii	"nvicDisableVector\000"
 1137      44697361 
 1137      626C6556 
 1137      6563746F 
 1137      7200
 1138              	.LASF47:
 1139 0027 2F686F6D 		.ascii	"/home/santi/Documentos/ProyectoDron_2018/MCU/creato"
 1139      652F7361 
 1139      6E74692F 
 1139      446F6375 
 1139      6D656E74 
 1140 005a 7200     		.ascii	"r\000"
 1141              	.LASF46:
 1142 005c 2E2E2F74 		.ascii	"../third_party/ChibiOS/os/ports/common/ARMCMx/nvic."
 1142      68697264 
 1142      5F706172 
 1142      74792F43 
 1142      68696269 
 1143 008f 6300     		.ascii	"c\000"
 1144              	.LASF24:
 1145 0091 434D785F 		.ascii	"CMx_NVIC\000"
 1145      4E564943 
 1145      00
 1146              	.LASF27:
 1147 009a 56544F52 		.ascii	"VTOR\000"
 1147      00
 1148              	.LASF13:
 1149 009f 49434552 		.ascii	"ICER\000"
 1149      00
 1150              	.LASF10:
 1151 00a4 494F5245 		.ascii	"IOREG32\000"
 1151      47333200 
 1152              	.LASF2:
 1153 00ac 756E7369 		.ascii	"unsigned char\000"
 1153      676E6564 
 1153      20636861 
 1153      7200
 1154              	.LASF12:
 1155 00ba 756E7573 		.ascii	"unused1\000"
 1155      65643100 
 1156              	.LASF14:
 1157 00c2 756E7573 		.ascii	"unused2\000"
 1157      65643200 
 1158              	.LASF16:
 1159 00ca 756E7573 		.ascii	"unused3\000"
 1159      65643300 
 1160              	.LASF18:
ARM GAS  /tmp/ccy0gwUg.s 			page 22


 1161 00d2 756E7573 		.ascii	"unused4\000"
 1161      65643400 
 1162              	.LASF20:
 1163 00da 756E7573 		.ascii	"unused5\000"
 1163      65643500 
 1164              	.LASF21:
 1165 00e2 756E7573 		.ascii	"unused6\000"
 1165      65643600 
 1166              	.LASF4:
 1167 00ea 73686F72 		.ascii	"short unsigned int\000"
 1167      7420756E 
 1167      7369676E 
 1167      65642069 
 1167      6E7400
 1168              	.LASF31:
 1169 00fd 43465352 		.ascii	"CFSR\000"
 1169      00
 1170              	.LASF32:
 1171 0102 48465352 		.ascii	"HFSR\000"
 1171      00
 1172              	.LASF6:
 1173 0107 6C6F6E67 		.ascii	"long unsigned int\000"
 1173      20756E73 
 1173      69676E65 
 1173      6420696E 
 1173      7400
 1174              	.LASF38:
 1175 0119 43504143 		.ascii	"CPACR\000"
 1175      5200
 1176              	.LASF22:
 1177 011f 53544952 		.ascii	"STIR\000"
 1177      00
 1178              	.LASF3:
 1179 0124 73686F72 		.ascii	"short int\000"
 1179      7420696E 
 1179      7400
 1180              	.LASF0:
 1181 012e 756E7369 		.ascii	"unsigned int\000"
 1181      676E6564 
 1181      20696E74 
 1181      00
 1182              	.LASF15:
 1183 013b 49535052 		.ascii	"ISPR\000"
 1183      00
 1184              	.LASF33:
 1185 0140 44465352 		.ascii	"DFSR\000"
 1185      00
 1186              	.LASF8:
 1187 0145 6C6F6E67 		.ascii	"long long unsigned int\000"
 1187      206C6F6E 
 1187      6720756E 
 1187      7369676E 
 1187      65642069 
 1188              	.LASF26:
 1189 015c 49435352 		.ascii	"ICSR\000"
 1189      00
 1190              	.LASF39:
ARM GAS  /tmp/ccy0gwUg.s 			page 23


 1191 0161 434D785F 		.ascii	"CMx_SCB\000"
 1191      53434200 
 1192              	.LASF45:
 1193 0169 474E5520 		.ascii	"GNU C 4.8.1 -mcpu=cortex-m3 -mno-thumb-interwork -m"
 1193      4320342E 
 1193      382E3120 
 1193      2D6D6370 
 1193      753D636F 
 1194 019c 7468756D 		.ascii	"thumb -ggdb -O2 -std=gnu99 -fomit-frame-pointer -fa"
 1194      62202D67 
 1194      67646220 
 1194      2D4F3220 
 1194      2D737464 
 1195 01cf 6C69676E 		.ascii	"lign-functions=16 -ffunction-sections -fdata-sectio"
 1195      2D66756E 
 1195      6374696F 
 1195      6E733D31 
 1195      36202D66 
 1196 0202 6E73202D 		.ascii	"ns -fno-common\000"
 1196      666E6F2D 
 1196      636F6D6D 
 1196      6F6E00
 1197              	.LASF28:
 1198 0211 41495243 		.ascii	"AIRCR\000"
 1198      5200
 1199              	.LASF35:
 1200 0217 42464152 		.ascii	"BFAR\000"
 1200      00
 1201              	.LASF44:
 1202 021c 68616E64 		.ascii	"handler\000"
 1202      6C657200 
 1203              	.LASF23:
 1204 0224 73697A65 		.ascii	"sizetype\000"
 1204      74797065 
 1204      00
 1205              	.LASF7:
 1206 022d 6C6F6E67 		.ascii	"long long int\000"
 1206      206C6F6E 
 1206      6720696E 
 1206      7400
 1207              	.LASF25:
 1208 023b 43505549 		.ascii	"CPUID\000"
 1208      4400
 1209              	.LASF40:
 1210 0241 63686172 		.ascii	"char\000"
 1210      00
 1211              	.LASF11:
 1212 0246 49534552 		.ascii	"ISER\000"
 1212      00
 1213              	.LASF36:
 1214 024b 41465352 		.ascii	"AFSR\000"
 1214      00
 1215              	.LASF34:
 1216 0250 4D4D4641 		.ascii	"MMFAR\000"
 1216      5200
 1217              	.LASF9:
 1218 0256 75696E74 		.ascii	"uint32_t\000"
ARM GAS  /tmp/ccy0gwUg.s 			page 24


 1218      33325F74 
 1218      00
 1219              	.LASF5:
 1220 025f 6C6F6E67 		.ascii	"long int\000"
 1220      20696E74 
 1220      00
 1221              	.LASF29:
 1222 0268 53485052 		.ascii	"SHPR\000"
 1222      00
 1223              	.LASF1:
 1224 026d 7369676E 		.ascii	"signed char\000"
 1224      65642063 
 1224      68617200 
 1225              	.LASF48:
 1226 0279 6E766963 		.ascii	"nvicSetSystemHandlerPriority\000"
 1226      53657453 
 1226      79737465 
 1226      6D48616E 
 1226      646C6572 
 1227              	.LASF19:
 1228 0296 49414252 		.ascii	"IABR\000"
 1228      00
 1229              	.LASF42:
 1230 029b 6E766963 		.ascii	"nvicEnableVector\000"
 1230      456E6162 
 1230      6C655665 
 1230      63746F72 
 1230      00
 1231              		.ident	"GCC: (Sourcery CodeBench Lite 2013.11-24) 4.8.1"
ARM GAS  /tmp/ccy0gwUg.s 			page 25


DEFINED SYMBOLS
                            *ABS*:00000000 nvic.c
     /tmp/ccy0gwUg.s:19     .text.nvicEnableVector:00000000 $t
     /tmp/ccy0gwUg.s:25     .text.nvicEnableVector:00000000 nvicEnableVector
     /tmp/ccy0gwUg.s:81     .text.nvicDisableVector:00000000 $t
     /tmp/ccy0gwUg.s:87     .text.nvicDisableVector:00000000 nvicDisableVector
     /tmp/ccy0gwUg.s:135    .text.nvicSetSystemHandlerPriority:00000000 $t
     /tmp/ccy0gwUg.s:141    .text.nvicSetSystemHandlerPriority:00000000 nvicSetSystemHandlerPriority
                     .debug_frame:00000010 $d

NO UNDEFINED SYMBOLS
