ARM GAS  /tmp/ccy0gwUg.s 			page 1


   1              		.syntax unified
   2              		.cpu cortex-m3
   3              		.fpu softvfp
   4              		.eabi_attribute 20, 1
   5              		.eabi_attribute 21, 1
   6              		.eabi_attribute 23, 3
   7              		.eabi_attribute 24, 1
   8              		.eabi_attribute 25, 1
   9              		.eabi_attribute 26, 1
  10              		.eabi_attribute 30, 2
  11              		.eabi_attribute 34, 1
  12              		.eabi_attribute 18, 4
  13              		.thumb
  14              		.file	"nvic.c"
  15              		.text
  16              	.Ltext0:
  17              		.cfi_sections	.debug_frame
  18              		.section	.text.nvicEnableVector,"ax",%progbits
  19              		.align	2
  20              		.p2align 4,,15
  21              		.global	nvicEnableVector
  22              		.thumb
  23              		.thumb_func
  24              		.type	nvicEnableVector, %function
  25              	nvicEnableVector:
  26              	.LFB7:
  27              		.file 1 "../third_party/ChibiOS/os/ports/common/ARMCMx/nvic.c"
  28              		.loc 1 46 0
  29              		.cfi_startproc
  30              		@ args = 0, pretend = 0, frame = 0
  31              		@ frame_needed = 0, uses_anonymous_args = 0
  32              		@ link register save eliminated.
  33              	.LVL0:
  34              		.loc 1 47 0
  35 0000 00F00303 		and	r3, r0, #3
  36              		.loc 1 46 0
  37 0004 30B4     		push	{r4, r5}
  38              		.cfi_def_cfa_offset 8
  39              		.cfi_offset 4, -8
  40              		.cfi_offset 5, -4
  41              		.loc 1 47 0
  42 0006 DB00     		lsls	r3, r3, #3
  43              	.LVL1:
  44              		.loc 1 49 0
  45 0008 FF25     		movs	r5, #255
  46 000a 9D40     		lsls	r5, r5, r3
  47 000c 9940     		lsls	r1, r1, r3
  48              	.LVL2:
  49              		.loc 1 50 0
  50 000e 0122     		movs	r2, #1
  51 0010 00F01F03 		and	r3, r0, #31
  52              	.LVL3:
  53 0014 9A40     		lsls	r2, r2, r3
  54 0016 20F00304 		bic	r4, r0, #3
  55 001a 04F16044 		add	r4, r4, #-536870912
  56 001e 04F56144 		add	r4, r4, #57600
  57              		.loc 1 49 0
ARM GAS  /tmp/ccy0gwUg.s 			page 2


  58 0022 D4F80033 		ldr	r3, [r4, #768]
  59              		.loc 1 50 0
  60 0026 4009     		lsrs	r0, r0, #5
  61              	.LVL4:
  62 0028 8000     		lsls	r0, r0, #2
  63              		.loc 1 49 0
  64 002a 23EA0503 		bic	r3, r3, r5
  65 002e 00F16040 		add	r0, r0, #-536870912
  66 0032 00F56140 		add	r0, r0, #57600
  67 0036 0B43     		orrs	r3, r3, r1
  68 0038 C4F80033 		str	r3, [r4, #768]
  69              		.loc 1 50 0
  70 003c C0F88021 		str	r2, [r0, #384]
  71              		.loc 1 52 0
  72 0040 30BC     		pop	{r4, r5}
  73              		.loc 1 51 0
  74 0042 0260     		str	r2, [r0]
  75              		.loc 1 52 0
  76 0044 7047     		bx	lr
  77              		.cfi_endproc
  78              	.LFE7:
  79              		.size	nvicEnableVector, .-nvicEnableVector
  80 0046 00BFAFF3 		.section	.text.nvicDisableVector,"ax",%progbits
  80      0080AFF3 
  80      0080
  81              		.align	2
  82              		.p2align 4,,15
  83              		.global	nvicDisableVector
  84              		.thumb
  85              		.thumb_func
  86              		.type	nvicDisableVector, %function
  87              	nvicDisableVector:
  88              	.LFB8:
  89              		.loc 1 60 0
  90              		.cfi_startproc
  91              		@ args = 0, pretend = 0, frame = 0
  92              		@ frame_needed = 0, uses_anonymous_args = 0
  93              		@ link register save eliminated.
  94              	.LVL5:
  95 0000 10B4     		push	{r4}
  96              		.cfi_def_cfa_offset 4
  97              		.cfi_offset 4, -4
  98              		.loc 1 63 0
  99 0002 00F01F03 		and	r3, r0, #31
 100 0006 0124     		movs	r4, #1
 101 0008 9C40     		lsls	r4, r4, r3
 102              		.loc 1 61 0
 103 000a 00F00301 		and	r1, r0, #3
 104              		.loc 1 64 0
 105 000e FF23     		movs	r3, #255
 106              		.loc 1 61 0
 107 0010 C900     		lsls	r1, r1, #3
 108              	.LVL6:
 109              		.loc 1 64 0
 110 0012 03FA01F1 		lsl	r1, r3, r1
 111              	.LVL7:
 112              		.loc 1 63 0
ARM GAS  /tmp/ccy0gwUg.s 			page 3


 113 0016 4209     		lsrs	r2, r0, #5
 114 0018 4FF46143 		mov	r3, #57600
 115 001c 20F00300 		bic	r0, r0, #3
 116              	.LVL8:
 117 0020 2032     		adds	r2, r2, #32
 118 0022 CEF20003 		movt	r3, 57344
 119 0026 00F16040 		add	r0, r0, #-536870912
 120 002a 43F82240 		str	r4, [r3, r2, lsl #2]
 121 002e 00F56140 		add	r0, r0, #57600
 122              		.loc 1 64 0
 123 0032 D0F80023 		ldr	r2, [r0, #768]
 124              		.loc 1 65 0
 125 0036 5DF8044B 		ldr	r4, [sp], #4
 126              		.loc 1 64 0
 127 003a 22EA0103 		bic	r3, r2, r1
 128 003e C0F80033 		str	r3, [r0, #768]
 129              		.loc 1 65 0
 130 0042 7047     		bx	lr
 131              		.cfi_endproc
 132              	.LFE8:
 133              		.size	nvicDisableVector, .-nvicDisableVector
 134 0044 AFF30080 		.section	.text.nvicSetSystemHandlerPriority,"ax",%progbits
 134      AFF30080 
 134      AFF30080 
 135              		.align	2
 136              		.p2align 4,,15
 137              		.global	nvicSetSystemHandlerPriority
 138              		.thumb
 139              		.thumb_func
 140              		.type	nvicSetSystemHandlerPriority, %function
 141              	nvicSetSystemHandlerPriority:
 142              	.LFB9:
 143              		.loc 1 74 0
 144              		.cfi_startproc
 145              		@ args = 0, pretend = 0, frame = 0
 146              		@ frame_needed = 0, uses_anonymous_args = 0
 147              		@ link register save eliminated.
 148              	.LVL9:
 149              		.loc 1 75 0
 150 0000 00F00303 		and	r3, r0, #3
 151 0004 DB00     		lsls	r3, r3, #3
 152              	.LVL10:
 153              		.loc 1 78 0
 154 0006 FF22     		movs	r2, #255
 155 0008 9A40     		lsls	r2, r2, r3
 156 000a 9940     		lsls	r1, r1, r3
 157              	.LVL11:
 158 000c 20F00300 		bic	r0, r0, #3
 159              	.LVL12:
 160 0010 00F16040 		add	r0, r0, #-536870912
 161 0014 00F56D40 		add	r0, r0, #60672
 162              		.loc 1 77 0
 163 0018 8369     		ldr	r3, [r0, #24]
 164              	.LVL13:
 165 001a 23EA0203 		bic	r3, r3, r2
 166              		.loc 1 78 0
 167 001e 0B43     		orrs	r3, r3, r1
ARM GAS  /tmp/ccy0gwUg.s 			page 4


 168              		.loc 1 77 0
 169 0020 8361     		str	r3, [r0, #24]
 170 0022 7047     		bx	lr
 171              		.cfi_endproc
 172              	.LFE9:
 173              		.size	nvicSetSystemHandlerPriority, .-nvicSetSystemHandlerPriority
 174 0024 AFF30080 		.text
 174      AFF30080 
 174      AFF30080 
 175              	.Letext0:
 176              		.file 2 "/home/santi/arm-2013.11/arm-none-eabi/include/stdint.h"
 177              		.file 3 "../third_party/ChibiOS/os/ports/common/ARMCMx/nvic.h"