ARM GAS  /tmp/cc9Vlfld.s 			page 1


   1              		.syntax unified
   2              		.cpu cortex-m3
   3              		.fpu softvfp
   4              		.eabi_attribute 20, 1
   5              		.eabi_attribute 21, 1
   6              		.eabi_attribute 23, 3
   7              		.eabi_attribute 24, 1
   8              		.eabi_attribute 25, 1
   9              		.eabi_attribute 26, 1
  10              		.eabi_attribute 30, 2
  11              		.eabi_attribute 34, 1
  12              		.eabi_attribute 18, 4
  13              		.thumb
  14              		.file	"pal_lld.c"
  15              		.text
  16              	.Ltext0:
  17              		.cfi_sections	.debug_frame
  18              		.section	.text._pal_lld_init,"ax",%progbits
  19              		.align	2
  20              		.p2align 4,,15
  21              		.global	_pal_lld_init
  22              		.thumb
  23              		.thumb_func
  24              		.type	_pal_lld_init, %function
  25              	_pal_lld_init:
  26              	.LFB36:
  27              		.file 1 "../third_party/ChibiOS/os/hal/platforms/AT91SAM3S/pal_lld.c"
  28              		.loc 1 71 0
  29              		.cfi_startproc
  30              		@ args = 0, pretend = 0, frame = 0
  31              		@ frame_needed = 0, uses_anonymous_args = 0
  32              		@ link register save eliminated.
  33              	.LVL0:
  34              		.loc 1 81 0
  35 0000 4FF48063 		mov	r3, #1024
  36 0004 4FF48641 		mov	r1, #17152
  37              		.loc 1 83 0
  38 0008 44F20132 		movw	r2, #17153
  39              		.loc 1 71 0
  40 000c 70B4     		push	{r4, r5, r6}
  41              		.cfi_def_cfa_offset 12
  42              		.cfi_offset 4, -12
  43              		.cfi_offset 5, -8
  44              		.cfi_offset 6, -4
  45              		.loc 1 81 0
  46 000e C4F20E03 		movt	r3, 16398
  47 0012 C5F24D01 		movt	r1, 20557
  48              		.loc 1 82 0
  49 0016 0124     		movs	r4, #1
  50              		.loc 1 83 0
  51 0018 C5F24D02 		movt	r2, 20557
  52              		.loc 1 81 0
  53 001c C3F8E410 		str	r1, [r3, #228]
  54              		.loc 1 82 0
  55 0020 1C61     		str	r4, [r3, #16]
  56              		.loc 1 83 0
  57 0022 C3F8E420 		str	r2, [r3, #228]
ARM GAS  /tmp/cc9Vlfld.s 			page 2


  58              		.loc 1 90 0
  59 0026 8168     		ldr	r1, [r0, #8]
  60 0028 4FF46062 		mov	r2, #3584
  61              		.loc 1 92 0
  62 002c 4FF0FF33 		mov	r3, #-1
  63              		.loc 1 90 0
  64 0030 C4F20E02 		movt	r2, 16398
  65              		.loc 1 91 0
  66 0034 CC43     		mvns	r4, r1
  67              		.loc 1 90 0
  68 0036 5166     		str	r1, [r2, #100]
  69              		.loc 1 91 0
  70 0038 1466     		str	r4, [r2, #96]
  71              		.loc 1 92 0
  72 003a 1360     		str	r3, [r2]
  73              		.loc 1 93 0
  74 003c 0168     		ldr	r1, [r0]
  75              		.loc 1 102 0
  76 003e 0024     		movs	r4, #0
  77              		.loc 1 93 0
  78 0040 9163     		str	r1, [r2, #56]
  79              		.loc 1 94 0
  80 0042 4568     		ldr	r5, [r0, #4]
  81              		.loc 1 110 0
  82 0044 4FF48051 		mov	r1, #4096
  83              		.loc 1 95 0
  84 0048 EE43     		mvns	r6, r5
  85              		.loc 1 94 0
  86 004a 1561     		str	r5, [r2, #16]
  87              		.loc 1 95 0
  88 004c 5661     		str	r6, [r2, #20]
  89              		.loc 1 96 0
  90 004e 5362     		str	r3, [r2, #36]
  91              		.loc 1 97 0
  92 0050 5364     		str	r3, [r2, #68]
  93              		.loc 1 98 0
  94 0052 5365     		str	r3, [r2, #84]
  95              		.loc 1 102 0
  96 0054 1467     		str	r4, [r2, #112]
  97              		.loc 1 103 0
  98 0056 5467     		str	r4, [r2, #116]
  99              		.loc 1 105 0
 100 0058 C2F8A030 		str	r3, [r2, #160]
 101              		.loc 1 110 0
 102 005c 4269     		ldr	r2, [r0, #20]
 103 005e C4F20E01 		movt	r1, 16398
 104              		.loc 1 111 0
 105 0062 D543     		mvns	r5, r2
 106              		.loc 1 110 0
 107 0064 4A66     		str	r2, [r1, #100]
 108              		.loc 1 111 0
 109 0066 0D66     		str	r5, [r1, #96]
 110              		.loc 1 112 0
 111 0068 0B60     		str	r3, [r1]
 112              		.loc 1 113 0
 113 006a C568     		ldr	r5, [r0, #12]
 114              		.loc 1 130 0
ARM GAS  /tmp/cc9Vlfld.s 			page 3


 115 006c 4FF49052 		mov	r2, #4608
 116              		.loc 1 113 0
 117 0070 8D63     		str	r5, [r1, #56]
 118              		.loc 1 114 0
 119 0072 0569     		ldr	r5, [r0, #16]
 120              		.loc 1 130 0
 121 0074 C4F20E02 		movt	r2, 16398
 122              		.loc 1 115 0
 123 0078 EE43     		mvns	r6, r5
 124              		.loc 1 114 0
 125 007a 0D61     		str	r5, [r1, #16]
 126              		.loc 1 115 0
 127 007c 4E61     		str	r6, [r1, #20]
 128              		.loc 1 116 0
 129 007e 4B62     		str	r3, [r1, #36]
 130              		.loc 1 117 0
 131 0080 4B64     		str	r3, [r1, #68]
 132              		.loc 1 118 0
 133 0082 4B65     		str	r3, [r1, #84]
 134              		.loc 1 122 0
 135 0084 0C67     		str	r4, [r1, #112]
 136              		.loc 1 123 0
 137 0086 4C67     		str	r4, [r1, #116]
 138              		.loc 1 125 0
 139 0088 C1F8A030 		str	r3, [r1, #160]
 140              		.loc 1 130 0
 141 008c 016A     		ldr	r1, [r0, #32]
 142              		.loc 1 131 0
 143 008e CD43     		mvns	r5, r1
 144              		.loc 1 130 0
 145 0090 5166     		str	r1, [r2, #100]
 146              		.loc 1 131 0
 147 0092 1566     		str	r5, [r2, #96]
 148              		.loc 1 132 0
 149 0094 1360     		str	r3, [r2]
 150              		.loc 1 133 0
 151 0096 8169     		ldr	r1, [r0, #24]
 152 0098 9163     		str	r1, [r2, #56]
 153              		.loc 1 134 0
 154 009a C169     		ldr	r1, [r0, #28]
 155              		.loc 1 135 0
 156 009c C843     		mvns	r0, r1
 157              	.LVL1:
 158              		.loc 1 134 0
 159 009e 1161     		str	r1, [r2, #16]
 160              		.loc 1 135 0
 161 00a0 5061     		str	r0, [r2, #20]
 162              		.loc 1 136 0
 163 00a2 5362     		str	r3, [r2, #36]
 164              		.loc 1 137 0
 165 00a4 5364     		str	r3, [r2, #68]
 166              		.loc 1 138 0
 167 00a6 5365     		str	r3, [r2, #84]
 168              		.loc 1 142 0
 169 00a8 1467     		str	r4, [r2, #112]
 170              		.loc 1 143 0
 171 00aa 5467     		str	r4, [r2, #116]
ARM GAS  /tmp/cc9Vlfld.s 			page 4


 172              		.loc 1 145 0
 173 00ac C2F8A030 		str	r3, [r2, #160]
 174              		.loc 1 146 0
 175 00b0 70BC     		pop	{r4, r5, r6}
 176 00b2 7047     		bx	lr
 177              		.cfi_endproc
 178              	.LFE36:
 179              		.size	_pal_lld_init, .-_pal_lld_init
 180 00b4 AFF30080 		.section	.text._pal_lld_setgroupmode,"ax",%progbits
 180      AFF30080 
 180      AFF30080 
 181              		.align	2
 182              		.p2align 4,,15
 183              		.global	_pal_lld_setgroupmode
 184              		.thumb
 185              		.thumb_func
 186              		.type	_pal_lld_setgroupmode, %function
 187              	_pal_lld_setgroupmode:
 188              	.LFB37:
 189              		.loc 1 167 0
 190              		.cfi_startproc
 191              		@ args = 0, pretend = 0, frame = 0
 192              		@ frame_needed = 0, uses_anonymous_args = 0
 193              		@ link register save eliminated.
 194              	.LVL2:
 195              		.loc 1 169 0
 196 0000 02F01F02 		and	r2, r2, #31
 197              	.LVL3:
 198 0004 072A     		cmp	r2, #7
 199 0006 08D8     		bhi	.L2
 200 0008 DFE802F0 		tbb	[pc, r2]
 201              	.L5:
 202 000c 10       		.byte	(.L4-.L5)/2
 203 000d 08       		.byte	(.L6-.L5)/2
 204 000e 0D       		.byte	(.L7-.L5)/2
 205 000f 10       		.byte	(.L4-.L5)/2
 206 0010 07       		.byte	(.L2-.L5)/2
 207 0011 0D       		.byte	(.L7-.L5)/2
 208 0012 09       		.byte	(.L8-.L5)/2
 209 0013 04       		.byte	(.L9-.L5)/2
 210              		.align	1
 211              	.L9:
 212              		.loc 1 189 0
 213 0014 4166     		str	r1, [r0, #100]
 214              		.loc 1 190 0
 215 0016 0161     		str	r1, [r0, #16]
 216              		.loc 1 191 0
 217 0018 0165     		str	r1, [r0, #80]
 218              	.L2:
 219 001a 7047     		bx	lr
 220              	.L6:
 221              		.loc 1 181 0
 222 001c 0163     		str	r1, [r0, #48]
 223              	.L8:
 224              		.loc 1 184 0
 225 001e 0166     		str	r1, [r0, #96]
 226              		.loc 1 185 0
ARM GAS  /tmp/cc9Vlfld.s 			page 5


 227 0020 0161     		str	r1, [r0, #16]
 228              		.loc 1 186 0
 229 0022 4165     		str	r1, [r0, #84]
 230              		.loc 1 187 0
 231 0024 7047     		bx	lr
 232              	.L7:
 233              		.loc 1 177 0
 234 0026 0166     		str	r1, [r0, #96]
 235              		.loc 1 178 0
 236 0028 4161     		str	r1, [r0, #20]
 237              		.loc 1 179 0
 238 002a 7047     		bx	lr
 239              	.L4:
 240              		.loc 1 172 0
 241 002c 4166     		str	r1, [r0, #100]
 242              		.loc 1 173 0
 243 002e 4161     		str	r1, [r0, #20]
 244              		.loc 1 174 0
 245 0030 7047     		bx	lr
 246              		.cfi_endproc
 247              	.LFE37:
 248              		.size	_pal_lld_setgroupmode, .-_pal_lld_setgroupmode
 249 0032 00BFAFF3 		.text
 249      0080AFF3 
 249      0080AFF3 
 249      0080
 250              	.Letext0:
 251              		.file 2 "/home/santi/arm-2013.11/arm-none-eabi/include/stdint.h"
 252              		.file 3 "../third_party/ChibiOS/os/hal/platforms/AT91SAM3S/at91lib/SAM3S.h"
 253              		.file 4 "../third_party/ChibiOS/os/hal/platforms/AT91SAM3S/pal_lld.h"
 254              		.file 5 "../third_party/ChibiOS/os/hal/platforms/AT91SAM3S/core_cm3.h"
 255              		.section	.debug_info,"",%progbits
 256              	.Ldebug_info0:
 257 0000 7D080000 		.4byte	0x87d
 258 0004 0400     		.2byte	0x4
 259 0006 00000000 		.4byte	.Ldebug_abbrev0
 260 000a 04       		.byte	0x4
 261 000b 01       		.uleb128 0x1
 262 000c 1A000000 		.4byte	.LASF133
 263 0010 01       		.byte	0x1
 264 0011 C6030000 		.4byte	.LASF134
 265 0015 02040000 		.4byte	.LASF135
 266 0019 00000000 		.4byte	.Ldebug_ranges0+0
 267 001d 00000000 		.4byte	0
 268 0021 00000000 		.4byte	.Ldebug_line0
 269 0025 02       		.uleb128 0x2
 270 0026 04       		.byte	0x4
 271 0027 05       		.byte	0x5
 272 0028 696E7400 		.ascii	"int\000"
 273 002c 03       		.uleb128 0x3
 274 002d 04       		.byte	0x4
 275 002e 07       		.byte	0x7
 276 002f 9C020000 		.4byte	.LASF0
 277 0033 03       		.uleb128 0x3
 278 0034 01       		.byte	0x1
 279 0035 06       		.byte	0x6
 280 0036 5F010000 		.4byte	.LASF1
ARM GAS  /tmp/cc9Vlfld.s 			page 6


 281 003a 03       		.uleb128 0x3
 282 003b 01       		.byte	0x1
 283 003c 08       		.byte	0x8
 284 003d 9E040000 		.4byte	.LASF2
 285 0041 03       		.uleb128 0x3
 286 0042 02       		.byte	0x2
 287 0043 05       		.byte	0x5
 288 0044 B5040000 		.4byte	.LASF3
 289 0048 03       		.uleb128 0x3
 290 0049 02       		.byte	0x2
 291 004a 07       		.byte	0x7
 292 004b 12030000 		.4byte	.LASF4
 293 004f 03       		.uleb128 0x3
 294 0050 04       		.byte	0x4
 295 0051 05       		.byte	0x5
 296 0052 F0010000 		.4byte	.LASF5
 297 0056 04       		.uleb128 0x4
 298 0057 0B050000 		.4byte	.LASF9
 299 005b 02       		.byte	0x2
 300 005c 50       		.byte	0x50
 301 005d 61000000 		.4byte	0x61
 302 0061 03       		.uleb128 0x3
 303 0062 04       		.byte	0x4
 304 0063 07       		.byte	0x7
 305 0064 DC020000 		.4byte	.LASF6
 306 0068 03       		.uleb128 0x3
 307 0069 08       		.byte	0x8
 308 006a 05       		.byte	0x5
 309 006b 51010000 		.4byte	.LASF7
 310 006f 03       		.uleb128 0x3
 311 0070 08       		.byte	0x8
 312 0071 07       		.byte	0x7
 313 0072 FF000000 		.4byte	.LASF8
 314 0076 04       		.uleb128 0x4
 315 0077 C8040000 		.4byte	.LASF10
 316 007b 02       		.byte	0x2
 317 007c A0       		.byte	0xa0
 318 007d 2C000000 		.4byte	0x2c
 319 0081 05       		.uleb128 0x5
 320 0082 56000000 		.4byte	0x56
 321 0086 03       		.uleb128 0x3
 322 0087 04       		.byte	0x4
 323 0088 07       		.byte	0x7
 324 0089 97030000 		.4byte	.LASF11
 325 008d 03       		.uleb128 0x3
 326 008e 01       		.byte	0x1
 327 008f 08       		.byte	0x8
 328 0090 2A050000 		.4byte	.LASF12
 329 0094 04       		.uleb128 0x4
 330 0095 67030000 		.4byte	.LASF13
 331 0099 03       		.byte	0x3
 332 009a 35       		.byte	0x35
 333 009b 9F000000 		.4byte	0x9f
 334 009f 06       		.uleb128 0x6
 335 00a0 81000000 		.4byte	0x81
 336 00a4 04       		.uleb128 0x4
 337 00a5 41040000 		.4byte	.LASF14
ARM GAS  /tmp/cc9Vlfld.s 			page 7


 338 00a9 03       		.byte	0x3
 339 00aa 39       		.byte	0x39
 340 00ab 81000000 		.4byte	0x81
 341 00af 04       		.uleb128 0x4
 342 00b0 9A050000 		.4byte	.LASF15
 343 00b4 03       		.byte	0x3
 344 00b5 3A       		.byte	0x3a
 345 00b6 81000000 		.4byte	0x81
 346 00ba 07       		.uleb128 0x7
 347 00bb AF000000 		.4byte	0xaf
 348 00bf CA000000 		.4byte	0xca
 349 00c3 08       		.uleb128 0x8
 350 00c4 86000000 		.4byte	0x86
 351 00c8 12       		.byte	0x12
 352 00c9 00       		.byte	0
 353 00ca 07       		.uleb128 0x7
 354 00cb AF000000 		.4byte	0xaf
 355 00cf DA000000 		.4byte	0xda
 356 00d3 08       		.uleb128 0x8
 357 00d4 86000000 		.4byte	0x86
 358 00d8 00       		.byte	0
 359 00d9 00       		.byte	0
 360 00da 07       		.uleb128 0x7
 361 00db AF000000 		.4byte	0xaf
 362 00df EA000000 		.4byte	0xea
 363 00e3 08       		.uleb128 0x8
 364 00e4 86000000 		.4byte	0x86
 365 00e8 01       		.byte	0x1
 366 00e9 00       		.byte	0
 367 00ea 07       		.uleb128 0x7
 368 00eb AF000000 		.4byte	0xaf
 369 00ef FA000000 		.4byte	0xfa
 370 00f3 08       		.uleb128 0x8
 371 00f4 86000000 		.4byte	0x86
 372 00f8 04       		.byte	0x4
 373 00f9 00       		.byte	0
 374 00fa 09       		.uleb128 0x9
 375 00fb 9001     		.2byte	0x190
 376 00fd 03       		.byte	0x3
 377 00fe DA06     		.2byte	0x6da
 378 0100 F3040000 		.4byte	0x4f3
 379 0104 0A       		.uleb128 0xa
 380 0105 4D020000 		.4byte	.LASF16
 381 0109 03       		.byte	0x3
 382 010a DB06     		.2byte	0x6db
 383 010c A4000000 		.4byte	0xa4
 384 0110 00       		.byte	0
 385 0111 0A       		.uleb128 0xa
 386 0112 E8010000 		.4byte	.LASF17
 387 0116 03       		.byte	0x3
 388 0117 DC06     		.2byte	0x6dc
 389 0119 A4000000 		.4byte	0xa4
 390 011d 04       		.byte	0x4
 391 011e 0A       		.uleb128 0xa
 392 011f 86010000 		.4byte	.LASF18
 393 0123 03       		.byte	0x3
 394 0124 DD06     		.2byte	0x6dd
ARM GAS  /tmp/cc9Vlfld.s 			page 8


 395 0126 94000000 		.4byte	0x94
 396 012a 08       		.byte	0x8
 397 012b 0A       		.uleb128 0xa
 398 012c 8E010000 		.4byte	.LASF19
 399 0130 03       		.byte	0x3
 400 0131 DE06     		.2byte	0x6de
 401 0133 F3040000 		.4byte	0x4f3
 402 0137 0C       		.byte	0xc
 403 0138 0A       		.uleb128 0xa
 404 0139 8F030000 		.4byte	.LASF20
 405 013d 03       		.byte	0x3
 406 013e DF06     		.2byte	0x6df
 407 0140 A4000000 		.4byte	0xa4
 408 0144 10       		.byte	0x10
 409 0145 0A       		.uleb128 0xa
 410 0146 00030000 		.4byte	.LASF21
 411 014a 03       		.byte	0x3
 412 014b E006     		.2byte	0x6e0
 413 014d A4000000 		.4byte	0xa4
 414 0151 14       		.byte	0x14
 415 0152 0A       		.uleb128 0xa
 416 0153 CF020000 		.4byte	.LASF22
 417 0157 03       		.byte	0x3
 418 0158 E106     		.2byte	0x6e1
 419 015a 94000000 		.4byte	0x94
 420 015e 18       		.byte	0x18
 421 015f 0A       		.uleb128 0xa
 422 0160 98010000 		.4byte	.LASF23
 423 0164 03       		.byte	0x3
 424 0165 E206     		.2byte	0x6e2
 425 0167 F8040000 		.4byte	0x4f8
 426 016b 1C       		.byte	0x1c
 427 016c 0A       		.uleb128 0xa
 428 016d 5F050000 		.4byte	.LASF24
 429 0171 03       		.byte	0x3
 430 0172 E306     		.2byte	0x6e3
 431 0174 A4000000 		.4byte	0xa4
 432 0178 20       		.byte	0x20
 433 0179 0A       		.uleb128 0xa
 434 017a BF040000 		.4byte	.LASF25
 435 017e 03       		.byte	0x3
 436 017f E406     		.2byte	0x6e4
 437 0181 A4000000 		.4byte	0xa4
 438 0185 24       		.byte	0x24
 439 0186 0A       		.uleb128 0xa
 440 0187 AC040000 		.4byte	.LASF26
 441 018b 03       		.byte	0x3
 442 018c E506     		.2byte	0x6e5
 443 018e 94000000 		.4byte	0x94
 444 0192 28       		.byte	0x28
 445 0193 0A       		.uleb128 0xa
 446 0194 A2010000 		.4byte	.LASF27
 447 0198 03       		.byte	0x3
 448 0199 E606     		.2byte	0x6e6
 449 019b FD040000 		.4byte	0x4fd
 450 019f 2C       		.byte	0x2c
 451 01a0 0A       		.uleb128 0xa
ARM GAS  /tmp/cc9Vlfld.s 			page 9


 452 01a1 0B060000 		.4byte	.LASF28
 453 01a5 03       		.byte	0x3
 454 01a6 E706     		.2byte	0x6e7
 455 01a8 A4000000 		.4byte	0xa4
 456 01ac 30       		.byte	0x30
 457 01ad 0A       		.uleb128 0xa
 458 01ae D5040000 		.4byte	.LASF29
 459 01b2 03       		.byte	0x3
 460 01b3 E806     		.2byte	0x6e8
 461 01b5 A4000000 		.4byte	0xa4
 462 01b9 34       		.byte	0x34
 463 01ba 0A       		.uleb128 0xa
 464 01bb F7020000 		.4byte	.LASF30
 465 01bf 03       		.byte	0x3
 466 01c0 E906     		.2byte	0x6e9
 467 01c2 AF000000 		.4byte	0xaf
 468 01c6 38       		.byte	0x38
 469 01c7 0A       		.uleb128 0xa
 470 01c8 29020000 		.4byte	.LASF31
 471 01cc 03       		.byte	0x3
 472 01cd EA06     		.2byte	0x6ea
 473 01cf 94000000 		.4byte	0x94
 474 01d3 3C       		.byte	0x3c
 475 01d4 0A       		.uleb128 0xa
 476 01d5 51040000 		.4byte	.LASF32
 477 01d9 03       		.byte	0x3
 478 01da EB06     		.2byte	0x6eb
 479 01dc A4000000 		.4byte	0xa4
 480 01e0 40       		.byte	0x40
 481 01e1 0A       		.uleb128 0xa
 482 01e2 6D030000 		.4byte	.LASF33
 483 01e6 03       		.byte	0x3
 484 01e7 EC06     		.2byte	0x6ec
 485 01e9 A4000000 		.4byte	0xa4
 486 01ed 44       		.byte	0x44
 487 01ee 0A       		.uleb128 0xa
 488 01ef 96040000 		.4byte	.LASF34
 489 01f3 03       		.byte	0x3
 490 01f4 ED06     		.2byte	0x6ed
 491 01f6 94000000 		.4byte	0x94
 492 01fa 48       		.byte	0x48
 493 01fb 0A       		.uleb128 0xa
 494 01fc 5F030000 		.4byte	.LASF35
 495 0200 03       		.byte	0x3
 496 0201 EE06     		.2byte	0x6ee
 497 0203 94000000 		.4byte	0x94
 498 0207 4C       		.byte	0x4c
 499 0208 0A       		.uleb128 0xa
 500 0209 02050000 		.4byte	.LASF36
 501 020d 03       		.byte	0x3
 502 020e EF06     		.2byte	0x6ef
 503 0210 A4000000 		.4byte	0xa4
 504 0214 50       		.byte	0x50
 505 0215 0A       		.uleb128 0xa
 506 0216 59040000 		.4byte	.LASF37
 507 021a 03       		.byte	0x3
 508 021b F006     		.2byte	0x6f0
ARM GAS  /tmp/cc9Vlfld.s 			page 10


 509 021d A4000000 		.4byte	0xa4
 510 0221 54       		.byte	0x54
 511 0222 0A       		.uleb128 0xa
 512 0223 3F010000 		.4byte	.LASF38
 513 0227 03       		.byte	0x3
 514 0228 F106     		.2byte	0x6f1
 515 022a 94000000 		.4byte	0x94
 516 022e 58       		.byte	0x58
 517 022f 0A       		.uleb128 0xa
 518 0230 AC010000 		.4byte	.LASF39
 519 0234 03       		.byte	0x3
 520 0235 F206     		.2byte	0x6f2
 521 0237 02050000 		.4byte	0x502
 522 023b 5C       		.byte	0x5c
 523 023c 0A       		.uleb128 0xa
 524 023d F9010000 		.4byte	.LASF40
 525 0241 03       		.byte	0x3
 526 0242 F306     		.2byte	0x6f3
 527 0244 A4000000 		.4byte	0xa4
 528 0248 60       		.byte	0x60
 529 0249 0A       		.uleb128 0xa
 530 024a B3020000 		.4byte	.LASF41
 531 024e 03       		.byte	0x3
 532 024f F406     		.2byte	0x6f4
 533 0251 A4000000 		.4byte	0xa4
 534 0255 64       		.byte	0x64
 535 0256 0A       		.uleb128 0xa
 536 0257 48010000 		.4byte	.LASF42
 537 025b 03       		.byte	0x3
 538 025c F506     		.2byte	0x6f5
 539 025e 94000000 		.4byte	0x94
 540 0262 68       		.byte	0x68
 541 0263 0A       		.uleb128 0xa
 542 0264 08030000 		.4byte	.LASF43
 543 0268 03       		.byte	0x3
 544 0269 F606     		.2byte	0x6f6
 545 026b 07050000 		.4byte	0x507
 546 026f 6C       		.byte	0x6c
 547 0270 0A       		.uleb128 0xa
 548 0271 42020000 		.4byte	.LASF44
 549 0275 03       		.byte	0x3
 550 0276 F706     		.2byte	0x6f7
 551 0278 0C050000 		.4byte	0x50c
 552 027c 70       		.byte	0x70
 553 027d 0A       		.uleb128 0xa
 554 027e C0010000 		.4byte	.LASF45
 555 0282 03       		.byte	0x3
 556 0283 F806     		.2byte	0x6f8
 557 0285 11050000 		.4byte	0x511
 558 0289 78       		.byte	0x78
 559 028a 0A       		.uleb128 0xa
 560 028b 54050000 		.4byte	.LASF46
 561 028f 03       		.byte	0x3
 562 0290 F906     		.2byte	0x6f9
 563 0292 A4000000 		.4byte	0xa4
 564 0296 80       		.byte	0x80
 565 0297 0A       		.uleb128 0xa
ARM GAS  /tmp/cc9Vlfld.s 			page 11


 566 0298 D9050000 		.4byte	.LASF47
 567 029c 03       		.byte	0x3
 568 029d FA06     		.2byte	0x6fa
 569 029f A4000000 		.4byte	0xa4
 570 02a3 84       		.byte	0x84
 571 02a4 0A       		.uleb128 0xa
 572 02a5 40050000 		.4byte	.LASF48
 573 02a9 03       		.byte	0x3
 574 02aa FB06     		.2byte	0x6fb
 575 02ac 94000000 		.4byte	0x94
 576 02b0 88       		.byte	0x88
 577 02b1 0A       		.uleb128 0xa
 578 02b2 36010000 		.4byte	.LASF49
 579 02b6 03       		.byte	0x3
 580 02b7 FC06     		.2byte	0x6fc
 581 02b9 AF000000 		.4byte	0xaf
 582 02bd 8C       		.byte	0x8c
 583 02be 0A       		.uleb128 0xa
 584 02bf 47040000 		.4byte	.LASF50
 585 02c3 03       		.byte	0x3
 586 02c4 FD06     		.2byte	0x6fd
 587 02c6 A4000000 		.4byte	0xa4
 588 02ca 90       		.byte	0x90
 589 02cb 0A       		.uleb128 0xa
 590 02cc F8040000 		.4byte	.LASF51
 591 02d0 03       		.byte	0x3
 592 02d1 FE06     		.2byte	0x6fe
 593 02d3 A4000000 		.4byte	0xa4
 594 02d7 94       		.byte	0x94
 595 02d8 0A       		.uleb128 0xa
 596 02d9 37040000 		.4byte	.LASF52
 597 02dd 03       		.byte	0x3
 598 02de FF06     		.2byte	0x6ff
 599 02e0 94000000 		.4byte	0x94
 600 02e4 98       		.byte	0x98
 601 02e5 0A       		.uleb128 0xa
 602 02e6 CA010000 		.4byte	.LASF53
 603 02ea 03       		.byte	0x3
 604 02eb 0007     		.2byte	0x700
 605 02ed 16050000 		.4byte	0x516
 606 02f1 9C       		.byte	0x9c
 607 02f2 0A       		.uleb128 0xa
 608 02f3 EC000000 		.4byte	.LASF54
 609 02f7 03       		.byte	0x3
 610 02f8 0107     		.2byte	0x701
 611 02fa A4000000 		.4byte	0xa4
 612 02fe A0       		.byte	0xa0
 613 02ff 0A       		.uleb128 0xa
 614 0300 02060000 		.4byte	.LASF55
 615 0304 03       		.byte	0x3
 616 0305 0207     		.2byte	0x702
 617 0307 A4000000 		.4byte	0xa4
 618 030b A4       		.byte	0xa4
 619 030c 0A       		.uleb128 0xa
 620 030d C7050000 		.4byte	.LASF56
 621 0311 03       		.byte	0x3
 622 0312 0307     		.2byte	0x703
ARM GAS  /tmp/cc9Vlfld.s 			page 12


 623 0314 94000000 		.4byte	0x94
 624 0318 A8       		.byte	0xa8
 625 0319 0A       		.uleb128 0xa
 626 031a D4010000 		.4byte	.LASF57
 627 031e 03       		.byte	0x3
 628 031f 0407     		.2byte	0x704
 629 0321 1B050000 		.4byte	0x51b
 630 0325 AC       		.byte	0xac
 631 0326 0A       		.uleb128 0xa
 632 0327 55030000 		.4byte	.LASF58
 633 032b 03       		.byte	0x3
 634 032c 0507     		.2byte	0x705
 635 032e A4000000 		.4byte	0xa4
 636 0332 B0       		.byte	0xb0
 637 0333 0A       		.uleb128 0xa
 638 0334 2F050000 		.4byte	.LASF59
 639 0338 03       		.byte	0x3
 640 0339 0607     		.2byte	0x706
 641 033b A4000000 		.4byte	0xa4
 642 033f B4       		.byte	0xb4
 643 0340 0A       		.uleb128 0xa
 644 0341 7D030000 		.4byte	.LASF60
 645 0345 03       		.byte	0x3
 646 0346 0707     		.2byte	0x707
 647 0348 94000000 		.4byte	0x94
 648 034c B8       		.byte	0xb8
 649 034d 0A       		.uleb128 0xa
 650 034e DE010000 		.4byte	.LASF61
 651 0352 03       		.byte	0x3
 652 0353 0807     		.2byte	0x708
 653 0355 20050000 		.4byte	0x520
 654 0359 BC       		.byte	0xbc
 655 035a 0A       		.uleb128 0xa
 656 035b 75010000 		.4byte	.LASF62
 657 035f 03       		.byte	0x3
 658 0360 0907     		.2byte	0x709
 659 0362 A4000000 		.4byte	0xa4
 660 0366 C0       		.byte	0xc0
 661 0367 0A       		.uleb128 0xa
 662 0368 B6050000 		.4byte	.LASF63
 663 036c 03       		.byte	0x3
 664 036d 0A07     		.2byte	0x70a
 665 036f A4000000 		.4byte	0xa4
 666 0373 C4       		.byte	0xc4
 667 0374 0A       		.uleb128 0xa
 668 0375 0A000000 		.4byte	.LASF64
 669 0379 03       		.byte	0x3
 670 037a 0B07     		.2byte	0x70b
 671 037c 94000000 		.4byte	0x94
 672 0380 C8       		.byte	0xc8
 673 0381 0A       		.uleb128 0xa
 674 0382 62020000 		.4byte	.LASF65
 675 0386 03       		.byte	0x3
 676 0387 0C07     		.2byte	0x70c
 677 0389 25050000 		.4byte	0x525
 678 038d CC       		.byte	0xcc
 679 038e 0A       		.uleb128 0xa
ARM GAS  /tmp/cc9Vlfld.s 			page 13


 680 038f 82040000 		.4byte	.LASF66
 681 0393 03       		.byte	0x3
 682 0394 0D07     		.2byte	0x70d
 683 0396 A4000000 		.4byte	0xa4
 684 039a D0       		.byte	0xd0
 685 039b 0A       		.uleb128 0xa
 686 039c 14050000 		.4byte	.LASF67
 687 03a0 03       		.byte	0x3
 688 03a1 0E07     		.2byte	0x70e
 689 03a3 A4000000 		.4byte	0xa4
 690 03a7 D4       		.byte	0xd4
 691 03a8 0A       		.uleb128 0xa
 692 03a9 BC020000 		.4byte	.LASF68
 693 03ad 03       		.byte	0x3
 694 03ae 0F07     		.2byte	0x70f
 695 03b0 94000000 		.4byte	0x94
 696 03b4 D8       		.byte	0xd8
 697 03b5 0A       		.uleb128 0xa
 698 03b6 6D020000 		.4byte	.LASF69
 699 03ba 03       		.byte	0x3
 700 03bb 1007     		.2byte	0x710
 701 03bd 2A050000 		.4byte	0x52a
 702 03c1 DC       		.byte	0xdc
 703 03c2 0A       		.uleb128 0xa
 704 03c3 4A030000 		.4byte	.LASF70
 705 03c7 03       		.byte	0x3
 706 03c8 1107     		.2byte	0x711
 707 03ca 94000000 		.4byte	0x94
 708 03ce E0       		.byte	0xe0
 709 03cf 0A       		.uleb128 0xa
 710 03d0 A6030000 		.4byte	.LASF71
 711 03d4 03       		.byte	0x3
 712 03d5 1207     		.2byte	0x712
 713 03d7 AF000000 		.4byte	0xaf
 714 03db E4       		.byte	0xe4
 715 03dc 0A       		.uleb128 0xa
 716 03dd 8E020000 		.4byte	.LASF72
 717 03e1 03       		.byte	0x3
 718 03e2 1307     		.2byte	0x713
 719 03e4 94000000 		.4byte	0x94
 720 03e8 E8       		.byte	0xe8
 721 03e9 0A       		.uleb128 0xa
 722 03ea 78020000 		.4byte	.LASF73
 723 03ee 03       		.byte	0x3
 724 03ef 1407     		.2byte	0x714
 725 03f1 2F050000 		.4byte	0x52f
 726 03f5 EC       		.byte	0xec
 727 03f6 0B       		.uleb128 0xb
 728 03f7 D3000000 		.4byte	.LASF74
 729 03fb 03       		.byte	0x3
 730 03fc 1507     		.2byte	0x715
 731 03fe AF000000 		.4byte	0xaf
 732 0402 0001     		.2byte	0x100
 733 0404 0B       		.uleb128 0xb
 734 0405 83020000 		.4byte	.LASF75
 735 0409 03       		.byte	0x3
 736 040a 1607     		.2byte	0x716
ARM GAS  /tmp/cc9Vlfld.s 			page 14


 737 040c 34050000 		.4byte	0x534
 738 0410 0401     		.2byte	0x104
 739 0412 0B       		.uleb128 0xb
 740 0413 8D040000 		.4byte	.LASF76
 741 0417 03       		.byte	0x3
 742 0418 1707     		.2byte	0x717
 743 041a AF000000 		.4byte	0xaf
 744 041e 5001     		.2byte	0x150
 745 0420 0B       		.uleb128 0xb
 746 0421 1F020000 		.4byte	.LASF77
 747 0425 03       		.byte	0x3
 748 0426 1807     		.2byte	0x718
 749 0428 A4000000 		.4byte	0xa4
 750 042c 5401     		.2byte	0x154
 751 042e 0B       		.uleb128 0xb
 752 042f 16010000 		.4byte	.LASF78
 753 0433 03       		.byte	0x3
 754 0434 1907     		.2byte	0x719
 755 0436 A4000000 		.4byte	0xa4
 756 043a 5801     		.2byte	0x158
 757 043c 0B       		.uleb128 0xb
 758 043d 6B010000 		.4byte	.LASF79
 759 0441 03       		.byte	0x3
 760 0442 1A07     		.2byte	0x71a
 761 0444 94000000 		.4byte	0x94
 762 0448 5C01     		.2byte	0x15c
 763 044a 0B       		.uleb128 0xb
 764 044b F5000000 		.4byte	.LASF80
 765 044f 03       		.byte	0x3
 766 0450 1B07     		.2byte	0x71b
 767 0452 94000000 		.4byte	0x94
 768 0456 6001     		.2byte	0x160
 769 0458 0B       		.uleb128 0xb
 770 0459 00000000 		.4byte	.LASF81
 771 045d 03       		.byte	0x3
 772 045e 1C07     		.2byte	0x71c
 773 0460 94000000 		.4byte	0x94
 774 0464 6401     		.2byte	0x164
 775 0466 0B       		.uleb128 0xb
 776 0467 42030000 		.4byte	.LASF82
 777 046b 03       		.byte	0x3
 778 046c 1D07     		.2byte	0x71d
 779 046e AF000000 		.4byte	0xaf
 780 0472 6801     		.2byte	0x168
 781 0474 0B       		.uleb128 0xb
 782 0475 E8040000 		.4byte	.LASF83
 783 0479 03       		.byte	0x3
 784 047a 1E07     		.2byte	0x71e
 785 047c AF000000 		.4byte	0xaf
 786 0480 6C01     		.2byte	0x16c
 787 0482 0B       		.uleb128 0xb
 788 0483 C2000000 		.4byte	.LASF84
 789 0487 03       		.byte	0x3
 790 0488 1F07     		.2byte	0x71f
 791 048a AF000000 		.4byte	0xaf
 792 048e 7001     		.2byte	0x170
 793 0490 0B       		.uleb128 0xb
ARM GAS  /tmp/cc9Vlfld.s 			page 15


 794 0491 C7020000 		.4byte	.LASF85
 795 0495 03       		.byte	0x3
 796 0496 2007     		.2byte	0x720
 797 0498 AF000000 		.4byte	0xaf
 798 049c 7401     		.2byte	0x174
 799 049e 0B       		.uleb128 0xb
 800 049f 73050000 		.4byte	.LASF86
 801 04a3 03       		.byte	0x3
 802 04a4 2107     		.2byte	0x721
 803 04a6 AF000000 		.4byte	0xaf
 804 04aa 7801     		.2byte	0x178
 805 04ac 0B       		.uleb128 0xb
 806 04ad 20010000 		.4byte	.LASF87
 807 04b1 03       		.byte	0x3
 808 04b2 2207     		.2byte	0x722
 809 04b4 AF000000 		.4byte	0xaf
 810 04b8 7C01     		.2byte	0x17c
 811 04ba 0B       		.uleb128 0xb
 812 04bb 62040000 		.4byte	.LASF88
 813 04bf 03       		.byte	0x3
 814 04c0 2307     		.2byte	0x723
 815 04c2 AF000000 		.4byte	0xaf
 816 04c6 8001     		.2byte	0x180
 817 04c8 0B       		.uleb128 0xb
 818 04c9 BE050000 		.4byte	.LASF89
 819 04cd 03       		.byte	0x3
 820 04ce 2407     		.2byte	0x724
 821 04d0 AF000000 		.4byte	0xaf
 822 04d4 8401     		.2byte	0x184
 823 04d6 0B       		.uleb128 0xb
 824 04d7 32020000 		.4byte	.LASF90
 825 04db 03       		.byte	0x3
 826 04dc 2507     		.2byte	0x725
 827 04de A4000000 		.4byte	0xa4
 828 04e2 8801     		.2byte	0x188
 829 04e4 0B       		.uleb128 0xb
 830 04e5 EE020000 		.4byte	.LASF91
 831 04e9 03       		.byte	0x3
 832 04ea 2607     		.2byte	0x726
 833 04ec 94000000 		.4byte	0x94
 834 04f0 8C01     		.2byte	0x18c
 835 04f2 00       		.byte	0
 836 04f3 05       		.uleb128 0x5
 837 04f4 CA000000 		.4byte	0xca
 838 04f8 05       		.uleb128 0x5
 839 04f9 CA000000 		.4byte	0xca
 840 04fd 05       		.uleb128 0x5
 841 04fe CA000000 		.4byte	0xca
 842 0502 05       		.uleb128 0x5
 843 0503 CA000000 		.4byte	0xca
 844 0507 05       		.uleb128 0x5
 845 0508 CA000000 		.4byte	0xca
 846 050c 05       		.uleb128 0x5
 847 050d DA000000 		.4byte	0xda
 848 0511 05       		.uleb128 0x5
 849 0512 DA000000 		.4byte	0xda
 850 0516 05       		.uleb128 0x5
ARM GAS  /tmp/cc9Vlfld.s 			page 16


 851 0517 CA000000 		.4byte	0xca
 852 051b 05       		.uleb128 0x5
 853 051c CA000000 		.4byte	0xca
 854 0520 05       		.uleb128 0x5
 855 0521 CA000000 		.4byte	0xca
 856 0525 05       		.uleb128 0x5
 857 0526 CA000000 		.4byte	0xca
 858 052a 05       		.uleb128 0x5
 859 052b CA000000 		.4byte	0xca
 860 052f 05       		.uleb128 0x5
 861 0530 EA000000 		.4byte	0xea
 862 0534 05       		.uleb128 0x5
 863 0535 BA000000 		.4byte	0xba
 864 0539 0C       		.uleb128 0xc
 865 053a 50696F00 		.ascii	"Pio\000"
 866 053e 03       		.byte	0x3
 867 053f 2707     		.2byte	0x727
 868 0541 FA000000 		.4byte	0xfa
 869 0545 09       		.uleb128 0x9
 870 0546 1401     		.2byte	0x114
 871 0548 03       		.byte	0x3
 872 0549 3F0D     		.2byte	0xd3f
 873 054b 0F070000 		.4byte	0x70f
 874 054f 0A       		.uleb128 0xa
 875 0550 F9050000 		.4byte	.LASF92
 876 0554 03       		.byte	0x3
 877 0555 400D     		.2byte	0xd40
 878 0557 A4000000 		.4byte	0xa4
 879 055b 00       		.byte	0
 880 055c 0A       		.uleb128 0xa
 881 055d 7D010000 		.4byte	.LASF93
 882 0561 03       		.byte	0x3
 883 0562 410D     		.2byte	0xd41
 884 0564 A4000000 		.4byte	0xa4
 885 0568 04       		.byte	0x4
 886 0569 0A       		.uleb128 0xa
 887 056a 4B050000 		.4byte	.LASF94
 888 056e 03       		.byte	0x3
 889 056f 420D     		.2byte	0xd42
 890 0571 94000000 		.4byte	0x94
 891 0575 08       		.byte	0x8
 892 0576 0A       		.uleb128 0xa
 893 0577 8E010000 		.4byte	.LASF19
 894 057b 03       		.byte	0x3
 895 057c 430D     		.2byte	0xd43
 896 057e 0F070000 		.4byte	0x70f
 897 0582 0C       		.byte	0xc
 898 0583 0A       		.uleb128 0xa
 899 0584 0B020000 		.4byte	.LASF95
 900 0588 03       		.byte	0x3
 901 0589 440D     		.2byte	0xd44
 902 058b A4000000 		.4byte	0xa4
 903 058f 10       		.byte	0x10
 904 0590 0A       		.uleb128 0xa
 905 0591 2E030000 		.4byte	.LASF96
 906 0595 03       		.byte	0x3
 907 0596 450D     		.2byte	0xd45
ARM GAS  /tmp/cc9Vlfld.s 			page 17


 908 0598 A4000000 		.4byte	0xa4
 909 059c 14       		.byte	0x14
 910 059d 0A       		.uleb128 0xa
 911 059e B6010000 		.4byte	.LASF97
 912 05a2 03       		.byte	0x3
 913 05a3 460D     		.2byte	0xd46
 914 05a5 94000000 		.4byte	0x94
 915 05a9 18       		.byte	0x18
 916 05aa 0A       		.uleb128 0xa
 917 05ab 98010000 		.4byte	.LASF23
 918 05af 03       		.byte	0x3
 919 05b0 470D     		.2byte	0xd47
 920 05b2 14070000 		.4byte	0x714
 921 05b6 1C       		.byte	0x1c
 922 05b7 0A       		.uleb128 0xa
 923 05b8 CA000000 		.4byte	.LASF98
 924 05bc 03       		.byte	0x3
 925 05bd 480D     		.2byte	0xd48
 926 05bf AF000000 		.4byte	0xaf
 927 05c3 20       		.byte	0x20
 928 05c4 0A       		.uleb128 0xa
 929 05c5 A9020000 		.4byte	.LASF99
 930 05c9 03       		.byte	0x3
 931 05ca 490D     		.2byte	0xd49
 932 05cc 94000000 		.4byte	0x94
 933 05d0 24       		.byte	0x24
 934 05d1 0A       		.uleb128 0xa
 935 05d2 70040000 		.4byte	.LASF100
 936 05d6 03       		.byte	0x3
 937 05d7 4A0D     		.2byte	0xd4a
 938 05d9 AF000000 		.4byte	0xaf
 939 05dd 28       		.byte	0x28
 940 05de 0A       		.uleb128 0xa
 941 05df 1F050000 		.4byte	.LASF101
 942 05e3 03       		.byte	0x3
 943 05e4 4B0D     		.2byte	0xd4b
 944 05e6 AF000000 		.4byte	0xaf
 945 05ea 2C       		.byte	0x2c
 946 05eb 0A       		.uleb128 0xa
 947 05ec 25030000 		.4byte	.LASF102
 948 05f0 03       		.byte	0x3
 949 05f1 4C0D     		.2byte	0xd4c
 950 05f3 AF000000 		.4byte	0xaf
 951 05f7 30       		.byte	0x30
 952 05f8 0A       		.uleb128 0xa
 953 05f9 A2010000 		.4byte	.LASF27
 954 05fd 03       		.byte	0x3
 955 05fe 4D0D     		.2byte	0xd4d
 956 0600 19070000 		.4byte	0x719
 957 0604 34       		.byte	0x34
 958 0605 0A       		.uleb128 0xa
 959 0606 75030000 		.4byte	.LASF103
 960 060a 03       		.byte	0x3
 961 060b 4E0D     		.2byte	0xd4e
 962 060d AF000000 		.4byte	0xaf
 963 0611 38       		.byte	0x38
 964 0612 0A       		.uleb128 0xa
ARM GAS  /tmp/cc9Vlfld.s 			page 18


 965 0613 AC010000 		.4byte	.LASF39
 966 0617 03       		.byte	0x3
 967 0618 4F0D     		.2byte	0xd4f
 968 061a 1E070000 		.4byte	0x71e
 969 061e 3C       		.byte	0x3c
 970 061f 0A       		.uleb128 0xa
 971 0620 5A020000 		.4byte	.LASF104
 972 0624 03       		.byte	0x3
 973 0625 500D     		.2byte	0xd50
 974 0627 33070000 		.4byte	0x733
 975 062b 40       		.byte	0x40
 976 062c 0A       		.uleb128 0xa
 977 062d 08030000 		.4byte	.LASF43
 978 0631 03       		.byte	0x3
 979 0632 510D     		.2byte	0xd51
 980 0634 38070000 		.4byte	0x738
 981 0638 4C       		.byte	0x4c
 982 0639 0A       		.uleb128 0xa
 983 063a 92050000 		.4byte	.LASF105
 984 063e 03       		.byte	0x3
 985 063f 520D     		.2byte	0xd52
 986 0641 A4000000 		.4byte	0xa4
 987 0645 60       		.byte	0x60
 988 0646 0A       		.uleb128 0xa
 989 0647 F0040000 		.4byte	.LASF106
 990 064b 03       		.byte	0x3
 991 064c 530D     		.2byte	0xd53
 992 064e A4000000 		.4byte	0xa4
 993 0652 64       		.byte	0x64
 994 0653 0A       		.uleb128 0xa
 995 0654 13000000 		.4byte	.LASF107
 996 0658 03       		.byte	0x3
 997 0659 540D     		.2byte	0xd54
 998 065b 94000000 		.4byte	0x94
 999 065f 68       		.byte	0x68
 1000 0660 0A       		.uleb128 0xa
 1001 0661 AE050000 		.4byte	.LASF108
 1002 0665 03       		.byte	0x3
 1003 0666 550D     		.2byte	0xd55
 1004 0668 94000000 		.4byte	0x94
 1005 066c 6C       		.byte	0x6c
 1006 066d 0A       		.uleb128 0xa
 1007 066e BD030000 		.4byte	.LASF109
 1008 0672 03       		.byte	0x3
 1009 0673 560D     		.2byte	0xd56
 1010 0675 AF000000 		.4byte	0xaf
 1011 0679 70       		.byte	0x70
 1012 067a 0A       		.uleb128 0xa
 1013 067b D0050000 		.4byte	.LASF110
 1014 067f 03       		.byte	0x3
 1015 0680 570D     		.2byte	0xd57
 1016 0682 AF000000 		.4byte	0xaf
 1017 0686 74       		.byte	0x74
 1018 0687 0A       		.uleb128 0xa
 1019 0688 AF030000 		.4byte	.LASF111
 1020 068c 03       		.byte	0x3
 1021 068d 580D     		.2byte	0xd58
ARM GAS  /tmp/cc9Vlfld.s 			page 19


 1022 068f A4000000 		.4byte	0xa4
 1023 0693 78       		.byte	0x78
 1024 0694 0A       		.uleb128 0xa
 1025 0695 C0010000 		.4byte	.LASF45
 1026 0699 03       		.byte	0x3
 1027 069a 590D     		.2byte	0xd59
 1028 069c 4D070000 		.4byte	0x74d
 1029 06a0 7C       		.byte	0x7c
 1030 06a1 0A       		.uleb128 0xa
 1031 06a2 02020000 		.4byte	.LASF112
 1032 06a6 03       		.byte	0x3
 1033 06a7 5A0D     		.2byte	0xd5a
 1034 06a9 AF000000 		.4byte	0xaf
 1035 06ad E4       		.byte	0xe4
 1036 06ae 0A       		.uleb128 0xa
 1037 06af 25060000 		.4byte	.LASF113
 1038 06b3 03       		.byte	0x3
 1039 06b4 5B0D     		.2byte	0xd5b
 1040 06b6 94000000 		.4byte	0x94
 1041 06ba E8       		.byte	0xe8
 1042 06bb 0A       		.uleb128 0xa
 1043 06bc CA010000 		.4byte	.LASF53
 1044 06c0 03       		.byte	0x3
 1045 06c1 5C0D     		.2byte	0xd5c
 1046 06c3 52070000 		.4byte	0x752
 1047 06c7 EC       		.byte	0xec
 1048 06c8 0B       		.uleb128 0xb
 1049 06c9 15020000 		.4byte	.LASF114
 1050 06cd 03       		.byte	0x3
 1051 06ce 5D0D     		.2byte	0xd5d
 1052 06d0 A4000000 		.4byte	0xa4
 1053 06d4 0001     		.2byte	0x100
 1054 06d6 0B       		.uleb128 0xb
 1055 06d7 38030000 		.4byte	.LASF115
 1056 06db 03       		.byte	0x3
 1057 06dc 5E0D     		.2byte	0xd5e
 1058 06de A4000000 		.4byte	0xa4
 1059 06e2 0401     		.2byte	0x104
 1060 06e4 0B       		.uleb128 0xb
 1061 06e5 DE040000 		.4byte	.LASF116
 1062 06e9 03       		.byte	0x3
 1063 06ea 5F0D     		.2byte	0xd5f
 1064 06ec 94000000 		.4byte	0x94
 1065 06f0 0801     		.2byte	0x108
 1066 06f2 0B       		.uleb128 0xb
 1067 06f3 D4010000 		.4byte	.LASF57
 1068 06f7 03       		.byte	0x3
 1069 06f8 600D     		.2byte	0xd60
 1070 06fa 57070000 		.4byte	0x757
 1071 06fe 0C01     		.2byte	0x10c
 1072 0700 0B       		.uleb128 0xb
 1073 0701 87030000 		.4byte	.LASF117
 1074 0705 03       		.byte	0x3
 1075 0706 610D     		.2byte	0xd61
 1076 0708 AF000000 		.4byte	0xaf
 1077 070c 1001     		.2byte	0x110
 1078 070e 00       		.byte	0
ARM GAS  /tmp/cc9Vlfld.s 			page 20


 1079 070f 05       		.uleb128 0x5
 1080 0710 CA000000 		.4byte	0xca
 1081 0714 05       		.uleb128 0x5
 1082 0715 CA000000 		.4byte	0xca
 1083 0719 05       		.uleb128 0x5
 1084 071a CA000000 		.4byte	0xca
 1085 071e 05       		.uleb128 0x5
 1086 071f CA000000 		.4byte	0xca
 1087 0723 07       		.uleb128 0x7
 1088 0724 AF000000 		.4byte	0xaf
 1089 0728 33070000 		.4byte	0x733
 1090 072c 08       		.uleb128 0x8
 1091 072d 86000000 		.4byte	0x86
 1092 0731 02       		.byte	0x2
 1093 0732 00       		.byte	0
 1094 0733 05       		.uleb128 0x5
 1095 0734 23070000 		.4byte	0x723
 1096 0738 05       		.uleb128 0x5
 1097 0739 EA000000 		.4byte	0xea
 1098 073d 07       		.uleb128 0x7
 1099 073e AF000000 		.4byte	0xaf
 1100 0742 4D070000 		.4byte	0x74d
 1101 0746 08       		.uleb128 0x8
 1102 0747 86000000 		.4byte	0x86
 1103 074b 19       		.byte	0x19
 1104 074c 00       		.byte	0
 1105 074d 05       		.uleb128 0x5
 1106 074e 3D070000 		.4byte	0x73d
 1107 0752 05       		.uleb128 0x5
 1108 0753 EA000000 		.4byte	0xea
 1109 0757 05       		.uleb128 0x5
 1110 0758 CA000000 		.4byte	0xca
 1111 075c 0C       		.uleb128 0xc
 1112 075d 506D6300 		.ascii	"Pmc\000"
 1113 0761 03       		.byte	0x3
 1114 0762 620D     		.2byte	0xd62
 1115 0764 45050000 		.4byte	0x545
 1116 0768 0D       		.uleb128 0xd
 1117 0769 0C       		.byte	0xc
 1118 076a 04       		.byte	0x4
 1119 076b 38       		.byte	0x38
 1120 076c 95070000 		.4byte	0x795
 1121 0770 0E       		.uleb128 0xe
 1122 0771 B8030000 		.4byte	.LASF118
 1123 0775 04       		.byte	0x4
 1124 0776 3A       		.byte	0x3a
 1125 0777 56000000 		.4byte	0x56
 1126 077b 00       		.byte	0
 1127 077c 0F       		.uleb128 0xf
 1128 077d 6F737200 		.ascii	"osr\000"
 1129 0781 04       		.byte	0x4
 1130 0782 3C       		.byte	0x3c
 1131 0783 56000000 		.4byte	0x56
 1132 0787 04       		.byte	0x4
 1133 0788 0E       		.uleb128 0xe
 1134 0789 D7020000 		.4byte	.LASF119
 1135 078d 04       		.byte	0x4
ARM GAS  /tmp/cc9Vlfld.s 			page 21


 1136 078e 3E       		.byte	0x3e
 1137 078f 56000000 		.4byte	0x56
 1138 0793 08       		.byte	0x8
 1139 0794 00       		.byte	0
 1140 0795 04       		.uleb128 0x4
 1141 0796 E4050000 		.4byte	.LASF120
 1142 079a 04       		.byte	0x4
 1143 079b 3F       		.byte	0x3f
 1144 079c 68070000 		.4byte	0x768
 1145 07a0 0D       		.uleb128 0xd
 1146 07a1 24       		.byte	0x24
 1147 07a2 04       		.byte	0x4
 1148 07a3 48       		.byte	0x48
 1149 07a4 CD070000 		.4byte	0x7cd
 1150 07a8 0E       		.uleb128 0xe
 1151 07a9 1E060000 		.4byte	.LASF121
 1152 07ad 04       		.byte	0x4
 1153 07ae 4A       		.byte	0x4a
 1154 07af 95070000 		.4byte	0x795
 1155 07b3 00       		.byte	0
 1156 07b4 0E       		.uleb128 0xe
 1157 07b5 7B040000 		.4byte	.LASF122
 1158 07b9 04       		.byte	0x4
 1159 07ba 4B       		.byte	0x4b
 1160 07bb 95070000 		.4byte	0x795
 1161 07bf 0C       		.byte	0xc
 1162 07c0 0E       		.uleb128 0xe
 1163 07c1 3B020000 		.4byte	.LASF123
 1164 07c5 04       		.byte	0x4
 1165 07c6 4C       		.byte	0x4c
 1166 07c7 95070000 		.4byte	0x795
 1167 07cb 18       		.byte	0x18
 1168 07cc 00       		.byte	0
 1169 07cd 04       		.uleb128 0x4
 1170 07ce 14060000 		.4byte	.LASF124
 1171 07d2 04       		.byte	0x4
 1172 07d3 4D       		.byte	0x4d
 1173 07d4 A0070000 		.4byte	0x7a0
 1174 07d8 04       		.uleb128 0x4
 1175 07d9 DF000000 		.4byte	.LASF125
 1176 07dd 04       		.byte	0x4
 1177 07de 5D       		.byte	0x5d
 1178 07df 56000000 		.4byte	0x56
 1179 07e3 04       		.uleb128 0x4
 1180 07e4 68050000 		.4byte	.LASF126
 1181 07e8 04       		.byte	0x4
 1182 07e9 65       		.byte	0x65
 1183 07ea EE070000 		.4byte	0x7ee
 1184 07ee 10       		.uleb128 0x10
 1185 07ef 04       		.byte	0x4
 1186 07f0 39050000 		.4byte	0x539
 1187 07f4 11       		.uleb128 0x11
 1188 07f5 A0050000 		.4byte	.LASF127
 1189 07f9 01       		.byte	0x1
 1190 07fa 47       		.byte	0x47
 1191 07fb 00000000 		.4byte	.LFB36
 1192 07ff B4000000 		.4byte	.LFE36-.LFB36
ARM GAS  /tmp/cc9Vlfld.s 			page 22


 1193 0803 01       		.uleb128 0x1
 1194 0804 9C       		.byte	0x9c
 1195 0805 25080000 		.4byte	0x825
 1196 0809 12       		.uleb128 0x12
 1197 080a 39050000 		.4byte	.LASF129
 1198 080e 01       		.byte	0x1
 1199 080f 47       		.byte	0x47
 1200 0810 25080000 		.4byte	0x825
 1201 0814 00000000 		.4byte	.LLST0
 1202 0818 13       		.uleb128 0x13
 1203 0819 A0030000 		.4byte	.LASF136
 1204 081d 01       		.byte	0x1
 1205 081e 48       		.byte	0x48
 1206 081f 56000000 		.4byte	0x56
 1207 0823 01       		.byte	0x1
 1208 0824 00       		.byte	0
 1209 0825 10       		.uleb128 0x10
 1210 0826 04       		.byte	0x4
 1211 0827 2B080000 		.4byte	0x82b
 1212 082b 06       		.uleb128 0x6
 1213 082c CD070000 		.4byte	0x7cd
 1214 0830 11       		.uleb128 0x11
 1215 0831 7C050000 		.4byte	.LASF128
 1216 0835 01       		.byte	0x1
 1217 0836 A5       		.byte	0xa5
 1218 0837 00000000 		.4byte	.LFB37
 1219 083b 32000000 		.4byte	.LFE37-.LFB37
 1220 083f 01       		.uleb128 0x1
 1221 0840 9C       		.byte	0x9c
 1222 0841 6F080000 		.4byte	0x86f
 1223 0845 14       		.uleb128 0x14
 1224 0846 6B040000 		.4byte	.LASF130
 1225 084a 01       		.byte	0x1
 1226 084b A5       		.byte	0xa5
 1227 084c E3070000 		.4byte	0x7e3
 1228 0850 01       		.uleb128 0x1
 1229 0851 50       		.byte	0x50
 1230 0852 14       		.uleb128 0x14
 1231 0853 55020000 		.4byte	.LASF131
 1232 0857 01       		.byte	0x1
 1233 0858 A6       		.byte	0xa6
 1234 0859 D8070000 		.4byte	0x7d8
 1235 085d 01       		.uleb128 0x1
 1236 085e 51       		.byte	0x51
 1237 085f 12       		.uleb128 0x12
 1238 0860 97020000 		.4byte	.LASF132
 1239 0864 01       		.byte	0x1
 1240 0865 A7       		.byte	0xa7
 1241 0866 76000000 		.4byte	0x76
 1242 086a 21000000 		.4byte	.LLST1
 1243 086e 00       		.byte	0
 1244 086f 15       		.uleb128 0x15
 1245 0870 29010000 		.4byte	.LASF137
 1246 0874 05       		.byte	0x5
 1247 0875 CE06     		.2byte	0x6ce
 1248 0877 7B080000 		.4byte	0x87b
 1249 087b 05       		.uleb128 0x5
ARM GAS  /tmp/cc9Vlfld.s 			page 23


 1250 087c 25000000 		.4byte	0x25
 1251 0880 00       		.byte	0
 1252              		.section	.debug_abbrev,"",%progbits
 1253              	.Ldebug_abbrev0:
 1254 0000 01       		.uleb128 0x1
 1255 0001 11       		.uleb128 0x11
 1256 0002 01       		.byte	0x1
 1257 0003 25       		.uleb128 0x25
 1258 0004 0E       		.uleb128 0xe
 1259 0005 13       		.uleb128 0x13
 1260 0006 0B       		.uleb128 0xb
 1261 0007 03       		.uleb128 0x3
 1262 0008 0E       		.uleb128 0xe
 1263 0009 1B       		.uleb128 0x1b
 1264 000a 0E       		.uleb128 0xe
 1265 000b 55       		.uleb128 0x55
 1266 000c 17       		.uleb128 0x17
 1267 000d 11       		.uleb128 0x11
 1268 000e 01       		.uleb128 0x1
 1269 000f 10       		.uleb128 0x10
 1270 0010 17       		.uleb128 0x17
 1271 0011 00       		.byte	0
 1272 0012 00       		.byte	0
 1273 0013 02       		.uleb128 0x2
 1274 0014 24       		.uleb128 0x24
 1275 0015 00       		.byte	0
 1276 0016 0B       		.uleb128 0xb
 1277 0017 0B       		.uleb128 0xb
 1278 0018 3E       		.uleb128 0x3e
 1279 0019 0B       		.uleb128 0xb
 1280 001a 03       		.uleb128 0x3
 1281 001b 08       		.uleb128 0x8
 1282 001c 00       		.byte	0
 1283 001d 00       		.byte	0
 1284 001e 03       		.uleb128 0x3
 1285 001f 24       		.uleb128 0x24
 1286 0020 00       		.byte	0
 1287 0021 0B       		.uleb128 0xb
 1288 0022 0B       		.uleb128 0xb
 1289 0023 3E       		.uleb128 0x3e
 1290 0024 0B       		.uleb128 0xb
 1291 0025 03       		.uleb128 0x3
 1292 0026 0E       		.uleb128 0xe
 1293 0027 00       		.byte	0
 1294 0028 00       		.byte	0
 1295 0029 04       		.uleb128 0x4
 1296 002a 16       		.uleb128 0x16
 1297 002b 00       		.byte	0
 1298 002c 03       		.uleb128 0x3
 1299 002d 0E       		.uleb128 0xe
 1300 002e 3A       		.uleb128 0x3a
 1301 002f 0B       		.uleb128 0xb
 1302 0030 3B       		.uleb128 0x3b
 1303 0031 0B       		.uleb128 0xb
 1304 0032 49       		.uleb128 0x49
 1305 0033 13       		.uleb128 0x13
 1306 0034 00       		.byte	0
ARM GAS  /tmp/cc9Vlfld.s 			page 24


 1307 0035 00       		.byte	0
 1308 0036 05       		.uleb128 0x5
 1309 0037 35       		.uleb128 0x35
 1310 0038 00       		.byte	0
 1311 0039 49       		.uleb128 0x49
 1312 003a 13       		.uleb128 0x13
 1313 003b 00       		.byte	0
 1314 003c 00       		.byte	0
 1315 003d 06       		.uleb128 0x6
 1316 003e 26       		.uleb128 0x26
 1317 003f 00       		.byte	0
 1318 0040 49       		.uleb128 0x49
 1319 0041 13       		.uleb128 0x13
 1320 0042 00       		.byte	0
 1321 0043 00       		.byte	0
 1322 0044 07       		.uleb128 0x7
 1323 0045 01       		.uleb128 0x1
 1324 0046 01       		.byte	0x1
 1325 0047 49       		.uleb128 0x49
 1326 0048 13       		.uleb128 0x13
 1327 0049 01       		.uleb128 0x1
 1328 004a 13       		.uleb128 0x13
 1329 004b 00       		.byte	0
 1330 004c 00       		.byte	0
 1331 004d 08       		.uleb128 0x8
 1332 004e 21       		.uleb128 0x21
 1333 004f 00       		.byte	0
 1334 0050 49       		.uleb128 0x49
 1335 0051 13       		.uleb128 0x13
 1336 0052 2F       		.uleb128 0x2f
 1337 0053 0B       		.uleb128 0xb
 1338 0054 00       		.byte	0
 1339 0055 00       		.byte	0
 1340 0056 09       		.uleb128 0x9
 1341 0057 13       		.uleb128 0x13
 1342 0058 01       		.byte	0x1
 1343 0059 0B       		.uleb128 0xb
 1344 005a 05       		.uleb128 0x5
 1345 005b 3A       		.uleb128 0x3a
 1346 005c 0B       		.uleb128 0xb
 1347 005d 3B       		.uleb128 0x3b
 1348 005e 05       		.uleb128 0x5
 1349 005f 01       		.uleb128 0x1
 1350 0060 13       		.uleb128 0x13
 1351 0061 00       		.byte	0
 1352 0062 00       		.byte	0
 1353 0063 0A       		.uleb128 0xa
 1354 0064 0D       		.uleb128 0xd
 1355 0065 00       		.byte	0
 1356 0066 03       		.uleb128 0x3
 1357 0067 0E       		.uleb128 0xe
 1358 0068 3A       		.uleb128 0x3a
 1359 0069 0B       		.uleb128 0xb
 1360 006a 3B       		.uleb128 0x3b
 1361 006b 05       		.uleb128 0x5
 1362 006c 49       		.uleb128 0x49
 1363 006d 13       		.uleb128 0x13
ARM GAS  /tmp/cc9Vlfld.s 			page 25


 1364 006e 38       		.uleb128 0x38
 1365 006f 0B       		.uleb128 0xb
 1366 0070 00       		.byte	0
 1367 0071 00       		.byte	0
 1368 0072 0B       		.uleb128 0xb
 1369 0073 0D       		.uleb128 0xd
 1370 0074 00       		.byte	0
 1371 0075 03       		.uleb128 0x3
 1372 0076 0E       		.uleb128 0xe
 1373 0077 3A       		.uleb128 0x3a
 1374 0078 0B       		.uleb128 0xb
 1375 0079 3B       		.uleb128 0x3b
 1376 007a 05       		.uleb128 0x5
 1377 007b 49       		.uleb128 0x49
 1378 007c 13       		.uleb128 0x13
 1379 007d 38       		.uleb128 0x38
 1380 007e 05       		.uleb128 0x5
 1381 007f 00       		.byte	0
 1382 0080 00       		.byte	0
 1383 0081 0C       		.uleb128 0xc
 1384 0082 16       		.uleb128 0x16
 1385 0083 00       		.byte	0
 1386 0084 03       		.uleb128 0x3
 1387 0085 08       		.uleb128 0x8
 1388 0086 3A       		.uleb128 0x3a
 1389 0087 0B       		.uleb128 0xb
 1390 0088 3B       		.uleb128 0x3b
 1391 0089 05       		.uleb128 0x5
 1392 008a 49       		.uleb128 0x49
 1393 008b 13       		.uleb128 0x13
 1394 008c 00       		.byte	0
 1395 008d 00       		.byte	0
 1396 008e 0D       		.uleb128 0xd
 1397 008f 13       		.uleb128 0x13
 1398 0090 01       		.byte	0x1
 1399 0091 0B       		.uleb128 0xb
 1400 0092 0B       		.uleb128 0xb
 1401 0093 3A       		.uleb128 0x3a
 1402 0094 0B       		.uleb128 0xb
 1403 0095 3B       		.uleb128 0x3b
 1404 0096 0B       		.uleb128 0xb
 1405 0097 01       		.uleb128 0x1
 1406 0098 13       		.uleb128 0x13
 1407 0099 00       		.byte	0
 1408 009a 00       		.byte	0
 1409 009b 0E       		.uleb128 0xe
 1410 009c 0D       		.uleb128 0xd
 1411 009d 00       		.byte	0
 1412 009e 03       		.uleb128 0x3
 1413 009f 0E       		.uleb128 0xe
 1414 00a0 3A       		.uleb128 0x3a
 1415 00a1 0B       		.uleb128 0xb
 1416 00a2 3B       		.uleb128 0x3b
 1417 00a3 0B       		.uleb128 0xb
 1418 00a4 49       		.uleb128 0x49
 1419 00a5 13       		.uleb128 0x13
 1420 00a6 38       		.uleb128 0x38
ARM GAS  /tmp/cc9Vlfld.s 			page 26


 1421 00a7 0B       		.uleb128 0xb
 1422 00a8 00       		.byte	0
 1423 00a9 00       		.byte	0
 1424 00aa 0F       		.uleb128 0xf
 1425 00ab 0D       		.uleb128 0xd
 1426 00ac 00       		.byte	0
 1427 00ad 03       		.uleb128 0x3
 1428 00ae 08       		.uleb128 0x8
 1429 00af 3A       		.uleb128 0x3a
 1430 00b0 0B       		.uleb128 0xb
 1431 00b1 3B       		.uleb128 0x3b
 1432 00b2 0B       		.uleb128 0xb
 1433 00b3 49       		.uleb128 0x49
 1434 00b4 13       		.uleb128 0x13
 1435 00b5 38       		.uleb128 0x38
 1436 00b6 0B       		.uleb128 0xb
 1437 00b7 00       		.byte	0
 1438 00b8 00       		.byte	0
 1439 00b9 10       		.uleb128 0x10
 1440 00ba 0F       		.uleb128 0xf
 1441 00bb 00       		.byte	0
 1442 00bc 0B       		.uleb128 0xb
 1443 00bd 0B       		.uleb128 0xb
 1444 00be 49       		.uleb128 0x49
 1445 00bf 13       		.uleb128 0x13
 1446 00c0 00       		.byte	0
 1447 00c1 00       		.byte	0
 1448 00c2 11       		.uleb128 0x11
 1449 00c3 2E       		.uleb128 0x2e
 1450 00c4 01       		.byte	0x1
 1451 00c5 3F       		.uleb128 0x3f
 1452 00c6 19       		.uleb128 0x19
 1453 00c7 03       		.uleb128 0x3
 1454 00c8 0E       		.uleb128 0xe
 1455 00c9 3A       		.uleb128 0x3a
 1456 00ca 0B       		.uleb128 0xb
 1457 00cb 3B       		.uleb128 0x3b
 1458 00cc 0B       		.uleb128 0xb
 1459 00cd 27       		.uleb128 0x27
 1460 00ce 19       		.uleb128 0x19
 1461 00cf 11       		.uleb128 0x11
 1462 00d0 01       		.uleb128 0x1
 1463 00d1 12       		.uleb128 0x12
 1464 00d2 06       		.uleb128 0x6
 1465 00d3 40       		.uleb128 0x40
 1466 00d4 18       		.uleb128 0x18
 1467 00d5 9742     		.uleb128 0x2117
 1468 00d7 19       		.uleb128 0x19
 1469 00d8 01       		.uleb128 0x1
 1470 00d9 13       		.uleb128 0x13
 1471 00da 00       		.byte	0
 1472 00db 00       		.byte	0
 1473 00dc 12       		.uleb128 0x12
 1474 00dd 05       		.uleb128 0x5
 1475 00de 00       		.byte	0
 1476 00df 03       		.uleb128 0x3
 1477 00e0 0E       		.uleb128 0xe
ARM GAS  /tmp/cc9Vlfld.s 			page 27


 1478 00e1 3A       		.uleb128 0x3a
 1479 00e2 0B       		.uleb128 0xb
 1480 00e3 3B       		.uleb128 0x3b
 1481 00e4 0B       		.uleb128 0xb
 1482 00e5 49       		.uleb128 0x49
 1483 00e6 13       		.uleb128 0x13
 1484 00e7 02       		.uleb128 0x2
 1485 00e8 17       		.uleb128 0x17
 1486 00e9 00       		.byte	0
 1487 00ea 00       		.byte	0
 1488 00eb 13       		.uleb128 0x13
 1489 00ec 34       		.uleb128 0x34
 1490 00ed 00       		.byte	0
 1491 00ee 03       		.uleb128 0x3
 1492 00ef 0E       		.uleb128 0xe
 1493 00f0 3A       		.uleb128 0x3a
 1494 00f1 0B       		.uleb128 0xb
 1495 00f2 3B       		.uleb128 0x3b
 1496 00f3 0B       		.uleb128 0xb
 1497 00f4 49       		.uleb128 0x49
 1498 00f5 13       		.uleb128 0x13
 1499 00f6 1C       		.uleb128 0x1c
 1500 00f7 0B       		.uleb128 0xb
 1501 00f8 00       		.byte	0
 1502 00f9 00       		.byte	0
 1503 00fa 14       		.uleb128 0x14
 1504 00fb 05       		.uleb128 0x5
 1505 00fc 00       		.byte	0
 1506 00fd 03       		.uleb128 0x3
 1507 00fe 0E       		.uleb128 0xe
 1508 00ff 3A       		.uleb128 0x3a
 1509 0100 0B       		.uleb128 0xb
 1510 0101 3B       		.uleb128 0x3b
 1511 0102 0B       		.uleb128 0xb
 1512 0103 49       		.uleb128 0x49
 1513 0104 13       		.uleb128 0x13
 1514 0105 02       		.uleb128 0x2
 1515 0106 18       		.uleb128 0x18
 1516 0107 00       		.byte	0
 1517 0108 00       		.byte	0
 1518 0109 15       		.uleb128 0x15
 1519 010a 34       		.uleb128 0x34
 1520 010b 00       		.byte	0
 1521 010c 03       		.uleb128 0x3
 1522 010d 0E       		.uleb128 0xe
 1523 010e 3A       		.uleb128 0x3a
 1524 010f 0B       		.uleb128 0xb
 1525 0110 3B       		.uleb128 0x3b
 1526 0111 05       		.uleb128 0x5
 1527 0112 49       		.uleb128 0x49
 1528 0113 13       		.uleb128 0x13
 1529 0114 3F       		.uleb128 0x3f
 1530 0115 19       		.uleb128 0x19
 1531 0116 3C       		.uleb128 0x3c
 1532 0117 19       		.uleb128 0x19
 1533 0118 00       		.byte	0
 1534 0119 00       		.byte	0
ARM GAS  /tmp/cc9Vlfld.s 			page 28


 1535 011a 00       		.byte	0
 1536              		.section	.debug_loc,"",%progbits
 1537              	.Ldebug_loc0:
 1538              	.LLST0:
 1539 0000 00000000 		.4byte	.LVL0
 1540 0004 9E000000 		.4byte	.LVL1
 1541 0008 0100     		.2byte	0x1
 1542 000a 50       		.byte	0x50
 1543 000b 9E000000 		.4byte	.LVL1
 1544 000f B4000000 		.4byte	.LFE36
 1545 0013 0400     		.2byte	0x4
 1546 0015 F3       		.byte	0xf3
 1547 0016 01       		.uleb128 0x1
 1548 0017 50       		.byte	0x50
 1549 0018 9F       		.byte	0x9f
 1550 0019 00000000 		.4byte	0
 1551 001d 00000000 		.4byte	0
 1552              	.LLST1:
 1553 0021 00000000 		.4byte	.LVL2
 1554 0025 04000000 		.4byte	.LVL3
 1555 0029 0100     		.2byte	0x1
 1556 002b 52       		.byte	0x52
 1557 002c 04000000 		.4byte	.LVL3
 1558 0030 32000000 		.4byte	.LFE37
 1559 0034 0400     		.2byte	0x4
 1560 0036 F3       		.byte	0xf3
 1561 0037 01       		.uleb128 0x1
 1562 0038 52       		.byte	0x52
 1563 0039 9F       		.byte	0x9f
 1564 003a 00000000 		.4byte	0
 1565 003e 00000000 		.4byte	0
 1566              		.section	.debug_aranges,"",%progbits
 1567 0000 24000000 		.4byte	0x24
 1568 0004 0200     		.2byte	0x2
 1569 0006 00000000 		.4byte	.Ldebug_info0
 1570 000a 04       		.byte	0x4
 1571 000b 00       		.byte	0
 1572 000c 0000     		.2byte	0
 1573 000e 0000     		.2byte	0
 1574 0010 00000000 		.4byte	.LFB36
 1575 0014 B4000000 		.4byte	.LFE36-.LFB36
 1576 0018 00000000 		.4byte	.LFB37
 1577 001c 32000000 		.4byte	.LFE37-.LFB37
 1578 0020 00000000 		.4byte	0
 1579 0024 00000000 		.4byte	0
 1580              		.section	.debug_ranges,"",%progbits
 1581              	.Ldebug_ranges0:
 1582 0000 00000000 		.4byte	.LFB36
 1583 0004 B4000000 		.4byte	.LFE36
 1584 0008 00000000 		.4byte	.LFB37
 1585 000c 32000000 		.4byte	.LFE37
 1586 0010 00000000 		.4byte	0
 1587 0014 00000000 		.4byte	0
 1588              		.section	.debug_line,"",%progbits
 1589              	.Ldebug_line0:
 1590 0000 81010000 		.section	.debug_str,"MS",%progbits,1
 1590      0200EC00 
ARM GAS  /tmp/cc9Vlfld.s 			page 29


 1590      00000201 
 1590      FB0E0D00 
 1590      01010101 
 1591              	.LASF81:
 1592 0000 50494F5F 		.ascii	"PIO_PCRHR\000"
 1592      50435248 
 1592      5200
 1593              	.LASF64:
 1594 000a 50494F5F 		.ascii	"PIO_ELSR\000"
 1594      454C5352 
 1594      00
 1595              	.LASF107:
 1596 0013 504D435F 		.ascii	"PMC_SR\000"
 1596      535200
 1597              	.LASF133:
 1598 001a 474E5520 		.ascii	"GNU C 4.8.1 -mcpu=cortex-m3 -mno-thumb-interwork -m"
 1598      4320342E 
 1598      382E3120 
 1598      2D6D6370 
 1598      753D636F 
 1599 004d 7468756D 		.ascii	"thumb -ggdb -O2 -std=gnu99 -fomit-frame-pointer -fa"
 1599      62202D67 
 1599      67646220 
 1599      2D4F3220 
 1599      2D737464 
 1600 0080 6C69676E 		.ascii	"lign-functions=16 -ffunction-sections -fdata-sectio"
 1600      2D66756E 
 1600      6374696F 
 1600      6E733D31 
 1600      36202D66 
 1601 00b3 6E73202D 		.ascii	"ns -fno-common\000"
 1601      666E6F2D 
 1601      636F6D6D 
 1601      6F6E00
 1602              	.LASF84:
 1603 00c2 50494F5F 		.ascii	"PIO_TPR\000"
 1603      54505200 
 1604              	.LASF98:
 1605 00ca 434B4752 		.ascii	"CKGR_MOR\000"
 1605      5F4D4F52 
 1605      00
 1606              	.LASF74:
 1607 00d3 50494F5F 		.ascii	"PIO_SCHMITT\000"
 1607      5343484D 
 1607      49545400 
 1608              	.LASF125:
 1609 00df 696F706F 		.ascii	"ioportmask_t\000"
 1609      72746D61 
 1609      736B5F74 
 1609      00
 1610              	.LASF54:
 1611 00ec 50494F5F 		.ascii	"PIO_OWER\000"
 1611      4F574552 
 1611      00
 1612              	.LASF80:
 1613 00f5 50494F5F 		.ascii	"PIO_PCISR\000"
 1613      50434953 
ARM GAS  /tmp/cc9Vlfld.s 			page 30


 1613      5200
 1614              	.LASF8:
 1615 00ff 6C6F6E67 		.ascii	"long long unsigned int\000"
 1615      206C6F6E 
 1615      6720756E 
 1615      7369676E 
 1615      65642069 
 1616              	.LASF78:
 1617 0116 50494F5F 		.ascii	"PIO_PCIDR\000"
 1617      50434944 
 1617      5200
 1618              	.LASF87:
 1619 0120 50494F5F 		.ascii	"PIO_RNCR\000"
 1619      524E4352 
 1619      00
 1620              	.LASF137:
 1621 0129 49544D5F 		.ascii	"ITM_RxBuffer\000"
 1621      52784275 
 1621      66666572 
 1621      00
 1622              	.LASF49:
 1623 0136 50494F5F 		.ascii	"PIO_SCDR\000"
 1623      53434452 
 1623      00
 1624              	.LASF38:
 1625 013f 50494F5F 		.ascii	"PIO_MDSR\000"
 1625      4D445352 
 1625      00
 1626              	.LASF42:
 1627 0148 50494F5F 		.ascii	"PIO_PUSR\000"
 1627      50555352 
 1627      00
 1628              	.LASF7:
 1629 0151 6C6F6E67 		.ascii	"long long int\000"
 1629      206C6F6E 
 1629      6720696E 
 1629      7400
 1630              	.LASF1:
 1631 015f 7369676E 		.ascii	"signed char\000"
 1631      65642063 
 1631      68617200 
 1632              	.LASF79:
 1633 016b 50494F5F 		.ascii	"PIO_PCIMR\000"
 1633      5043494D 
 1633      5200
 1634              	.LASF62:
 1635 0175 50494F5F 		.ascii	"PIO_ESR\000"
 1635      45535200 
 1636              	.LASF93:
 1637 017d 504D435F 		.ascii	"PMC_SCDR\000"
 1637      53434452 
 1637      00
 1638              	.LASF18:
 1639 0186 50494F5F 		.ascii	"PIO_PSR\000"
 1639      50535200 
 1640              	.LASF19:
 1641 018e 52657365 		.ascii	"Reserved1\000"
ARM GAS  /tmp/cc9Vlfld.s 			page 31


 1641      72766564 
 1641      3100
 1642              	.LASF23:
 1643 0198 52657365 		.ascii	"Reserved2\000"
 1643      72766564 
 1643      3200
 1644              	.LASF27:
 1645 01a2 52657365 		.ascii	"Reserved3\000"
 1645      72766564 
 1645      3300
 1646              	.LASF39:
 1647 01ac 52657365 		.ascii	"Reserved4\000"
 1647      72766564 
 1647      3400
 1648              	.LASF97:
 1649 01b6 504D435F 		.ascii	"PMC_PCSR0\000"
 1649      50435352 
 1649      3000
 1650              	.LASF45:
 1651 01c0 52657365 		.ascii	"Reserved6\000"
 1651      72766564 
 1651      3600
 1652              	.LASF53:
 1653 01ca 52657365 		.ascii	"Reserved7\000"
 1653      72766564 
 1653      3700
 1654              	.LASF57:
 1655 01d4 52657365 		.ascii	"Reserved8\000"
 1655      72766564 
 1655      3800
 1656              	.LASF61:
 1657 01de 52657365 		.ascii	"Reserved9\000"
 1657      72766564 
 1657      3900
 1658              	.LASF17:
 1659 01e8 50494F5F 		.ascii	"PIO_PDR\000"
 1659      50445200 
 1660              	.LASF5:
 1661 01f0 6C6F6E67 		.ascii	"long int\000"
 1661      20696E74 
 1661      00
 1662              	.LASF40:
 1663 01f9 50494F5F 		.ascii	"PIO_PUDR\000"
 1663      50554452 
 1663      00
 1664              	.LASF112:
 1665 0202 504D435F 		.ascii	"PMC_WPMR\000"
 1665      57504D52 
 1665      00
 1666              	.LASF95:
 1667 020b 504D435F 		.ascii	"PMC_PCER0\000"
 1667      50434552 
 1667      3000
 1668              	.LASF114:
 1669 0215 504D435F 		.ascii	"PMC_PCER1\000"
 1669      50434552 
 1669      3100
ARM GAS  /tmp/cc9Vlfld.s 			page 32


 1670              	.LASF77:
 1671 021f 50494F5F 		.ascii	"PIO_PCIER\000"
 1671      50434945 
 1671      5200
 1672              	.LASF31:
 1673 0229 50494F5F 		.ascii	"PIO_PDSR\000"
 1673      50445352 
 1673      00
 1674              	.LASF90:
 1675 0232 50494F5F 		.ascii	"PIO_PTCR\000"
 1675      50544352 
 1675      00
 1676              	.LASF123:
 1677 023b 50324461 		.ascii	"P2Data\000"
 1677      746100
 1678              	.LASF44:
 1679 0242 50494F5F 		.ascii	"PIO_ABCDSR\000"
 1679      41424344 
 1679      535200
 1680              	.LASF16:
 1681 024d 50494F5F 		.ascii	"PIO_PER\000"
 1681      50455200 
 1682              	.LASF131:
 1683 0255 6D61736B 		.ascii	"mask\000"
 1683      00
 1684              	.LASF104:
 1685 025a 504D435F 		.ascii	"PMC_PCK\000"
 1685      50434B00 
 1686              	.LASF65:
 1687 0262 52657365 		.ascii	"Reserved10\000"
 1687      72766564 
 1687      313000
 1688              	.LASF69:
 1689 026d 52657365 		.ascii	"Reserved11\000"
 1689      72766564 
 1689      313100
 1690              	.LASF73:
 1691 0278 52657365 		.ascii	"Reserved12\000"
 1691      72766564 
 1691      313200
 1692              	.LASF75:
 1693 0283 52657365 		.ascii	"Reserved13\000"
 1693      72766564 
 1693      313300
 1694              	.LASF72:
 1695 028e 50494F5F 		.ascii	"PIO_WPSR\000"
 1695      57505352 
 1695      00
 1696              	.LASF132:
 1697 0297 6D6F6465 		.ascii	"mode\000"
 1697      00
 1698              	.LASF0:
 1699 029c 756E7369 		.ascii	"unsigned int\000"
 1699      676E6564 
 1699      20696E74 
 1699      00
 1700              	.LASF99:
ARM GAS  /tmp/cc9Vlfld.s 			page 33


 1701 02a9 434B4752 		.ascii	"CKGR_MCFR\000"
 1701      5F4D4346 
 1701      5200
 1702              	.LASF41:
 1703 02b3 50494F5F 		.ascii	"PIO_PUER\000"
 1703      50554552 
 1703      00
 1704              	.LASF68:
 1705 02bc 50494F5F 		.ascii	"PIO_FRLHSR\000"
 1705      46524C48 
 1705      535200
 1706              	.LASF85:
 1707 02c7 50494F5F 		.ascii	"PIO_TCR\000"
 1707      54435200 
 1708              	.LASF22:
 1709 02cf 50494F5F 		.ascii	"PIO_OSR\000"
 1709      4F535200 
 1710              	.LASF119:
 1711 02d7 70757372 		.ascii	"pusr\000"
 1711      00
 1712              	.LASF6:
 1713 02dc 6C6F6E67 		.ascii	"long unsigned int\000"
 1713      20756E73 
 1713      69676E65 
 1713      6420696E 
 1713      7400
 1714              	.LASF91:
 1715 02ee 50494F5F 		.ascii	"PIO_PTSR\000"
 1715      50545352 
 1715      00
 1716              	.LASF30:
 1717 02f7 50494F5F 		.ascii	"PIO_ODSR\000"
 1717      4F445352 
 1717      00
 1718              	.LASF21:
 1719 0300 50494F5F 		.ascii	"PIO_ODR\000"
 1719      4F445200 
 1720              	.LASF43:
 1721 0308 52657365 		.ascii	"Reserved5\000"
 1721      72766564 
 1721      3500
 1722              	.LASF4:
 1723 0312 73686F72 		.ascii	"short unsigned int\000"
 1723      7420756E 
 1723      7369676E 
 1723      65642069 
 1723      6E7400
 1724              	.LASF102:
 1725 0325 504D435F 		.ascii	"PMC_MCKR\000"
 1725      4D434B52 
 1725      00
 1726              	.LASF96:
 1727 032e 504D435F 		.ascii	"PMC_PCDR0\000"
 1727      50434452 
 1727      3000
 1728              	.LASF115:
 1729 0338 504D435F 		.ascii	"PMC_PCDR1\000"
ARM GAS  /tmp/cc9Vlfld.s 			page 34


 1729      50434452 
 1729      3100
 1730              	.LASF82:
 1731 0342 50494F5F 		.ascii	"PIO_RPR\000"
 1731      52505200 
 1732              	.LASF70:
 1733 034a 50494F5F 		.ascii	"PIO_LOCKSR\000"
 1733      4C4F434B 
 1733      535200
 1734              	.LASF58:
 1735 0355 50494F5F 		.ascii	"PIO_AIMER\000"
 1735      41494D45 
 1735      5200
 1736              	.LASF35:
 1737 035f 50494F5F 		.ascii	"PIO_ISR\000"
 1737      49535200 
 1738              	.LASF13:
 1739 0367 526F5265 		.ascii	"RoReg\000"
 1739      6700
 1740              	.LASF33:
 1741 036d 50494F5F 		.ascii	"PIO_IDR\000"
 1741      49445200 
 1742              	.LASF103:
 1743 0375 504D435F 		.ascii	"PMC_USB\000"
 1743      55534200 
 1744              	.LASF60:
 1745 037d 50494F5F 		.ascii	"PIO_AIMMR\000"
 1745      41494D4D 
 1745      5200
 1746              	.LASF117:
 1747 0387 504D435F 		.ascii	"PMC_OCR\000"
 1747      4F435200 
 1748              	.LASF20:
 1749 038f 50494F5F 		.ascii	"PIO_OER\000"
 1749      4F455200 
 1750              	.LASF11:
 1751 0397 73697A65 		.ascii	"sizetype\000"
 1751      74797065 
 1751      00
 1752              	.LASF136:
 1753 03a0 706F7274 		.ascii	"ports\000"
 1753      7300
 1754              	.LASF71:
 1755 03a6 50494F5F 		.ascii	"PIO_WPMR\000"
 1755      57504D52 
 1755      00
 1756              	.LASF111:
 1757 03af 504D435F 		.ascii	"PMC_FOCR\000"
 1757      464F4352 
 1757      00
 1758              	.LASF118:
 1759 03b8 6F647372 		.ascii	"odsr\000"
 1759      00
 1760              	.LASF109:
 1761 03bd 504D435F 		.ascii	"PMC_FSMR\000"
 1761      46534D52 
 1761      00
ARM GAS  /tmp/cc9Vlfld.s 			page 35


 1762              	.LASF134:
 1763 03c6 2E2E2F74 		.ascii	"../third_party/ChibiOS/os/hal/platforms/AT91SAM3S/p"
 1763      68697264 
 1763      5F706172 
 1763      74792F43 
 1763      68696269 
 1764 03f9 616C5F6C 		.ascii	"al_lld.c\000"
 1764      6C642E63 
 1764      00
 1765              	.LASF135:
 1766 0402 2F686F6D 		.ascii	"/home/santi/Documentos/ProyectoDron_2018/MCU/creato"
 1766      652F7361 
 1766      6E74692F 
 1766      446F6375 
 1766      6D656E74 
 1767 0435 7200     		.ascii	"r\000"
 1768              	.LASF52:
 1769 0437 50494F5F 		.ascii	"PIO_PPDSR\000"
 1769      50504453 
 1769      5200
 1770              	.LASF14:
 1771 0441 576F5265 		.ascii	"WoReg\000"
 1771      6700
 1772              	.LASF50:
 1773 0447 50494F5F 		.ascii	"PIO_PPDDR\000"
 1773      50504444 
 1773      5200
 1774              	.LASF32:
 1775 0451 50494F5F 		.ascii	"PIO_IER\000"
 1775      49455200 
 1776              	.LASF37:
 1777 0459 50494F5F 		.ascii	"PIO_MDDR\000"
 1777      4D444452 
 1777      00
 1778              	.LASF88:
 1779 0462 50494F5F 		.ascii	"PIO_TNPR\000"
 1779      544E5052 
 1779      00
 1780              	.LASF130:
 1781 046b 706F7274 		.ascii	"port\000"
 1781      00
 1782              	.LASF100:
 1783 0470 434B4752 		.ascii	"CKGR_PLLAR\000"
 1783      5F504C4C 
 1783      415200
 1784              	.LASF122:
 1785 047b 50314461 		.ascii	"P1Data\000"
 1785      746100
 1786              	.LASF66:
 1787 0482 50494F5F 		.ascii	"PIO_FELLSR\000"
 1787      46454C4C 
 1787      535200
 1788              	.LASF76:
 1789 048d 50494F5F 		.ascii	"PIO_PCMR\000"
 1789      50434D52 
 1789      00
 1790              	.LASF34:
ARM GAS  /tmp/cc9Vlfld.s 			page 36


 1791 0496 50494F5F 		.ascii	"PIO_IMR\000"
 1791      494D5200 
 1792              	.LASF2:
 1793 049e 756E7369 		.ascii	"unsigned char\000"
 1793      676E6564 
 1793      20636861 
 1793      7200
 1794              	.LASF26:
 1795 04ac 50494F5F 		.ascii	"PIO_IFSR\000"
 1795      49465352 
 1795      00
 1796              	.LASF3:
 1797 04b5 73686F72 		.ascii	"short int\000"
 1797      7420696E 
 1797      7400
 1798              	.LASF25:
 1799 04bf 50494F5F 		.ascii	"PIO_IFDR\000"
 1799      49464452 
 1799      00
 1800              	.LASF10:
 1801 04c8 75696E74 		.ascii	"uint_fast8_t\000"
 1801      5F666173 
 1801      74385F74 
 1801      00
 1802              	.LASF29:
 1803 04d5 50494F5F 		.ascii	"PIO_CODR\000"
 1803      434F4452 
 1803      00
 1804              	.LASF116:
 1805 04de 504D435F 		.ascii	"PMC_PCSR1\000"
 1805      50435352 
 1805      3100
 1806              	.LASF83:
 1807 04e8 50494F5F 		.ascii	"PIO_RCR\000"
 1807      52435200 
 1808              	.LASF106:
 1809 04f0 504D435F 		.ascii	"PMC_IDR\000"
 1809      49445200 
 1810              	.LASF51:
 1811 04f8 50494F5F 		.ascii	"PIO_PPDER\000"
 1811      50504445 
 1811      5200
 1812              	.LASF36:
 1813 0502 50494F5F 		.ascii	"PIO_MDER\000"
 1813      4D444552 
 1813      00
 1814              	.LASF9:
 1815 050b 75696E74 		.ascii	"uint32_t\000"
 1815      33325F74 
 1815      00
 1816              	.LASF67:
 1817 0514 50494F5F 		.ascii	"PIO_REHLSR\000"
 1817      5245484C 
 1817      535200
 1818              	.LASF101:
 1819 051f 434B4752 		.ascii	"CKGR_PLLBR\000"
 1819      5F504C4C 
ARM GAS  /tmp/cc9Vlfld.s 			page 37


 1819      425200
 1820              	.LASF12:
 1821 052a 63686172 		.ascii	"char\000"
 1821      00
 1822              	.LASF59:
 1823 052f 50494F5F 		.ascii	"PIO_AIMDR\000"
 1823      41494D44 
 1823      5200
 1824              	.LASF129:
 1825 0539 636F6E66 		.ascii	"config\000"
 1825      696700
 1826              	.LASF48:
 1827 0540 50494F5F 		.ascii	"PIO_IFSCSR\000"
 1827      49465343 
 1827      535200
 1828              	.LASF94:
 1829 054b 504D435F 		.ascii	"PMC_SCSR\000"
 1829      53435352 
 1829      00
 1830              	.LASF46:
 1831 0554 50494F5F 		.ascii	"PIO_IFSCDR\000"
 1831      49465343 
 1831      445200
 1832              	.LASF24:
 1833 055f 50494F5F 		.ascii	"PIO_IFER\000"
 1833      49464552 
 1833      00
 1834              	.LASF126:
 1835 0568 696F706F 		.ascii	"ioportid_t\000"
 1835      72746964 
 1835      5F7400
 1836              	.LASF86:
 1837 0573 50494F5F 		.ascii	"PIO_RNPR\000"
 1837      524E5052 
 1837      00
 1838              	.LASF128:
 1839 057c 5F70616C 		.ascii	"_pal_lld_setgroupmode\000"
 1839      5F6C6C64 
 1839      5F736574 
 1839      67726F75 
 1839      706D6F64 
 1840              	.LASF105:
 1841 0592 504D435F 		.ascii	"PMC_IER\000"
 1841      49455200 
 1842              	.LASF15:
 1843 059a 52775265 		.ascii	"RwReg\000"
 1843      6700
 1844              	.LASF127:
 1845 05a0 5F70616C 		.ascii	"_pal_lld_init\000"
 1845      5F6C6C64 
 1845      5F696E69 
 1845      7400
 1846              	.LASF108:
 1847 05ae 504D435F 		.ascii	"PMC_IMR\000"
 1847      494D5200 
 1848              	.LASF63:
 1849 05b6 50494F5F 		.ascii	"PIO_LSR\000"
ARM GAS  /tmp/cc9Vlfld.s 			page 38


 1849      4C535200 
 1850              	.LASF89:
 1851 05be 50494F5F 		.ascii	"PIO_TNCR\000"
 1851      544E4352 
 1851      00
 1852              	.LASF56:
 1853 05c7 50494F5F 		.ascii	"PIO_OWSR\000"
 1853      4F575352 
 1853      00
 1854              	.LASF110:
 1855 05d0 504D435F 		.ascii	"PMC_FSPR\000"
 1855      46535052 
 1855      00
 1856              	.LASF47:
 1857 05d9 50494F5F 		.ascii	"PIO_IFSCER\000"
 1857      49465343 
 1857      455200
 1858              	.LASF120:
 1859 05e4 61743931 		.ascii	"at91sam3_pio_setup_t\000"
 1859      73616D33 
 1859      5F70696F 
 1859      5F736574 
 1859      75705F74 
 1860              	.LASF92:
 1861 05f9 504D435F 		.ascii	"PMC_SCER\000"
 1861      53434552 
 1861      00
 1862              	.LASF55:
 1863 0602 50494F5F 		.ascii	"PIO_OWDR\000"
 1863      4F574452 
 1863      00
 1864              	.LASF28:
 1865 060b 50494F5F 		.ascii	"PIO_SODR\000"
 1865      534F4452 
 1865      00
 1866              	.LASF124:
 1867 0614 50414C43 		.ascii	"PALConfig\000"
 1867      6F6E6669 
 1867      6700
 1868              	.LASF121:
 1869 061e 50304461 		.ascii	"P0Data\000"
 1869      746100
 1870              	.LASF113:
 1871 0625 504D435F 		.ascii	"PMC_WPSR\000"
 1871      57505352 
 1871      00
 1872              		.ident	"GCC: (Sourcery CodeBench Lite 2013.11-24) 4.8.1"
ARM GAS  /tmp/cc9Vlfld.s 			page 39


DEFINED SYMBOLS
                            *ABS*:00000000 pal_lld.c
     /tmp/cc9Vlfld.s:19     .text._pal_lld_init:00000000 $t
     /tmp/cc9Vlfld.s:25     .text._pal_lld_init:00000000 _pal_lld_init
     /tmp/cc9Vlfld.s:181    .text._pal_lld_setgroupmode:00000000 $t
     /tmp/cc9Vlfld.s:187    .text._pal_lld_setgroupmode:00000000 _pal_lld_setgroupmode
     /tmp/cc9Vlfld.s:202    .text._pal_lld_setgroupmode:0000000c $d
     /tmp/cc9Vlfld.s:210    .text._pal_lld_setgroupmode:00000014 $t
                     .debug_frame:00000010 $d

NO UNDEFINED SYMBOLS
