ARM GAS  /tmp/ccZUmC8u.s 			page 1


   1              		.syntax unified
   2              		.cpu cortex-m3
   3              		.fpu softvfp
   4              		.eabi_attribute 20, 1
   5              		.eabi_attribute 21, 1
   6              		.eabi_attribute 23, 3
   7              		.eabi_attribute 24, 1
   8              		.eabi_attribute 25, 1
   9              		.eabi_attribute 26, 1
  10              		.eabi_attribute 30, 2
  11              		.eabi_attribute 34, 1
  12              		.eabi_attribute 18, 4
  13              		.thumb
  14              		.file	"pio.c"
  15              		.text
  16              	.Ltext0:
  17              		.cfi_sections	.debug_frame
  18              		.section	.text.PIO_Configure,"ax",%progbits
  19              		.align	2
  20              		.p2align 4,,15
  21              		.global	PIO_Configure
  22              		.thumb
  23              		.thumb_func
  24              		.type	PIO_Configure, %function
  25              	PIO_Configure:
  26              	.LFB6:
  27              		.file 1 "../third_party/ChibiOS/os/hal/platforms/AT91SAM3S/pio.c"
  28              		.loc 1 306 0
  29              		.cfi_startproc
  30              		@ args = 0, pretend = 0, frame = 0
  31              		@ frame_needed = 0, uses_anonymous_args = 0
  32              	.LVL0:
  33 0000 70B5     		push	{r4, r5, r6, lr}
  34              		.cfi_def_cfa_offset 16
  35              		.cfi_offset 4, -16
  36              		.cfi_offset 5, -12
  37              		.cfi_offset 6, -8
  38              		.cfi_offset 14, -4
  39              		.loc 1 308 0
  40 0002 0D46     		mov	r5, r1
  41 0004 00F10C04 		add	r4, r0, #12
  42 0008 31B3     		cbz	r1, .L32
  43              	.LVL1:
  44              	.L33:
  45              		.loc 1 310 0
  46 000a 14F8033C 		ldrb	r3, [r4, #-3]	@ zero_extendqisi2
  47 000e 062B     		cmp	r3, #6
  48 0010 00F29D80 		bhi	.L34
  49 0014 DFE803F0 		tbb	[pc, r3]
  50              	.L5:
  51 0018 70       		.byte	(.L4-.L5)/2
  52 0019 5A       		.byte	(.L6-.L5)/2
  53 001a 88       		.byte	(.L7-.L5)/2
  54 001b 42       		.byte	(.L8-.L5)/2
  55 001c 22       		.byte	(.L9-.L5)/2
  56 001d 04       		.byte	(.L10-.L5)/2
  57 001e 04       		.byte	(.L10-.L5)/2
ARM GAS  /tmp/ccZUmC8u.s 			page 2


  58 001f 00       		.align	1
  59              	.L10:
  60              	.LBB26:
  61              		.loc 1 348 0
  62 0020 14F8020C 		ldrb	r0, [r4, #-2]	@ zero_extendqisi2
  63              		.loc 1 345 0
  64 0024 54F8082C 		ldr	r2, [r4, #-8]
  65              		.loc 1 346 0
  66 0028 54F80C1C 		ldr	r1, [r4, #-12]
  67              		.loc 1 348 0
  68 002c 00F00406 		and	r6, r0, #4
  69 0030 F6B2     		uxtb	r6, r6
  70              	.LVL2:
  71              	.LBB27:
  72              	.LBB28:
  73              		.loc 1 255 0
  74 0032 C007     		lsls	r0, r0, #31
  75              	.LVL3:
  76              		.loc 1 252 0
  77 0034 5164     		str	r1, [r2, #68]
  78              	.LVL4:
  79              		.loc 1 257 0
  80 0036 4CBF     		ite	mi
  81 0038 5166     		strmi	r1, [r2, #100]
  82              		.loc 1 261 0
  83 003a 1166     		strpl	r1, [r2, #96]
  84              		.loc 1 265 0
  85 003c 002E     		cmp	r6, #0
  86 003e 40F08480 		bne	.L43
  87              		.loc 1 271 0
  88 0042 5165     		str	r1, [r2, #84]
  89              	.L29:
  90              		.loc 1 276 0
  91 0044 062B     		cmp	r3, #6
  92              		.loc 1 278 0
  93 0046 0CBF     		ite	eq
  94 0048 1163     		streq	r1, [r2, #48]
  95              		.loc 1 282 0
  96 004a 5163     		strne	r1, [r2, #52]
  97              	.LBE28:
  98              	.LBE27:
  99              	.LBE26:
 100              		.loc 1 308 0
 101 004c 013D     		subs	r5, r5, #1
 102              	.LVL5:
 103              	.LBB43:
 104              	.LBB31:
 105              	.LBB29:
 106              		.loc 1 286 0
 107 004e 1161     		str	r1, [r2, #16]
 108 0050 04F10C04 		add	r4, r4, #12
 109              	.LVL6:
 110              		.loc 1 287 0
 111 0054 1160     		str	r1, [r2]
 112              	.LVL7:
 113              	.LBE29:
 114              	.LBE31:
ARM GAS  /tmp/ccZUmC8u.s 			page 3


 115              	.LBE43:
 116              		.loc 1 308 0
 117 0056 D8D1     		bne	.L33
 118              	.LVL8:
 119              	.L32:
 120              		.loc 1 359 0
 121 0058 0120     		movs	r0, #1
 122 005a 70BD     		pop	{r4, r5, r6, pc}
 123              	.LVL9:
 124              	.L9:
 125              	.LBB44:
 126              		.loc 1 337 0
 127 005c 14F8040C 		ldrb	r0, [r4, #-4]	@ zero_extendqisi2
 128 0060 FFF7FEFF 		bl	PMC_EnablePeripheral
 129              	.LVL10:
 130              		.loc 1 338 0
 131 0064 14F8021C 		ldrb	r1, [r4, #-2]	@ zero_extendqisi2
 132 0068 54F8083C 		ldr	r3, [r4, #-8]
 133              	.LVL11:
 134              		.loc 1 339 0
 135 006c 54F80C2C 		ldr	r2, [r4, #-12]
 136              	.LVL12:
 137              	.LBB32:
 138              	.LBB33:
 139              		.loc 1 203 0
 140 0070 CE07     		lsls	r6, r1, #31
 141              		.loc 1 200 0
 142 0072 5A64     		str	r2, [r3, #68]
 143              	.LVL13:
 144              		.loc 1 204 0
 145 0074 4CBF     		ite	mi
 146 0076 5A66     		strmi	r2, [r3, #100]
 147              		.loc 1 206 0
 148 0078 1A66     		strpl	r2, [r3, #96]
 149              		.loc 1 209 0
 150 007a 11F00A0F 		tst	r1, #10
 151              		.loc 1 210 0
 152 007e 14BF     		ite	ne
 153 0080 1A62     		strne	r2, [r3, #32]
 154              		.loc 1 212 0
 155 0082 5A62     		streq	r2, [r3, #36]
 156              		.loc 1 215 0
 157 0084 8807     		lsls	r0, r1, #30
 158              		.loc 1 217 0
 159 0086 48BF     		it	mi
 160 0088 C3F88020 		strmi	r2, [r3, #128]
 161              		.loc 1 215 0
 162 008c 03D4     		bmi	.L25
 163              		.loc 1 221 0
 164 008e 0E07     		lsls	r6, r1, #28
 165              		.loc 1 223 0
 166 0090 48BF     		it	mi
 167 0092 C3F88420 		strmi	r2, [r3, #132]
 168              	.L25:
 169              		.loc 1 228 0
 170 0096 5A61     		str	r2, [r3, #20]
 171              		.loc 1 229 0
ARM GAS  /tmp/ccZUmC8u.s 			page 4


 172 0098 1A60     		str	r2, [r3]
 173 009a 11E0     		b	.L13
 174              	.LVL14:
 175              	.L8:
 176              	.LBE33:
 177              	.LBE32:
 178              		.loc 1 334 0
 179 009c 14F8021C 		ldrb	r1, [r4, #-2]	@ zero_extendqisi2
 180              		.loc 1 332 0
 181 00a0 54F8083C 		ldr	r3, [r4, #-8]
 182              	.LVL15:
 183              		.loc 1 333 0
 184 00a4 54F80C2C 		ldr	r2, [r4, #-12]
 185              	.LVL16:
 186              	.LBB34:
 187              	.LBB35:
 188              		.loc 1 168 0
 189 00a8 C907     		lsls	r1, r1, #31
 190              	.LVL17:
 191              		.loc 1 165 0
 192 00aa 5A64     		str	r2, [r3, #68]
 193              	.LVL18:
 194              		.loc 1 170 0
 195 00ac 4CBF     		ite	mi
 196 00ae 5A66     		strmi	r2, [r3, #100]
 197              		.loc 1 174 0
 198 00b0 1A66     		strpl	r2, [r3, #96]
 199              		.loc 1 177 0
 200 00b2 196F     		ldr	r1, [r3, #112]
 201              	.LVL19:
 202              		.loc 1 178 0
 203 00b4 1143     		orrs	r1, r1, r2
 204              	.LVL20:
 205              	.L41:
 206 00b6 1967     		str	r1, [r3, #112]
 207              		.loc 1 179 0
 208 00b8 596F     		ldr	r1, [r3, #116]
 209              	.LVL21:
 210              		.loc 1 180 0
 211 00ba 1143     		orrs	r1, r1, r2
 212              	.LVL22:
 213 00bc 5967     		str	r1, [r3, #116]
 214              		.loc 1 182 0
 215 00be 5A60     		str	r2, [r3, #4]
 216              	.L13:
 217              	.LVL23:
 218              	.LBE35:
 219              	.LBE34:
 220              	.LBE44:
 221              		.loc 1 308 0
 222 00c0 013D     		subs	r5, r5, #1
 223              	.LVL24:
 224 00c2 04F10C04 		add	r4, r4, #12
 225              	.LVL25:
 226 00c6 A0D1     		bne	.L33
 227              		.loc 1 359 0
 228 00c8 0120     		movs	r0, #1
ARM GAS  /tmp/ccZUmC8u.s 			page 5


 229 00ca 70BD     		pop	{r4, r5, r6, pc}
 230              	.LVL26:
 231              	.L6:
 232              	.LBB45:
 233              		.loc 1 322 0
 234 00cc 14F8021C 		ldrb	r1, [r4, #-2]	@ zero_extendqisi2
 235              		.loc 1 320 0
 236 00d0 54F8083C 		ldr	r3, [r4, #-8]
 237              	.LVL27:
 238              		.loc 1 321 0
 239 00d4 54F80C2C 		ldr	r2, [r4, #-12]
 240              	.LVL28:
 241              	.LBB36:
 242              	.LBB37:
 243              		.loc 1 96 0
 244 00d8 CE07     		lsls	r6, r1, #31
 245              		.loc 1 93 0
 246 00da 5A64     		str	r2, [r3, #68]
 247              		.loc 1 98 0
 248 00dc 4CBF     		ite	mi
 249 00de 5A66     		strmi	r2, [r3, #100]
 250              		.loc 1 102 0
 251 00e0 1A66     		strpl	r2, [r3, #96]
 252              		.loc 1 105 0
 253 00e2 196F     		ldr	r1, [r3, #112]
 254              	.LVL29:
 255              		.loc 1 106 0
 256 00e4 1143     		orrs	r1, r1, r2
 257              	.LVL30:
 258 00e6 1967     		str	r1, [r3, #112]
 259              		.loc 1 107 0
 260 00e8 596F     		ldr	r1, [r3, #116]
 261              	.LVL31:
 262              		.loc 1 108 0
 263 00ea 586F     		ldr	r0, [r3, #116]
 264 00ec 0140     		ands	r1, r1, r0
 265              	.LVL32:
 266 00ee 21EA0201 		bic	r1, r1, r2
 267 00f2 5967     		str	r1, [r3, #116]
 268              		.loc 1 110 0
 269 00f4 5A60     		str	r2, [r3, #4]
 270 00f6 E3E7     		b	.L13
 271              	.LVL33:
 272              	.L4:
 273              	.LBE37:
 274              	.LBE36:
 275              		.loc 1 316 0
 276 00f8 14F8021C 		ldrb	r1, [r4, #-2]	@ zero_extendqisi2
 277              		.loc 1 314 0
 278 00fc 54F8083C 		ldr	r3, [r4, #-8]
 279              	.LVL34:
 280              		.loc 1 315 0
 281 0100 54F80C2C 		ldr	r2, [r4, #-12]
 282              	.LVL35:
 283              	.LBB38:
 284              	.LBB39:
 285              		.loc 1 62 0
ARM GAS  /tmp/ccZUmC8u.s 			page 6


 286 0104 C907     		lsls	r1, r1, #31
 287              	.LVL36:
 288              		.loc 1 59 0
 289 0106 5A64     		str	r2, [r3, #68]
 290              	.LVL37:
 291              		.loc 1 63 0
 292 0108 4CBF     		ite	mi
 293 010a 5A66     		strmi	r2, [r3, #100]
 294              		.loc 1 67 0
 295 010c 1A66     		strpl	r2, [r3, #96]
 296              		.loc 1 70 0
 297 010e 186F     		ldr	r0, [r3, #112]
 298              	.LVL38:
 299              		.loc 1 71 0
 300 0110 1E6F     		ldr	r6, [r3, #112]
 301 0112 D143     		mvns	r1, r2
 302 0114 3040     		ands	r0, r0, r6
 303              	.LVL39:
 304 0116 0840     		ands	r0, r0, r1
 305 0118 1867     		str	r0, [r3, #112]
 306              		.loc 1 72 0
 307 011a 586F     		ldr	r0, [r3, #116]
 308              	.LVL40:
 309              		.loc 1 73 0
 310 011c 5E6F     		ldr	r6, [r3, #116]
 311 011e 3040     		ands	r0, r0, r6
 312              	.LVL41:
 313 0120 0140     		ands	r1, r1, r0
 314 0122 5967     		str	r1, [r3, #116]
 315              		.loc 1 74 0
 316 0124 5A60     		str	r2, [r3, #4]
 317 0126 CBE7     		b	.L13
 318              	.LVL42:
 319              	.L7:
 320              	.LBE39:
 321              	.LBE38:
 322              		.loc 1 328 0
 323 0128 14F8021C 		ldrb	r1, [r4, #-2]	@ zero_extendqisi2
 324              		.loc 1 326 0
 325 012c 54F8083C 		ldr	r3, [r4, #-8]
 326              	.LVL43:
 327              		.loc 1 327 0
 328 0130 54F80C2C 		ldr	r2, [r4, #-12]
 329              	.LVL44:
 330              	.LBB40:
 331              	.LBB41:
 332              		.loc 1 132 0
 333 0134 C807     		lsls	r0, r1, #31
 334              		.loc 1 129 0
 335 0136 5A64     		str	r2, [r3, #68]
 336              		.loc 1 134 0
 337 0138 4CBF     		ite	mi
 338 013a 5A66     		strmi	r2, [r3, #100]
 339              		.loc 1 138 0
 340 013c 1A66     		strpl	r2, [r3, #96]
 341              		.loc 1 141 0
 342 013e 196F     		ldr	r1, [r3, #112]
ARM GAS  /tmp/ccZUmC8u.s 			page 7


 343              	.LVL45:
 344              		.loc 1 142 0
 345 0140 186F     		ldr	r0, [r3, #112]
 346 0142 0140     		ands	r1, r1, r0
 347              	.LVL46:
 348 0144 21EA0201 		bic	r1, r1, r2
 349 0148 B5E7     		b	.L41
 350              	.LVL47:
 351              	.L43:
 352              	.LBE41:
 353              	.LBE40:
 354              	.LBB42:
 355              	.LBB30:
 356              		.loc 1 267 0
 357 014a 1165     		str	r1, [r2, #80]
 358 014c 7AE7     		b	.L29
 359              	.LVL48:
 360              	.L34:
 361              	.LBE30:
 362              	.LBE42:
 363              		.loc 1 352 0
 364 014e 0020     		movs	r0, #0
 365              	.LBE45:
 366              		.loc 1 360 0
 367 0150 70BD     		pop	{r4, r5, r6, pc}
 368              		.cfi_endproc
 369              	.LFE6:
 370              		.size	PIO_Configure, .-PIO_Configure
 371 0152 00BFAFF3 		.section	.text.PIO_Set,"ax",%progbits
 371      0080AFF3 
 371      0080AFF3 
 371      0080
 372              		.align	2
 373              		.p2align 4,,15
 374              		.global	PIO_Set
 375              		.thumb
 376              		.thumb_func
 377              		.type	PIO_Set, %function
 378              	PIO_Set:
 379              	.LFB7:
 380              		.loc 1 370 0
 381              		.cfi_startproc
 382              		@ args = 0, pretend = 0, frame = 0
 383              		@ frame_needed = 0, uses_anonymous_args = 0
 384              		@ link register save eliminated.
 385              	.LVL49:
 386              		.loc 1 371 0
 387 0000 90E80C00 		ldmia	r0, {r2, r3}
 388 0004 1A63     		str	r2, [r3, #48]
 389 0006 7047     		bx	lr
 390              		.cfi_endproc
 391              	.LFE7:
 392              		.size	PIO_Set, .-PIO_Set
 393 0008 AFF30080 		.section	.text.PIO_Clear,"ax",%progbits
 393      AFF30080 
 394              		.align	2
 395              		.p2align 4,,15
ARM GAS  /tmp/ccZUmC8u.s 			page 8


 396              		.global	PIO_Clear
 397              		.thumb
 398              		.thumb_func
 399              		.type	PIO_Clear, %function
 400              	PIO_Clear:
 401              	.LFB8:
 402              		.loc 1 382 0
 403              		.cfi_startproc
 404              		@ args = 0, pretend = 0, frame = 0
 405              		@ frame_needed = 0, uses_anonymous_args = 0
 406              		@ link register save eliminated.
 407              	.LVL50:
 408              		.loc 1 383 0
 409 0000 90E80C00 		ldmia	r0, {r2, r3}
 410 0004 5A63     		str	r2, [r3, #52]
 411 0006 7047     		bx	lr
 412              		.cfi_endproc
 413              	.LFE8:
 414              		.size	PIO_Clear, .-PIO_Clear
 415 0008 AFF30080 		.section	.text.PIO_Get,"ax",%progbits
 415      AFF30080 
 416              		.align	2
 417              		.p2align 4,,15
 418              		.global	PIO_Get
 419              		.thumb
 420              		.thumb_func
 421              		.type	PIO_Get, %function
 422              	PIO_Get:
 423              	.LFB9:
 424              		.loc 1 398 0
 425              		.cfi_startproc
 426              		@ args = 0, pretend = 0, frame = 0
 427              		@ frame_needed = 0, uses_anonymous_args = 0
 428              		@ link register save eliminated.
 429              	.LVL51:
 430              		.loc 1 401 0
 431 0000 437A     		ldrb	r3, [r0, #9]	@ zero_extendqisi2
 432 0002 053B     		subs	r3, r3, #5
 433 0004 DBB2     		uxtb	r3, r3
 434 0006 012B     		cmp	r3, #1
 435              		.loc 1 403 0
 436 0008 4368     		ldr	r3, [r0, #4]
 437 000a 94BF     		ite	ls
 438 000c 9A6B     		ldrls	r2, [r3, #56]
 439              	.LVL52:
 440              		.loc 1 407 0
 441 000e DA6B     		ldrhi	r2, [r3, #60]
 442              	.LVL53:
 443              		.loc 1 410 0
 444 0010 0368     		ldr	r3, [r0]
 445 0012 1A42     		tst	r2, r3
 446              		.loc 1 418 0
 447 0014 0CBF     		ite	eq
 448 0016 0020     		moveq	r0, #0
 449 0018 0120     		movne	r0, #1
 450              	.LVL54:
 451 001a 7047     		bx	lr
ARM GAS  /tmp/ccZUmC8u.s 			page 9


 452              		.cfi_endproc
 453              	.LFE9:
 454              		.size	PIO_Get, .-PIO_Get
 455 001c AFF30080 		.section	.text.PIO_GetOutputDataStatus,"ax",%progbits
 456              		.align	2
 457              		.p2align 4,,15
 458              		.global	PIO_GetOutputDataStatus
 459              		.thumb
 460              		.thumb_func
 461              		.type	PIO_GetOutputDataStatus, %function
 462              	PIO_GetOutputDataStatus:
 463              	.LFB10:
 464              		.loc 1 431 0
 465              		.cfi_startproc
 466              		@ args = 0, pretend = 0, frame = 0
 467              		@ frame_needed = 0, uses_anonymous_args = 0
 468              		@ link register save eliminated.
 469              	.LVL55:
 470              		.loc 1 432 0
 471 0000 4268     		ldr	r2, [r0, #4]
 472 0002 0368     		ldr	r3, [r0]
 473 0004 926B     		ldr	r2, [r2, #56]
 474 0006 1A42     		tst	r2, r3
 475              		.loc 1 440 0
 476 0008 0CBF     		ite	eq
 477 000a 0020     		moveq	r0, #0
 478 000c 0120     		movne	r0, #1
 479              	.LVL56:
 480 000e 7047     		bx	lr
 481              		.cfi_endproc
 482              	.LFE10:
 483              		.size	PIO_GetOutputDataStatus, .-PIO_GetOutputDataStatus
 484              		.section	.text.PIO_SetDebounceFilter,"ax",%progbits
 485              		.align	2
 486              		.p2align 4,,15
 487              		.global	PIO_SetDebounceFilter
 488              		.thumb
 489              		.thumb_func
 490              		.type	PIO_SetDebounceFilter, %function
 491              	PIO_SetDebounceFilter:
 492              	.LFB11:
 493              		.loc 1 449 0
 494              		.cfi_startproc
 495              		@ args = 0, pretend = 0, frame = 0
 496              		@ frame_needed = 0, uses_anonymous_args = 0
 497              		@ link register save eliminated.
 498              	.LVL57:
 499              		.loc 1 453 0
 500 0000 47F6A673 		movw	r3, #32678
 501 0004 4900     		lsls	r1, r1, #1
 502              	.LVL58:
 503 0006 B3FBF1F1 		udiv	r1, r3, r1
 504 000a 0139     		subs	r1, r1, #1
 505 000c C1F30D01 		ubfx	r1, r1, #0, #14
 506              		.loc 1 452 0
 507 0010 90E80C00 		ldmia	r0, {r2, r3}
 508 0014 C3F88420 		str	r2, [r3, #132]
ARM GAS  /tmp/ccZUmC8u.s 			page 10


 509              		.loc 1 453 0
 510 0018 C3F88C10 		str	r1, [r3, #140]
 511 001c 7047     		bx	lr
 512              		.cfi_endproc
 513              	.LFE11:
 514              		.size	PIO_SetDebounceFilter, .-PIO_SetDebounceFilter
 515 001e 00BF     		.text
 516              	.Letext0:
 517              		.file 2 "/home/santi/arm-2013.11/arm-none-eabi/include/stdint.h"
 518              		.file 3 "../third_party/ChibiOS/os/hal/platforms/AT91SAM3S/at91lib/SAM3S.h"
 519              		.file 4 "../third_party/ChibiOS/os/hal/platforms/AT91SAM3S/pio.h"