ARM GAS  /tmp/ccdCGx1y.s 			page 1


   1              		.syntax unified
   2              		.cpu cortex-m3
   3              		.fpu softvfp
   4              		.eabi_attribute 20, 1
   5              		.eabi_attribute 21, 1
   6              		.eabi_attribute 23, 3
   7              		.eabi_attribute 24, 1
   8              		.eabi_attribute 25, 1
   9              		.eabi_attribute 26, 1
  10              		.eabi_attribute 30, 2
  11              		.eabi_attribute 34, 1
  12              		.eabi_attribute 18, 4
  13              		.thumb
  14              		.file	"pmc.c"
  15              		.text
  16              	.Ltext0:
  17              		.cfi_sections	.debug_frame
  18              		.section	.text.PMC_EnablePeripheral,"ax",%progbits
  19              		.align	2
  20              		.p2align 4,,15
  21              		.global	PMC_EnablePeripheral
  22              		.thumb
  23              		.thumb_func
  24              		.type	PMC_EnablePeripheral, %function
  25              	PMC_EnablePeripheral:
  26              	.LFB0:
  27              		.file 1 "../third_party/ChibiOS/os/hal/platforms/AT91SAM3S/pmc.c"
  28              		.loc 1 62 0
  29              		.cfi_startproc
  30              		@ args = 0, pretend = 0, frame = 0
  31              		@ frame_needed = 0, uses_anonymous_args = 0
  32              	.LVL0:
  33              		.loc 1 63 0
  34 0000 2228     		cmp	r0, #34
  35              		.loc 1 62 0
  36 0002 08B5     		push	{r3, lr}
  37              		.cfi_def_cfa_offset 8
  38              		.cfi_offset 3, -8
  39              		.cfi_offset 14, -4
  40              		.loc 1 63 0
  41 0004 1ED8     		bhi	.L6
  42              		.loc 1 65 0
  43 0006 1F28     		cmp	r0, #31
  44 0008 0CD8     		bhi	.L3
  45              		.loc 1 67 0
  46 000a 0123     		movs	r3, #1
  47 000c 03FA00F0 		lsl	r0, r3, r0
  48              	.LVL1:
  49 0010 4FF48063 		mov	r3, #1024
  50 0014 C4F20E03 		movt	r3, 16398
  51 0018 9A69     		ldr	r2, [r3, #24]
  52 001a 0240     		ands	r2, r2, r0
  53 001c 9042     		cmp	r0, r2
  54 001e 10D0     		beq	.L1
  55              		.loc 1 73 0
  56 0020 1861     		str	r0, [r3, #16]
  57 0022 08BD     		pop	{r3, pc}
ARM GAS  /tmp/ccdCGx1y.s 			page 2


  58              	.LVL2:
  59              	.L3:
  60              		.loc 1 79 0
  61 0024 0123     		movs	r3, #1
  62              		.loc 1 78 0
  63 0026 2038     		subs	r0, r0, #32
  64              	.LVL3:
  65              		.loc 1 79 0
  66 0028 03FA00F0 		lsl	r0, r3, r0
  67              	.LVL4:
  68 002c 4FF48063 		mov	r3, #1024
  69 0030 C4F20E03 		movt	r3, 16398
  70 0034 D3F80821 		ldr	r2, [r3, #264]
  71 0038 0240     		ands	r2, r2, r0
  72 003a 9042     		cmp	r0, r2
  73              		.loc 1 85 0
  74 003c 18BF     		it	ne
  75 003e C3F80001 		strne	r0, [r3, #256]
  76              	.LVL5:
  77              	.L1:
  78 0042 08BD     		pop	{r3, pc}
  79              	.LVL6:
  80              	.L6:
  81              		.loc 1 63 0 discriminator 1
  82 0044 40F20000 		movw	r0, #:lower16:.LC0
  83              	.LVL7:
  84 0048 40F20002 		movw	r2, #:lower16:.LANCHOR0
  85 004c 40F20003 		movw	r3, #:lower16:.LC1
  86 0050 C0F20000 		movt	r0, #:upper16:.LC0
  87 0054 C0F20002 		movt	r2, #:upper16:.LANCHOR0
  88 0058 C0F20003 		movt	r3, #:upper16:.LC1
  89 005c 3F21     		movs	r1, #63
  90 005e FFF7FEFF 		bl	__assert_func
  91              	.LVL8:
  92              		.cfi_endproc
  93              	.LFE0:
  94              		.size	PMC_EnablePeripheral, .-PMC_EnablePeripheral
  95 0062 00BFAFF3 		.section	.text.PMC_DisablePeripheral,"ax",%progbits
  95      0080AFF3 
  95      0080AFF3 
  95      0080
  96              		.align	2
  97              		.p2align 4,,15
  98              		.global	PMC_DisablePeripheral
  99              		.thumb
 100              		.thumb_func
 101              		.type	PMC_DisablePeripheral, %function
 102              	PMC_DisablePeripheral:
 103              	.LFB1:
 104              		.loc 1 99 0
 105              		.cfi_startproc
 106              		@ args = 0, pretend = 0, frame = 0
 107              		@ frame_needed = 0, uses_anonymous_args = 0
 108              	.LVL9:
 109              		.loc 1 100 0
 110 0000 2228     		cmp	r0, #34
 111              		.loc 1 99 0
ARM GAS  /tmp/ccdCGx1y.s 			page 3


 112 0002 08B5     		push	{r3, lr}
 113              		.cfi_def_cfa_offset 8
 114              		.cfi_offset 3, -8
 115              		.cfi_offset 14, -4
 116              		.loc 1 100 0
 117 0004 1ED8     		bhi	.L11
 118              		.loc 1 102 0
 119 0006 1F28     		cmp	r0, #31
 120 0008 0FD9     		bls	.L12
 121              	.LVL10:
 122              		.loc 1 116 0
 123 000a 0123     		movs	r3, #1
 124              		.loc 1 115 0
 125 000c 2038     		subs	r0, r0, #32
 126              	.LVL11:
 127              		.loc 1 116 0
 128 000e 03FA00F0 		lsl	r0, r3, r0
 129              	.LVL12:
 130 0012 4FF48063 		mov	r3, #1024
 131 0016 C4F20E03 		movt	r3, 16398
 132 001a D3F80821 		ldr	r2, [r3, #264]
 133 001e 0240     		ands	r2, r2, r0
 134 0020 9042     		cmp	r0, r2
 135              		.loc 1 122 0
 136 0022 08BF     		it	eq
 137 0024 C3F80401 		streq	r0, [r3, #260]
 138              	.LVL13:
 139              	.L7:
 140 0028 08BD     		pop	{r3, pc}
 141              	.LVL14:
 142              	.L12:
 143              		.loc 1 104 0
 144 002a 0123     		movs	r3, #1
 145 002c 03FA00F0 		lsl	r0, r3, r0
 146              	.LVL15:
 147 0030 4FF48063 		mov	r3, #1024
 148 0034 C4F20E03 		movt	r3, 16398
 149 0038 9A69     		ldr	r2, [r3, #24]
 150 003a 0240     		ands	r2, r2, r0
 151 003c 9042     		cmp	r0, r2
 152 003e F3D1     		bne	.L7
 153              		.loc 1 110 0
 154 0040 5861     		str	r0, [r3, #20]
 155 0042 08BD     		pop	{r3, pc}
 156              	.LVL16:
 157              	.L11:
 158              		.loc 1 100 0 discriminator 1
 159 0044 40F20000 		movw	r0, #:lower16:.LC0
 160              	.LVL17:
 161 0048 40F20002 		movw	r2, #:lower16:.LANCHOR1
 162 004c 40F20003 		movw	r3, #:lower16:.LC1
 163 0050 C0F20000 		movt	r0, #:upper16:.LC0
 164 0054 C0F20002 		movt	r2, #:upper16:.LANCHOR1
 165 0058 C0F20003 		movt	r3, #:upper16:.LC1
 166 005c 6421     		movs	r1, #100
 167 005e FFF7FEFF 		bl	__assert_func
 168              	.LVL18:
ARM GAS  /tmp/ccdCGx1y.s 			page 4


 169              		.cfi_endproc
 170              	.LFE1:
 171              		.size	PMC_DisablePeripheral, .-PMC_DisablePeripheral
 172 0062 00BFAFF3 		.section	.text.PMC_EnableAllPeripherals,"ax",%progbits
 172      0080AFF3 
 172      0080AFF3 
 172      0080
 173              		.align	2
 174              		.p2align 4,,15
 175              		.global	PMC_EnableAllPeripherals
 176              		.thumb
 177              		.thumb_func
 178              		.type	PMC_EnableAllPeripherals, %function
 179              	PMC_EnableAllPeripherals:
 180              	.LFB2:
 181              		.loc 1 131 0
 182              		.cfi_startproc
 183              		@ args = 0, pretend = 0, frame = 0
 184              		@ frame_needed = 0, uses_anonymous_args = 0
 185              		@ link register save eliminated.
 186              		.loc 1 132 0
 187 0000 4FF48061 		mov	r1, #1024
 188 0004 C4F20E01 		movt	r1, 16398
 189 0008 6FF00303 		mvn	r3, #3
 190 000c 0B61     		str	r3, [r1, #16]
 191              	.L15:
 192              		.loc 1 133 0 discriminator 1
 193 000e 8A69     		ldr	r2, [r1, #24]
 194 0010 4FF48063 		mov	r3, #1024
 195 0014 22F00302 		bic	r2, r2, #3
 196 0018 0432     		adds	r2, r2, #4
 197 001a C4F20E03 		movt	r3, 16398
 198 001e F6D1     		bne	.L15
 199              		.loc 1 135 0
 200 0020 4FF0FF32 		mov	r2, #-1
 201 0024 C3F80021 		str	r2, [r3, #256]
 202              	.L17:
 203              		.loc 1 136 0 discriminator 1
 204 0028 D3F80821 		ldr	r2, [r3, #264]
 205 002c 0132     		adds	r2, r2, #1
 206 002e FBD1     		bne	.L17
 207              		.loc 1 139 0
 208 0030 7047     		bx	lr
 209              		.cfi_endproc
 210              	.LFE2:
 211              		.size	PMC_EnableAllPeripherals, .-PMC_EnableAllPeripherals
 212 0032 00BFAFF3 		.section	.text.PMC_DisableAllPeripherals,"ax",%progbits
 212      0080AFF3 
 212      0080AFF3 
 212      0080
 213              		.align	2
 214              		.p2align 4,,15
 215              		.global	PMC_DisableAllPeripherals
 216              		.thumb
 217              		.thumb_func
 218              		.type	PMC_DisableAllPeripherals, %function
 219              	PMC_DisableAllPeripherals:
ARM GAS  /tmp/ccdCGx1y.s 			page 5


 220              	.LFB3:
 221              		.loc 1 145 0
 222              		.cfi_startproc
 223              		@ args = 0, pretend = 0, frame = 0
 224              		@ frame_needed = 0, uses_anonymous_args = 0
 225              		@ link register save eliminated.
 226              		.loc 1 146 0
 227 0000 4FF48061 		mov	r1, #1024
 228 0004 C4F20E01 		movt	r1, 16398
 229 0008 6FF00303 		mvn	r3, #3
 230 000c 4B61     		str	r3, [r1, #20]
 231              	.L20:
 232              		.loc 1 147 0 discriminator 1
 233 000e 8A69     		ldr	r2, [r1, #24]
 234 0010 4FF48063 		mov	r3, #1024
 235 0014 32F00300 		bics	r0, r2, #3
 236 0018 C4F20E03 		movt	r3, 16398
 237 001c F7D1     		bne	.L20
 238              		.loc 1 149 0
 239 001e 4FF0FF32 		mov	r2, #-1
 240 0022 C3F80421 		str	r2, [r3, #260]
 241              	.L22:
 242              		.loc 1 150 0 discriminator 1
 243 0026 D3F80821 		ldr	r2, [r3, #264]
 244 002a 002A     		cmp	r2, #0
 245 002c FBD1     		bne	.L22
 246              		.loc 1 153 0
 247 002e 7047     		bx	lr
 248              		.cfi_endproc
 249              	.LFE3:
 250              		.size	PMC_DisableAllPeripherals, .-PMC_DisableAllPeripherals
 251              		.section	.text.PMC_IsPeriphEnabled,"ax",%progbits
 252              		.align	2
 253              		.p2align 4,,15
 254              		.global	PMC_IsPeriphEnabled
 255              		.thumb
 256              		.thumb_func
 257              		.type	PMC_IsPeriphEnabled, %function
 258              	PMC_IsPeriphEnabled:
 259              	.LFB4:
 260              		.loc 1 161 0
 261              		.cfi_startproc
 262              		@ args = 0, pretend = 0, frame = 0
 263              		@ frame_needed = 0, uses_anonymous_args = 0
 264              	.LVL19:
 265              		.loc 1 162 0
 266 0000 2228     		cmp	r0, #34
 267              		.loc 1 161 0
 268 0002 08B5     		push	{r3, lr}
 269              		.cfi_def_cfa_offset 8
 270              		.cfi_offset 3, -8
 271              		.cfi_offset 14, -4
 272              		.loc 1 162 0
 273 0004 17D8     		bhi	.L27
 274              		.loc 1 164 0
 275 0006 1F28     		cmp	r0, #31
 276 0008 0BD9     		bls	.L28
ARM GAS  /tmp/ccdCGx1y.s 			page 6


 277              		.loc 1 169 0
 278 000a 0123     		movs	r3, #1
 279 000c 2038     		subs	r0, r0, #32
 280              	.LVL20:
 281 000e 03FA00F0 		lsl	r0, r3, r0
 282              	.LVL21:
 283 0012 4FF48063 		mov	r3, #1024
 284 0016 C4F20E03 		movt	r3, 16398
 285 001a D3F80831 		ldr	r3, [r3, #264]
 286 001e 1840     		ands	r0, r0, r3
 287              		.loc 1 171 0
 288 0020 08BD     		pop	{r3, pc}
 289              	.LVL22:
 290              	.L28:
 291              		.loc 1 166 0
 292 0022 0123     		movs	r3, #1
 293 0024 03FA00F0 		lsl	r0, r3, r0
 294              	.LVL23:
 295 0028 4FF48063 		mov	r3, #1024
 296 002c C4F20E03 		movt	r3, 16398
 297 0030 9B69     		ldr	r3, [r3, #24]
 298 0032 1840     		ands	r0, r0, r3
 299 0034 08BD     		pop	{r3, pc}
 300              	.LVL24:
 301              	.L27:
 302              		.loc 1 162 0 discriminator 1
 303 0036 40F20000 		movw	r0, #:lower16:.LC0
 304              	.LVL25:
 305 003a 40F20002 		movw	r2, #:lower16:.LANCHOR2
 306 003e 40F20003 		movw	r3, #:lower16:.LC1
 307 0042 C0F20000 		movt	r0, #:upper16:.LC0
 308 0046 C0F20002 		movt	r2, #:upper16:.LANCHOR2
 309 004a C0F20003 		movt	r3, #:upper16:.LC1
 310 004e A221     		movs	r1, #162
 311 0050 FFF7FEFF 		bl	__assert_func
 312              	.LVL26:
 313              		.cfi_endproc
 314              	.LFE4:
 315              		.size	PMC_IsPeriphEnabled, .-PMC_IsPeriphEnabled
 316 0054 AFF30080 		.section	.text.PmcMasterClockSelection,"ax",%progbits
 316      AFF30080 
 316      AFF30080 
 317              		.align	2
 318              		.p2align 4,,15
 319              		.global	PmcMasterClockSelection
 320              		.thumb
 321              		.thumb_func
 322              		.type	PmcMasterClockSelection, %function
 323              	PmcMasterClockSelection:
 324              	.LFB5:
 325              		.loc 1 175 0
 326              		.cfi_startproc
 327              		@ args = 0, pretend = 0, frame = 0
 328              		@ frame_needed = 0, uses_anonymous_args = 0
 329              		@ link register save eliminated.
 330              	.LVL27:
 331 0000 10B4     		push	{r4}
ARM GAS  /tmp/ccdCGx1y.s 			page 7


 332              		.cfi_def_cfa_offset 4
 333              		.cfi_offset 4, -4
 334              		.loc 1 178 0
 335 0002 0328     		cmp	r0, #3
 336 0004 26D8     		bhi	.L29
 337 0006 DFE800F0 		tbb	[pc, r0]
 338              	.L32:
 339 000a 02       		.byte	(.L31-.L32)/2
 340 000b 02       		.byte	(.L31-.L32)/2
 341 000c 28       		.byte	(.L33-.L32)/2
 342 000d 28       		.byte	(.L33-.L32)/2
 343              		.align	1
 344              	.L31:
 345              		.loc 1 183 0
 346 000e 4FF48063 		mov	r3, #1024
 347 0012 C4F20E03 		movt	r3, 16398
 348 0016 1A6B     		ldr	r2, [r3, #48]
 349              		.loc 1 186 0
 350 0018 1C46     		mov	r4, r3
 351              		.loc 1 183 0
 352 001a 22F00302 		bic	r2, r2, #3
 353 001e 1043     		orrs	r0, r0, r2
 354              	.LVL28:
 355 0020 1863     		str	r0, [r3, #48]
 356              		.loc 1 176 0
 357 0022 0023     		movs	r3, #0
 358              		.loc 1 186 0
 359 0024 01E0     		b	.L35
 360              	.LVL29:
 361              	.L59:
 362              		.loc 1 186 0 is_stmt 0 discriminator 2
 363 0026 0133     		adds	r3, r3, #1
 364              	.LVL30:
 365 0028 02D0     		beq	.L34
 366              	.LVL31:
 367              	.L35:
 368              		.loc 1 186 0 discriminator 1
 369 002a A26E     		ldr	r2, [r4, #104]
 370 002c 1207     		lsls	r2, r2, #28
 371 002e FAD5     		bpl	.L59
 372              	.LVL32:
 373              	.L34:
 374              		.loc 1 189 0 is_stmt 1
 375 0030 4FF48062 		mov	r2, #1024
 376 0034 C4F20E02 		movt	r2, 16398
 377 0038 146B     		ldr	r4, [r2, #48]
 378              		.loc 1 192 0
 379 003a 1046     		mov	r0, r2
 380              		.loc 1 189 0
 381 003c 24F07004 		bic	r4, r4, #112
 382 0040 2143     		orrs	r1, r1, r4
 383              	.LVL33:
 384 0042 1163     		str	r1, [r2, #48]
 385              		.loc 1 192 0
 386 0044 02E0     		b	.L38
 387              	.LVL34:
 388              	.L60:
ARM GAS  /tmp/ccdCGx1y.s 			page 8


 389              		.loc 1 192 0 is_stmt 0 discriminator 2
 390 0046 0133     		adds	r3, r3, #1
 391 0048 04D0     		beq	.L29
 392              		.loc 1 192 0
 393 004a 0B46     		mov	r3, r1
 394              	.LVL35:
 395              	.L38:
 396              		.loc 1 192 0 discriminator 1
 397 004c 826E     		ldr	r2, [r0, #104]
 398 004e 591C     		adds	r1, r3, #1
 399              	.LVL36:
 400 0050 1407     		lsls	r4, r2, #28
 401 0052 F8D5     		bpl	.L60
 402              	.LVL37:
 403              	.L29:
 404              		.loc 1 210 0 is_stmt 1
 405 0054 5DF8044B 		ldr	r4, [sp], #4
 406 0058 7047     		bx	lr
 407              	.LVL38:
 408              	.L33:
 409              		.loc 1 198 0
 410 005a 4FF48063 		mov	r3, #1024
 411 005e C4F20E03 		movt	r3, 16398
 412 0062 1A6B     		ldr	r2, [r3, #48]
 413              		.loc 1 201 0
 414 0064 1C46     		mov	r4, r3
 415              		.loc 1 198 0
 416 0066 22F07002 		bic	r2, r2, #112
 417 006a 1143     		orrs	r1, r1, r2
 418              	.LVL39:
 419 006c 1963     		str	r1, [r3, #48]
 420              		.loc 1 176 0
 421 006e 0023     		movs	r3, #0
 422              		.loc 1 201 0
 423 0070 01E0     		b	.L40
 424              	.LVL40:
 425              	.L61:
 426              		.loc 1 201 0 is_stmt 0 discriminator 2
 427 0072 0133     		adds	r3, r3, #1
 428              	.LVL41:
 429 0074 02D0     		beq	.L39
 430              	.LVL42:
 431              	.L40:
 432              		.loc 1 201 0 discriminator 1
 433 0076 A26E     		ldr	r2, [r4, #104]
 434 0078 1107     		lsls	r1, r2, #28
 435 007a FAD5     		bpl	.L61
 436              	.LVL43:
 437              	.L39:
 438              		.loc 1 204 0 is_stmt 1
 439 007c 4FF48062 		mov	r2, #1024
 440 0080 C4F20E02 		movt	r2, 16398
 441 0084 116B     		ldr	r1, [r2, #48]
 442              		.loc 1 207 0
 443 0086 1446     		mov	r4, r2
 444              		.loc 1 204 0
 445 0088 21F00301 		bic	r1, r1, #3
ARM GAS  /tmp/ccdCGx1y.s 			page 9


 446 008c 0843     		orrs	r0, r0, r1
 447              	.LVL44:
 448 008e 1063     		str	r0, [r2, #48]
 449              		.loc 1 207 0
 450 0090 02E0     		b	.L41
 451              	.LVL45:
 452              	.L62:
 453              		.loc 1 207 0 is_stmt 0 discriminator 2
 454 0092 0133     		adds	r3, r3, #1
 455 0094 DED0     		beq	.L29
 456              		.loc 1 207 0
 457 0096 0B46     		mov	r3, r1
 458              	.LVL46:
 459              	.L41:
 460              		.loc 1 207 0 discriminator 1
 461 0098 A26E     		ldr	r2, [r4, #104]
 462 009a 591C     		adds	r1, r3, #1
 463              	.LVL47:
 464 009c 1207     		lsls	r2, r2, #28
 465 009e F8D5     		bpl	.L62
 466              		.loc 1 210 0 is_stmt 1
 467 00a0 5DF8044B 		ldr	r4, [sp], #4
 468 00a4 7047     		bx	lr
 469              		.cfi_endproc
 470              	.LFE5:
 471              		.size	PmcMasterClockSelection, .-PmcMasterClockSelection
 472 00a6 00BFAFF3 		.section	.text.ConfigurePck,"ax",%progbits
 472      0080AFF3 
 472      0080
 473              		.align	2
 474              		.p2align 4,,15
 475              		.global	ConfigurePck
 476              		.thumb
 477              		.thumb_func
 478              		.type	ConfigurePck, %function
 479              	ConfigurePck:
 480              	.LFB6:
 481              		.loc 1 213 0
 482              		.cfi_startproc
 483              		@ args = 0, pretend = 0, frame = 0
 484              		@ frame_needed = 0, uses_anonymous_args = 0
 485              		@ link register save eliminated.
 486              	.LVL48:
 487              		.loc 1 215 0
 488 0000 4FF48063 		mov	r3, #1024
 489 0004 4FF48642 		mov	r2, #17152
 490              		.loc 1 213 0
 491 0008 10B4     		push	{r4}
 492              		.cfi_def_cfa_offset 4
 493              		.cfi_offset 4, -4
 494              		.loc 1 215 0
 495 000a C4F20E03 		movt	r3, 16398
 496 000e C5F24D02 		movt	r2, 20557
 497              		.loc 1 217 0
 498 0012 4FF48064 		mov	r4, #1024
 499              		.loc 1 219 0
 500 0016 0143     		orrs	r1, r1, r0
ARM GAS  /tmp/ccdCGx1y.s 			page 10


 501              	.LVL49:
 502              		.loc 1 215 0
 503 0018 C3F8E420 		str	r2, [r3, #228]
 504              		.loc 1 217 0
 505 001c 5C60     		str	r4, [r3, #4]
 506              		.loc 1 223 0
 507 001e 1A46     		mov	r2, r3
 508              		.loc 1 219 0
 509 0020 9964     		str	r1, [r3, #72]
 510              		.loc 1 221 0
 511 0022 1C60     		str	r4, [r3]
 512              	.L65:
 513              		.loc 1 223 0 discriminator 1
 514 0024 936E     		ldr	r3, [r2, #104]
 515 0026 5905     		lsls	r1, r3, #21
 516 0028 FCD5     		bpl	.L65
 517              		.loc 1 224 0
 518 002a 5DF8044B 		ldr	r4, [sp], #4
 519 002e 7047     		bx	lr
 520              		.cfi_endproc
 521              	.LFE6:
 522              		.size	ConfigurePck, .-ConfigurePck
 523              		.section	.text.PmcMainClockSwitchMainOsc,"ax",%progbits
 524              		.align	2
 525              		.p2align 4,,15
 526              		.global	PmcMainClockSwitchMainOsc
 527              		.thumb
 528              		.thumb_func
 529              		.type	PmcMainClockSwitchMainOsc, %function
 530              	PmcMainClockSwitchMainOsc:
 531              	.LFB7:
 532              		.loc 1 228 0
 533              		.cfi_startproc
 534              		@ args = 0, pretend = 0, frame = 0
 535              		@ frame_needed = 0, uses_anonymous_args = 0
 536              		@ link register save eliminated.
 537              		.loc 1 232 0
 538 0000 4FF48061 		mov	r1, #1024
 539 0004 40F60903 		movw	r3, #2057
 540 0008 C0F23713 		movt	r3, 311
 541 000c C4F20E01 		movt	r1, 16398
 542 0010 0B62     		str	r3, [r1, #32]
 543              	.LVL50:
 544              		.loc 1 235 0
 545 0012 0023     		movs	r3, #0
 546 0014 01E0     		b	.L68
 547              	.LVL51:
 548              	.L73:
 549              		.loc 1 235 0 is_stmt 0 discriminator 2
 550 0016 013B     		subs	r3, r3, #1
 551              	.LVL52:
 552 0018 02D0     		beq	.L66
 553              	.LVL53:
 554              	.L68:
 555              		.loc 1 235 0 discriminator 1
 556 001a 8A6E     		ldr	r2, [r1, #104]
 557 001c D003     		lsls	r0, r2, #15
ARM GAS  /tmp/ccdCGx1y.s 			page 11


 558 001e FAD5     		bpl	.L73
 559              	.LVL54:
 560              	.L66:
 561 0020 7047     		bx	lr
 562              		.cfi_endproc
 563              	.LFE7:
 564              		.size	PmcMainClockSwitchMainOsc, .-PmcMainClockSwitchMainOsc
 565 0022 00BFAFF3 		.section	.text.PmcConfigurePllClock,"ax",%progbits
 565      0080AFF3 
 565      0080AFF3 
 565      0080
 566              		.align	2
 567              		.p2align 4,,15
 568              		.global	PmcConfigurePllClock
 569              		.thumb
 570              		.thumb_func
 571              		.type	PmcConfigurePllClock, %function
 572              	PmcConfigurePllClock:
 573              	.LFB8:
 574              		.loc 1 240 0 is_stmt 1
 575              		.cfi_startproc
 576              		@ args = 0, pretend = 0, frame = 0
 577              		@ frame_needed = 0, uses_anonymous_args = 0
 578              		@ link register save eliminated.
 579              	.LVL55:
 580 0000 30B4     		push	{r4, r5}
 581              		.cfi_def_cfa_offset 8
 582              		.cfi_offset 4, -8
 583              		.cfi_offset 5, -4
 584              		.loc 1 243 0
 585 0002 C0B9     		cbnz	r0, .L75
 586              		.loc 1 246 0
 587 0004 0023     		movs	r3, #0
 588 0006 42F00052 		orr	r2, r2, #536870912
 589              	.LVL56:
 590 000a C0F2FF73 		movt	r3, 2047
 591 000e 0D04     		lsls	r5, r1, #16
 592 0010 42F4F854 		orr	r4, r2, #7936
 593 0014 2B40     		ands	r3, r3, r5
 594 0016 4FF48062 		mov	r2, #1024
 595 001a 2343     		orrs	r3, r3, r4
 596 001c C4F20E02 		movt	r2, 16398
 597 0020 9362     		str	r3, [r2, #40]
 598              		.loc 1 249 0
 599 0022 19B9     		cbnz	r1, .L78
 600              	.LVL57:
 601              	.L74:
 602              		.loc 1 268 0
 603 0024 30BC     		pop	{r4, r5}
 604 0026 7047     		bx	lr
 605              	.LVL58:
 606              	.L93:
 607              		.loc 1 252 0 discriminator 2
 608 0028 0138     		subs	r0, r0, #1
 609              	.LVL59:
 610 002a FBD0     		beq	.L74
 611              	.LVL60:
ARM GAS  /tmp/ccdCGx1y.s 			page 12


 612              	.L78:
 613              		.loc 1 252 0 is_stmt 0 discriminator 1
 614 002c 936E     		ldr	r3, [r2, #104]
 615 002e 9D07     		lsls	r5, r3, #30
 616 0030 FAD5     		bpl	.L93
 617              		.loc 1 268 0 is_stmt 1
 618 0032 30BC     		pop	{r4, r5}
 619 0034 7047     		bx	lr
 620              	.LVL61:
 621              	.L75:
 622              		.loc 1 256 0
 623 0036 0128     		cmp	r0, #1
 624 0038 F4D1     		bne	.L74
 625              		.loc 1 259 0
 626 003a 0023     		movs	r3, #0
 627 003c 0804     		lsls	r0, r1, #16
 628              	.LVL62:
 629 003e 42F00052 		orr	r2, r2, #536870912
 630              	.LVL63:
 631 0042 C0F2FF73 		movt	r3, 2047
 632 0046 0340     		ands	r3, r3, r0
 633 0048 42F4F852 		orr	r2, r2, #7936
 634 004c 4FF48060 		mov	r0, #1024
 635 0050 1343     		orrs	r3, r3, r2
 636 0052 C4F20E00 		movt	r0, 16398
 637 0056 C362     		str	r3, [r0, #44]
 638              		.loc 1 262 0
 639 0058 0029     		cmp	r1, #0
 640 005a E3D0     		beq	.L74
 641              		.loc 1 265 0
 642 005c 0146     		mov	r1, r0
 643              	.LVL64:
 644              		.loc 1 262 0
 645 005e 0023     		movs	r3, #0
 646 0060 01E0     		b	.L79
 647              	.LVL65:
 648              	.L94:
 649              		.loc 1 265 0 discriminator 2
 650 0062 013B     		subs	r3, r3, #1
 651              	.LVL66:
 652 0064 DED0     		beq	.L74
 653              	.LVL67:
 654              	.L79:
 655              		.loc 1 265 0 is_stmt 0 discriminator 1
 656 0066 8A6E     		ldr	r2, [r1, #104]
 657 0068 5407     		lsls	r4, r2, #29
 658 006a FAD5     		bpl	.L94
 659              		.loc 1 268 0 is_stmt 1
 660 006c 30BC     		pop	{r4, r5}
 661 006e 7047     		bx	lr
 662              		.cfi_endproc
 663              	.LFE8:
 664              		.size	PmcConfigurePllClock, .-PmcConfigurePllClock
 665              		.section	.rodata.__func__.4780,"a",%progbits
 666              		.align	2
 667              		.set	.LANCHOR2,. + 0
 668              		.type	__func__.4780, %object
ARM GAS  /tmp/ccdCGx1y.s 			page 13


 669              		.size	__func__.4780, 20
 670              	__func__.4780:
 671 0000 504D435F 		.ascii	"PMC_IsPeriphEnabled\000"
 671      49735065 
 671      72697068 
 671      456E6162 
 671      6C656400 
 672              		.section	.rodata.str1.4,"aMS",%progbits,1
 673              		.align	2
 674              	.LC0:
 675 0000 2E2E2F74 		.ascii	"../third_party/ChibiOS/os/hal/platforms/AT91SAM3S/p"
 675      68697264 
 675      5F706172 
 675      74792F43 
 675      68696269 
 676 0033 6D632E63 		.ascii	"mc.c\000"
 676      00
 677              	.LC1:
 678 0038 64774964 		.ascii	"dwId < 35\000"
 678      203C2033 
 678      3500
 679 0042 0000     		.section	.rodata.__func__.4754,"a",%progbits
 680              		.align	2
 681              		.set	.LANCHOR0,. + 0
 682              		.type	__func__.4754, %object
 683              		.size	__func__.4754, 21
 684              	__func__.4754:
 685 0000 504D435F 		.ascii	"PMC_EnablePeripheral\000"
 685      456E6162 
 685      6C655065 
 685      72697068 
 685      6572616C 
 686 0015 000000   		.section	.rodata.__func__.4758,"a",%progbits
 687              		.align	2
 688              		.set	.LANCHOR1,. + 0
 689              		.type	__func__.4758, %object
 690              		.size	__func__.4758, 22
 691              	__func__.4758:
 692 0000 504D435F 		.ascii	"PMC_DisablePeripheral\000"
 692      44697361 
 692      626C6550 
 692      65726970 
 692      68657261 
 693 0016 0000     		.text
 694              	.Letext0:
 695              		.file 2 "/home/santi/arm-2013.11/arm-none-eabi/include/stdint.h"
 696              		.file 3 "../third_party/ChibiOS/os/hal/platforms/AT91SAM3S/at91lib/SAM3S.h"
 697              		.file 4 "/home/santi/arm-2013.11/arm-none-eabi/include/assert.h"