ARM GAS  /tmp/ccR4B9nj.s 			page 1


   1              		.syntax unified
   2              		.cpu cortex-m3
   3              		.fpu softvfp
   4              		.eabi_attribute 20, 1
   5              		.eabi_attribute 21, 1
   6              		.eabi_attribute 23, 3
   7              		.eabi_attribute 24, 1
   8              		.eabi_attribute 25, 1
   9              		.eabi_attribute 26, 1
  10              		.eabi_attribute 30, 2
  11              		.eabi_attribute 34, 1
  12              		.eabi_attribute 18, 4
  13              		.thumb
  14              		.file	"serial_lld.c"
  15              		.text
  16              	.Ltext0:
  17              		.cfi_sections	.debug_frame
  18              		.section	.text.notify1,"ax",%progbits
  19              		.align	2
  20              		.p2align 4,,15
  21              		.thumb
  22              		.thumb_func
  23              		.type	notify1, %function
  24              	notify1:
  25              	.LFB40:
  26              		.file 1 "../third_party/ChibiOS/os/hal/platforms/AT91SAM3S/serial_lld.c"
  27              		.loc 1 174 0
  28              		.cfi_startproc
  29              		@ args = 0, pretend = 0, frame = 0
  30              		@ frame_needed = 0, uses_anonymous_args = 0
  31              		@ link register save eliminated.
  32              	.LVL0:
  33              		.loc 1 177 0
  34 0000 4FF4C063 		mov	r3, #1536
  35 0004 C4F20E03 		movt	r3, 16398
  36 0008 0222     		movs	r2, #2
  37 000a 9A60     		str	r2, [r3, #8]
  38 000c 7047     		bx	lr
  39              		.cfi_endproc
  40              	.LFE40:
  41              		.size	notify1, .-notify1
  42              		.section	.text.notify2,"ax",%progbits
  43              		.align	2
  44              		.p2align 4,,15
  45              		.thumb
  46              		.thumb_func
  47              		.type	notify2, %function
  48              	notify2:
  49              	.LFB41:
  50              		.loc 1 183 0
  51              		.cfi_startproc
  52              		@ args = 0, pretend = 0, frame = 0
  53              		@ frame_needed = 0, uses_anonymous_args = 0
  54              		@ link register save eliminated.
  55              	.LVL1:
  56              		.loc 1 186 0
  57 0000 4FF40063 		mov	r3, #2048
ARM GAS  /tmp/ccR4B9nj.s 			page 2


  58 0004 C4F20E03 		movt	r3, 16398
  59 0008 0222     		movs	r2, #2
  60 000a 9A60     		str	r2, [r3, #8]
  61 000c 7047     		bx	lr
  62              		.cfi_endproc
  63              	.LFE41:
  64              		.size	notify2, .-notify2
  65 000e 00BF     		.section	.text.serve_interrupt,"ax",%progbits
  66              		.align	2
  67              		.p2align 4,,15
  68              		.thumb
  69              		.thumb_func
  70              		.type	serve_interrupt, %function
  71              	serve_interrupt:
  72              	.LFB39:
  73              		.loc 1 136 0
  74              		.cfi_startproc
  75              		@ args = 0, pretend = 0, frame = 0
  76              		@ frame_needed = 0, uses_anonymous_args = 0
  77              	.LVL2:
  78 0000 70B5     		push	{r4, r5, r6, lr}
  79              		.cfi_def_cfa_offset 16
  80              		.cfi_offset 4, -16
  81              		.cfi_offset 5, -12
  82              		.cfi_offset 6, -8
  83              		.cfi_offset 14, -4
  84              		.loc 1 138 0
  85 0002 056F     		ldr	r5, [r0, #112]
  86              	.LVL3:
  87              		.loc 1 136 0
  88 0004 0646     		mov	r6, r0
  89              		.loc 1 141 0
  90 0006 6C69     		ldr	r4, [r5, #20]
  91              	.LVL4:
  92              		.loc 1 144 0
  93 0008 E207     		lsls	r2, r4, #31
  94 000a 26D4     		bmi	.L32
  95              	.LVL5:
  96              	.L4:
  97              		.loc 1 151 0
  98 000c 2B69     		ldr	r3, [r5, #16]
  99 000e 9B07     		lsls	r3, r3, #30
 100 0010 01D5     		bpl	.L5
 101              		.loc 1 151 0 is_stmt 0 discriminator 1
 102 0012 A007     		lsls	r0, r4, #30
 103 0014 2CD4     		bmi	.L33
 104              	.L5:
 105              	.LVL6:
 106              		.loc 1 167 0 is_stmt 1
 107 0016 14F0E004 		ands	r4, r4, #224
 108              	.LVL7:
 109 001a 1DD0     		beq	.L3
 110              		.loc 1 168 0
 111 001c A4B2     		uxth	r4, r4
 112              	.LVL8:
 113              	.LBB17:
 114              	.LBB18:
ARM GAS  /tmp/ccR4B9nj.s 			page 3


 115              		.loc 1 118 0
 116 001e 14F0200F 		tst	r4, #32
 117 0022 14BF     		ite	ne
 118 0024 8022     		movne	r2, #128
 119 0026 0022     		moveq	r2, #0
 120              	.LVL9:
 121              		.loc 1 122 0
 122 0028 2106     		lsls	r1, r4, #24
 123              		.loc 1 123 0
 124 002a 48BF     		it	mi
 125 002c 42F02002 		orrmi	r2, r2, #32
 126              	.LVL10:
 127              		.loc 1 124 0
 128 0030 6306     		lsls	r3, r4, #25
 129              		.loc 1 125 0
 130 0032 48BF     		it	mi
 131 0034 42F04002 		orrmi	r2, r2, #64
 132              	.LVL11:
 133              	.LBB19:
 134              		.loc 1 126 0
 135 0038 2023     		movs	r3, #32
 136              	@ 126 "../third_party/ChibiOS/os/hal/platforms/AT91SAM3S/serial_lld.c" 1
 137 003a 83F31188 		msr     BASEPRI, r3
 138              	@ 0 "" 2
 139              		.thumb
 140              	.LBE19:
 141              		.loc 1 127 0
 142 003e B368     		ldr	r3, [r6, #8]
 143 0040 301D     		adds	r0, r6, #4
 144 0042 1A43     		orrs	r2, r2, r3
 145              	.LVL12:
 146 0044 B260     		str	r2, [r6, #8]
 147 0046 0021     		movs	r1, #0
 148 0048 FFF7FEFF 		bl	chEvtBroadcastFlagsI
 149              	.LVL13:
 150              	.LBB20:
 151              		.loc 1 128 0
 152 004c 0023     		movs	r3, #0
 153              	@ 128 "../third_party/ChibiOS/os/hal/platforms/AT91SAM3S/serial_lld.c" 1
 154 004e 83F31188 		msr     BASEPRI, r3
 155              	@ 0 "" 2
 156              		.thumb
 157              	.LBE20:
 158              	.LBE18:
 159              	.LBE17:
 160              		.loc 1 169 0
 161 0052 4FF48073 		mov	r3, #256
 162 0056 2B60     		str	r3, [r5]
 163              	.LVL14:
 164              	.L3:
 165 0058 70BD     		pop	{r4, r5, r6, pc}
 166              	.LVL15:
 167              	.L32:
 168              	.LBB21:
 169              		.loc 1 145 0
 170 005a 2023     		movs	r3, #32
 171              	@ 145 "../third_party/ChibiOS/os/hal/platforms/AT91SAM3S/serial_lld.c" 1
ARM GAS  /tmp/ccR4B9nj.s 			page 4


 172 005c 83F31188 		msr     BASEPRI, r3
 173              	@ 0 "" 2
 174              		.thumb
 175              	.LBE21:
 176              		.loc 1 146 0
 177 0060 A969     		ldr	r1, [r5, #24]
 178 0062 C9B2     		uxtb	r1, r1
 179 0064 FFF7FEFF 		bl	sdIncomingDataI
 180              	.LVL16:
 181              	.LBB22:
 182              		.loc 1 147 0
 183 0068 0023     		movs	r3, #0
 184              	@ 147 "../third_party/ChibiOS/os/hal/platforms/AT91SAM3S/serial_lld.c" 1
 185 006a 83F31188 		msr     BASEPRI, r3
 186              	@ 0 "" 2
 187              		.thumb
 188 006e CDE7     		b	.L4
 189              	.L33:
 190              	.LBE22:
 191              	.LBB23:
 192              	.LBB24:
 193              		.loc 1 154 0
 194 0070 2023     		movs	r3, #32
 195              	@ 154 "../third_party/ChibiOS/os/hal/platforms/AT91SAM3S/serial_lld.c" 1
 196 0072 83F31188 		msr     BASEPRI, r3
 197              	@ 0 "" 2
 198              		.thumb
 199              	.LBE24:
 200              		.loc 1 155 0
 201 0076 06F13000 		add	r0, r6, #48
 202 007a FFF7FEFF 		bl	chOQGetI
 203              	.LVL17:
 204              		.loc 1 156 0
 205 007e 0028     		cmp	r0, #0
 206              		.loc 1 161 0
 207 0080 A8BF     		it	ge
 208 0082 E861     		strge	r0, [r5, #28]
 209              		.loc 1 156 0
 210 0084 03DB     		blt	.L34
 211              	.LVL18:
 212              	.L7:
 213              	.LBB25:
 214              		.loc 1 162 0
 215 0086 0023     		movs	r3, #0
 216              	@ 162 "../third_party/ChibiOS/os/hal/platforms/AT91SAM3S/serial_lld.c" 1
 217 0088 83F31188 		msr     BASEPRI, r3
 218              	@ 0 "" 2
 219              		.thumb
 220 008c C3E7     		b	.L5
 221              	.LVL19:
 222              	.L34:
 223              	.LBE25:
 224              		.loc 1 157 0
 225 008e B368     		ldr	r3, [r6, #8]
 226 0090 301D     		adds	r0, r6, #4
 227              	.LVL20:
 228 0092 43F00803 		orr	r3, r3, #8
ARM GAS  /tmp/ccR4B9nj.s 			page 5


 229 0096 B360     		str	r3, [r6, #8]
 230 0098 0021     		movs	r1, #0
 231 009a FFF7FEFF 		bl	chEvtBroadcastFlagsI
 232              	.LVL21:
 233              		.loc 1 158 0
 234 009e 0223     		movs	r3, #2
 235 00a0 EB60     		str	r3, [r5, #12]
 236 00a2 F0E7     		b	.L7
 237              	.LBE23:
 238              		.cfi_endproc
 239              	.LFE39:
 240              		.size	serve_interrupt, .-serve_interrupt
 241 00a4 AFF30080 		.section	.text.Vector60,"ax",%progbits
 241      AFF30080 
 241      AFF30080 
 242              		.align	2
 243              		.p2align 4,,15
 244              		.global	Vector60
 245              		.thumb
 246              		.thumb_func
 247              		.type	Vector60, %function
 248              	Vector60:
 249              	.LFB42:
 250              		.loc 1 201 0
 251              		.cfi_startproc
 252              		@ args = 0, pretend = 0, frame = 0
 253              		@ frame_needed = 0, uses_anonymous_args = 0
 254 0000 08B5     		push	{r3, lr}
 255              		.cfi_def_cfa_offset 8
 256              		.cfi_offset 3, -8
 257              		.cfi_offset 14, -4
 258              		.loc 1 205 0
 259 0002 40F20000 		movw	r0, #:lower16:.LANCHOR0
 260 0006 C0F20000 		movt	r0, #:upper16:.LANCHOR0
 261 000a FFF7FEFF 		bl	serve_interrupt
 262              	.LVL22:
 263              		.loc 1 208 0
 264 000e BDE80840 		pop	{r3, lr}
 265              		.loc 1 207 0
 266 0012 FFF7FEBF 		b	_port_irq_epilogue
 267              	.LVL23:
 268              		.cfi_endproc
 269              	.LFE42:
 270              		.size	Vector60, .-Vector60
 271 0016 00BFAFF3 		.section	.text.Vector64,"ax",%progbits
 271      0080AFF3 
 271      0080
 272              		.align	2
 273              		.p2align 4,,15
 274              		.global	Vector64
 275              		.thumb
 276              		.thumb_func
 277              		.type	Vector64, %function
 278              	Vector64:
 279              	.LFB43:
 280              		.loc 1 218 0
 281              		.cfi_startproc
ARM GAS  /tmp/ccR4B9nj.s 			page 6


 282              		@ args = 0, pretend = 0, frame = 0
 283              		@ frame_needed = 0, uses_anonymous_args = 0
 284 0000 08B5     		push	{r3, lr}
 285              		.cfi_def_cfa_offset 8
 286              		.cfi_offset 3, -8
 287              		.cfi_offset 14, -4
 288              		.loc 1 222 0
 289 0002 40F20000 		movw	r0, #:lower16:.LANCHOR1
 290 0006 C0F20000 		movt	r0, #:upper16:.LANCHOR1
 291 000a FFF7FEFF 		bl	serve_interrupt
 292              	.LVL24:
 293              		.loc 1 225 0
 294 000e BDE80840 		pop	{r3, lr}
 295              		.loc 1 224 0
 296 0012 FFF7FEBF 		b	_port_irq_epilogue
 297              	.LVL25:
 298              		.cfi_endproc
 299              	.LFE43:
 300              		.size	Vector64, .-Vector64
 301 0016 00BFAFF3 		.section	.text.sd_lld_init,"ax",%progbits
 301      0080AFF3 
 301      0080
 302              		.align	2
 303              		.p2align 4,,15
 304              		.global	sd_lld_init
 305              		.thumb
 306              		.thumb_func
 307              		.type	sd_lld_init, %function
 308              	sd_lld_init:
 309              	.LFB44:
 310              		.loc 1 238 0
 311              		.cfi_startproc
 312              		@ args = 0, pretend = 0, frame = 0
 313              		@ frame_needed = 0, uses_anonymous_args = 0
 314 0000 38B5     		push	{r3, r4, r5, lr}
 315              		.cfi_def_cfa_offset 16
 316              		.cfi_offset 3, -16
 317              		.cfi_offset 4, -12
 318              		.cfi_offset 5, -8
 319              		.cfi_offset 14, -4
 320              		.loc 1 241 0
 321 0002 40F20005 		movw	r5, #:lower16:.LANCHOR0
 322 0006 C0F20005 		movt	r5, #:upper16:.LANCHOR0
 323 000a 40F20002 		movw	r2, #:lower16:notify1
 324 000e 2846     		mov	r0, r5
 325 0010 C0F20002 		movt	r2, #:upper16:notify1
 326 0014 0021     		movs	r1, #0
 327 0016 FFF7FEFF 		bl	sdObjectInit
 328              	.LVL26:
 329              		.loc 1 248 0
 330 001a 40F20004 		movw	r4, #:lower16:.LANCHOR1
 331              		.loc 1 242 0
 332 001e 4FF4C060 		mov	r0, #1536
 333              		.loc 1 243 0
 334 0022 4FF46063 		mov	r3, #3584
 335 0026 C4F20E03 		movt	r3, 16398
 336 002a 4FF4C061 		mov	r1, #1536
ARM GAS  /tmp/ccR4B9nj.s 			page 7


 337              		.loc 1 242 0
 338 002e C4F20E00 		movt	r0, 16398
 339              		.loc 1 248 0
 340 0032 C0F20004 		movt	r4, #:upper16:.LANCHOR1
 341 0036 40F20002 		movw	r2, #:lower16:notify2
 342              		.loc 1 242 0
 343 003a 2867     		str	r0, [r5, #112]
 344              		.loc 1 248 0
 345 003c C0F20002 		movt	r2, #:upper16:notify2
 346              		.loc 1 243 0
 347 0040 5960     		str	r1, [r3, #4]
 348              		.loc 1 248 0
 349 0042 2046     		mov	r0, r4
 350              		.loc 1 244 0
 351 0044 1966     		str	r1, [r3, #96]
 352              		.loc 1 248 0
 353 0046 0021     		movs	r1, #0
 354 0048 FFF7FEFF 		bl	sdObjectInit
 355              	.LVL27:
 356              		.loc 1 249 0
 357 004c 4FF40061 		mov	r1, #2048
 358              		.loc 1 250 0
 359 0050 4FF48053 		mov	r3, #4096
 360 0054 C4F20E03 		movt	r3, 16398
 361 0058 0C22     		movs	r2, #12
 362              		.loc 1 249 0
 363 005a C4F20E01 		movt	r1, 16398
 364 005e 2167     		str	r1, [r4, #112]
 365              		.loc 1 250 0
 366 0060 5A60     		str	r2, [r3, #4]
 367              		.loc 1 251 0
 368 0062 1A66     		str	r2, [r3, #96]
 369 0064 38BD     		pop	{r3, r4, r5, pc}
 370              		.cfi_endproc
 371              	.LFE44:
 372              		.size	sd_lld_init, .-sd_lld_init
 373 0066 00BFAFF3 		.section	.text.sd_lld_start,"ax",%progbits
 373      0080AFF3 
 373      0080
 374              		.align	2
 375              		.p2align 4,,15
 376              		.global	sd_lld_start
 377              		.thumb
 378              		.thumb_func
 379              		.type	sd_lld_start, %function
 380              	sd_lld_start:
 381              	.LFB45:
 382              		.loc 1 266 0
 383              		.cfi_startproc
 384              		@ args = 0, pretend = 0, frame = 0
 385              		@ frame_needed = 0, uses_anonymous_args = 0
 386              	.LVL28:
 387              		.loc 1 269 0
 388 0000 40F20003 		movw	r3, #:lower16:.LANCHOR2
 389              		.loc 1 271 0
 390 0004 027B     		ldrb	r2, [r0, #12]	@ zero_extendqisi2
 391              		.loc 1 269 0
ARM GAS  /tmp/ccR4B9nj.s 			page 8


 392 0006 C0F20003 		movt	r3, #:upper16:.LANCHOR2
 393              		.loc 1 266 0
 394 000a 70B5     		push	{r4, r5, r6, lr}
 395              		.cfi_def_cfa_offset 16
 396              		.cfi_offset 4, -16
 397              		.cfi_offset 5, -12
 398              		.cfi_offset 6, -8
 399              		.cfi_offset 14, -4
 400              		.loc 1 269 0
 401 000c 0029     		cmp	r1, #0
 402 000e 14BF     		ite	ne
 403 0010 0D46     		movne	r5, r1
 404 0012 1D46     		moveq	r5, r3
 405              	.LVL29:
 406              		.loc 1 271 0
 407 0014 012A     		cmp	r2, #1
 408              		.loc 1 266 0
 409 0016 0446     		mov	r4, r0
 410              		.loc 1 271 0
 411 0018 19D0     		beq	.L43
 412              	.LVL30:
 413              	.L40:
 414              		.loc 1 266 0
 415 001a 246F     		ldr	r4, [r4, #112]
 416              	.LVL31:
 417              	.LBB26:
 418              	.LBB27:
 419              		.loc 1 81 0
 420 001c FFF7FEFF 		bl	SystemCoreClockUpdate
 421              	.LVL32:
 422              		.loc 1 82 0
 423 0020 40F20003 		movw	r3, #:lower16:SystemCoreClock
 424              		.loc 1 89 0
 425 0024 2A68     		ldr	r2, [r5]
 426              		.loc 1 82 0
 427 0026 C0F20003 		movt	r3, #:upper16:SystemCoreClock
 428 002a 1B68     		ldr	r3, [r3]
 429              	.LVL33:
 430              		.loc 1 90 0
 431 002c 6868     		ldr	r0, [r5, #4]
 432              		.loc 1 89 0
 433 002e 1201     		lsls	r2, r2, #4
 434 0030 B3FBF2F2 		udiv	r2, r3, r2
 435              		.loc 1 85 0
 436 0034 4FF0FF36 		mov	r6, #-1
 437              		.loc 1 86 0
 438 0038 4FF48675 		mov	r5, #268
 439              	.LVL34:
 440              		.loc 1 93 0
 441 003c 5021     		movs	r1, #80
 442              		.loc 1 94 0
 443 003e E323     		movs	r3, #227
 444              	.LVL35:
 445              		.loc 1 85 0
 446 0040 E660     		str	r6, [r4, #12]
 447              		.loc 1 86 0
 448 0042 2560     		str	r5, [r4]
ARM GAS  /tmp/ccR4B9nj.s 			page 9


 449              		.loc 1 89 0
 450 0044 2262     		str	r2, [r4, #32]
 451              		.loc 1 90 0
 452 0046 6060     		str	r0, [r4, #4]
 453              		.loc 1 93 0
 454 0048 2160     		str	r1, [r4]
 455              		.loc 1 94 0
 456 004a A360     		str	r3, [r4, #8]
 457 004c 70BD     		pop	{r4, r5, r6, pc}
 458              	.LVL36:
 459              	.L43:
 460              	.LBE27:
 461              	.LBE26:
 462              		.loc 1 273 0
 463 004e 40F20003 		movw	r3, #:lower16:.LANCHOR0
 464 0052 C0F20003 		movt	r3, #:upper16:.LANCHOR0
 465 0056 9842     		cmp	r0, r3
 466 0058 1DD0     		beq	.L44
 467              		.loc 1 289 0
 468 005a 40F20003 		movw	r3, #:lower16:.LANCHOR1
 469 005e C0F20003 		movt	r3, #:upper16:.LANCHOR1
 470 0062 9842     		cmp	r0, r3
 471 0064 D9D1     		bne	.L40
 472              		.loc 1 294 0
 473 0066 4FF48063 		mov	r3, #1024
 474 006a 4FF48641 		mov	r1, #17152
 475              		.loc 1 296 0
 476 006e 44F20132 		movw	r2, #17153
 477              		.loc 1 294 0
 478 0072 C4F20E03 		movt	r3, 16398
 479 0076 C5F24D01 		movt	r1, 20557
 480              		.loc 1 295 0
 481 007a 4FF40076 		mov	r6, #512
 482              		.loc 1 296 0
 483 007e C5F24D02 		movt	r2, 20557
 484              		.loc 1 294 0
 485 0082 C3F8E410 		str	r1, [r3, #228]
 486              		.loc 1 300 0
 487 0086 0920     		movs	r0, #9
 488              	.LVL37:
 489              		.loc 1 295 0
 490 0088 1E61     		str	r6, [r3, #16]
 491              		.loc 1 300 0
 492 008a C021     		movs	r1, #192
 493              		.loc 1 296 0
 494 008c C3F8E420 		str	r2, [r3, #228]
 495              		.loc 1 300 0
 496 0090 FFF7FEFF 		bl	nvicEnableVector
 497              	.LVL38:
 498 0094 C1E7     		b	.L40
 499              	.LVL39:
 500              	.L44:
 501              		.loc 1 278 0
 502 0096 4FF48641 		mov	r1, #17152
 503              		.loc 1 280 0
 504 009a 0A44     		add	r2, r2, r1
 505              		.loc 1 278 0
ARM GAS  /tmp/ccR4B9nj.s 			page 10


 506 009c 4FF48063 		mov	r3, #1024
 507 00a0 C4F20E03 		movt	r3, 16398
 508 00a4 C5F24D01 		movt	r1, 20557
 509              		.loc 1 279 0
 510 00a8 4FF48076 		mov	r6, #256
 511              		.loc 1 280 0
 512 00ac C5F24D02 		movt	r2, 20557
 513              		.loc 1 278 0
 514 00b0 C3F8E410 		str	r1, [r3, #228]
 515              		.loc 1 284 0
 516 00b4 0820     		movs	r0, #8
 517              	.LVL40:
 518              		.loc 1 279 0
 519 00b6 1E61     		str	r6, [r3, #16]
 520              		.loc 1 284 0
 521 00b8 C021     		movs	r1, #192
 522              		.loc 1 280 0
 523 00ba C3F8E420 		str	r2, [r3, #228]
 524              		.loc 1 284 0
 525 00be FFF7FEFF 		bl	nvicEnableVector
 526              	.LVL41:
 527 00c2 AAE7     		b	.L40
 528              		.cfi_endproc
 529              	.LFE45:
 530              		.size	sd_lld_start, .-sd_lld_start
 531 00c4 AFF30080 		.section	.text.sd_lld_stop,"ax",%progbits
 531      AFF30080 
 531      AFF30080 
 532              		.align	2
 533              		.p2align 4,,15
 534              		.global	sd_lld_stop
 535              		.thumb
 536              		.thumb_func
 537              		.type	sd_lld_stop, %function
 538              	sd_lld_stop:
 539              	.LFB46:
 540              		.loc 1 317 0
 541              		.cfi_startproc
 542              		@ args = 0, pretend = 0, frame = 0
 543              		@ frame_needed = 0, uses_anonymous_args = 0
 544              		@ link register save eliminated.
 545              	.LVL42:
 546              		.loc 1 319 0
 547 0000 037B     		ldrb	r3, [r0, #12]	@ zero_extendqisi2
 548              		.loc 1 317 0
 549 0002 30B4     		push	{r4, r5}
 550              		.cfi_def_cfa_offset 8
 551              		.cfi_offset 4, -8
 552              		.cfi_offset 5, -4
 553              		.loc 1 319 0
 554 0004 022B     		cmp	r3, #2
 555 0006 01D0     		beq	.L51
 556              	.L45:
 557              		.loc 1 355 0
 558 0008 30BC     		pop	{r4, r5}
 559 000a 7047     		bx	lr
 560              	.L51:
ARM GAS  /tmp/ccR4B9nj.s 			page 11


 561              		.loc 1 322 0
 562 000c 40F20002 		movw	r2, #:lower16:.LANCHOR0
 563              		.loc 1 320 0
 564 0010 036F     		ldr	r3, [r0, #112]
 565              	.LVL43:
 566              		.loc 1 322 0
 567 0012 C0F20002 		movt	r2, #:upper16:.LANCHOR0
 568              	.LBB28:
 569              	.LBB29:
 570              		.loc 1 106 0
 571 0016 4FF0FF35 		mov	r5, #-1
 572              		.loc 1 107 0
 573 001a 4FF48674 		mov	r4, #268
 574              		.loc 1 108 0
 575 001e 0021     		movs	r1, #0
 576              	.LBE29:
 577              	.LBE28:
 578              		.loc 1 322 0
 579 0020 9042     		cmp	r0, r2
 580              	.LBB31:
 581              	.LBB30:
 582              		.loc 1 106 0
 583 0022 DD60     		str	r5, [r3, #12]
 584              		.loc 1 107 0
 585 0024 1C60     		str	r4, [r3]
 586              		.loc 1 108 0
 587 0026 5960     		str	r1, [r3, #4]
 588              	.LBE30:
 589              	.LBE31:
 590              		.loc 1 322 0
 591 0028 1FD0     		beq	.L52
 592              	.LVL44:
 593              		.loc 1 340 0
 594 002a 40F20002 		movw	r2, #:lower16:.LANCHOR1
 595 002e C0F20002 		movt	r2, #:upper16:.LANCHOR1
 596 0032 9042     		cmp	r0, r2
 597              	.LBB32:
 598              	.LBB33:
 599              		.loc 1 106 0
 600 0034 DD60     		str	r5, [r3, #12]
 601              		.loc 1 107 0
 602 0036 1C60     		str	r4, [r3]
 603              		.loc 1 108 0
 604 0038 5960     		str	r1, [r3, #4]
 605              	.LBE33:
 606              	.LBE32:
 607              		.loc 1 340 0
 608 003a E5D1     		bne	.L45
 609              		.loc 1 345 0
 610 003c 4FF48063 		mov	r3, #1024
 611              	.LVL45:
 612 0040 4FF48641 		mov	r1, #17152
 613              		.loc 1 347 0
 614 0044 44F20132 		movw	r2, #17153
 615              		.loc 1 345 0
 616 0048 C4F20E03 		movt	r3, 16398
 617              		.loc 1 346 0
ARM GAS  /tmp/ccR4B9nj.s 			page 12


 618 004c 4FF40074 		mov	r4, #512
 619              		.loc 1 345 0
 620 0050 C5F24D01 		movt	r1, 20557
 621              		.loc 1 347 0
 622 0054 C5F24D02 		movt	r2, 20557
 623              		.loc 1 345 0
 624 0058 C3F8E410 		str	r1, [r3, #228]
 625              		.loc 1 349 0
 626 005c 0920     		movs	r0, #9
 627              	.LVL46:
 628              		.loc 1 346 0
 629 005e 5C61     		str	r4, [r3, #20]
 630              		.loc 1 347 0
 631 0060 C3F8E420 		str	r2, [r3, #228]
 632              		.loc 1 355 0
 633 0064 30BC     		pop	{r4, r5}
 634              		.loc 1 349 0
 635 0066 FFF7FEBF 		b	nvicDisableVector
 636              	.LVL47:
 637              	.L52:
 638              		.loc 1 327 0
 639 006a 4FF48063 		mov	r3, #1024
 640              	.LVL48:
 641 006e 4FF48641 		mov	r1, #17152
 642              		.loc 1 329 0
 643 0072 44F20132 		movw	r2, #17153
 644              		.loc 1 327 0
 645 0076 C4F20E03 		movt	r3, 16398
 646              		.loc 1 328 0
 647 007a 4FF48074 		mov	r4, #256
 648              		.loc 1 327 0
 649 007e C5F24D01 		movt	r1, 20557
 650              		.loc 1 329 0
 651 0082 C5F24D02 		movt	r2, 20557
 652              		.loc 1 327 0
 653 0086 C3F8E410 		str	r1, [r3, #228]
 654              		.loc 1 331 0
 655 008a 0820     		movs	r0, #8
 656              	.LVL49:
 657              		.loc 1 328 0
 658 008c 5C61     		str	r4, [r3, #20]
 659              		.loc 1 329 0
 660 008e C3F8E420 		str	r2, [r3, #228]
 661              		.loc 1 355 0
 662 0092 30BC     		pop	{r4, r5}
 663              		.loc 1 331 0
 664 0094 FFF7FEBF 		b	nvicDisableVector
 665              	.LVL50:
 666              		.cfi_endproc
 667              	.LFE46:
 668              		.size	sd_lld_stop, .-sd_lld_stop
 669              		.global	SD2
 670              		.global	SD1
 671 0098 AFF30080 		.section	.rodata.default_config,"a",%progbits
 671      AFF30080 
 672              		.align	2
 673              		.set	.LANCHOR2,. + 0
ARM GAS  /tmp/ccR4B9nj.s 			page 13


 674              		.type	default_config, %object
 675              		.size	default_config, 8
 676              	default_config:
 677 0000 00C20100 		.word	115200
 678 0004 00280000 		.word	10240
 679              		.section	.bss.SD1,"aw",%nobits
 680              		.align	2
 681              		.set	.LANCHOR0,. + 0
 682              		.type	SD1, %object
 683              		.size	SD1, 116
 684              	SD1:
 685 0000 00000000 		.space	116
 685      00000000 
 685      00000000 
 685      00000000 
 685      00000000 
 686              		.section	.bss.SD2,"aw",%nobits
 687              		.align	2
 688              		.set	.LANCHOR1,. + 0
 689              		.type	SD2, %object
 690              		.size	SD2, 116
 691              	SD2:
 692 0000 00000000 		.space	116
 692      00000000 
 692      00000000 
 692      00000000 
 692      00000000 
 693              		.text
 694              	.Letext0:
 695              		.file 2 "/home/santi/arm-2013.11/lib/gcc/arm-none-eabi/4.8.1/include/stddef.h"
 696              		.file 3 "/home/santi/arm-2013.11/arm-none-eabi/include/stdint.h"
 697              		.file 4 "../third_party/ChibiOS/os/ports/GCC/ARMCMx/chtypes.h"
 698              		.file 5 "../third_party/ChibiOS/os/kernel/include/chlists.h"
 699              		.file 6 "../third_party/ChibiOS/os/kernel/include/chthreads.h"
 700              		.file 7 "../third_party/ChibiOS/os/ports/GCC/ARMCMx/chcore_v7m.h"
 701              		.file 8 "../third_party/ChibiOS/os/kernel/include/chmtx.h"
 702              		.file 9 "../third_party/ChibiOS/os/kernel/include/chevents.h"
 703              		.file 10 "../third_party/ChibiOS/os/kernel/include/chqueues.h"
 704              		.file 11 "../third_party/ChibiOS/os/kernel/include/chioch.h"
 705              		.file 12 "../third_party/ChibiOS/os/hal/platforms/AT91SAM3S/at91lib/SAM3S.h"
 706              		.file 13 "../third_party/ChibiOS/os/hal/include/serial.h"
 707              		.file 14 "../third_party/ChibiOS/os/hal/platforms/AT91SAM3S/serial_lld.h"
 708              		.file 15 "../third_party/ChibiOS/os/hal/platforms/AT91SAM3S/core_cm3.h"
 709              		.file 16 "../third_party/ChibiOS/os/hal/platforms/AT91SAM3S/system_SAM3.h"
 710              		.file 17 "../third_party/ChibiOS/os/ports/common/ARMCMx/nvic.h"