ARM GAS  /tmp/ccDEJPNx.s 			page 1


   1              		.syntax unified
   2              		.cpu cortex-m3
   3              		.fpu softvfp
   4              		.eabi_attribute 20, 1
   5              		.eabi_attribute 21, 1
   6              		.eabi_attribute 23, 3
   7              		.eabi_attribute 24, 1
   8              		.eabi_attribute 25, 1
   9              		.eabi_attribute 26, 1
  10              		.eabi_attribute 30, 2
  11              		.eabi_attribute 34, 1
  12              		.eabi_attribute 18, 4
  13              		.thumb
  14              		.file	"serial.c"
  15              		.text
  16              	.Ltext0:
  17              		.cfi_sections	.debug_frame
  18              		.section	.text.putwouldblock,"ax",%progbits
  19              		.align	2
  20              		.p2align 4,,15
  21              		.thumb
  22              		.thumb_func
  23              		.type	putwouldblock, %function
  24              	putwouldblock:
  25              	.LFB38:
  26              		.file 1 "../third_party/ChibiOS/os/hal/src/serial.c"
  27              		.loc 1 74 0
  28              		.cfi_startproc
  29              		@ args = 0, pretend = 0, frame = 0
  30              		@ frame_needed = 0, uses_anonymous_args = 0
  31              		@ link register save eliminated.
  32              	.LVL0:
  33              		.loc 1 76 0
  34 0000 806B     		ldr	r0, [r0, #56]
  35              	.LVL1:
  36              		.loc 1 77 0
  37 0002 D0F10100 		rsbs	r0, r0, #1
  38 0006 38BF     		it	cc
  39 0008 0020     		movcc	r0, #0
  40 000a 7047     		bx	lr
  41              		.cfi_endproc
  42              	.LFE38:
  43              		.size	putwouldblock, .-putwouldblock
  44 000c AFF30080 		.section	.text.getwouldblock,"ax",%progbits
  45              		.align	2
  46              		.p2align 4,,15
  47              		.thumb
  48              		.thumb_func
  49              		.type	getwouldblock, %function
  50              	getwouldblock:
  51              	.LFB39:
  52              		.loc 1 79 0
  53              		.cfi_startproc
  54              		@ args = 0, pretend = 0, frame = 0
  55              		@ frame_needed = 0, uses_anonymous_args = 0
  56              		@ link register save eliminated.
  57              	.LVL2:
ARM GAS  /tmp/ccDEJPNx.s 			page 2


  58              		.loc 1 81 0
  59 0000 8069     		ldr	r0, [r0, #24]
  60              	.LVL3:
  61              		.loc 1 82 0
  62 0002 D0F10100 		rsbs	r0, r0, #1
  63 0006 38BF     		it	cc
  64 0008 0020     		movcc	r0, #0
  65 000a 7047     		bx	lr
  66              		.cfi_endproc
  67              	.LFE39:
  68              		.size	getwouldblock, .-getwouldblock
  69 000c AFF30080 		.section	.text.getflags,"ax",%progbits
  70              		.align	2
  71              		.p2align 4,,15
  72              		.thumb
  73              		.thumb_func
  74              		.type	getflags, %function
  75              	getflags:
  76              	.LFB44:
  77              		.loc 1 104 0
  78              		.cfi_startproc
  79              		@ args = 0, pretend = 0, frame = 0
  80              		@ frame_needed = 0, uses_anonymous_args = 0
  81              		@ link register save eliminated.
  82              	.LVL4:
  83              		.loc 1 104 0
  84 0000 0246     		mov	r2, r0
  85              	.LBB2:
  86              		.loc 1 105 0
  87 0002 2023     		movs	r3, #32
  88              	@ 105 "../third_party/ChibiOS/os/hal/src/serial.c" 1
  89 0004 83F31188 		msr     BASEPRI, r3
  90              	@ 0 "" 2
  91              		.thumb
  92              	.LBE2:
  93 0008 0021     		movs	r1, #0
  94 000a 8068     		ldr	r0, [r0, #8]
  95              	.LVL5:
  96              	.LBB3:
  97 000c 0B46     		mov	r3, r1
  98              	.LBE3:
  99 000e 9160     		str	r1, [r2, #8]
 100              	.LBB4:
 101              	@ 105 "../third_party/ChibiOS/os/hal/src/serial.c" 1
 102 0010 83F31188 		msr     BASEPRI, r3
 103              	@ 0 "" 2
 104              		.thumb
 105              	.LBE4:
 106              		.loc 1 106 0
 107 0014 7047     		bx	lr
 108              		.cfi_endproc
 109              	.LFE44:
 110              		.size	getflags, .-getflags
 111 0016 00BFAFF3 		.section	.text.readt,"ax",%progbits
 111      0080AFF3 
 111      0080
 112              		.align	2
ARM GAS  /tmp/ccDEJPNx.s 			page 3


 113              		.p2align 4,,15
 114              		.thumb
 115              		.thumb_func
 116              		.type	readt, %function
 117              	readt:
 118              	.LFB43:
 119              		.loc 1 99 0
 120              		.cfi_startproc
 121              		@ args = 0, pretend = 0, frame = 0
 122              		@ frame_needed = 0, uses_anonymous_args = 0
 123              		@ link register save eliminated.
 124              	.LVL6:
 125              		.loc 1 101 0
 126 0000 1030     		adds	r0, r0, #16
 127              	.LVL7:
 128 0002 FFF7FEBF 		b	chIQReadTimeout
 129              	.LVL8:
 130              		.cfi_endproc
 131              	.LFE43:
 132              		.size	readt, .-readt
 133 0006 00BFAFF3 		.section	.text.reads,"ax",%progbits
 133      0080AFF3 
 133      0080
 134              		.align	2
 135              		.p2align 4,,15
 136              		.thumb
 137              		.thumb_func
 138              		.type	reads, %function
 139              	reads:
 140              	.LFB37:
 141              		.loc 1 68 0
 142              		.cfi_startproc
 143              		@ args = 0, pretend = 0, frame = 0
 144              		@ frame_needed = 0, uses_anonymous_args = 0
 145              		@ link register save eliminated.
 146              	.LVL9:
 147              		.loc 1 70 0
 148 0000 1030     		adds	r0, r0, #16
 149              	.LVL10:
 150 0002 4FF0FF33 		mov	r3, #-1
 151 0006 FFF7FEBF 		b	chIQReadTimeout
 152              	.LVL11:
 153              		.cfi_endproc
 154              	.LFE37:
 155              		.size	reads, .-reads
 156 000a 00BFAFF3 		.section	.text.writet,"ax",%progbits
 156      0080
 157              		.align	2
 158              		.p2align 4,,15
 159              		.thumb
 160              		.thumb_func
 161              		.type	writet, %function
 162              	writet:
 163              	.LFB42:
 164              		.loc 1 94 0
 165              		.cfi_startproc
 166              		@ args = 0, pretend = 0, frame = 0
ARM GAS  /tmp/ccDEJPNx.s 			page 4


 167              		@ frame_needed = 0, uses_anonymous_args = 0
 168              		@ link register save eliminated.
 169              	.LVL12:
 170              		.loc 1 96 0
 171 0000 3030     		adds	r0, r0, #48
 172              	.LVL13:
 173 0002 FFF7FEBF 		b	chOQWriteTimeout
 174              	.LVL14:
 175              		.cfi_endproc
 176              	.LFE42:
 177              		.size	writet, .-writet
 178 0006 00BFAFF3 		.section	.text.writes,"ax",%progbits
 178      0080AFF3 
 178      0080
 179              		.align	2
 180              		.p2align 4,,15
 181              		.thumb
 182              		.thumb_func
 183              		.type	writes, %function
 184              	writes:
 185              	.LFB36:
 186              		.loc 1 62 0
 187              		.cfi_startproc
 188              		@ args = 0, pretend = 0, frame = 0
 189              		@ frame_needed = 0, uses_anonymous_args = 0
 190              		@ link register save eliminated.
 191              	.LVL15:
 192              		.loc 1 64 0
 193 0000 3030     		adds	r0, r0, #48
 194              	.LVL16:
 195 0002 4FF0FF33 		mov	r3, #-1
 196 0006 FFF7FEBF 		b	chOQWriteTimeout
 197              	.LVL17:
 198              		.cfi_endproc
 199              	.LFE36:
 200              		.size	writes, .-writes
 201 000a 00BFAFF3 		.section	.text.gett,"ax",%progbits
 201      0080
 202              		.align	2
 203              		.p2align 4,,15
 204              		.thumb
 205              		.thumb_func
 206              		.type	gett, %function
 207              	gett:
 208              	.LFB41:
 209              		.loc 1 89 0
 210              		.cfi_startproc
 211              		@ args = 0, pretend = 0, frame = 0
 212              		@ frame_needed = 0, uses_anonymous_args = 0
 213              		@ link register save eliminated.
 214              	.LVL18:
 215              		.loc 1 91 0
 216 0000 1030     		adds	r0, r0, #16
 217              	.LVL19:
 218 0002 FFF7FEBF 		b	chIQGetTimeout
 219              	.LVL20:
 220              		.cfi_endproc
ARM GAS  /tmp/ccDEJPNx.s 			page 5


 221              	.LFE41:
 222              		.size	gett, .-gett
 223 0006 00BFAFF3 		.section	.text.putt,"ax",%progbits
 223      0080AFF3 
 223      0080
 224              		.align	2
 225              		.p2align 4,,15
 226              		.thumb
 227              		.thumb_func
 228              		.type	putt, %function
 229              	putt:
 230              	.LFB40:
 231              		.loc 1 84 0
 232              		.cfi_startproc
 233              		@ args = 0, pretend = 0, frame = 0
 234              		@ frame_needed = 0, uses_anonymous_args = 0
 235              		@ link register save eliminated.
 236              	.LVL21:
 237              		.loc 1 86 0
 238 0000 3030     		adds	r0, r0, #48
 239              	.LVL22:
 240 0002 FFF7FEBF 		b	chOQPutTimeout
 241              	.LVL23:
 242              		.cfi_endproc
 243              	.LFE40:
 244              		.size	putt, .-putt
 245 0006 00BFAFF3 		.section	.text.sdInit,"ax",%progbits
 245      0080AFF3 
 245      0080
 246              		.align	2
 247              		.p2align 4,,15
 248              		.global	sdInit
 249              		.thumb
 250              		.thumb_func
 251              		.type	sdInit, %function
 252              	sdInit:
 253              	.LFB45:
 254              		.loc 1 125 0
 255              		.cfi_startproc
 256              		@ args = 0, pretend = 0, frame = 0
 257              		@ frame_needed = 0, uses_anonymous_args = 0
 258              		@ link register save eliminated.
 259              		.loc 1 127 0
 260 0000 FFF7FEBF 		b	sd_lld_init
 261              	.LVL24:
 262              		.cfi_endproc
 263              	.LFE45:
 264              		.size	sdInit, .-sdInit
 265 0004 AFF30080 		.section	.text.sdObjectInit,"ax",%progbits
 265      AFF30080 
 265      AFF30080 
 266              		.align	2
 267              		.p2align 4,,15
 268              		.global	sdObjectInit
 269              		.thumb
 270              		.thumb_func
 271              		.type	sdObjectInit, %function
ARM GAS  /tmp/ccDEJPNx.s 			page 6


 272              	sdObjectInit:
 273              	.LFB46:
 274              		.loc 1 145 0
 275              		.cfi_startproc
 276              		@ args = 0, pretend = 0, frame = 0
 277              		@ frame_needed = 0, uses_anonymous_args = 0
 278              	.LVL25:
 279 0000 2DE9F041 		push	{r4, r5, r6, r7, r8, lr}
 280              		.cfi_def_cfa_offset 24
 281              		.cfi_offset 4, -24
 282              		.cfi_offset 5, -20
 283              		.cfi_offset 6, -16
 284              		.cfi_offset 7, -12
 285              		.cfi_offset 8, -8
 286              		.cfi_offset 14, -4
 287              		.loc 1 147 0
 288 0004 40F20005 		movw	r5, #:lower16:.LANCHOR0
 289 0008 C0F20005 		movt	r5, #:upper16:.LANCHOR0
 290              		.loc 1 145 0
 291 000c 0446     		mov	r4, r0
 292              		.loc 1 149 0
 293 000e 0027     		movs	r7, #0
 294              		.loc 1 147 0
 295 0010 40F8045B 		str	r5, [r0], #4
 296              	.LVL26:
 297              		.loc 1 150 0
 298 0014 0126     		movs	r6, #1
 299              		.loc 1 145 0
 300 0016 0B46     		mov	r3, r1
 301 0018 1546     		mov	r5, r2
 302              		.loc 1 148 0
 303 001a 6060     		str	r0, [r4, #4]
 304              		.loc 1 151 0
 305 001c 04F15001 		add	r1, r4, #80
 306              	.LVL27:
 307 0020 04F11000 		add	r0, r4, #16
 308              		.loc 1 149 0
 309 0024 A760     		str	r7, [r4, #8]
 310              		.loc 1 150 0
 311 0026 2673     		strb	r6, [r4, #12]
 312              		.loc 1 151 0
 313 0028 1022     		movs	r2, #16
 314              	.LVL28:
 315 002a FFF7FEFF 		bl	chIQInit
 316              	.LVL29:
 317              		.loc 1 152 0
 318 002e 2B46     		mov	r3, r5
 319 0030 04F13000 		add	r0, r4, #48
 320 0034 04F16001 		add	r1, r4, #96
 321 0038 1022     		movs	r2, #16
 322              		.loc 1 153 0
 323 003a BDE8F041 		pop	{r4, r5, r6, r7, r8, lr}
 324              	.LVL30:
 325              		.loc 1 152 0
 326 003e FFF7FEBF 		b	chOQInit
 327              	.LVL31:
 328              		.cfi_endproc
ARM GAS  /tmp/ccDEJPNx.s 			page 7


 329              	.LFE46:
 330              		.size	sdObjectInit, .-sdObjectInit
 331 0042 00BFAFF3 		.section	.text.sdStart,"ax",%progbits
 331      0080AFF3 
 331      0080AFF3 
 331      0080
 332              		.align	2
 333              		.p2align 4,,15
 334              		.global	sdStart
 335              		.thumb
 336              		.thumb_func
 337              		.type	sdStart, %function
 338              	sdStart:
 339              	.LFB47:
 340              		.loc 1 165 0
 341              		.cfi_startproc
 342              		@ args = 0, pretend = 0, frame = 0
 343              		@ frame_needed = 0, uses_anonymous_args = 0
 344              	.LVL32:
 345 0000 10B5     		push	{r4, lr}
 346              		.cfi_def_cfa_offset 8
 347              		.cfi_offset 4, -8
 348              		.cfi_offset 14, -4
 349              	.LBB5:
 350              		.loc 1 169 0
 351 0002 2023     		movs	r3, #32
 352              	.LBE5:
 353              		.loc 1 165 0
 354 0004 0446     		mov	r4, r0
 355              	.LBB6:
 356              		.loc 1 169 0
 357              	@ 169 "../third_party/ChibiOS/os/hal/src/serial.c" 1
 358 0006 83F31188 		msr     BASEPRI, r3
 359              	@ 0 "" 2
 360              		.thumb
 361              	.LBE6:
 362              		.loc 1 173 0
 363 000a FFF7FEFF 		bl	sd_lld_start
 364              	.LVL33:
 365              		.loc 1 174 0
 366 000e 0223     		movs	r3, #2
 367 0010 2373     		strb	r3, [r4, #12]
 368              	.LBB7:
 369              		.loc 1 175 0
 370 0012 0023     		movs	r3, #0
 371              	@ 175 "../third_party/ChibiOS/os/hal/src/serial.c" 1
 372 0014 83F31188 		msr     BASEPRI, r3
 373              	@ 0 "" 2
 374              		.thumb
 375 0018 10BD     		pop	{r4, pc}
 376              	.LBE7:
 377              		.cfi_endproc
 378              	.LFE47:
 379              		.size	sdStart, .-sdStart
 380 001a 00BFAFF3 		.section	.text.sdStop,"ax",%progbits
 380      0080
 381              		.align	2
ARM GAS  /tmp/ccDEJPNx.s 			page 8


 382              		.p2align 4,,15
 383              		.global	sdStop
 384              		.thumb
 385              		.thumb_func
 386              		.type	sdStop, %function
 387              	sdStop:
 388              	.LFB48:
 389              		.loc 1 187 0
 390              		.cfi_startproc
 391              		@ args = 0, pretend = 0, frame = 0
 392              		@ frame_needed = 0, uses_anonymous_args = 0
 393              	.LVL34:
 394 0000 10B5     		push	{r4, lr}
 395              		.cfi_def_cfa_offset 8
 396              		.cfi_offset 4, -8
 397              		.cfi_offset 14, -4
 398              	.LBB8:
 399              		.loc 1 191 0
 400 0002 2023     		movs	r3, #32
 401              	.LBE8:
 402              		.loc 1 187 0
 403 0004 0446     		mov	r4, r0
 404              	.LBB9:
 405              		.loc 1 191 0
 406              	@ 191 "../third_party/ChibiOS/os/hal/src/serial.c" 1
 407 0006 83F31188 		msr     BASEPRI, r3
 408              	@ 0 "" 2
 409              		.thumb
 410              	.LBE9:
 411              		.loc 1 195 0
 412 000a FFF7FEFF 		bl	sd_lld_stop
 413              	.LVL35:
 414              		.loc 1 196 0
 415 000e 0123     		movs	r3, #1
 416 0010 2373     		strb	r3, [r4, #12]
 417              		.loc 1 197 0
 418 0012 04F13000 		add	r0, r4, #48
 419 0016 FFF7FEFF 		bl	chOQResetI
 420              	.LVL36:
 421              		.loc 1 198 0
 422 001a 04F11000 		add	r0, r4, #16
 423 001e FFF7FEFF 		bl	chIQResetI
 424              	.LVL37:
 425              		.loc 1 199 0
 426 0022 FFF7FEFF 		bl	chSchRescheduleS
 427              	.LVL38:
 428              	.LBB10:
 429              		.loc 1 200 0
 430 0026 0023     		movs	r3, #0
 431              	@ 200 "../third_party/ChibiOS/os/hal/src/serial.c" 1
 432 0028 83F31188 		msr     BASEPRI, r3
 433              	@ 0 "" 2
 434              		.thumb
 435 002c 10BD     		pop	{r4, pc}
 436              	.LBE10:
 437              		.cfi_endproc
 438              	.LFE48:
ARM GAS  /tmp/ccDEJPNx.s 			page 9


 439              		.size	sdStop, .-sdStop
 440 002e 00BF     		.section	.text.sdIncomingDataI,"ax",%progbits
 441              		.align	2
 442              		.p2align 4,,15
 443              		.global	sdIncomingDataI
 444              		.thumb
 445              		.thumb_func
 446              		.type	sdIncomingDataI, %function
 447              	sdIncomingDataI:
 448              	.LFB49:
 449              		.loc 1 219 0
 450              		.cfi_startproc
 451              		@ args = 0, pretend = 0, frame = 0
 452              		@ frame_needed = 0, uses_anonymous_args = 0
 453              	.LVL39:
 454 0000 38B5     		push	{r3, r4, r5, lr}
 455              		.cfi_def_cfa_offset 16
 456              		.cfi_offset 3, -16
 457              		.cfi_offset 4, -12
 458              		.cfi_offset 5, -8
 459              		.cfi_offset 14, -4
 460              		.loc 1 224 0
 461 0002 8369     		ldr	r3, [r0, #24]
 462              		.loc 1 219 0
 463 0004 0446     		mov	r4, r0
 464 0006 0D46     		mov	r5, r1
 465              		.loc 1 224 0
 466 0008 3BB1     		cbz	r3, .L18
 467              		.loc 1 226 0
 468 000a 2946     		mov	r1, r5
 469              	.LVL40:
 470 000c 04F11000 		add	r0, r4, #16
 471              	.LVL41:
 472 0010 FFF7FEFF 		bl	chIQPutI
 473              	.LVL42:
 474 0014 0028     		cmp	r0, #0
 475 0016 0FDB     		blt	.L19
 476              	.L14:
 477 0018 38BD     		pop	{r3, r4, r5, pc}
 478              	.LVL43:
 479              	.L18:
 480              		.loc 1 225 0
 481 001a 8268     		ldr	r2, [r0, #8]
 482 001c 1946     		mov	r1, r3
 483              	.LVL44:
 484 001e 42F00402 		orr	r2, r2, #4
 485 0022 8260     		str	r2, [r0, #8]
 486 0024 0430     		adds	r0, r0, #4
 487              	.LVL45:
 488 0026 FFF7FEFF 		bl	chEvtBroadcastFlagsI
 489              	.LVL46:
 490              		.loc 1 226 0
 491 002a 2946     		mov	r1, r5
 492 002c 04F11000 		add	r0, r4, #16
 493 0030 FFF7FEFF 		bl	chIQPutI
 494              	.LVL47:
 495 0034 0028     		cmp	r0, #0
ARM GAS  /tmp/ccDEJPNx.s 			page 10


 496 0036 EFDA     		bge	.L14
 497              	.L19:
 498              		.loc 1 227 0
 499 0038 A368     		ldr	r3, [r4, #8]
 500 003a 201D     		adds	r0, r4, #4
 501 003c 43F08003 		orr	r3, r3, #128
 502 0040 A360     		str	r3, [r4, #8]
 503 0042 0021     		movs	r1, #0
 504              		.loc 1 228 0
 505 0044 BDE83840 		pop	{r3, r4, r5, lr}
 506              	.LVL48:
 507              		.loc 1 227 0
 508 0048 FFF7FEBF 		b	chEvtBroadcastFlagsI
 509              	.LVL49:
 510              		.cfi_endproc
 511              	.LFE49:
 512              		.size	sdIncomingDataI, .-sdIncomingDataI
 513 004c AFF30080 		.section	.text.sdRequestDataI,"ax",%progbits
 514              		.align	2
 515              		.p2align 4,,15
 516              		.global	sdRequestDataI
 517              		.thumb
 518              		.thumb_func
 519              		.type	sdRequestDataI, %function
 520              	sdRequestDataI:
 521              	.LFB50:
 522              		.loc 1 245 0
 523              		.cfi_startproc
 524              		@ args = 0, pretend = 0, frame = 0
 525              		@ frame_needed = 0, uses_anonymous_args = 0
 526              	.LVL50:
 527 0000 38B5     		push	{r3, r4, r5, lr}
 528              		.cfi_def_cfa_offset 16
 529              		.cfi_offset 3, -16
 530              		.cfi_offset 4, -12
 531              		.cfi_offset 5, -8
 532              		.cfi_offset 14, -4
 533              		.loc 1 245 0
 534 0002 0446     		mov	r4, r0
 535              		.loc 1 251 0
 536 0004 3030     		adds	r0, r0, #48
 537              	.LVL51:
 538 0006 FFF7FEFF 		bl	chOQGetI
 539              	.LVL52:
 540              		.loc 1 252 0
 541 000a 051E     		subs	r5, r0, #0
 542 000c 01DB     		blt	.L22
 543              		.loc 1 255 0
 544 000e 2846     		mov	r0, r5
 545 0010 38BD     		pop	{r3, r4, r5, pc}
 546              	.LVL53:
 547              	.L22:
 548              		.loc 1 253 0
 549 0012 A368     		ldr	r3, [r4, #8]
 550 0014 201D     		adds	r0, r4, #4
 551              	.LVL54:
 552 0016 43F00803 		orr	r3, r3, #8
ARM GAS  /tmp/ccDEJPNx.s 			page 11


 553 001a A360     		str	r3, [r4, #8]
 554 001c 0021     		movs	r1, #0
 555 001e FFF7FEFF 		bl	chEvtBroadcastFlagsI
 556              	.LVL55:
 557              		.loc 1 255 0
 558 0022 2846     		mov	r0, r5
 559 0024 38BD     		pop	{r3, r4, r5, pc}
 560              		.cfi_endproc
 561              	.LFE50:
 562              		.size	sdRequestDataI, .-sdRequestDataI
 563 0026 00BFAFF3 		.section	.rodata.vmt,"a",%progbits
 563      0080AFF3 
 563      0080
 564              		.align	2
 565              		.set	.LANCHOR0,. + 0
 566              		.type	vmt, %object
 567              		.size	vmt, 36
 568              	vmt:
 569 0000 00000000 		.word	writes
 570 0004 00000000 		.word	reads
 571 0008 00000000 		.word	putwouldblock
 572 000c 00000000 		.word	getwouldblock
 573 0010 00000000 		.word	putt
 574 0014 00000000 		.word	gett
 575 0018 00000000 		.word	writet
 576 001c 00000000 		.word	readt
 577 0020 00000000 		.word	getflags
 578              		.text
 579              	.Letext0:
 580              		.file 2 "/home/santi/arm-2013.11/lib/gcc/arm-none-eabi/4.8.1/include/stddef.h"
 581              		.file 3 "/home/santi/arm-2013.11/arm-none-eabi/include/stdint.h"
 582              		.file 4 "../third_party/ChibiOS/os/ports/GCC/ARMCMx/chtypes.h"
 583              		.file 5 "../third_party/ChibiOS/os/kernel/include/chlists.h"
 584              		.file 6 "../third_party/ChibiOS/os/kernel/include/chthreads.h"
 585              		.file 7 "../third_party/ChibiOS/os/ports/GCC/ARMCMx/chcore_v7m.h"
 586              		.file 8 "../third_party/ChibiOS/os/kernel/include/chmtx.h"
 587              		.file 9 "../third_party/ChibiOS/os/kernel/include/chevents.h"
 588              		.file 10 "../third_party/ChibiOS/os/kernel/include/chqueues.h"
 589              		.file 11 "../third_party/ChibiOS/os/kernel/include/chioch.h"
 590              		.file 12 "../third_party/ChibiOS/os/hal/platforms/AT91SAM3S/at91lib/SAM3S.h"
 591              		.file 13 "../third_party/ChibiOS/os/hal/include/serial.h"
 592              		.file 14 "../third_party/ChibiOS/os/hal/platforms/AT91SAM3S/serial_lld.h"
 593              		.file 15 "../third_party/ChibiOS/os/kernel/include/chschd.h"
 594              		.file 16 "../third_party/ChibiOS/os/hal/platforms/AT91SAM3S/core_cm3.h"