ARM GAS  /tmp/ccDEJPNx.s 			page 1


   1              		.syntax unified
   2              		.cpu cortex-m3
   3              		.fpu softvfp
   4              		.eabi_attribute 20, 1
   5              		.eabi_attribute 21, 1
   6              		.eabi_attribute 23, 3
   7              		.eabi_attribute 24, 1
   8              		.eabi_attribute 25, 1
   9              		.eabi_attribute 26, 1
  10              		.eabi_attribute 30, 2
  11              		.eabi_attribute 34, 1
  12              		.eabi_attribute 18, 4
  13              		.thumb
  14              		.file	"serial.c"
  15              		.text
  16              	.Ltext0:
  17              		.cfi_sections	.debug_frame
  18              		.section	.text.putwouldblock,"ax",%progbits
  19              		.align	2
  20              		.p2align 4,,15
  21              		.thumb
  22              		.thumb_func
  23              		.type	putwouldblock, %function
  24              	putwouldblock:
  25              	.LFB38:
  26              		.file 1 "../third_party/ChibiOS/os/hal/src/serial.c"
  27              		.loc 1 74 0
  28              		.cfi_startproc
  29              		@ args = 0, pretend = 0, frame = 0
  30              		@ frame_needed = 0, uses_anonymous_args = 0
  31              		@ link register save eliminated.
  32              	.LVL0:
  33              		.loc 1 76 0
  34 0000 806B     		ldr	r0, [r0, #56]
  35              	.LVL1:
  36              		.loc 1 77 0
  37 0002 D0F10100 		rsbs	r0, r0, #1
  38 0006 38BF     		it	cc
  39 0008 0020     		movcc	r0, #0
  40 000a 7047     		bx	lr
  41              		.cfi_endproc
  42              	.LFE38:
  43              		.size	putwouldblock, .-putwouldblock
  44 000c AFF30080 		.section	.text.getwouldblock,"ax",%progbits
  45              		.align	2
  46              		.p2align 4,,15
  47              		.thumb
  48              		.thumb_func
  49              		.type	getwouldblock, %function
  50              	getwouldblock:
  51              	.LFB39:
  52              		.loc 1 79 0
  53              		.cfi_startproc
  54              		@ args = 0, pretend = 0, frame = 0
  55              		@ frame_needed = 0, uses_anonymous_args = 0
  56              		@ link register save eliminated.
  57              	.LVL2:
ARM GAS  /tmp/ccDEJPNx.s 			page 2


  58              		.loc 1 81 0
  59 0000 8069     		ldr	r0, [r0, #24]
  60              	.LVL3:
  61              		.loc 1 82 0
  62 0002 D0F10100 		rsbs	r0, r0, #1
  63 0006 38BF     		it	cc
  64 0008 0020     		movcc	r0, #0
  65 000a 7047     		bx	lr
  66              		.cfi_endproc
  67              	.LFE39:
  68              		.size	getwouldblock, .-getwouldblock
  69 000c AFF30080 		.section	.text.getflags,"ax",%progbits
  70              		.align	2
  71              		.p2align 4,,15
  72              		.thumb
  73              		.thumb_func
  74              		.type	getflags, %function
  75              	getflags:
  76              	.LFB44:
  77              		.loc 1 104 0
  78              		.cfi_startproc
  79              		@ args = 0, pretend = 0, frame = 0
  80              		@ frame_needed = 0, uses_anonymous_args = 0
  81              		@ link register save eliminated.
  82              	.LVL4:
  83              		.loc 1 104 0
  84 0000 0246     		mov	r2, r0
  85              	.LBB2:
  86              		.loc 1 105 0
  87 0002 2023     		movs	r3, #32
  88              	@ 105 "../third_party/ChibiOS/os/hal/src/serial.c" 1
  89 0004 83F31188 		msr     BASEPRI, r3
  90              	@ 0 "" 2
  91              		.thumb
  92              	.LBE2:
  93 0008 0021     		movs	r1, #0
  94 000a 8068     		ldr	r0, [r0, #8]
  95              	.LVL5:
  96              	.LBB3:
  97 000c 0B46     		mov	r3, r1
  98              	.LBE3:
  99 000e 9160     		str	r1, [r2, #8]
 100              	.LBB4:
 101              	@ 105 "../third_party/ChibiOS/os/hal/src/serial.c" 1
 102 0010 83F31188 		msr     BASEPRI, r3
 103              	@ 0 "" 2
 104              		.thumb
 105              	.LBE4:
 106              		.loc 1 106 0
 107 0014 7047     		bx	lr
 108              		.cfi_endproc
 109              	.LFE44:
 110              		.size	getflags, .-getflags
 111 0016 00BFAFF3 		.section	.text.readt,"ax",%progbits
 111      0080AFF3 
 111      0080
 112              		.align	2
ARM GAS  /tmp/ccDEJPNx.s 			page 3


 113              		.p2align 4,,15
 114              		.thumb
 115              		.thumb_func
 116              		.type	readt, %function
 117              	readt:
 118              	.LFB43:
 119              		.loc 1 99 0
 120              		.cfi_startproc
 121              		@ args = 0, pretend = 0, frame = 0
 122              		@ frame_needed = 0, uses_anonymous_args = 0
 123              		@ link register save eliminated.
 124              	.LVL6:
 125              		.loc 1 101 0
 126 0000 1030     		adds	r0, r0, #16
 127              	.LVL7:
 128 0002 FFF7FEBF 		b	chIQReadTimeout
 129              	.LVL8:
 130              		.cfi_endproc
 131              	.LFE43:
 132              		.size	readt, .-readt
 133 0006 00BFAFF3 		.section	.text.reads,"ax",%progbits
 133      0080AFF3 
 133      0080
 134              		.align	2
 135              		.p2align 4,,15
 136              		.thumb
 137              		.thumb_func
 138              		.type	reads, %function
 139              	reads:
 140              	.LFB37:
 141              		.loc 1 68 0
 142              		.cfi_startproc
 143              		@ args = 0, pretend = 0, frame = 0
 144              		@ frame_needed = 0, uses_anonymous_args = 0
 145              		@ link register save eliminated.
 146              	.LVL9:
 147              		.loc 1 70 0
 148 0000 1030     		adds	r0, r0, #16
 149              	.LVL10:
 150 0002 4FF0FF33 		mov	r3, #-1
 151 0006 FFF7FEBF 		b	chIQReadTimeout
 152              	.LVL11:
 153              		.cfi_endproc
 154              	.LFE37:
 155              		.size	reads, .-reads
 156 000a 00BFAFF3 		.section	.text.writet,"ax",%progbits
 156      0080
 157              		.align	2
 158              		.p2align 4,,15
 159              		.thumb
 160              		.thumb_func
 161              		.type	writet, %function
 162              	writet:
 163              	.LFB42:
 164              		.loc 1 94 0
 165              		.cfi_startproc
 166              		@ args = 0, pretend = 0, frame = 0
ARM GAS  /tmp/ccDEJPNx.s 			page 4


 167              		@ frame_needed = 0, uses_anonymous_args = 0
 168              		@ link register save eliminated.
 169              	.LVL12:
 170              		.loc 1 96 0
 171 0000 3030     		adds	r0, r0, #48
 172              	.LVL13:
 173 0002 FFF7FEBF 		b	chOQWriteTimeout
 174              	.LVL14:
 175              		.cfi_endproc
 176              	.LFE42:
 177              		.size	writet, .-writet
 178 0006 00BFAFF3 		.section	.text.writes,"ax",%progbits
 178      0080AFF3 
 178      0080
 179              		.align	2
 180              		.p2align 4,,15
 181              		.thumb
 182              		.thumb_func
 183              		.type	writes, %function
 184              	writes:
 185              	.LFB36:
 186              		.loc 1 62 0
 187              		.cfi_startproc
 188              		@ args = 0, pretend = 0, frame = 0
 189              		@ frame_needed = 0, uses_anonymous_args = 0
 190              		@ link register save eliminated.
 191              	.LVL15:
 192              		.loc 1 64 0
 193 0000 3030     		adds	r0, r0, #48
 194              	.LVL16:
 195 0002 4FF0FF33 		mov	r3, #-1
 196 0006 FFF7FEBF 		b	chOQWriteTimeout
 197              	.LVL17:
 198              		.cfi_endproc
 199              	.LFE36:
 200              		.size	writes, .-writes
 201 000a 00BFAFF3 		.section	.text.gett,"ax",%progbits
 201      0080
 202              		.align	2
 203              		.p2align 4,,15
 204              		.thumb
 205              		.thumb_func
 206              		.type	gett, %function
 207              	gett:
 208              	.LFB41:
 209              		.loc 1 89 0
 210              		.cfi_startproc
 211              		@ args = 0, pretend = 0, frame = 0
 212              		@ frame_needed = 0, uses_anonymous_args = 0
 213              		@ link register save eliminated.
 214              	.LVL18:
 215              		.loc 1 91 0
 216 0000 1030     		adds	r0, r0, #16
 217              	.LVL19:
 218 0002 FFF7FEBF 		b	chIQGetTimeout
 219              	.LVL20:
 220              		.cfi_endproc
ARM GAS  /tmp/ccDEJPNx.s 			page 5


 221              	.LFE41:
 222              		.size	gett, .-gett
 223 0006 00BFAFF3 		.section	.text.putt,"ax",%progbits
 223      0080AFF3 
 223      0080
 224              		.align	2
 225              		.p2align 4,,15
 226              		.thumb
 227              		.thumb_func
 228              		.type	putt, %function
 229              	putt:
 230              	.LFB40:
 231              		.loc 1 84 0
 232              		.cfi_startproc
 233              		@ args = 0, pretend = 0, frame = 0
 234              		@ frame_needed = 0, uses_anonymous_args = 0
 235              		@ link register save eliminated.
 236              	.LVL21:
 237              		.loc 1 86 0
 238 0000 3030     		adds	r0, r0, #48
 239              	.LVL22:
 240 0002 FFF7FEBF 		b	chOQPutTimeout
 241              	.LVL23:
 242              		.cfi_endproc
 243              	.LFE40:
 244              		.size	putt, .-putt
 245 0006 00BFAFF3 		.section	.text.sdInit,"ax",%progbits
 245      0080AFF3 
 245      0080
 246              		.align	2
 247              		.p2align 4,,15
 248              		.global	sdInit
 249              		.thumb
 250              		.thumb_func
 251              		.type	sdInit, %function
 252              	sdInit:
 253              	.LFB45:
 254              		.loc 1 125 0
 255              		.cfi_startproc
 256              		@ args = 0, pretend = 0, frame = 0
 257              		@ frame_needed = 0, uses_anonymous_args = 0
 258              		@ link register save eliminated.
 259              		.loc 1 127 0
 260 0000 FFF7FEBF 		b	sd_lld_init
 261              	.LVL24:
 262              		.cfi_endproc
 263              	.LFE45:
 264              		.size	sdInit, .-sdInit
 265 0004 AFF30080 		.section	.text.sdObjectInit,"ax",%progbits
 265      AFF30080 
 265      AFF30080 
 266              		.align	2
 267              		.p2align 4,,15
 268              		.global	sdObjectInit
 269              		.thumb
 270              		.thumb_func
 271              		.type	sdObjectInit, %function
ARM GAS  /tmp/ccDEJPNx.s 			page 6


 272              	sdObjectInit:
 273              	.LFB46:
 274              		.loc 1 145 0
 275              		.cfi_startproc
 276              		@ args = 0, pretend = 0, frame = 0
 277              		@ frame_needed = 0, uses_anonymous_args = 0
 278              	.LVL25:
 279 0000 2DE9F041 		push	{r4, r5, r6, r7, r8, lr}
 280              		.cfi_def_cfa_offset 24
 281              		.cfi_offset 4, -24
 282              		.cfi_offset 5, -20
 283              		.cfi_offset 6, -16
 284              		.cfi_offset 7, -12
 285              		.cfi_offset 8, -8
 286              		.cfi_offset 14, -4
 287              		.loc 1 147 0
 288 0004 40F20005 		movw	r5, #:lower16:.LANCHOR0
 289 0008 C0F20005 		movt	r5, #:upper16:.LANCHOR0
 290              		.loc 1 145 0
 291 000c 0446     		mov	r4, r0
 292              		.loc 1 149 0
 293 000e 0027     		movs	r7, #0
 294              		.loc 1 147 0
 295 0010 40F8045B 		str	r5, [r0], #4
 296              	.LVL26:
 297              		.loc 1 150 0
 298 0014 0126     		movs	r6, #1
 299              		.loc 1 145 0
 300 0016 0B46     		mov	r3, r1
 301 0018 1546     		mov	r5, r2
 302              		.loc 1 148 0
 303 001a 6060     		str	r0, [r4, #4]
 304              		.loc 1 151 0
 305 001c 04F15001 		add	r1, r4, #80
 306              	.LVL27:
 307 0020 04F11000 		add	r0, r4, #16
 308              		.loc 1 149 0
 309 0024 A760     		str	r7, [r4, #8]
 310              		.loc 1 150 0
 311 0026 2673     		strb	r6, [r4, #12]
 312              		.loc 1 151 0
 313 0028 1022     		movs	r2, #16
 314              	.LVL28:
 315 002a FFF7FEFF 		bl	chIQInit
 316              	.LVL29:
 317              		.loc 1 152 0
 318 002e 2B46     		mov	r3, r5
 319 0030 04F13000 		add	r0, r4, #48
 320 0034 04F16001 		add	r1, r4, #96
 321 0038 1022     		movs	r2, #16
 322              		.loc 1 153 0
 323 003a BDE8F041 		pop	{r4, r5, r6, r7, r8, lr}
 324              	.LVL30:
 325              		.loc 1 152 0
 326 003e FFF7FEBF 		b	chOQInit
 327              	.LVL31:
 328              		.cfi_endproc
ARM GAS  /tmp/ccDEJPNx.s 			page 7


 329              	.LFE46:
 330              		.size	sdObjectInit, .-sdObjectInit
 331 0042 00BFAFF3 		.section	.text.sdStart,"ax",%progbits
 331      0080AFF3 
 331      0080AFF3 
 331      0080
 332              		.align	2
 333              		.p2align 4,,15
 334              		.global	sdStart
 335              		.thumb
 336              		.thumb_func
 337              		.type	sdStart, %function
 338              	sdStart:
 339              	.LFB47:
 340              		.loc 1 165 0
 341              		.cfi_startproc
 342              		@ args = 0, pretend = 0, frame = 0
 343              		@ frame_needed = 0, uses_anonymous_args = 0
 344              	.LVL32:
 345 0000 10B5     		push	{r4, lr}
 346              		.cfi_def_cfa_offset 8
 347              		.cfi_offset 4, -8
 348              		.cfi_offset 14, -4
 349              	.LBB5:
 350              		.loc 1 169 0
 351 0002 2023     		movs	r3, #32
 352              	.LBE5:
 353              		.loc 1 165 0
 354 0004 0446     		mov	r4, r0
 355              	.LBB6:
 356              		.loc 1 169 0
 357              	@ 169 "../third_party/ChibiOS/os/hal/src/serial.c" 1
 358 0006 83F31188 		msr     BASEPRI, r3
 359              	@ 0 "" 2
 360              		.thumb
 361              	.LBE6:
 362              		.loc 1 173 0
 363 000a FFF7FEFF 		bl	sd_lld_start
 364              	.LVL33:
 365              		.loc 1 174 0
 366 000e 0223     		movs	r3, #2
 367 0010 2373     		strb	r3, [r4, #12]
 368              	.LBB7:
 369              		.loc 1 175 0
 370 0012 0023     		movs	r3, #0
 371              	@ 175 "../third_party/ChibiOS/os/hal/src/serial.c" 1
 372 0014 83F31188 		msr     BASEPRI, r3
 373              	@ 0 "" 2
 374              		.thumb
 375 0018 10BD     		pop	{r4, pc}
 376              	.LBE7:
 377              		.cfi_endproc
 378              	.LFE47:
 379              		.size	sdStart, .-sdStart
 380 001a 00BFAFF3 		.section	.text.sdStop,"ax",%progbits
 380      0080
 381              		.align	2
ARM GAS  /tmp/ccDEJPNx.s 			page 8


 382              		.p2align 4,,15
 383              		.global	sdStop
 384              		.thumb
 385              		.thumb_func
 386              		.type	sdStop, %function
 387              	sdStop:
 388              	.LFB48:
 389              		.loc 1 187 0
 390              		.cfi_startproc
 391              		@ args = 0, pretend = 0, frame = 0
 392              		@ frame_needed = 0, uses_anonymous_args = 0
 393              	.LVL34:
 394 0000 10B5     		push	{r4, lr}
 395              		.cfi_def_cfa_offset 8
 396              		.cfi_offset 4, -8
 397              		.cfi_offset 14, -4
 398              	.LBB8:
 399              		.loc 1 191 0
 400 0002 2023     		movs	r3, #32
 401              	.LBE8:
 402              		.loc 1 187 0
 403 0004 0446     		mov	r4, r0
 404              	.LBB9:
 405              		.loc 1 191 0
 406              	@ 191 "../third_party/ChibiOS/os/hal/src/serial.c" 1
 407 0006 83F31188 		msr     BASEPRI, r3
 408              	@ 0 "" 2
 409              		.thumb
 410              	.LBE9:
 411              		.loc 1 195 0
 412 000a FFF7FEFF 		bl	sd_lld_stop
 413              	.LVL35:
 414              		.loc 1 196 0
 415 000e 0123     		movs	r3, #1
 416 0010 2373     		strb	r3, [r4, #12]
 417              		.loc 1 197 0
 418 0012 04F13000 		add	r0, r4, #48
 419 0016 FFF7FEFF 		bl	chOQResetI
 420              	.LVL36:
 421              		.loc 1 198 0
 422 001a 04F11000 		add	r0, r4, #16
 423 001e FFF7FEFF 		bl	chIQResetI
 424              	.LVL37:
 425              		.loc 1 199 0
 426 0022 FFF7FEFF 		bl	chSchRescheduleS
 427              	.LVL38:
 428              	.LBB10:
 429              		.loc 1 200 0
 430 0026 0023     		movs	r3, #0
 431              	@ 200 "../third_party/ChibiOS/os/hal/src/serial.c" 1
 432 0028 83F31188 		msr     BASEPRI, r3
 433              	@ 0 "" 2
 434              		.thumb
 435 002c 10BD     		pop	{r4, pc}
 436              	.LBE10:
 437              		.cfi_endproc
 438              	.LFE48:
ARM GAS  /tmp/ccDEJPNx.s 			page 9


 439              		.size	sdStop, .-sdStop
 440 002e 00BF     		.section	.text.sdIncomingDataI,"ax",%progbits
 441              		.align	2
 442              		.p2align 4,,15
 443              		.global	sdIncomingDataI
 444              		.thumb
 445              		.thumb_func
 446              		.type	sdIncomingDataI, %function
 447              	sdIncomingDataI:
 448              	.LFB49:
 449              		.loc 1 219 0
 450              		.cfi_startproc
 451              		@ args = 0, pretend = 0, frame = 0
 452              		@ frame_needed = 0, uses_anonymous_args = 0
 453              	.LVL39:
 454 0000 38B5     		push	{r3, r4, r5, lr}
 455              		.cfi_def_cfa_offset 16
 456              		.cfi_offset 3, -16
 457              		.cfi_offset 4, -12
 458              		.cfi_offset 5, -8
 459              		.cfi_offset 14, -4
 460              		.loc 1 224 0
 461 0002 8369     		ldr	r3, [r0, #24]
 462              		.loc 1 219 0
 463 0004 0446     		mov	r4, r0
 464 0006 0D46     		mov	r5, r1
 465              		.loc 1 224 0
 466 0008 3BB1     		cbz	r3, .L18
 467              		.loc 1 226 0
 468 000a 2946     		mov	r1, r5
 469              	.LVL40:
 470 000c 04F11000 		add	r0, r4, #16
 471              	.LVL41:
 472 0010 FFF7FEFF 		bl	chIQPutI
 473              	.LVL42:
 474 0014 0028     		cmp	r0, #0
 475 0016 0FDB     		blt	.L19
 476              	.L14:
 477 0018 38BD     		pop	{r3, r4, r5, pc}
 478              	.LVL43:
 479              	.L18:
 480              		.loc 1 225 0
 481 001a 8268     		ldr	r2, [r0, #8]
 482 001c 1946     		mov	r1, r3
 483              	.LVL44:
 484 001e 42F00402 		orr	r2, r2, #4
 485 0022 8260     		str	r2, [r0, #8]
 486 0024 0430     		adds	r0, r0, #4
 487              	.LVL45:
 488 0026 FFF7FEFF 		bl	chEvtBroadcastFlagsI
 489              	.LVL46:
 490              		.loc 1 226 0
 491 002a 2946     		mov	r1, r5
 492 002c 04F11000 		add	r0, r4, #16
 493 0030 FFF7FEFF 		bl	chIQPutI
 494              	.LVL47:
 495 0034 0028     		cmp	r0, #0
ARM GAS  /tmp/ccDEJPNx.s 			page 10


 496 0036 EFDA     		bge	.L14
 497              	.L19:
 498              		.loc 1 227 0
 499 0038 A368     		ldr	r3, [r4, #8]
 500 003a 201D     		adds	r0, r4, #4
 501 003c 43F08003 		orr	r3, r3, #128
 502 0040 A360     		str	r3, [r4, #8]
 503 0042 0021     		movs	r1, #0
 504              		.loc 1 228 0
 505 0044 BDE83840 		pop	{r3, r4, r5, lr}
 506              	.LVL48:
 507              		.loc 1 227 0
 508 0048 FFF7FEBF 		b	chEvtBroadcastFlagsI
 509              	.LVL49:
 510              		.cfi_endproc
 511              	.LFE49:
 512              		.size	sdIncomingDataI, .-sdIncomingDataI
 513 004c AFF30080 		.section	.text.sdRequestDataI,"ax",%progbits
 514              		.align	2
 515              		.p2align 4,,15
 516              		.global	sdRequestDataI
 517              		.thumb
 518              		.thumb_func
 519              		.type	sdRequestDataI, %function
 520              	sdRequestDataI:
 521              	.LFB50:
 522              		.loc 1 245 0
 523              		.cfi_startproc
 524              		@ args = 0, pretend = 0, frame = 0
 525              		@ frame_needed = 0, uses_anonymous_args = 0
 526              	.LVL50:
 527 0000 38B5     		push	{r3, r4, r5, lr}
 528              		.cfi_def_cfa_offset 16
 529              		.cfi_offset 3, -16
 530              		.cfi_offset 4, -12
 531              		.cfi_offset 5, -8
 532              		.cfi_offset 14, -4
 533              		.loc 1 245 0
 534 0002 0446     		mov	r4, r0
 535              		.loc 1 251 0
 536 0004 3030     		adds	r0, r0, #48
 537              	.LVL51:
 538 0006 FFF7FEFF 		bl	chOQGetI
 539              	.LVL52:
 540              		.loc 1 252 0
 541 000a 051E     		subs	r5, r0, #0
 542 000c 01DB     		blt	.L22
 543              		.loc 1 255 0
 544 000e 2846     		mov	r0, r5
 545 0010 38BD     		pop	{r3, r4, r5, pc}
 546              	.LVL53:
 547              	.L22:
 548              		.loc 1 253 0
 549 0012 A368     		ldr	r3, [r4, #8]
 550 0014 201D     		adds	r0, r4, #4
 551              	.LVL54:
 552 0016 43F00803 		orr	r3, r3, #8
ARM GAS  /tmp/ccDEJPNx.s 			page 11


 553 001a A360     		str	r3, [r4, #8]
 554 001c 0021     		movs	r1, #0
 555 001e FFF7FEFF 		bl	chEvtBroadcastFlagsI
 556              	.LVL55:
 557              		.loc 1 255 0
 558 0022 2846     		mov	r0, r5
 559 0024 38BD     		pop	{r3, r4, r5, pc}
 560              		.cfi_endproc
 561              	.LFE50:
 562              		.size	sdRequestDataI, .-sdRequestDataI
 563 0026 00BFAFF3 		.section	.rodata.vmt,"a",%progbits
 563      0080AFF3 
 563      0080
 564              		.align	2
 565              		.set	.LANCHOR0,. + 0
 566              		.type	vmt, %object
 567              		.size	vmt, 36
 568              	vmt:
 569 0000 00000000 		.word	writes
 570 0004 00000000 		.word	reads
 571 0008 00000000 		.word	putwouldblock
 572 000c 00000000 		.word	getwouldblock
 573 0010 00000000 		.word	putt
 574 0014 00000000 		.word	gett
 575 0018 00000000 		.word	writet
 576 001c 00000000 		.word	readt
 577 0020 00000000 		.word	getflags
 578              		.text
 579              	.Letext0:
 580              		.file 2 "/home/santi/arm-2013.11/lib/gcc/arm-none-eabi/4.8.1/include/stddef.h"
 581              		.file 3 "/home/santi/arm-2013.11/arm-none-eabi/include/stdint.h"
 582              		.file 4 "../third_party/ChibiOS/os/ports/GCC/ARMCMx/chtypes.h"
 583              		.file 5 "../third_party/ChibiOS/os/kernel/include/chlists.h"
 584              		.file 6 "../third_party/ChibiOS/os/kernel/include/chthreads.h"
 585              		.file 7 "../third_party/ChibiOS/os/ports/GCC/ARMCMx/chcore_v7m.h"
 586              		.file 8 "../third_party/ChibiOS/os/kernel/include/chmtx.h"
 587              		.file 9 "../third_party/ChibiOS/os/kernel/include/chevents.h"
 588              		.file 10 "../third_party/ChibiOS/os/kernel/include/chqueues.h"
 589              		.file 11 "../third_party/ChibiOS/os/kernel/include/chioch.h"
 590              		.file 12 "../third_party/ChibiOS/os/hal/platforms/AT91SAM3S/at91lib/SAM3S.h"
 591              		.file 13 "../third_party/ChibiOS/os/hal/include/serial.h"
 592              		.file 14 "../third_party/ChibiOS/os/hal/platforms/AT91SAM3S/serial_lld.h"
 593              		.file 15 "../third_party/ChibiOS/os/kernel/include/chschd.h"
 594              		.file 16 "../third_party/ChibiOS/os/hal/platforms/AT91SAM3S/core_cm3.h"
 595              		.section	.debug_info,"",%progbits
 596              	.Ldebug_info0:
 597 0000 C4100000 		.4byte	0x10c4
 598 0004 0400     		.2byte	0x4
 599 0006 00000000 		.4byte	.Ldebug_abbrev0
 600 000a 04       		.byte	0x4
 601 000b 01       		.uleb128 0x1
 602 000c 6D000000 		.4byte	.LASF152
 603 0010 01       		.byte	0x1
 604 0011 26000000 		.4byte	.LASF153
 605 0015 F2030000 		.4byte	.LASF154
 606 0019 48000000 		.4byte	.Ldebug_ranges0+0x48
 607 001d 00000000 		.4byte	0
ARM GAS  /tmp/ccDEJPNx.s 			page 12


 608 0021 00000000 		.4byte	.Ldebug_line0
 609 0025 02       		.uleb128 0x2
 610 0026 04       		.byte	0x4
 611 0027 05       		.byte	0x5
 612 0028 696E7400 		.ascii	"int\000"
 613 002c 03       		.uleb128 0x3
 614 002d 18000000 		.4byte	.LASF2
 615 0031 02       		.byte	0x2
 616 0032 D4       		.byte	0xd4
 617 0033 37000000 		.4byte	0x37
 618 0037 04       		.uleb128 0x4
 619 0038 04       		.byte	0x4
 620 0039 07       		.byte	0x7
 621 003a 76020000 		.4byte	.LASF0
 622 003e 04       		.uleb128 0x4
 623 003f 01       		.byte	0x1
 624 0040 06       		.byte	0x6
 625 0041 85010000 		.4byte	.LASF1
 626 0045 03       		.uleb128 0x3
 627 0046 52060000 		.4byte	.LASF3
 628 004a 03       		.byte	0x3
 629 004b 2A       		.byte	0x2a
 630 004c 50000000 		.4byte	0x50
 631 0050 04       		.uleb128 0x4
 632 0051 01       		.byte	0x1
 633 0052 08       		.byte	0x8
 634 0053 A0040000 		.4byte	.LASF4
 635 0057 04       		.uleb128 0x4
 636 0058 02       		.byte	0x2
 637 0059 05       		.byte	0x5
 638 005a D9040000 		.4byte	.LASF5
 639 005e 04       		.uleb128 0x4
 640 005f 02       		.byte	0x2
 641 0060 07       		.byte	0x7
 642 0061 E2020000 		.4byte	.LASF6
 643 0065 03       		.uleb128 0x3
 644 0066 98040000 		.4byte	.LASF7
 645 006a 03       		.byte	0x3
 646 006b 4F       		.byte	0x4f
 647 006c 70000000 		.4byte	0x70
 648 0070 04       		.uleb128 0x4
 649 0071 04       		.byte	0x4
 650 0072 05       		.byte	0x5
 651 0073 B8010000 		.4byte	.LASF8
 652 0077 03       		.uleb128 0x3
 653 0078 40050000 		.4byte	.LASF9
 654 007c 03       		.byte	0x3
 655 007d 50       		.byte	0x50
 656 007e 82000000 		.4byte	0x82
 657 0082 04       		.uleb128 0x4
 658 0083 04       		.byte	0x4
 659 0084 07       		.byte	0x7
 660 0085 71050000 		.4byte	.LASF10
 661 0089 04       		.uleb128 0x4
 662 008a 08       		.byte	0x8
 663 008b 05       		.byte	0x5
 664 008c 77010000 		.4byte	.LASF11
ARM GAS  /tmp/ccDEJPNx.s 			page 13


 665 0090 04       		.uleb128 0x4
 666 0091 08       		.byte	0x8
 667 0092 07       		.byte	0x7
 668 0093 1E010000 		.4byte	.LASF12
 669 0097 03       		.uleb128 0x3
 670 0098 73040000 		.4byte	.LASF13
 671 009c 03       		.byte	0x3
 672 009d A6       		.byte	0xa6
 673 009e 37000000 		.4byte	0x37
 674 00a2 03       		.uleb128 0x3
 675 00a3 A3010000 		.4byte	.LASF14
 676 00a7 04       		.byte	0x4
 677 00a8 2E       		.byte	0x2e
 678 00a9 65000000 		.4byte	0x65
 679 00ad 03       		.uleb128 0x3
 680 00ae F9040000 		.4byte	.LASF15
 681 00b2 04       		.byte	0x4
 682 00b3 2F       		.byte	0x2f
 683 00b4 45000000 		.4byte	0x45
 684 00b8 03       		.uleb128 0x3
 685 00b9 C1010000 		.4byte	.LASF16
 686 00bd 04       		.byte	0x4
 687 00be 30       		.byte	0x30
 688 00bf 45000000 		.4byte	0x45
 689 00c3 03       		.uleb128 0x3
 690 00c4 6B040000 		.4byte	.LASF17
 691 00c8 04       		.byte	0x4
 692 00c9 31       		.byte	0x31
 693 00ca 45000000 		.4byte	0x45
 694 00ce 03       		.uleb128 0x3
 695 00cf 88040000 		.4byte	.LASF18
 696 00d3 04       		.byte	0x4
 697 00d4 32       		.byte	0x32
 698 00d5 77000000 		.4byte	0x77
 699 00d9 03       		.uleb128 0x3
 700 00da F5020000 		.4byte	.LASF19
 701 00de 04       		.byte	0x4
 702 00df 33       		.byte	0x33
 703 00e0 65000000 		.4byte	0x65
 704 00e4 03       		.uleb128 0x3
 705 00e5 3B030000 		.4byte	.LASF20
 706 00e9 04       		.byte	0x4
 707 00ea 35       		.byte	0x35
 708 00eb 77000000 		.4byte	0x77
 709 00ef 03       		.uleb128 0x3
 710 00f0 B3050000 		.4byte	.LASF21
 711 00f4 04       		.byte	0x4
 712 00f5 36       		.byte	0x36
 713 00f6 77000000 		.4byte	0x77
 714 00fa 03       		.uleb128 0x3
 715 00fb 1B050000 		.4byte	.LASF22
 716 00ff 05       		.byte	0x5
 717 0100 2A       		.byte	0x2a
 718 0101 05010000 		.4byte	0x105
 719 0105 05       		.uleb128 0x5
 720 0106 1B050000 		.4byte	.LASF22
 721 010a 48       		.byte	0x48
ARM GAS  /tmp/ccDEJPNx.s 			page 14


 722 010b 06       		.byte	0x6
 723 010c 5E       		.byte	0x5e
 724 010d F6010000 		.4byte	0x1f6
 725 0111 06       		.uleb128 0x6
 726 0112 F2040000 		.4byte	.LASF23
 727 0116 06       		.byte	0x6
 728 0117 5F       		.byte	0x5f
 729 0118 17020000 		.4byte	0x217
 730 011c 00       		.byte	0
 731 011d 06       		.uleb128 0x6
 732 011e 81040000 		.4byte	.LASF24
 733 0122 06       		.byte	0x6
 734 0123 61       		.byte	0x61
 735 0124 17020000 		.4byte	0x217
 736 0128 04       		.byte	0x4
 737 0129 06       		.uleb128 0x6
 738 012a 68060000 		.4byte	.LASF25
 739 012e 06       		.byte	0x6
 740 012f 63       		.byte	0x63
 741 0130 CE000000 		.4byte	0xce
 742 0134 08       		.byte	0x8
 743 0135 06       		.uleb128 0x6
 744 0136 BB060000 		.4byte	.LASF26
 745 013a 06       		.byte	0x6
 746 013b 64       		.byte	0x64
 747 013c D0020000 		.4byte	0x2d0
 748 0140 0C       		.byte	0xc
 749 0141 06       		.uleb128 0x6
 750 0142 07020000 		.4byte	.LASF27
 751 0146 06       		.byte	0x6
 752 0147 66       		.byte	0x66
 753 0148 17020000 		.4byte	0x217
 754 014c 10       		.byte	0x10
 755 014d 06       		.uleb128 0x6
 756 014e E3040000 		.4byte	.LASF28
 757 0152 06       		.byte	0x6
 758 0153 67       		.byte	0x67
 759 0154 17020000 		.4byte	0x217
 760 0158 14       		.byte	0x14
 761 0159 06       		.uleb128 0x6
 762 015a 25060000 		.4byte	.LASF29
 763 015e 06       		.byte	0x6
 764 015f 6E       		.byte	0x6e
 765 0160 DF030000 		.4byte	0x3df
 766 0164 18       		.byte	0x18
 767 0165 06       		.uleb128 0x6
 768 0166 C7040000 		.4byte	.LASF30
 769 016a 06       		.byte	0x6
 770 016b 79       		.byte	0x79
 771 016c B8000000 		.4byte	0xb8
 772 0170 1C       		.byte	0x1c
 773 0171 06       		.uleb128 0x6
 774 0172 01050000 		.4byte	.LASF31
 775 0176 06       		.byte	0x6
 776 0177 7D       		.byte	0x7d
 777 0178 AD000000 		.4byte	0xad
 778 017c 1D       		.byte	0x1d
ARM GAS  /tmp/ccDEJPNx.s 			page 15


 779 017d 06       		.uleb128 0x6
 780 017e D3010000 		.4byte	.LASF32
 781 0182 06       		.byte	0x6
 782 0183 82       		.byte	0x82
 783 0184 C3000000 		.4byte	0xc3
 784 0188 1E       		.byte	0x1e
 785 0189 06       		.uleb128 0x6
 786 018a EB010000 		.4byte	.LASF33
 787 018e 06       		.byte	0x6
 788 018f 89       		.byte	0x89
 789 0190 FD020000 		.4byte	0x2fd
 790 0194 20       		.byte	0x20
 791 0195 07       		.uleb128 0x7
 792 0196 705F7500 		.ascii	"p_u\000"
 793 019a 06       		.byte	0x6
 794 019b AE       		.byte	0xae
 795 019c AA030000 		.4byte	0x3aa
 796 01a0 24       		.byte	0x24
 797 01a1 06       		.uleb128 0x6
 798 01a2 C1060000 		.4byte	.LASF34
 799 01a6 06       		.byte	0x6
 800 01a7 B3       		.byte	0xb3
 801 01a8 3D020000 		.4byte	0x23d
 802 01ac 28       		.byte	0x28
 803 01ad 06       		.uleb128 0x6
 804 01ae AD020000 		.4byte	.LASF35
 805 01b2 06       		.byte	0x6
 806 01b3 B9       		.byte	0xb9
 807 01b4 1D020000 		.4byte	0x21d
 808 01b8 2C       		.byte	0x2c
 809 01b9 06       		.uleb128 0x6
 810 01ba 3D060000 		.4byte	.LASF36
 811 01be 06       		.byte	0x6
 812 01bf BD       		.byte	0xbd
 813 01c0 D9000000 		.4byte	0xd9
 814 01c4 34       		.byte	0x34
 815 01c5 06       		.uleb128 0x6
 816 01c6 2B050000 		.4byte	.LASF37
 817 01ca 06       		.byte	0x6
 818 01cb C3       		.byte	0xc3
 819 01cc E4000000 		.4byte	0xe4
 820 01d0 38       		.byte	0x38
 821 01d1 06       		.uleb128 0x6
 822 01d2 CF040000 		.4byte	.LASF38
 823 01d6 06       		.byte	0x6
 824 01d7 CA       		.byte	0xca
 825 01d8 F1030000 		.4byte	0x3f1
 826 01dc 3C       		.byte	0x3c
 827 01dd 06       		.uleb128 0x6
 828 01de BD050000 		.4byte	.LASF39
 829 01e2 06       		.byte	0x6
 830 01e3 CE       		.byte	0xce
 831 01e4 CE000000 		.4byte	0xce
 832 01e8 40       		.byte	0x40
 833 01e9 06       		.uleb128 0x6
 834 01ea 9B010000 		.4byte	.LASF40
 835 01ee 06       		.byte	0x6
ARM GAS  /tmp/ccDEJPNx.s 			page 16


 836 01ef D4       		.byte	0xd4
 837 01f0 53020000 		.4byte	0x253
 838 01f4 44       		.byte	0x44
 839 01f5 00       		.byte	0
 840 01f6 08       		.uleb128 0x8
 841 01f7 08       		.byte	0x8
 842 01f8 05       		.byte	0x5
 843 01f9 61       		.byte	0x61
 844 01fa 17020000 		.4byte	0x217
 845 01fe 06       		.uleb128 0x6
 846 01ff F2040000 		.4byte	.LASF23
 847 0203 05       		.byte	0x5
 848 0204 62       		.byte	0x62
 849 0205 17020000 		.4byte	0x217
 850 0209 00       		.byte	0
 851 020a 06       		.uleb128 0x6
 852 020b 81040000 		.4byte	.LASF24
 853 020f 05       		.byte	0x5
 854 0210 64       		.byte	0x64
 855 0211 17020000 		.4byte	0x217
 856 0215 04       		.byte	0x4
 857 0216 00       		.byte	0
 858 0217 09       		.uleb128 0x9
 859 0218 04       		.byte	0x4
 860 0219 FA000000 		.4byte	0xfa
 861 021d 03       		.uleb128 0x3
 862 021e 7A030000 		.4byte	.LASF41
 863 0222 05       		.byte	0x5
 864 0223 66       		.byte	0x66
 865 0224 F6010000 		.4byte	0x1f6
 866 0228 08       		.uleb128 0x8
 867 0229 04       		.byte	0x4
 868 022a 05       		.byte	0x5
 869 022b 6B       		.byte	0x6b
 870 022c 3D020000 		.4byte	0x23d
 871 0230 06       		.uleb128 0x6
 872 0231 F2040000 		.4byte	.LASF23
 873 0235 05       		.byte	0x5
 874 0236 6D       		.byte	0x6d
 875 0237 17020000 		.4byte	0x217
 876 023b 00       		.byte	0
 877 023c 00       		.byte	0
 878 023d 03       		.uleb128 0x3
 879 023e 2F030000 		.4byte	.LASF42
 880 0242 05       		.byte	0x5
 881 0243 70       		.byte	0x70
 882 0244 28020000 		.4byte	0x228
 883 0248 03       		.uleb128 0x3
 884 0249 3D020000 		.4byte	.LASF43
 885 024d 07       		.byte	0x7
 886 024e D7       		.byte	0xd7
 887 024f 53020000 		.4byte	0x253
 888 0253 0A       		.uleb128 0xa
 889 0254 04       		.byte	0x4
 890 0255 05       		.uleb128 0x5
 891 0256 0D060000 		.4byte	.LASF44
 892 025a 24       		.byte	0x24
ARM GAS  /tmp/ccDEJPNx.s 			page 17


 893 025b 07       		.byte	0x7
 894 025c FE       		.byte	0xfe
 895 025d D0020000 		.4byte	0x2d0
 896 0261 0B       		.uleb128 0xb
 897 0262 723400   		.ascii	"r4\000"
 898 0265 07       		.byte	0x7
 899 0266 1101     		.2byte	0x111
 900 0268 48020000 		.4byte	0x248
 901 026c 00       		.byte	0
 902 026d 0B       		.uleb128 0xb
 903 026e 723500   		.ascii	"r5\000"
 904 0271 07       		.byte	0x7
 905 0272 1201     		.2byte	0x112
 906 0274 48020000 		.4byte	0x248
 907 0278 04       		.byte	0x4
 908 0279 0B       		.uleb128 0xb
 909 027a 723600   		.ascii	"r6\000"
 910 027d 07       		.byte	0x7
 911 027e 1301     		.2byte	0x113
 912 0280 48020000 		.4byte	0x248
 913 0284 08       		.byte	0x8
 914 0285 0B       		.uleb128 0xb
 915 0286 723700   		.ascii	"r7\000"
 916 0289 07       		.byte	0x7
 917 028a 1401     		.2byte	0x114
 918 028c 48020000 		.4byte	0x248
 919 0290 0C       		.byte	0xc
 920 0291 0B       		.uleb128 0xb
 921 0292 723800   		.ascii	"r8\000"
 922 0295 07       		.byte	0x7
 923 0296 1501     		.2byte	0x115
 924 0298 48020000 		.4byte	0x248
 925 029c 10       		.byte	0x10
 926 029d 0B       		.uleb128 0xb
 927 029e 723900   		.ascii	"r9\000"
 928 02a1 07       		.byte	0x7
 929 02a2 1601     		.2byte	0x116
 930 02a4 48020000 		.4byte	0x248
 931 02a8 14       		.byte	0x14
 932 02a9 0B       		.uleb128 0xb
 933 02aa 72313000 		.ascii	"r10\000"
 934 02ae 07       		.byte	0x7
 935 02af 1701     		.2byte	0x117
 936 02b1 48020000 		.4byte	0x248
 937 02b5 18       		.byte	0x18
 938 02b6 0B       		.uleb128 0xb
 939 02b7 72313100 		.ascii	"r11\000"
 940 02bb 07       		.byte	0x7
 941 02bc 1801     		.2byte	0x118
 942 02be 48020000 		.4byte	0x248
 943 02c2 1C       		.byte	0x1c
 944 02c3 0B       		.uleb128 0xb
 945 02c4 6C7200   		.ascii	"lr\000"
 946 02c7 07       		.byte	0x7
 947 02c8 1901     		.2byte	0x119
 948 02ca 48020000 		.4byte	0x248
 949 02ce 20       		.byte	0x20
ARM GAS  /tmp/ccDEJPNx.s 			page 18


 950 02cf 00       		.byte	0
 951 02d0 0C       		.uleb128 0xc
 952 02d1 EE050000 		.4byte	.LASF45
 953 02d5 04       		.byte	0x4
 954 02d6 07       		.byte	0x7
 955 02d7 2301     		.2byte	0x123
 956 02d9 EB020000 		.4byte	0x2eb
 957 02dd 0B       		.uleb128 0xb
 958 02de 72313300 		.ascii	"r13\000"
 959 02e2 07       		.byte	0x7
 960 02e3 2401     		.2byte	0x124
 961 02e5 EB020000 		.4byte	0x2eb
 962 02e9 00       		.byte	0
 963 02ea 00       		.byte	0
 964 02eb 09       		.uleb128 0x9
 965 02ec 04       		.byte	0x4
 966 02ed 55020000 		.4byte	0x255
 967 02f1 0D       		.uleb128 0xd
 968 02f2 77000000 		.4byte	0x77
 969 02f6 04       		.uleb128 0x4
 970 02f7 04       		.byte	0x4
 971 02f8 07       		.byte	0x7
 972 02f9 A4030000 		.4byte	.LASF46
 973 02fd 0D       		.uleb128 0xd
 974 02fe EF000000 		.4byte	0xef
 975 0302 05       		.uleb128 0x5
 976 0303 C1030000 		.4byte	.LASF47
 977 0307 10       		.byte	0x10
 978 0308 08       		.byte	0x8
 979 0309 2C       		.byte	0x2c
 980 030a 33030000 		.4byte	0x333
 981 030e 06       		.uleb128 0x6
 982 030f AA010000 		.4byte	.LASF48
 983 0313 08       		.byte	0x8
 984 0314 2D       		.byte	0x2d
 985 0315 1D020000 		.4byte	0x21d
 986 0319 00       		.byte	0
 987 031a 06       		.uleb128 0x6
 988 031b B3060000 		.4byte	.LASF49
 989 031f 08       		.byte	0x8
 990 0320 2F       		.byte	0x2f
 991 0321 17020000 		.4byte	0x217
 992 0325 08       		.byte	0x8
 993 0326 06       		.uleb128 0x6
 994 0327 AC050000 		.4byte	.LASF50
 995 032b 08       		.byte	0x8
 996 032c 31       		.byte	0x31
 997 032d 33030000 		.4byte	0x333
 998 0331 0C       		.byte	0xc
 999 0332 00       		.byte	0
 1000 0333 09       		.uleb128 0x9
 1001 0334 04       		.byte	0x4
 1002 0335 02030000 		.4byte	0x302
 1003 0339 03       		.uleb128 0x3
 1004 033a C1030000 		.4byte	.LASF47
 1005 033e 08       		.byte	0x8
 1006 033f 33       		.byte	0x33
ARM GAS  /tmp/ccDEJPNx.s 			page 19


 1007 0340 02030000 		.4byte	0x302
 1008 0344 03       		.uleb128 0x3
 1009 0345 F6050000 		.4byte	.LASF51
 1010 0349 09       		.byte	0x9
 1011 034a 29       		.byte	0x29
 1012 034b 4F030000 		.4byte	0x34f
 1013 034f 05       		.uleb128 0x5
 1014 0350 F6050000 		.4byte	.LASF51
 1015 0354 0C       		.byte	0xc
 1016 0355 09       		.byte	0x9
 1017 0356 2E       		.byte	0x2e
 1018 0357 80030000 		.4byte	0x380
 1019 035b 06       		.uleb128 0x6
 1020 035c 02030000 		.4byte	.LASF52
 1021 0360 09       		.byte	0x9
 1022 0361 2F       		.byte	0x2f
 1023 0362 80030000 		.4byte	0x380
 1024 0366 00       		.byte	0
 1025 0367 06       		.uleb128 0x6
 1026 0368 BB040000 		.4byte	.LASF53
 1027 036c 09       		.byte	0x9
 1028 036d 32       		.byte	0x32
 1029 036e 17020000 		.4byte	0x217
 1030 0372 04       		.byte	0x4
 1031 0373 06       		.uleb128 0x6
 1032 0374 92030000 		.4byte	.LASF54
 1033 0378 09       		.byte	0x9
 1034 0379 34       		.byte	0x34
 1035 037a E4000000 		.4byte	0xe4
 1036 037e 08       		.byte	0x8
 1037 037f 00       		.byte	0
 1038 0380 09       		.uleb128 0x9
 1039 0381 04       		.byte	0x4
 1040 0382 44030000 		.4byte	0x344
 1041 0386 05       		.uleb128 0x5
 1042 0387 4F020000 		.4byte	.LASF55
 1043 038b 04       		.byte	0x4
 1044 038c 09       		.byte	0x9
 1045 038d 3C       		.byte	0x3c
 1046 038e 9F030000 		.4byte	0x39f
 1047 0392 06       		.uleb128 0x6
 1048 0393 2C060000 		.4byte	.LASF56
 1049 0397 09       		.byte	0x9
 1050 0398 3D       		.byte	0x3d
 1051 0399 80030000 		.4byte	0x380
 1052 039d 00       		.byte	0
 1053 039e 00       		.byte	0
 1054 039f 03       		.uleb128 0x3
 1055 03a0 4F020000 		.4byte	.LASF55
 1056 03a4 09       		.byte	0x9
 1057 03a5 40       		.byte	0x40
 1058 03a6 86030000 		.4byte	0x386
 1059 03aa 0E       		.uleb128 0xe
 1060 03ab 04       		.byte	0x4
 1061 03ac 06       		.byte	0x6
 1062 03ad 90       		.byte	0x90
 1063 03ae DF030000 		.4byte	0x3df
ARM GAS  /tmp/ccDEJPNx.s 			page 20


 1064 03b2 0F       		.uleb128 0xf
 1065 03b3 1F000000 		.4byte	.LASF57
 1066 03b7 06       		.byte	0x6
 1067 03b8 97       		.byte	0x97
 1068 03b9 D9000000 		.4byte	0xd9
 1069 03bd 0F       		.uleb128 0xf
 1070 03be 3E010000 		.4byte	.LASF58
 1071 03c2 06       		.byte	0x6
 1072 03c3 9E       		.byte	0x9e
 1073 03c4 D9000000 		.4byte	0xd9
 1074 03c8 0F       		.uleb128 0xf
 1075 03c9 7A060000 		.4byte	.LASF59
 1076 03cd 06       		.byte	0x6
 1077 03ce A5       		.byte	0xa5
 1078 03cf 53020000 		.4byte	0x253
 1079 03d3 0F       		.uleb128 0xf
 1080 03d4 EB040000 		.4byte	.LASF60
 1081 03d8 06       		.byte	0x6
 1082 03d9 AC       		.byte	0xac
 1083 03da E4000000 		.4byte	0xe4
 1084 03de 00       		.byte	0
 1085 03df 09       		.uleb128 0x9
 1086 03e0 04       		.byte	0x4
 1087 03e1 E5030000 		.4byte	0x3e5
 1088 03e5 10       		.uleb128 0x10
 1089 03e6 EA030000 		.4byte	0x3ea
 1090 03ea 04       		.uleb128 0x4
 1091 03eb 01       		.byte	0x1
 1092 03ec 08       		.byte	0x8
 1093 03ed 88050000 		.4byte	.LASF61
 1094 03f1 09       		.uleb128 0x9
 1095 03f2 04       		.byte	0x4
 1096 03f3 39030000 		.4byte	0x339
 1097 03f7 03       		.uleb128 0x3
 1098 03f8 5C030000 		.4byte	.LASF62
 1099 03fc 0A       		.byte	0xa
 1100 03fd 37       		.byte	0x37
 1101 03fe 02040000 		.4byte	0x402
 1102 0402 05       		.uleb128 0x5
 1103 0403 5C030000 		.4byte	.LASF62
 1104 0407 20       		.byte	0x20
 1105 0408 0A       		.byte	0xa
 1106 0409 45       		.byte	0x45
 1107 040a 63040000 		.4byte	0x463
 1108 040e 06       		.uleb128 0x6
 1109 040f 6D010000 		.4byte	.LASF63
 1110 0413 0A       		.byte	0xa
 1111 0414 46       		.byte	0x46
 1112 0415 1D020000 		.4byte	0x21d
 1113 0419 00       		.byte	0
 1114 041a 06       		.uleb128 0x6
 1115 041b B7030000 		.4byte	.LASF64
 1116 041f 0A       		.byte	0xa
 1117 0420 47       		.byte	0x47
 1118 0421 2C000000 		.4byte	0x2c
 1119 0425 08       		.byte	0x8
 1120 0426 06       		.uleb128 0x6
ARM GAS  /tmp/ccDEJPNx.s 			page 21


 1121 0427 DA010000 		.4byte	.LASF65
 1122 042b 0A       		.byte	0xa
 1123 042c 48       		.byte	0x48
 1124 042d 85040000 		.4byte	0x485
 1125 0431 0C       		.byte	0xc
 1126 0432 06       		.uleb128 0x6
 1127 0433 1F060000 		.4byte	.LASF66
 1128 0437 0A       		.byte	0xa
 1129 0438 49       		.byte	0x49
 1130 0439 85040000 		.4byte	0x485
 1131 043d 10       		.byte	0x10
 1132 043e 06       		.uleb128 0x6
 1133 043f E3010000 		.4byte	.LASF67
 1134 0443 0A       		.byte	0xa
 1135 0444 4B       		.byte	0x4b
 1136 0445 85040000 		.4byte	0x485
 1137 0449 14       		.byte	0x14
 1138 044a 06       		.uleb128 0x6
 1139 044b 90040000 		.4byte	.LASF68
 1140 044f 0A       		.byte	0xa
 1141 0450 4C       		.byte	0x4c
 1142 0451 85040000 		.4byte	0x485
 1143 0455 18       		.byte	0x18
 1144 0456 06       		.uleb128 0x6
 1145 0457 34060000 		.4byte	.LASF69
 1146 045b 0A       		.byte	0xa
 1147 045c 4D       		.byte	0x4d
 1148 045d 63040000 		.4byte	0x463
 1149 0461 1C       		.byte	0x1c
 1150 0462 00       		.byte	0
 1151 0463 03       		.uleb128 0x3
 1152 0464 52030000 		.4byte	.LASF70
 1153 0468 0A       		.byte	0xa
 1154 0469 3A       		.byte	0x3a
 1155 046a 6E040000 		.4byte	0x46e
 1156 046e 09       		.uleb128 0x9
 1157 046f 04       		.byte	0x4
 1158 0470 74040000 		.4byte	0x474
 1159 0474 11       		.uleb128 0x11
 1160 0475 7F040000 		.4byte	0x47f
 1161 0479 12       		.uleb128 0x12
 1162 047a 7F040000 		.4byte	0x47f
 1163 047e 00       		.byte	0
 1164 047f 09       		.uleb128 0x9
 1165 0480 04       		.byte	0x4
 1166 0481 F7030000 		.4byte	0x3f7
 1167 0485 09       		.uleb128 0x9
 1168 0486 04       		.byte	0x4
 1169 0487 45000000 		.4byte	0x45
 1170 048b 03       		.uleb128 0x3
 1171 048c 47030000 		.4byte	.LASF71
 1172 0490 0A       		.byte	0xa
 1173 0491 76       		.byte	0x76
 1174 0492 F7030000 		.4byte	0x3f7
 1175 0496 03       		.uleb128 0x3
 1176 0497 51000000 		.4byte	.LASF72
 1177 049b 0A       		.byte	0xa
ARM GAS  /tmp/ccDEJPNx.s 			page 22


 1178 049c E6       		.byte	0xe6
 1179 049d F7030000 		.4byte	0x3f7
 1180 04a1 13       		.uleb128 0x13
 1181 04a2 2C000000 		.4byte	0x2c
 1182 04a6 BA040000 		.4byte	0x4ba
 1183 04aa 12       		.uleb128 0x12
 1184 04ab 53020000 		.4byte	0x253
 1185 04af 12       		.uleb128 0x12
 1186 04b0 BA040000 		.4byte	0x4ba
 1187 04b4 12       		.uleb128 0x12
 1188 04b5 2C000000 		.4byte	0x2c
 1189 04b9 00       		.byte	0
 1190 04ba 09       		.uleb128 0x9
 1191 04bb 04       		.byte	0x4
 1192 04bc C0040000 		.4byte	0x4c0
 1193 04c0 10       		.uleb128 0x10
 1194 04c1 45000000 		.4byte	0x45
 1195 04c5 09       		.uleb128 0x9
 1196 04c6 04       		.byte	0x4
 1197 04c7 A1040000 		.4byte	0x4a1
 1198 04cb 13       		.uleb128 0x13
 1199 04cc 2C000000 		.4byte	0x2c
 1200 04d0 E4040000 		.4byte	0x4e4
 1201 04d4 12       		.uleb128 0x12
 1202 04d5 53020000 		.4byte	0x253
 1203 04d9 12       		.uleb128 0x12
 1204 04da 85040000 		.4byte	0x485
 1205 04de 12       		.uleb128 0x12
 1206 04df 2C000000 		.4byte	0x2c
 1207 04e3 00       		.byte	0
 1208 04e4 09       		.uleb128 0x9
 1209 04e5 04       		.byte	0x4
 1210 04e6 CB040000 		.4byte	0x4cb
 1211 04ea 13       		.uleb128 0x13
 1212 04eb A2000000 		.4byte	0xa2
 1213 04ef F9040000 		.4byte	0x4f9
 1214 04f3 12       		.uleb128 0x12
 1215 04f4 53020000 		.4byte	0x253
 1216 04f8 00       		.byte	0
 1217 04f9 09       		.uleb128 0x9
 1218 04fa 04       		.byte	0x4
 1219 04fb EA040000 		.4byte	0x4ea
 1220 04ff 13       		.uleb128 0x13
 1221 0500 D9000000 		.4byte	0xd9
 1222 0504 18050000 		.4byte	0x518
 1223 0508 12       		.uleb128 0x12
 1224 0509 53020000 		.4byte	0x253
 1225 050d 12       		.uleb128 0x12
 1226 050e 45000000 		.4byte	0x45
 1227 0512 12       		.uleb128 0x12
 1228 0513 EF000000 		.4byte	0xef
 1229 0517 00       		.byte	0
 1230 0518 09       		.uleb128 0x9
 1231 0519 04       		.byte	0x4
 1232 051a FF040000 		.4byte	0x4ff
 1233 051e 13       		.uleb128 0x13
 1234 051f D9000000 		.4byte	0xd9
ARM GAS  /tmp/ccDEJPNx.s 			page 23


 1235 0523 32050000 		.4byte	0x532
 1236 0527 12       		.uleb128 0x12
 1237 0528 53020000 		.4byte	0x253
 1238 052c 12       		.uleb128 0x12
 1239 052d EF000000 		.4byte	0xef
 1240 0531 00       		.byte	0
 1241 0532 09       		.uleb128 0x9
 1242 0533 04       		.byte	0x4
 1243 0534 1E050000 		.4byte	0x51e
 1244 0538 13       		.uleb128 0x13
 1245 0539 2C000000 		.4byte	0x2c
 1246 053d 56050000 		.4byte	0x556
 1247 0541 12       		.uleb128 0x12
 1248 0542 53020000 		.4byte	0x253
 1249 0546 12       		.uleb128 0x12
 1250 0547 BA040000 		.4byte	0x4ba
 1251 054b 12       		.uleb128 0x12
 1252 054c 2C000000 		.4byte	0x2c
 1253 0550 12       		.uleb128 0x12
 1254 0551 EF000000 		.4byte	0xef
 1255 0555 00       		.byte	0
 1256 0556 09       		.uleb128 0x9
 1257 0557 04       		.byte	0x4
 1258 0558 38050000 		.4byte	0x538
 1259 055c 13       		.uleb128 0x13
 1260 055d 2C000000 		.4byte	0x2c
 1261 0561 7A050000 		.4byte	0x57a
 1262 0565 12       		.uleb128 0x12
 1263 0566 53020000 		.4byte	0x253
 1264 056a 12       		.uleb128 0x12
 1265 056b 85040000 		.4byte	0x485
 1266 056f 12       		.uleb128 0x12
 1267 0570 2C000000 		.4byte	0x2c
 1268 0574 12       		.uleb128 0x12
 1269 0575 EF000000 		.4byte	0xef
 1270 0579 00       		.byte	0
 1271 057a 09       		.uleb128 0x9
 1272 057b 04       		.byte	0x4
 1273 057c 5C050000 		.4byte	0x55c
 1274 0580 14       		.uleb128 0x14
 1275 0581 E8030000 		.4byte	.LASF73
 1276 0585 0B       		.byte	0xb
 1277 0586 0B01     		.2byte	0x10b
 1278 0588 97000000 		.4byte	0x97
 1279 058c 0C       		.uleb128 0xc
 1280 058d 5B020000 		.4byte	.LASF74
 1281 0591 24       		.byte	0x24
 1282 0592 0B       		.byte	0xb
 1283 0593 2401     		.2byte	0x124
 1284 0595 0F060000 		.4byte	0x60f
 1285 0599 15       		.uleb128 0x15
 1286 059a 87030000 		.4byte	.LASF75
 1287 059e 0B       		.byte	0xb
 1288 059f 2501     		.2byte	0x125
 1289 05a1 C5040000 		.4byte	0x4c5
 1290 05a5 00       		.byte	0
 1291 05a6 15       		.uleb128 0x15
ARM GAS  /tmp/ccDEJPNx.s 			page 24


 1292 05a7 83050000 		.4byte	.LASF76
 1293 05ab 0B       		.byte	0xb
 1294 05ac 2501     		.2byte	0x125
 1295 05ae E4040000 		.4byte	0x4e4
 1296 05b2 04       		.byte	0x4
 1297 05b3 15       		.uleb128 0x15
 1298 05b4 0F020000 		.4byte	.LASF77
 1299 05b8 0B       		.byte	0xb
 1300 05b9 2501     		.2byte	0x125
 1301 05bb F9040000 		.4byte	0x4f9
 1302 05bf 08       		.byte	0x8
 1303 05c0 15       		.uleb128 0x15
 1304 05c1 81060000 		.4byte	.LASF78
 1305 05c5 0B       		.byte	0xb
 1306 05c6 2501     		.2byte	0x125
 1307 05c8 F9040000 		.4byte	0x4f9
 1308 05cc 0C       		.byte	0xc
 1309 05cd 0B       		.uleb128 0xb
 1310 05ce 70757400 		.ascii	"put\000"
 1311 05d2 0B       		.byte	0xb
 1312 05d3 2501     		.2byte	0x125
 1313 05d5 18050000 		.4byte	0x518
 1314 05d9 10       		.byte	0x10
 1315 05da 0B       		.uleb128 0xb
 1316 05db 67657400 		.ascii	"get\000"
 1317 05df 0B       		.byte	0xb
 1318 05e0 2501     		.2byte	0x125
 1319 05e2 32050000 		.4byte	0x532
 1320 05e6 14       		.byte	0x14
 1321 05e7 15       		.uleb128 0x15
 1322 05e8 11030000 		.4byte	.LASF79
 1323 05ec 0B       		.byte	0xb
 1324 05ed 2501     		.2byte	0x125
 1325 05ef 56050000 		.4byte	0x556
 1326 05f3 18       		.byte	0x18
 1327 05f4 15       		.uleb128 0x15
 1328 05f5 67010000 		.4byte	.LASF80
 1329 05f9 0B       		.byte	0xb
 1330 05fa 2501     		.2byte	0x125
 1331 05fc 7A050000 		.4byte	0x57a
 1332 0600 1C       		.byte	0x1c
 1333 0601 15       		.uleb128 0x15
 1334 0602 DF030000 		.4byte	.LASF81
 1335 0606 0B       		.byte	0xb
 1336 0607 2501     		.2byte	0x125
 1337 0609 1E060000 		.4byte	0x61e
 1338 060d 20       		.byte	0x20
 1339 060e 00       		.byte	0
 1340 060f 13       		.uleb128 0x13
 1341 0610 80050000 		.4byte	0x580
 1342 0614 1E060000 		.4byte	0x61e
 1343 0618 12       		.uleb128 0x12
 1344 0619 53020000 		.4byte	0x253
 1345 061d 00       		.byte	0
 1346 061e 09       		.uleb128 0x9
 1347 061f 04       		.byte	0x4
 1348 0620 0F060000 		.4byte	0x60f
ARM GAS  /tmp/ccDEJPNx.s 			page 25


 1349 0624 16       		.uleb128 0x16
 1350 0625 0C       		.byte	0xc
 1351 0626 0B       		.byte	0xb
 1352 0627 2F01     		.2byte	0x12f
 1353 0629 55060000 		.4byte	0x655
 1354 062d 0B       		.uleb128 0xb
 1355 062e 766D7400 		.ascii	"vmt\000"
 1356 0632 0B       		.byte	0xb
 1357 0633 3101     		.2byte	0x131
 1358 0635 55060000 		.4byte	0x655
 1359 0639 00       		.byte	0
 1360 063a 15       		.uleb128 0x15
 1361 063b DC020000 		.4byte	.LASF82
 1362 063f 0B       		.byte	0xb
 1363 0640 3201     		.2byte	0x132
 1364 0642 9F030000 		.4byte	0x39f
 1365 0646 04       		.byte	0x4
 1366 0647 15       		.uleb128 0x15
 1367 0648 5A060000 		.4byte	.LASF83
 1368 064c 0B       		.byte	0xb
 1369 064d 3201     		.2byte	0x132
 1370 064f 80050000 		.4byte	0x580
 1371 0653 08       		.byte	0x8
 1372 0654 00       		.byte	0
 1373 0655 09       		.uleb128 0x9
 1374 0656 04       		.byte	0x4
 1375 0657 5B060000 		.4byte	0x65b
 1376 065b 10       		.uleb128 0x10
 1377 065c 8C050000 		.4byte	0x58c
 1378 0660 14       		.uleb128 0x14
 1379 0661 D6050000 		.4byte	.LASF84
 1380 0665 0B       		.byte	0xb
 1381 0666 3301     		.2byte	0x133
 1382 0668 24060000 		.4byte	0x624
 1383 066c 03       		.uleb128 0x3
 1384 066d 21030000 		.4byte	.LASF85
 1385 0671 0C       		.byte	0xc
 1386 0672 35       		.byte	0x35
 1387 0673 77060000 		.4byte	0x677
 1388 0677 10       		.uleb128 0x10
 1389 0678 F1020000 		.4byte	0x2f1
 1390 067c 03       		.uleb128 0x3
 1391 067d 37040000 		.4byte	.LASF86
 1392 0681 0C       		.byte	0xc
 1393 0682 39       		.byte	0x39
 1394 0683 F1020000 		.4byte	0x2f1
 1395 0687 03       		.uleb128 0x3
 1396 0688 19060000 		.4byte	.LASF87
 1397 068c 0C       		.byte	0xc
 1398 068d 3A       		.byte	0x3a
 1399 068e F1020000 		.4byte	0x2f1
 1400 0692 17       		.uleb128 0x17
 1401 0693 2801     		.2byte	0x128
 1402 0695 0C       		.byte	0xc
 1403 0696 0817     		.2byte	0x1708
 1404 0698 AB070000 		.4byte	0x7ab
 1405 069c 15       		.uleb128 0x15
ARM GAS  /tmp/ccDEJPNx.s 			page 26


 1406 069d 27030000 		.4byte	.LASF88
 1407 06a1 0C       		.byte	0xc
 1408 06a2 0917     		.2byte	0x1709
 1409 06a4 7C060000 		.4byte	0x67c
 1410 06a8 00       		.byte	0
 1411 06a9 15       		.uleb128 0x15
 1412 06aa 69050000 		.4byte	.LASF89
 1413 06ae 0C       		.byte	0xc
 1414 06af 0A17     		.2byte	0x170a
 1415 06b1 87060000 		.4byte	0x687
 1416 06b5 04       		.byte	0x4
 1417 06b6 15       		.uleb128 0x15
 1418 06b7 62040000 		.4byte	.LASF90
 1419 06bb 0C       		.byte	0xc
 1420 06bc 0B17     		.2byte	0x170b
 1421 06be 7C060000 		.4byte	0x67c
 1422 06c2 08       		.byte	0x8
 1423 06c3 15       		.uleb128 0x15
 1424 06c4 04060000 		.4byte	.LASF91
 1425 06c8 0C       		.byte	0xc
 1426 06c9 0C17     		.2byte	0x170c
 1427 06cb 7C060000 		.4byte	0x67c
 1428 06cf 0C       		.byte	0xc
 1429 06d0 15       		.uleb128 0x15
 1430 06d1 0F000000 		.4byte	.LASF92
 1431 06d5 0C       		.byte	0xc
 1432 06d6 0D17     		.2byte	0x170d
 1433 06d8 6C060000 		.4byte	0x66c
 1434 06dc 10       		.byte	0x10
 1435 06dd 15       		.uleb128 0x15
 1436 06de D7030000 		.4byte	.LASF93
 1437 06e2 0C       		.byte	0xc
 1438 06e3 0E17     		.2byte	0x170e
 1439 06e5 6C060000 		.4byte	0x66c
 1440 06e9 14       		.byte	0x14
 1441 06ea 15       		.uleb128 0x15
 1442 06eb 49050000 		.4byte	.LASF94
 1443 06ef 0C       		.byte	0xc
 1444 06f0 0F17     		.2byte	0x170f
 1445 06f2 6C060000 		.4byte	0x66c
 1446 06f6 18       		.byte	0x18
 1447 06f7 15       		.uleb128 0x15
 1448 06f8 D3020000 		.4byte	.LASF95
 1449 06fc 0C       		.byte	0xc
 1450 06fd 1017     		.2byte	0x1710
 1451 06ff 7C060000 		.4byte	0x67c
 1452 0703 1C       		.byte	0x1c
 1453 0704 15       		.uleb128 0x15
 1454 0705 3D040000 		.4byte	.LASF96
 1455 0709 0C       		.byte	0xc
 1456 070a 1117     		.2byte	0x1711
 1457 070c 87060000 		.4byte	0x687
 1458 0710 20       		.byte	0x20
 1459 0711 15       		.uleb128 0x15
 1460 0712 C4020000 		.4byte	.LASF97
 1461 0716 0C       		.byte	0xc
 1462 0717 1217     		.2byte	0x1712
ARM GAS  /tmp/ccDEJPNx.s 			page 27


 1463 0719 BB070000 		.4byte	0x7bb
 1464 071d 24       		.byte	0x24
 1465 071e 18       		.uleb128 0x18
 1466 071f 2E040000 		.4byte	.LASF98
 1467 0723 0C       		.byte	0xc
 1468 0724 1317     		.2byte	0x1713
 1469 0726 87060000 		.4byte	0x687
 1470 072a 0001     		.2byte	0x100
 1471 072c 18       		.uleb128 0x18
 1472 072d 15010000 		.4byte	.LASF99
 1473 0731 0C       		.byte	0xc
 1474 0732 1417     		.2byte	0x1714
 1475 0734 87060000 		.4byte	0x687
 1476 0738 0401     		.2byte	0x104
 1477 073a 18       		.uleb128 0x18
 1478 073b 18030000 		.4byte	.LASF100
 1479 073f 0C       		.byte	0xc
 1480 0740 1517     		.2byte	0x1715
 1481 0742 87060000 		.4byte	0x687
 1482 0746 0801     		.2byte	0x108
 1483 0748 18       		.uleb128 0x18
 1484 0749 22050000 		.4byte	.LASF101
 1485 074d 0C       		.byte	0xc
 1486 074e 1617     		.2byte	0x1716
 1487 0750 87060000 		.4byte	0x687
 1488 0754 0C01     		.2byte	0x10c
 1489 0756 18       		.uleb128 0x18
 1490 0757 09050000 		.4byte	.LASF102
 1491 075b 0C       		.byte	0xc
 1492 075c 1717     		.2byte	0x1717
 1493 075e 87060000 		.4byte	0x687
 1494 0762 1001     		.2byte	0x110
 1495 0764 18       		.uleb128 0x18
 1496 0765 CD030000 		.4byte	.LASF103
 1497 0769 0C       		.byte	0xc
 1498 076a 1817     		.2byte	0x1718
 1499 076c 87060000 		.4byte	0x687
 1500 0770 1401     		.2byte	0x114
 1501 0772 18       		.uleb128 0x18
 1502 0773 AD030000 		.4byte	.LASF104
 1503 0777 0C       		.byte	0xc
 1504 0778 1917     		.2byte	0x1719
 1505 077a 87060000 		.4byte	0x687
 1506 077e 1801     		.2byte	0x118
 1507 0780 18       		.uleb128 0x18
 1508 0781 9A030000 		.4byte	.LASF105
 1509 0785 0C       		.byte	0xc
 1510 0786 1A17     		.2byte	0x171a
 1511 0788 87060000 		.4byte	0x687
 1512 078c 1C01     		.2byte	0x11c
 1513 078e 18       		.uleb128 0x18
 1514 078f 91010000 		.4byte	.LASF106
 1515 0793 0C       		.byte	0xc
 1516 0794 1B17     		.2byte	0x171b
 1517 0796 7C060000 		.4byte	0x67c
 1518 079a 2001     		.2byte	0x120
 1519 079c 18       		.uleb128 0x18
ARM GAS  /tmp/ccDEJPNx.s 			page 28


 1520 079d 1D020000 		.4byte	.LASF107
 1521 07a1 0C       		.byte	0xc
 1522 07a2 1C17     		.2byte	0x171c
 1523 07a4 6C060000 		.4byte	0x66c
 1524 07a8 2401     		.2byte	0x124
 1525 07aa 00       		.byte	0
 1526 07ab 19       		.uleb128 0x19
 1527 07ac 87060000 		.4byte	0x687
 1528 07b0 BB070000 		.4byte	0x7bb
 1529 07b4 1A       		.uleb128 0x1a
 1530 07b5 F6020000 		.4byte	0x2f6
 1531 07b9 36       		.byte	0x36
 1532 07ba 00       		.byte	0
 1533 07bb 0D       		.uleb128 0xd
 1534 07bc AB070000 		.4byte	0x7ab
 1535 07c0 14       		.uleb128 0x14
 1536 07c1 C8050000 		.4byte	.LASF108
 1537 07c5 0C       		.byte	0xc
 1538 07c6 1D17     		.2byte	0x171d
 1539 07c8 92060000 		.4byte	0x692
 1540 07cc 1B       		.uleb128 0x1b
 1541 07cd 01       		.byte	0x1
 1542 07ce 0D       		.byte	0xd
 1543 07cf 64       		.byte	0x64
 1544 07d0 E7070000 		.4byte	0x7e7
 1545 07d4 1C       		.uleb128 0x1c
 1546 07d5 36050000 		.4byte	.LASF109
 1547 07d9 00       		.sleb128 0
 1548 07da 1C       		.uleb128 0x1c
 1549 07db 13050000 		.4byte	.LASF110
 1550 07df 01       		.sleb128 1
 1551 07e0 1C       		.uleb128 0x1c
 1552 07e1 59040000 		.4byte	.LASF111
 1553 07e5 02       		.sleb128 2
 1554 07e6 00       		.byte	0
 1555 07e7 03       		.uleb128 0x3
 1556 07e8 52050000 		.4byte	.LASF112
 1557 07ec 0D       		.byte	0xd
 1558 07ed 68       		.byte	0x68
 1559 07ee CC070000 		.4byte	0x7cc
 1560 07f2 03       		.uleb128 0x3
 1561 07f3 5C050000 		.4byte	.LASF113
 1562 07f7 0D       		.byte	0xd
 1563 07f8 6D       		.byte	0x6d
 1564 07f9 FD070000 		.4byte	0x7fd
 1565 07fd 05       		.uleb128 0x5
 1566 07fe 5C050000 		.4byte	.LASF113
 1567 0802 74       		.byte	0x74
 1568 0803 0D       		.byte	0xd
 1569 0804 87       		.byte	0x87
 1570 0805 74080000 		.4byte	0x874
 1571 0809 07       		.uleb128 0x7
 1572 080a 766D7400 		.ascii	"vmt\000"
 1573 080e 0D       		.byte	0xd
 1574 080f 89       		.byte	0x89
 1575 0810 19090000 		.4byte	0x919
 1576 0814 00       		.byte	0
ARM GAS  /tmp/ccDEJPNx.s 			page 29


 1577 0815 06       		.uleb128 0x6
 1578 0816 DC020000 		.4byte	.LASF82
 1579 081a 0D       		.byte	0xd
 1580 081b 8A       		.byte	0x8a
 1581 081c 9F030000 		.4byte	0x39f
 1582 0820 04       		.byte	0x4
 1583 0821 06       		.uleb128 0x6
 1584 0822 5A060000 		.4byte	.LASF83
 1585 0826 0D       		.byte	0xd
 1586 0827 8A       		.byte	0x8a
 1587 0828 80050000 		.4byte	0x580
 1588 082c 08       		.byte	0x8
 1589 082d 06       		.uleb128 0x6
 1590 082e B2010000 		.4byte	.LASF114
 1591 0832 0D       		.byte	0xd
 1592 0833 8A       		.byte	0x8a
 1593 0834 E7070000 		.4byte	0x7e7
 1594 0838 0C       		.byte	0xc
 1595 0839 06       		.uleb128 0x6
 1596 083a A6020000 		.4byte	.LASF115
 1597 083e 0D       		.byte	0xd
 1598 083f 8A       		.byte	0x8a
 1599 0840 8B040000 		.4byte	0x48b
 1600 0844 10       		.byte	0x10
 1601 0845 06       		.uleb128 0x6
 1602 0846 FB020000 		.4byte	.LASF116
 1603 084a 0D       		.byte	0xd
 1604 084b 8A       		.byte	0x8a
 1605 084c 96040000 		.4byte	0x496
 1606 0850 30       		.byte	0x30
 1607 0851 07       		.uleb128 0x7
 1608 0852 696200   		.ascii	"ib\000"
 1609 0855 0D       		.byte	0xd
 1610 0856 8A       		.byte	0x8a
 1611 0857 24090000 		.4byte	0x924
 1612 085b 50       		.byte	0x50
 1613 085c 07       		.uleb128 0x7
 1614 085d 6F6200   		.ascii	"ob\000"
 1615 0860 0D       		.byte	0xd
 1616 0861 8A       		.byte	0x8a
 1617 0862 24090000 		.4byte	0x924
 1618 0866 60       		.byte	0x60
 1619 0867 06       		.uleb128 0x6
 1620 0868 54040000 		.4byte	.LASF117
 1621 086c 0D       		.byte	0xd
 1622 086d 8A       		.byte	0x8a
 1623 086e 34090000 		.4byte	0x934
 1624 0872 70       		.byte	0x70
 1625 0873 00       		.byte	0
 1626 0874 08       		.uleb128 0x8
 1627 0875 08       		.byte	0x8
 1628 0876 0E       		.byte	0xe
 1629 0877 58       		.byte	0x58
 1630 0878 95080000 		.4byte	0x895
 1631 087c 06       		.uleb128 0x6
 1632 087d CD050000 		.4byte	.LASF118
 1633 0881 0E       		.byte	0xe
ARM GAS  /tmp/ccDEJPNx.s 			page 30


 1634 0882 5D       		.byte	0x5d
 1635 0883 77000000 		.4byte	0x77
 1636 0887 00       		.byte	0
 1637 0888 06       		.uleb128 0x6
 1638 0889 C7030000 		.4byte	.LASF119
 1639 088d 0E       		.byte	0xe
 1640 088e 62       		.byte	0x62
 1641 088f 77000000 		.4byte	0x77
 1642 0893 04       		.byte	0x4
 1643 0894 00       		.byte	0
 1644 0895 03       		.uleb128 0x3
 1645 0896 47040000 		.4byte	.LASF120
 1646 089a 0E       		.byte	0xe
 1647 089b 63       		.byte	0x63
 1648 089c 74080000 		.4byte	0x874
 1649 08a0 05       		.uleb128 0x5
 1650 08a1 83020000 		.4byte	.LASF121
 1651 08a5 24       		.byte	0x24
 1652 08a6 0D       		.byte	0xd
 1653 08a7 7C       		.byte	0x7c
 1654 08a8 19090000 		.4byte	0x919
 1655 08ac 06       		.uleb128 0x6
 1656 08ad 87030000 		.4byte	.LASF75
 1657 08b1 0D       		.byte	0xd
 1658 08b2 7D       		.byte	0x7d
 1659 08b3 C5040000 		.4byte	0x4c5
 1660 08b7 00       		.byte	0
 1661 08b8 06       		.uleb128 0x6
 1662 08b9 83050000 		.4byte	.LASF76
 1663 08bd 0D       		.byte	0xd
 1664 08be 7D       		.byte	0x7d
 1665 08bf E4040000 		.4byte	0x4e4
 1666 08c3 04       		.byte	0x4
 1667 08c4 06       		.uleb128 0x6
 1668 08c5 0F020000 		.4byte	.LASF77
 1669 08c9 0D       		.byte	0xd
 1670 08ca 7D       		.byte	0x7d
 1671 08cb F9040000 		.4byte	0x4f9
 1672 08cf 08       		.byte	0x8
 1673 08d0 06       		.uleb128 0x6
 1674 08d1 81060000 		.4byte	.LASF78
 1675 08d5 0D       		.byte	0xd
 1676 08d6 7D       		.byte	0x7d
 1677 08d7 F9040000 		.4byte	0x4f9
 1678 08db 0C       		.byte	0xc
 1679 08dc 07       		.uleb128 0x7
 1680 08dd 70757400 		.ascii	"put\000"
 1681 08e1 0D       		.byte	0xd
 1682 08e2 7D       		.byte	0x7d
 1683 08e3 18050000 		.4byte	0x518
 1684 08e7 10       		.byte	0x10
 1685 08e8 07       		.uleb128 0x7
 1686 08e9 67657400 		.ascii	"get\000"
 1687 08ed 0D       		.byte	0xd
 1688 08ee 7D       		.byte	0x7d
 1689 08ef 32050000 		.4byte	0x532
 1690 08f3 14       		.byte	0x14
ARM GAS  /tmp/ccDEJPNx.s 			page 31


 1691 08f4 06       		.uleb128 0x6
 1692 08f5 11030000 		.4byte	.LASF79
 1693 08f9 0D       		.byte	0xd
 1694 08fa 7D       		.byte	0x7d
 1695 08fb 56050000 		.4byte	0x556
 1696 08ff 18       		.byte	0x18
 1697 0900 06       		.uleb128 0x6
 1698 0901 67010000 		.4byte	.LASF80
 1699 0905 0D       		.byte	0xd
 1700 0906 7D       		.byte	0x7d
 1701 0907 7A050000 		.4byte	0x57a
 1702 090b 1C       		.byte	0x1c
 1703 090c 06       		.uleb128 0x6
 1704 090d DF030000 		.4byte	.LASF81
 1705 0911 0D       		.byte	0xd
 1706 0912 7D       		.byte	0x7d
 1707 0913 1E060000 		.4byte	0x61e
 1708 0917 20       		.byte	0x20
 1709 0918 00       		.byte	0
 1710 0919 09       		.uleb128 0x9
 1711 091a 04       		.byte	0x4
 1712 091b 1F090000 		.4byte	0x91f
 1713 091f 10       		.uleb128 0x10
 1714 0920 A0080000 		.4byte	0x8a0
 1715 0924 19       		.uleb128 0x19
 1716 0925 45000000 		.4byte	0x45
 1717 0929 34090000 		.4byte	0x934
 1718 092d 1A       		.uleb128 0x1a
 1719 092e F6020000 		.4byte	0x2f6
 1720 0932 0F       		.byte	0xf
 1721 0933 00       		.byte	0
 1722 0934 09       		.uleb128 0x9
 1723 0935 04       		.byte	0x4
 1724 0936 C0070000 		.4byte	0x7c0
 1725 093a 1D       		.uleb128 0x1d
 1726 093b 0F020000 		.4byte	.LASF77
 1727 093f 01       		.byte	0x1
 1728 0940 4A       		.byte	0x4a
 1729 0941 A2000000 		.4byte	0xa2
 1730 0945 00000000 		.4byte	.LFB38
 1731 0949 0C000000 		.4byte	.LFE38-.LFB38
 1732 094d 01       		.uleb128 0x1
 1733 094e 9C       		.byte	0x9c
 1734 094f 62090000 		.4byte	0x962
 1735 0953 1E       		.uleb128 0x1e
 1736 0954 697000   		.ascii	"ip\000"
 1737 0957 01       		.byte	0x1
 1738 0958 4A       		.byte	0x4a
 1739 0959 53020000 		.4byte	0x253
 1740 095d 00000000 		.4byte	.LLST0
 1741 0961 00       		.byte	0
 1742 0962 1D       		.uleb128 0x1d
 1743 0963 81060000 		.4byte	.LASF78
 1744 0967 01       		.byte	0x1
 1745 0968 4F       		.byte	0x4f
 1746 0969 A2000000 		.4byte	0xa2
 1747 096d 00000000 		.4byte	.LFB39
ARM GAS  /tmp/ccDEJPNx.s 			page 32


 1748 0971 0C000000 		.4byte	.LFE39-.LFB39
 1749 0975 01       		.uleb128 0x1
 1750 0976 9C       		.byte	0x9c
 1751 0977 8A090000 		.4byte	0x98a
 1752 097b 1E       		.uleb128 0x1e
 1753 097c 697000   		.ascii	"ip\000"
 1754 097f 01       		.byte	0x1
 1755 0980 4F       		.byte	0x4f
 1756 0981 53020000 		.4byte	0x253
 1757 0985 21000000 		.4byte	.LLST1
 1758 0989 00       		.byte	0
 1759 098a 1D       		.uleb128 0x1d
 1760 098b DF030000 		.4byte	.LASF81
 1761 098f 01       		.byte	0x1
 1762 0990 68       		.byte	0x68
 1763 0991 80050000 		.4byte	0x580
 1764 0995 00000000 		.4byte	.LFB44
 1765 0999 16000000 		.4byte	.LFE44-.LFB44
 1766 099d 01       		.uleb128 0x1
 1767 099e 9C       		.byte	0x9c
 1768 099f ED090000 		.4byte	0x9ed
 1769 09a3 1E       		.uleb128 0x1e
 1770 09a4 697000   		.ascii	"ip\000"
 1771 09a7 01       		.byte	0x1
 1772 09a8 68       		.byte	0x68
 1773 09a9 53020000 		.4byte	0x253
 1774 09ad 42000000 		.4byte	.LLST2
 1775 09b1 1F       		.uleb128 0x1f
 1776 09b2 38020000 		.4byte	.LASF122
 1777 09b6 01       		.byte	0x1
 1778 09b7 69       		.byte	0x69
 1779 09b8 80050000 		.4byte	0x580
 1780 09bc 01       		.uleb128 0x1
 1781 09bd 50       		.byte	0x50
 1782 09be 20       		.uleb128 0x20
 1783 09bf 02000000 		.4byte	.LBB2
 1784 09c3 06000000 		.4byte	.LBE2-.LBB2
 1785 09c7 D9090000 		.4byte	0x9d9
 1786 09cb 21       		.uleb128 0x21
 1787 09cc 746D7000 		.ascii	"tmp\000"
 1788 09d0 01       		.byte	0x1
 1789 09d1 69       		.byte	0x69
 1790 09d2 77000000 		.4byte	0x77
 1791 09d6 01       		.uleb128 0x1
 1792 09d7 53       		.byte	0x53
 1793 09d8 00       		.byte	0
 1794 09d9 22       		.uleb128 0x22
 1795 09da 00000000 		.4byte	.Ldebug_ranges0+0
 1796 09de 21       		.uleb128 0x21
 1797 09df 746D7000 		.ascii	"tmp\000"
 1798 09e3 01       		.byte	0x1
 1799 09e4 69       		.byte	0x69
 1800 09e5 77000000 		.4byte	0x77
 1801 09e9 01       		.uleb128 0x1
 1802 09ea 53       		.byte	0x53
 1803 09eb 00       		.byte	0
 1804 09ec 00       		.byte	0
ARM GAS  /tmp/ccDEJPNx.s 			page 33


 1805 09ed 1D       		.uleb128 0x1d
 1806 09ee 67010000 		.4byte	.LASF80
 1807 09f2 01       		.byte	0x1
 1808 09f3 63       		.byte	0x63
 1809 09f4 2C000000 		.4byte	0x2c
 1810 09f8 00000000 		.4byte	.LFB43
 1811 09fc 06000000 		.4byte	.LFE43-.LFB43
 1812 0a00 01       		.uleb128 0x1
 1813 0a01 9C       		.byte	0x9c
 1814 0a02 670A0000 		.4byte	0xa67
 1815 0a06 1E       		.uleb128 0x1e
 1816 0a07 697000   		.ascii	"ip\000"
 1817 0a0a 01       		.byte	0x1
 1818 0a0b 63       		.byte	0x63
 1819 0a0c 53020000 		.4byte	0x253
 1820 0a10 60000000 		.4byte	.LLST3
 1821 0a14 1E       		.uleb128 0x1e
 1822 0a15 627000   		.ascii	"bp\000"
 1823 0a18 01       		.byte	0x1
 1824 0a19 63       		.byte	0x63
 1825 0a1a 85040000 		.4byte	0x485
 1826 0a1e 8E000000 		.4byte	.LLST4
 1827 0a22 1E       		.uleb128 0x1e
 1828 0a23 6E00     		.ascii	"n\000"
 1829 0a25 01       		.byte	0x1
 1830 0a26 63       		.byte	0x63
 1831 0a27 2C000000 		.4byte	0x2c
 1832 0a2b AF000000 		.4byte	.LLST5
 1833 0a2f 23       		.uleb128 0x23
 1834 0a30 14060000 		.4byte	.LASF123
 1835 0a34 01       		.byte	0x1
 1836 0a35 63       		.byte	0x63
 1837 0a36 EF000000 		.4byte	0xef
 1838 0a3a D0000000 		.4byte	.LLST6
 1839 0a3e 24       		.uleb128 0x24
 1840 0a3f 06000000 		.4byte	.LVL8
 1841 0a43 520F0000 		.4byte	0xf52
 1842 0a47 25       		.uleb128 0x25
 1843 0a48 01       		.uleb128 0x1
 1844 0a49 53       		.byte	0x53
 1845 0a4a 03       		.uleb128 0x3
 1846 0a4b F3       		.byte	0xf3
 1847 0a4c 01       		.uleb128 0x1
 1848 0a4d 53       		.byte	0x53
 1849 0a4e 25       		.uleb128 0x25
 1850 0a4f 01       		.uleb128 0x1
 1851 0a50 52       		.byte	0x52
 1852 0a51 03       		.uleb128 0x3
 1853 0a52 F3       		.byte	0xf3
 1854 0a53 01       		.uleb128 0x1
 1855 0a54 52       		.byte	0x52
 1856 0a55 25       		.uleb128 0x25
 1857 0a56 01       		.uleb128 0x1
 1858 0a57 51       		.byte	0x51
 1859 0a58 03       		.uleb128 0x3
 1860 0a59 F3       		.byte	0xf3
 1861 0a5a 01       		.uleb128 0x1
ARM GAS  /tmp/ccDEJPNx.s 			page 34


 1862 0a5b 51       		.byte	0x51
 1863 0a5c 25       		.uleb128 0x25
 1864 0a5d 01       		.uleb128 0x1
 1865 0a5e 50       		.byte	0x50
 1866 0a5f 05       		.uleb128 0x5
 1867 0a60 F3       		.byte	0xf3
 1868 0a61 01       		.uleb128 0x1
 1869 0a62 50       		.byte	0x50
 1870 0a63 23       		.byte	0x23
 1871 0a64 10       		.uleb128 0x10
 1872 0a65 00       		.byte	0
 1873 0a66 00       		.byte	0
 1874 0a67 1D       		.uleb128 0x1d
 1875 0a68 61010000 		.4byte	.LASF124
 1876 0a6c 01       		.byte	0x1
 1877 0a6d 44       		.byte	0x44
 1878 0a6e 2C000000 		.4byte	0x2c
 1879 0a72 00000000 		.4byte	.LFB37
 1880 0a76 0A000000 		.4byte	.LFE37-.LFB37
 1881 0a7a 01       		.uleb128 0x1
 1882 0a7b 9C       		.byte	0x9c
 1883 0a7c D10A0000 		.4byte	0xad1
 1884 0a80 1E       		.uleb128 0x1e
 1885 0a81 697000   		.ascii	"ip\000"
 1886 0a84 01       		.byte	0x1
 1887 0a85 44       		.byte	0x44
 1888 0a86 53020000 		.4byte	0x253
 1889 0a8a F1000000 		.4byte	.LLST7
 1890 0a8e 1E       		.uleb128 0x1e
 1891 0a8f 627000   		.ascii	"bp\000"
 1892 0a92 01       		.byte	0x1
 1893 0a93 44       		.byte	0x44
 1894 0a94 85040000 		.4byte	0x485
 1895 0a98 1F010000 		.4byte	.LLST8
 1896 0a9c 1E       		.uleb128 0x1e
 1897 0a9d 6E00     		.ascii	"n\000"
 1898 0a9f 01       		.byte	0x1
 1899 0aa0 44       		.byte	0x44
 1900 0aa1 2C000000 		.4byte	0x2c
 1901 0aa5 40010000 		.4byte	.LLST9
 1902 0aa9 24       		.uleb128 0x24
 1903 0aaa 0A000000 		.4byte	.LVL11
 1904 0aae 520F0000 		.4byte	0xf52
 1905 0ab2 25       		.uleb128 0x25
 1906 0ab3 01       		.uleb128 0x1
 1907 0ab4 53       		.byte	0x53
 1908 0ab5 02       		.uleb128 0x2
 1909 0ab6 09       		.byte	0x9
 1910 0ab7 FF       		.byte	0xff
 1911 0ab8 25       		.uleb128 0x25
 1912 0ab9 01       		.uleb128 0x1
 1913 0aba 52       		.byte	0x52
 1914 0abb 03       		.uleb128 0x3
 1915 0abc F3       		.byte	0xf3
 1916 0abd 01       		.uleb128 0x1
 1917 0abe 52       		.byte	0x52
 1918 0abf 25       		.uleb128 0x25
ARM GAS  /tmp/ccDEJPNx.s 			page 35


 1919 0ac0 01       		.uleb128 0x1
 1920 0ac1 51       		.byte	0x51
 1921 0ac2 03       		.uleb128 0x3
 1922 0ac3 F3       		.byte	0xf3
 1923 0ac4 01       		.uleb128 0x1
 1924 0ac5 51       		.byte	0x51
 1925 0ac6 25       		.uleb128 0x25
 1926 0ac7 01       		.uleb128 0x1
 1927 0ac8 50       		.byte	0x50
 1928 0ac9 05       		.uleb128 0x5
 1929 0aca F3       		.byte	0xf3
 1930 0acb 01       		.uleb128 0x1
 1931 0acc 50       		.byte	0x50
 1932 0acd 23       		.byte	0x23
 1933 0ace 10       		.uleb128 0x10
 1934 0acf 00       		.byte	0
 1935 0ad0 00       		.byte	0
 1936 0ad1 1D       		.uleb128 0x1d
 1937 0ad2 11030000 		.4byte	.LASF79
 1938 0ad6 01       		.byte	0x1
 1939 0ad7 5E       		.byte	0x5e
 1940 0ad8 2C000000 		.4byte	0x2c
 1941 0adc 00000000 		.4byte	.LFB42
 1942 0ae0 06000000 		.4byte	.LFE42-.LFB42
 1943 0ae4 01       		.uleb128 0x1
 1944 0ae5 9C       		.byte	0x9c
 1945 0ae6 4B0B0000 		.4byte	0xb4b
 1946 0aea 1E       		.uleb128 0x1e
 1947 0aeb 697000   		.ascii	"ip\000"
 1948 0aee 01       		.byte	0x1
 1949 0aef 5E       		.byte	0x5e
 1950 0af0 53020000 		.4byte	0x253
 1951 0af4 61010000 		.4byte	.LLST10
 1952 0af8 1E       		.uleb128 0x1e
 1953 0af9 627000   		.ascii	"bp\000"
 1954 0afc 01       		.byte	0x1
 1955 0afd 5E       		.byte	0x5e
 1956 0afe BA040000 		.4byte	0x4ba
 1957 0b02 8F010000 		.4byte	.LLST11
 1958 0b06 1E       		.uleb128 0x1e
 1959 0b07 6E00     		.ascii	"n\000"
 1960 0b09 01       		.byte	0x1
 1961 0b0a 5E       		.byte	0x5e
 1962 0b0b 2C000000 		.4byte	0x2c
 1963 0b0f B0010000 		.4byte	.LLST12
 1964 0b13 23       		.uleb128 0x23
 1965 0b14 14060000 		.4byte	.LASF123
 1966 0b18 01       		.byte	0x1
 1967 0b19 5E       		.byte	0x5e
 1968 0b1a EF000000 		.4byte	0xef
 1969 0b1e D1010000 		.4byte	.LLST13
 1970 0b22 24       		.uleb128 0x24
 1971 0b23 06000000 		.4byte	.LVL14
 1972 0b27 7D0F0000 		.4byte	0xf7d
 1973 0b2b 25       		.uleb128 0x25
 1974 0b2c 01       		.uleb128 0x1
 1975 0b2d 53       		.byte	0x53
ARM GAS  /tmp/ccDEJPNx.s 			page 36


 1976 0b2e 03       		.uleb128 0x3
 1977 0b2f F3       		.byte	0xf3
 1978 0b30 01       		.uleb128 0x1
 1979 0b31 53       		.byte	0x53
 1980 0b32 25       		.uleb128 0x25
 1981 0b33 01       		.uleb128 0x1
 1982 0b34 52       		.byte	0x52
 1983 0b35 03       		.uleb128 0x3
 1984 0b36 F3       		.byte	0xf3
 1985 0b37 01       		.uleb128 0x1
 1986 0b38 52       		.byte	0x52
 1987 0b39 25       		.uleb128 0x25
 1988 0b3a 01       		.uleb128 0x1
 1989 0b3b 51       		.byte	0x51
 1990 0b3c 03       		.uleb128 0x3
 1991 0b3d F3       		.byte	0xf3
 1992 0b3e 01       		.uleb128 0x1
 1993 0b3f 51       		.byte	0x51
 1994 0b40 25       		.uleb128 0x25
 1995 0b41 01       		.uleb128 0x1
 1996 0b42 50       		.byte	0x50
 1997 0b43 05       		.uleb128 0x5
 1998 0b44 F3       		.byte	0xf3
 1999 0b45 01       		.uleb128 0x1
 2000 0b46 50       		.byte	0x50
 2001 0b47 23       		.byte	0x23
 2002 0b48 30       		.uleb128 0x30
 2003 0b49 00       		.byte	0
 2004 0b4a 00       		.byte	0
 2005 0b4b 1D       		.uleb128 0x1d
 2006 0b4c 0A030000 		.4byte	.LASF125
 2007 0b50 01       		.byte	0x1
 2008 0b51 3E       		.byte	0x3e
 2009 0b52 2C000000 		.4byte	0x2c
 2010 0b56 00000000 		.4byte	.LFB36
 2011 0b5a 0A000000 		.4byte	.LFE36-.LFB36
 2012 0b5e 01       		.uleb128 0x1
 2013 0b5f 9C       		.byte	0x9c
 2014 0b60 B50B0000 		.4byte	0xbb5
 2015 0b64 1E       		.uleb128 0x1e
 2016 0b65 697000   		.ascii	"ip\000"
 2017 0b68 01       		.byte	0x1
 2018 0b69 3E       		.byte	0x3e
 2019 0b6a 53020000 		.4byte	0x253
 2020 0b6e F2010000 		.4byte	.LLST14
 2021 0b72 1E       		.uleb128 0x1e
 2022 0b73 627000   		.ascii	"bp\000"
 2023 0b76 01       		.byte	0x1
 2024 0b77 3E       		.byte	0x3e
 2025 0b78 BA040000 		.4byte	0x4ba
 2026 0b7c 20020000 		.4byte	.LLST15
 2027 0b80 1E       		.uleb128 0x1e
 2028 0b81 6E00     		.ascii	"n\000"
 2029 0b83 01       		.byte	0x1
 2030 0b84 3E       		.byte	0x3e
 2031 0b85 2C000000 		.4byte	0x2c
 2032 0b89 41020000 		.4byte	.LLST16
ARM GAS  /tmp/ccDEJPNx.s 			page 37


 2033 0b8d 24       		.uleb128 0x24
 2034 0b8e 0A000000 		.4byte	.LVL17
 2035 0b92 7D0F0000 		.4byte	0xf7d
 2036 0b96 25       		.uleb128 0x25
 2037 0b97 01       		.uleb128 0x1
 2038 0b98 53       		.byte	0x53
 2039 0b99 02       		.uleb128 0x2
 2040 0b9a 09       		.byte	0x9
 2041 0b9b FF       		.byte	0xff
 2042 0b9c 25       		.uleb128 0x25
 2043 0b9d 01       		.uleb128 0x1
 2044 0b9e 52       		.byte	0x52
 2045 0b9f 03       		.uleb128 0x3
 2046 0ba0 F3       		.byte	0xf3
 2047 0ba1 01       		.uleb128 0x1
 2048 0ba2 52       		.byte	0x52
 2049 0ba3 25       		.uleb128 0x25
 2050 0ba4 01       		.uleb128 0x1
 2051 0ba5 51       		.byte	0x51
 2052 0ba6 03       		.uleb128 0x3
 2053 0ba7 F3       		.byte	0xf3
 2054 0ba8 01       		.uleb128 0x1
 2055 0ba9 51       		.byte	0x51
 2056 0baa 25       		.uleb128 0x25
 2057 0bab 01       		.uleb128 0x1
 2058 0bac 50       		.byte	0x50
 2059 0bad 05       		.uleb128 0x5
 2060 0bae F3       		.byte	0xf3
 2061 0baf 01       		.uleb128 0x1
 2062 0bb0 50       		.byte	0x50
 2063 0bb1 23       		.byte	0x23
 2064 0bb2 30       		.uleb128 0x30
 2065 0bb3 00       		.byte	0
 2066 0bb4 00       		.byte	0
 2067 0bb5 1D       		.uleb128 0x1d
 2068 0bb6 CE020000 		.4byte	.LASF126
 2069 0bba 01       		.byte	0x1
 2070 0bbb 59       		.byte	0x59
 2071 0bbc D9000000 		.4byte	0xd9
 2072 0bc0 00000000 		.4byte	.LFB41
 2073 0bc4 06000000 		.4byte	.LFE41-.LFB41
 2074 0bc8 01       		.uleb128 0x1
 2075 0bc9 9C       		.byte	0x9c
 2076 0bca 060C0000 		.4byte	0xc06
 2077 0bce 1E       		.uleb128 0x1e
 2078 0bcf 697000   		.ascii	"ip\000"
 2079 0bd2 01       		.byte	0x1
 2080 0bd3 59       		.byte	0x59
 2081 0bd4 53020000 		.4byte	0x253
 2082 0bd8 62020000 		.4byte	.LLST17
 2083 0bdc 23       		.uleb128 0x23
 2084 0bdd 9B060000 		.4byte	.LASF127
 2085 0be1 01       		.byte	0x1
 2086 0be2 59       		.byte	0x59
 2087 0be3 EF000000 		.4byte	0xef
 2088 0be7 90020000 		.4byte	.LLST18
 2089 0beb 24       		.uleb128 0x24
ARM GAS  /tmp/ccDEJPNx.s 			page 38


 2090 0bec 06000000 		.4byte	.LVL20
 2091 0bf0 A80F0000 		.4byte	0xfa8
 2092 0bf4 25       		.uleb128 0x25
 2093 0bf5 01       		.uleb128 0x1
 2094 0bf6 51       		.byte	0x51
 2095 0bf7 03       		.uleb128 0x3
 2096 0bf8 F3       		.byte	0xf3
 2097 0bf9 01       		.uleb128 0x1
 2098 0bfa 51       		.byte	0x51
 2099 0bfb 25       		.uleb128 0x25
 2100 0bfc 01       		.uleb128 0x1
 2101 0bfd 50       		.byte	0x50
 2102 0bfe 05       		.uleb128 0x5
 2103 0bff F3       		.byte	0xf3
 2104 0c00 01       		.uleb128 0x1
 2105 0c01 50       		.byte	0x50
 2106 0c02 23       		.byte	0x23
 2107 0c03 10       		.uleb128 0x10
 2108 0c04 00       		.byte	0
 2109 0c05 00       		.byte	0
 2110 0c06 1D       		.uleb128 0x1d
 2111 0c07 8D030000 		.4byte	.LASF128
 2112 0c0b 01       		.byte	0x1
 2113 0c0c 54       		.byte	0x54
 2114 0c0d D9000000 		.4byte	0xd9
 2115 0c11 00000000 		.4byte	.LFB40
 2116 0c15 06000000 		.4byte	.LFE40-.LFB40
 2117 0c19 01       		.uleb128 0x1
 2118 0c1a 9C       		.byte	0x9c
 2119 0c1b 640C0000 		.4byte	0xc64
 2120 0c1f 1E       		.uleb128 0x1e
 2121 0c20 697000   		.ascii	"ip\000"
 2122 0c23 01       		.byte	0x1
 2123 0c24 54       		.byte	0x54
 2124 0c25 53020000 		.4byte	0x253
 2125 0c29 B1020000 		.4byte	.LLST19
 2126 0c2d 1E       		.uleb128 0x1e
 2127 0c2e 6200     		.ascii	"b\000"
 2128 0c30 01       		.byte	0x1
 2129 0c31 54       		.byte	0x54
 2130 0c32 45000000 		.4byte	0x45
 2131 0c36 DF020000 		.4byte	.LLST20
 2132 0c3a 23       		.uleb128 0x23
 2133 0c3b 9B060000 		.4byte	.LASF127
 2134 0c3f 01       		.byte	0x1
 2135 0c40 54       		.byte	0x54
 2136 0c41 EF000000 		.4byte	0xef
 2137 0c45 00030000 		.4byte	.LLST21
 2138 0c49 24       		.uleb128 0x24
 2139 0c4a 06000000 		.4byte	.LVL23
 2140 0c4e C30F0000 		.4byte	0xfc3
 2141 0c52 25       		.uleb128 0x25
 2142 0c53 01       		.uleb128 0x1
 2143 0c54 52       		.byte	0x52
 2144 0c55 03       		.uleb128 0x3
 2145 0c56 F3       		.byte	0xf3
 2146 0c57 01       		.uleb128 0x1
ARM GAS  /tmp/ccDEJPNx.s 			page 39


 2147 0c58 52       		.byte	0x52
 2148 0c59 25       		.uleb128 0x25
 2149 0c5a 01       		.uleb128 0x1
 2150 0c5b 50       		.byte	0x50
 2151 0c5c 05       		.uleb128 0x5
 2152 0c5d F3       		.byte	0xf3
 2153 0c5e 01       		.uleb128 0x1
 2154 0c5f 50       		.byte	0x50
 2155 0c60 23       		.byte	0x23
 2156 0c61 30       		.uleb128 0x30
 2157 0c62 00       		.byte	0
 2158 0c63 00       		.byte	0
 2159 0c64 26       		.uleb128 0x26
 2160 0c65 A3060000 		.4byte	.LASF129
 2161 0c69 01       		.byte	0x1
 2162 0c6a 7D       		.byte	0x7d
 2163 0c6b 00000000 		.4byte	.LFB45
 2164 0c6f 04000000 		.4byte	.LFE45-.LFB45
 2165 0c73 01       		.uleb128 0x1
 2166 0c74 9C       		.byte	0x9c
 2167 0c75 830C0000 		.4byte	0xc83
 2168 0c79 27       		.uleb128 0x27
 2169 0c7a 04000000 		.4byte	.LVL24
 2170 0c7e E30F0000 		.4byte	0xfe3
 2171 0c82 00       		.byte	0
 2172 0c83 26       		.uleb128 0x26
 2173 0c84 54010000 		.4byte	.LASF130
 2174 0c88 01       		.byte	0x1
 2175 0c89 91       		.byte	0x91
 2176 0c8a 00000000 		.4byte	.LFB46
 2177 0c8e 42000000 		.4byte	.LFE46-.LFB46
 2178 0c92 01       		.uleb128 0x1
 2179 0c93 9C       		.byte	0x9c
 2180 0c94 150D0000 		.4byte	0xd15
 2181 0c98 1E       		.uleb128 0x1e
 2182 0c99 73647000 		.ascii	"sdp\000"
 2183 0c9d 01       		.byte	0x1
 2184 0c9e 91       		.byte	0x91
 2185 0c9f 150D0000 		.4byte	0xd15
 2186 0ca3 21030000 		.4byte	.LLST22
 2187 0ca7 23       		.uleb128 0x23
 2188 0ca8 9E020000 		.4byte	.LASF131
 2189 0cac 01       		.byte	0x1
 2190 0cad 91       		.byte	0x91
 2191 0cae 63040000 		.4byte	0x463
 2192 0cb2 5B030000 		.4byte	.LLST23
 2193 0cb6 23       		.uleb128 0x23
 2194 0cb7 60060000 		.4byte	.LASF132
 2195 0cbb 01       		.byte	0x1
 2196 0cbc 91       		.byte	0x91
 2197 0cbd 63040000 		.4byte	0x463
 2198 0cc1 87030000 		.4byte	.LLST24
 2199 0cc5 28       		.uleb128 0x28
 2200 0cc6 2E000000 		.4byte	.LVL29
 2201 0cca EA0F0000 		.4byte	0xfea
 2202 0cce EC0C0000 		.4byte	0xcec
 2203 0cd2 25       		.uleb128 0x25
ARM GAS  /tmp/ccDEJPNx.s 			page 40


 2204 0cd3 01       		.uleb128 0x1
 2205 0cd4 53       		.byte	0x53
 2206 0cd5 03       		.uleb128 0x3
 2207 0cd6 F3       		.byte	0xf3
 2208 0cd7 01       		.uleb128 0x1
 2209 0cd8 51       		.byte	0x51
 2210 0cd9 25       		.uleb128 0x25
 2211 0cda 01       		.uleb128 0x1
 2212 0cdb 52       		.byte	0x52
 2213 0cdc 01       		.uleb128 0x1
 2214 0cdd 40       		.byte	0x40
 2215 0cde 25       		.uleb128 0x25
 2216 0cdf 01       		.uleb128 0x1
 2217 0ce0 51       		.byte	0x51
 2218 0ce1 03       		.uleb128 0x3
 2219 0ce2 74       		.byte	0x74
 2220 0ce3 D000     		.sleb128 80
 2221 0ce5 25       		.uleb128 0x25
 2222 0ce6 01       		.uleb128 0x1
 2223 0ce7 50       		.byte	0x50
 2224 0ce8 02       		.uleb128 0x2
 2225 0ce9 74       		.byte	0x74
 2226 0cea 10       		.sleb128 16
 2227 0ceb 00       		.byte	0
 2228 0cec 24       		.uleb128 0x24
 2229 0ced 42000000 		.4byte	.LVL31
 2230 0cf1 0B100000 		.4byte	0x100b
 2231 0cf5 25       		.uleb128 0x25
 2232 0cf6 01       		.uleb128 0x1
 2233 0cf7 53       		.byte	0x53
 2234 0cf8 03       		.uleb128 0x3
 2235 0cf9 F3       		.byte	0xf3
 2236 0cfa 01       		.uleb128 0x1
 2237 0cfb 52       		.byte	0x52
 2238 0cfc 25       		.uleb128 0x25
 2239 0cfd 01       		.uleb128 0x1
 2240 0cfe 52       		.byte	0x52
 2241 0cff 01       		.uleb128 0x1
 2242 0d00 40       		.byte	0x40
 2243 0d01 25       		.uleb128 0x25
 2244 0d02 01       		.uleb128 0x1
 2245 0d03 51       		.byte	0x51
 2246 0d04 05       		.uleb128 0x5
 2247 0d05 F3       		.byte	0xf3
 2248 0d06 01       		.uleb128 0x1
 2249 0d07 50       		.byte	0x50
 2250 0d08 23       		.byte	0x23
 2251 0d09 60       		.uleb128 0x60
 2252 0d0a 25       		.uleb128 0x25
 2253 0d0b 01       		.uleb128 0x1
 2254 0d0c 50       		.byte	0x50
 2255 0d0d 05       		.uleb128 0x5
 2256 0d0e F3       		.byte	0xf3
 2257 0d0f 01       		.uleb128 0x1
 2258 0d10 50       		.byte	0x50
 2259 0d11 23       		.byte	0x23
 2260 0d12 30       		.uleb128 0x30
ARM GAS  /tmp/ccDEJPNx.s 			page 41


 2261 0d13 00       		.byte	0
 2262 0d14 00       		.byte	0
 2263 0d15 09       		.uleb128 0x9
 2264 0d16 04       		.byte	0x4
 2265 0d17 F2070000 		.4byte	0x7f2
 2266 0d1b 26       		.uleb128 0x26
 2267 0d1c A4050000 		.4byte	.LASF133
 2268 0d20 01       		.byte	0x1
 2269 0d21 A5       		.byte	0xa5
 2270 0d22 00000000 		.4byte	.LFB47
 2271 0d26 1A000000 		.4byte	.LFE47-.LFB47
 2272 0d2a 01       		.uleb128 0x1
 2273 0d2b 9C       		.byte	0x9c
 2274 0d2c 980D0000 		.4byte	0xd98
 2275 0d30 1E       		.uleb128 0x1e
 2276 0d31 73647000 		.ascii	"sdp\000"
 2277 0d35 01       		.byte	0x1
 2278 0d36 A5       		.byte	0xa5
 2279 0d37 150D0000 		.4byte	0xd15
 2280 0d3b BE030000 		.4byte	.LLST25
 2281 0d3f 23       		.uleb128 0x23
 2282 0d40 9D050000 		.4byte	.LASF134
 2283 0d44 01       		.byte	0x1
 2284 0d45 A5       		.byte	0xa5
 2285 0d46 980D0000 		.4byte	0xd98
 2286 0d4a DC030000 		.4byte	.LLST26
 2287 0d4e 29       		.uleb128 0x29
 2288 0d4f 18000000 		.4byte	.Ldebug_ranges0+0x18
 2289 0d53 650D0000 		.4byte	0xd65
 2290 0d57 21       		.uleb128 0x21
 2291 0d58 746D7000 		.ascii	"tmp\000"
 2292 0d5c 01       		.byte	0x1
 2293 0d5d A9       		.byte	0xa9
 2294 0d5e 77000000 		.4byte	0x77
 2295 0d62 01       		.uleb128 0x1
 2296 0d63 53       		.byte	0x53
 2297 0d64 00       		.byte	0
 2298 0d65 20       		.uleb128 0x20
 2299 0d66 12000000 		.4byte	.LBB7
 2300 0d6a 08000000 		.4byte	.LBE7-.LBB7
 2301 0d6e 800D0000 		.4byte	0xd80
 2302 0d72 21       		.uleb128 0x21
 2303 0d73 746D7000 		.ascii	"tmp\000"
 2304 0d77 01       		.byte	0x1
 2305 0d78 AF       		.byte	0xaf
 2306 0d79 77000000 		.4byte	0x77
 2307 0d7d 01       		.uleb128 0x1
 2308 0d7e 53       		.byte	0x53
 2309 0d7f 00       		.byte	0
 2310 0d80 2A       		.uleb128 0x2a
 2311 0d81 0E000000 		.4byte	.LVL33
 2312 0d85 2C100000 		.4byte	0x102c
 2313 0d89 25       		.uleb128 0x25
 2314 0d8a 01       		.uleb128 0x1
 2315 0d8b 51       		.byte	0x51
 2316 0d8c 03       		.uleb128 0x3
 2317 0d8d F3       		.byte	0xf3
ARM GAS  /tmp/ccDEJPNx.s 			page 42


 2318 0d8e 01       		.uleb128 0x1
 2319 0d8f 51       		.byte	0x51
 2320 0d90 25       		.uleb128 0x25
 2321 0d91 01       		.uleb128 0x1
 2322 0d92 50       		.byte	0x50
 2323 0d93 02       		.uleb128 0x2
 2324 0d94 74       		.byte	0x74
 2325 0d95 00       		.sleb128 0
 2326 0d96 00       		.byte	0
 2327 0d97 00       		.byte	0
 2328 0d98 09       		.uleb128 0x9
 2329 0d99 04       		.byte	0x4
 2330 0d9a 9E0D0000 		.4byte	0xd9e
 2331 0d9e 10       		.uleb128 0x10
 2332 0d9f 95080000 		.4byte	0x895
 2333 0da3 26       		.uleb128 0x26
 2334 0da4 27040000 		.4byte	.LASF135
 2335 0da8 01       		.byte	0x1
 2336 0da9 BB       		.byte	0xbb
 2337 0daa 00000000 		.4byte	.LFB48
 2338 0dae 2E000000 		.4byte	.LFE48-.LFB48
 2339 0db2 01       		.uleb128 0x1
 2340 0db3 9C       		.byte	0x9c
 2341 0db4 3F0E0000 		.4byte	0xe3f
 2342 0db8 1E       		.uleb128 0x1e
 2343 0db9 73647000 		.ascii	"sdp\000"
 2344 0dbd 01       		.byte	0x1
 2345 0dbe BB       		.byte	0xbb
 2346 0dbf 150D0000 		.4byte	0xd15
 2347 0dc3 FD030000 		.4byte	.LLST27
 2348 0dc7 29       		.uleb128 0x29
 2349 0dc8 30000000 		.4byte	.Ldebug_ranges0+0x30
 2350 0dcc DE0D0000 		.4byte	0xdde
 2351 0dd0 21       		.uleb128 0x21
 2352 0dd1 746D7000 		.ascii	"tmp\000"
 2353 0dd5 01       		.byte	0x1
 2354 0dd6 BF       		.byte	0xbf
 2355 0dd7 77000000 		.4byte	0x77
 2356 0ddb 01       		.uleb128 0x1
 2357 0ddc 53       		.byte	0x53
 2358 0ddd 00       		.byte	0
 2359 0dde 20       		.uleb128 0x20
 2360 0ddf 26000000 		.4byte	.LBB10
 2361 0de3 08000000 		.4byte	.LBE10-.LBB10
 2362 0de7 F90D0000 		.4byte	0xdf9
 2363 0deb 21       		.uleb128 0x21
 2364 0dec 746D7000 		.ascii	"tmp\000"
 2365 0df0 01       		.byte	0x1
 2366 0df1 C8       		.byte	0xc8
 2367 0df2 77000000 		.4byte	0x77
 2368 0df6 01       		.uleb128 0x1
 2369 0df7 53       		.byte	0x53
 2370 0df8 00       		.byte	0
 2371 0df9 28       		.uleb128 0x28
 2372 0dfa 0E000000 		.4byte	.LVL35
 2373 0dfe 42100000 		.4byte	0x1042
 2374 0e02 0D0E0000 		.4byte	0xe0d
ARM GAS  /tmp/ccDEJPNx.s 			page 43


 2375 0e06 25       		.uleb128 0x25
 2376 0e07 01       		.uleb128 0x1
 2377 0e08 50       		.byte	0x50
 2378 0e09 02       		.uleb128 0x2
 2379 0e0a 74       		.byte	0x74
 2380 0e0b 00       		.sleb128 0
 2381 0e0c 00       		.byte	0
 2382 0e0d 28       		.uleb128 0x28
 2383 0e0e 1A000000 		.4byte	.LVL36
 2384 0e12 53100000 		.4byte	0x1053
 2385 0e16 210E0000 		.4byte	0xe21
 2386 0e1a 25       		.uleb128 0x25
 2387 0e1b 01       		.uleb128 0x1
 2388 0e1c 50       		.byte	0x50
 2389 0e1d 02       		.uleb128 0x2
 2390 0e1e 74       		.byte	0x74
 2391 0e1f 30       		.sleb128 48
 2392 0e20 00       		.byte	0
 2393 0e21 28       		.uleb128 0x28
 2394 0e22 22000000 		.4byte	.LVL37
 2395 0e26 65100000 		.4byte	0x1065
 2396 0e2a 350E0000 		.4byte	0xe35
 2397 0e2e 25       		.uleb128 0x25
 2398 0e2f 01       		.uleb128 0x1
 2399 0e30 50       		.byte	0x50
 2400 0e31 02       		.uleb128 0x2
 2401 0e32 74       		.byte	0x74
 2402 0e33 10       		.sleb128 16
 2403 0e34 00       		.byte	0
 2404 0e35 2B       		.uleb128 0x2b
 2405 0e36 26000000 		.4byte	.LVL38
 2406 0e3a 77100000 		.4byte	0x1077
 2407 0e3e 00       		.byte	0
 2408 0e3f 26       		.uleb128 0x26
 2409 0e40 8D050000 		.4byte	.LASF136
 2410 0e44 01       		.byte	0x1
 2411 0e45 DB       		.byte	0xdb
 2412 0e46 00000000 		.4byte	.LFB49
 2413 0e4a 4C000000 		.4byte	.LFE49-.LFB49
 2414 0e4e 01       		.uleb128 0x1
 2415 0e4f 9C       		.byte	0x9c
 2416 0e50 D10E0000 		.4byte	0xed1
 2417 0e54 1E       		.uleb128 0x1e
 2418 0e55 73647000 		.ascii	"sdp\000"
 2419 0e59 01       		.byte	0x1
 2420 0e5a DB       		.byte	0xdb
 2421 0e5b 150D0000 		.4byte	0xd15
 2422 0e5f 1B040000 		.4byte	.LLST28
 2423 0e63 1E       		.uleb128 0x1e
 2424 0e64 6200     		.ascii	"b\000"
 2425 0e66 01       		.byte	0x1
 2426 0e67 DB       		.byte	0xdb
 2427 0e68 45000000 		.4byte	0x45
 2428 0e6c 6A040000 		.4byte	.LLST29
 2429 0e70 28       		.uleb128 0x28
 2430 0e71 14000000 		.4byte	.LVL42
 2431 0e75 7E100000 		.4byte	0x107e
ARM GAS  /tmp/ccDEJPNx.s 			page 44


 2432 0e79 8A0E0000 		.4byte	0xe8a
 2433 0e7d 25       		.uleb128 0x25
 2434 0e7e 01       		.uleb128 0x1
 2435 0e7f 51       		.byte	0x51
 2436 0e80 02       		.uleb128 0x2
 2437 0e81 75       		.byte	0x75
 2438 0e82 00       		.sleb128 0
 2439 0e83 25       		.uleb128 0x25
 2440 0e84 01       		.uleb128 0x1
 2441 0e85 50       		.byte	0x50
 2442 0e86 02       		.uleb128 0x2
 2443 0e87 74       		.byte	0x74
 2444 0e88 10       		.sleb128 16
 2445 0e89 00       		.byte	0
 2446 0e8a 28       		.uleb128 0x28
 2447 0e8b 2A000000 		.4byte	.LVL46
 2448 0e8f 99100000 		.4byte	0x1099
 2449 0e93 9E0E0000 		.4byte	0xe9e
 2450 0e97 25       		.uleb128 0x25
 2451 0e98 01       		.uleb128 0x1
 2452 0e99 50       		.byte	0x50
 2453 0e9a 02       		.uleb128 0x2
 2454 0e9b 74       		.byte	0x74
 2455 0e9c 04       		.sleb128 4
 2456 0e9d 00       		.byte	0
 2457 0e9e 28       		.uleb128 0x28
 2458 0e9f 34000000 		.4byte	.LVL47
 2459 0ea3 7E100000 		.4byte	0x107e
 2460 0ea7 B80E0000 		.4byte	0xeb8
 2461 0eab 25       		.uleb128 0x25
 2462 0eac 01       		.uleb128 0x1
 2463 0ead 51       		.byte	0x51
 2464 0eae 02       		.uleb128 0x2
 2465 0eaf 75       		.byte	0x75
 2466 0eb0 00       		.sleb128 0
 2467 0eb1 25       		.uleb128 0x25
 2468 0eb2 01       		.uleb128 0x1
 2469 0eb3 50       		.byte	0x50
 2470 0eb4 02       		.uleb128 0x2
 2471 0eb5 74       		.byte	0x74
 2472 0eb6 10       		.sleb128 16
 2473 0eb7 00       		.byte	0
 2474 0eb8 24       		.uleb128 0x24
 2475 0eb9 4C000000 		.4byte	.LVL49
 2476 0ebd 99100000 		.4byte	0x1099
 2477 0ec1 25       		.uleb128 0x25
 2478 0ec2 01       		.uleb128 0x1
 2479 0ec3 51       		.byte	0x51
 2480 0ec4 01       		.uleb128 0x1
 2481 0ec5 30       		.byte	0x30
 2482 0ec6 25       		.uleb128 0x25
 2483 0ec7 01       		.uleb128 0x1
 2484 0ec8 50       		.byte	0x50
 2485 0ec9 05       		.uleb128 0x5
 2486 0eca F3       		.byte	0xf3
 2487 0ecb 01       		.uleb128 0x1
 2488 0ecc 50       		.byte	0x50
ARM GAS  /tmp/ccDEJPNx.s 			page 45


 2489 0ecd 23       		.byte	0x23
 2490 0ece 04       		.uleb128 0x4
 2491 0ecf 00       		.byte	0
 2492 0ed0 00       		.byte	0
 2493 0ed1 2C       		.uleb128 0x2c
 2494 0ed2 43060000 		.4byte	.LASF155
 2495 0ed6 01       		.byte	0x1
 2496 0ed7 F5       		.byte	0xf5
 2497 0ed8 D9000000 		.4byte	0xd9
 2498 0edc 00000000 		.4byte	.LFB50
 2499 0ee0 26000000 		.4byte	.LFE50-.LFB50
 2500 0ee4 01       		.uleb128 0x1
 2501 0ee5 9C       		.byte	0x9c
 2502 0ee6 300F0000 		.4byte	0xf30
 2503 0eea 1E       		.uleb128 0x1e
 2504 0eeb 73647000 		.ascii	"sdp\000"
 2505 0eef 01       		.byte	0x1
 2506 0ef0 F5       		.byte	0xf5
 2507 0ef1 150D0000 		.4byte	0xd15
 2508 0ef5 A4040000 		.4byte	.LLST30
 2509 0ef9 2D       		.uleb128 0x2d
 2510 0efa 6200     		.ascii	"b\000"
 2511 0efc 01       		.byte	0x1
 2512 0efd F6       		.byte	0xf6
 2513 0efe D9000000 		.4byte	0xd9
 2514 0f02 C2040000 		.4byte	.LLST31
 2515 0f06 28       		.uleb128 0x28
 2516 0f07 0A000000 		.4byte	.LVL52
 2517 0f0b B5100000 		.4byte	0x10b5
 2518 0f0f 1A0F0000 		.4byte	0xf1a
 2519 0f13 25       		.uleb128 0x25
 2520 0f14 01       		.uleb128 0x1
 2521 0f15 50       		.byte	0x50
 2522 0f16 02       		.uleb128 0x2
 2523 0f17 74       		.byte	0x74
 2524 0f18 30       		.sleb128 48
 2525 0f19 00       		.byte	0
 2526 0f1a 2A       		.uleb128 0x2a
 2527 0f1b 22000000 		.4byte	.LVL55
 2528 0f1f 99100000 		.4byte	0x1099
 2529 0f23 25       		.uleb128 0x25
 2530 0f24 01       		.uleb128 0x1
 2531 0f25 51       		.byte	0x51
 2532 0f26 01       		.uleb128 0x1
 2533 0f27 30       		.byte	0x30
 2534 0f28 25       		.uleb128 0x25
 2535 0f29 01       		.uleb128 0x1
 2536 0f2a 50       		.byte	0x50
 2537 0f2b 02       		.uleb128 0x2
 2538 0f2c 74       		.byte	0x74
 2539 0f2d 04       		.sleb128 4
 2540 0f2e 00       		.byte	0
 2541 0f2f 00       		.byte	0
 2542 0f30 21       		.uleb128 0x21
 2543 0f31 766D7400 		.ascii	"vmt\000"
 2544 0f35 01       		.byte	0x1
 2545 0f36 6C       		.byte	0x6c
ARM GAS  /tmp/ccDEJPNx.s 			page 46


 2546 0f37 1F090000 		.4byte	0x91f
 2547 0f3b 05       		.uleb128 0x5
 2548 0f3c 03       		.byte	0x3
 2549 0f3d 00000000 		.4byte	vmt
 2550 0f41 2E       		.uleb128 0x2e
 2551 0f42 47010000 		.4byte	.LASF156
 2552 0f46 10       		.byte	0x10
 2553 0f47 CE06     		.2byte	0x6ce
 2554 0f49 4D0F0000 		.4byte	0xf4d
 2555 0f4d 0D       		.uleb128 0xd
 2556 0f4e 25000000 		.4byte	0x25
 2557 0f52 2F       		.uleb128 0x2f
 2558 0f53 5D000000 		.4byte	.LASF137
 2559 0f57 0A       		.byte	0xa
 2560 0f58 5401     		.2byte	0x154
 2561 0f5a 2C000000 		.4byte	0x2c
 2562 0f5e 770F0000 		.4byte	0xf77
 2563 0f62 12       		.uleb128 0x12
 2564 0f63 770F0000 		.4byte	0xf77
 2565 0f67 12       		.uleb128 0x12
 2566 0f68 85040000 		.4byte	0x485
 2567 0f6c 12       		.uleb128 0x12
 2568 0f6d 2C000000 		.4byte	0x2c
 2569 0f71 12       		.uleb128 0x12
 2570 0f72 EF000000 		.4byte	0xef
 2571 0f76 00       		.byte	0
 2572 0f77 09       		.uleb128 0x9
 2573 0f78 04       		.byte	0x4
 2574 0f79 8B040000 		.4byte	0x48b
 2575 0f7d 2F       		.uleb128 0x2f
 2576 0f7e 69030000 		.4byte	.LASF138
 2577 0f82 0A       		.byte	0xa
 2578 0f83 5B01     		.2byte	0x15b
 2579 0f85 2C000000 		.4byte	0x2c
 2580 0f89 A20F0000 		.4byte	0xfa2
 2581 0f8d 12       		.uleb128 0x12
 2582 0f8e A20F0000 		.4byte	0xfa2
 2583 0f92 12       		.uleb128 0x12
 2584 0f93 BA040000 		.4byte	0x4ba
 2585 0f97 12       		.uleb128 0x12
 2586 0f98 2C000000 		.4byte	0x2c
 2587 0f9c 12       		.uleb128 0x12
 2588 0f9d EF000000 		.4byte	0xef
 2589 0fa1 00       		.byte	0
 2590 0fa2 09       		.uleb128 0x9
 2591 0fa3 04       		.byte	0x4
 2592 0fa4 96040000 		.4byte	0x496
 2593 0fa8 2F       		.uleb128 0x2f
 2594 0fa9 CB060000 		.4byte	.LASF139
 2595 0fad 0A       		.byte	0xa
 2596 0fae 5301     		.2byte	0x153
 2597 0fb0 D9000000 		.4byte	0xd9
 2598 0fb4 C30F0000 		.4byte	0xfc3
 2599 0fb8 12       		.uleb128 0x12
 2600 0fb9 770F0000 		.4byte	0xf77
 2601 0fbd 12       		.uleb128 0x12
 2602 0fbe EF000000 		.4byte	0xef
ARM GAS  /tmp/ccDEJPNx.s 			page 47


 2603 0fc2 00       		.byte	0
 2604 0fc3 2F       		.uleb128 0x2f
 2605 0fc4 00000000 		.4byte	.LASF140
 2606 0fc8 0A       		.byte	0xa
 2607 0fc9 5901     		.2byte	0x159
 2608 0fcb D9000000 		.4byte	0xd9
 2609 0fcf E30F0000 		.4byte	0xfe3
 2610 0fd3 12       		.uleb128 0x12
 2611 0fd4 A20F0000 		.4byte	0xfa2
 2612 0fd8 12       		.uleb128 0x12
 2613 0fd9 45000000 		.4byte	0x45
 2614 0fdd 12       		.uleb128 0x12
 2615 0fde EF000000 		.4byte	0xef
 2616 0fe2 00       		.byte	0
 2617 0fe3 30       		.uleb128 0x30
 2618 0fe4 B8020000 		.4byte	.LASF147
 2619 0fe8 0E       		.byte	0xe
 2620 0fe9 8C       		.byte	0x8c
 2621 0fea 31       		.uleb128 0x31
 2622 0feb AA060000 		.4byte	.LASF141
 2623 0fef 0A       		.byte	0xa
 2624 0ff0 5001     		.2byte	0x150
 2625 0ff2 0B100000 		.4byte	0x100b
 2626 0ff6 12       		.uleb128 0x12
 2627 0ff7 770F0000 		.4byte	0xf77
 2628 0ffb 12       		.uleb128 0x12
 2629 0ffc 85040000 		.4byte	0x485
 2630 1000 12       		.uleb128 0x12
 2631 1001 2C000000 		.4byte	0x2c
 2632 1005 12       		.uleb128 0x12
 2633 1006 63040000 		.4byte	0x463
 2634 100a 00       		.byte	0
 2635 100b 31       		.uleb128 0x31
 2636 100c 35010000 		.4byte	.LASF142
 2637 1010 0A       		.byte	0xa
 2638 1011 5701     		.2byte	0x157
 2639 1013 2C100000 		.4byte	0x102c
 2640 1017 12       		.uleb128 0x12
 2641 1018 A20F0000 		.4byte	0xfa2
 2642 101c 12       		.uleb128 0x12
 2643 101d 85040000 		.4byte	0x485
 2644 1021 12       		.uleb128 0x12
 2645 1022 2C000000 		.4byte	0x2c
 2646 1026 12       		.uleb128 0x12
 2647 1027 63040000 		.4byte	0x463
 2648 102b 00       		.byte	0
 2649 102c 32       		.uleb128 0x32
 2650 102d AE040000 		.4byte	.LASF143
 2651 1031 0E       		.byte	0xe
 2652 1032 8D       		.byte	0x8d
 2653 1033 42100000 		.4byte	0x1042
 2654 1037 12       		.uleb128 0x12
 2655 1038 150D0000 		.4byte	0xd15
 2656 103c 12       		.uleb128 0x12
 2657 103d 980D0000 		.4byte	0xd98
 2658 1041 00       		.byte	0
 2659 1042 32       		.uleb128 0x32
ARM GAS  /tmp/ccDEJPNx.s 			page 48


 2660 1043 8F060000 		.4byte	.LASF144
 2661 1047 0E       		.byte	0xe
 2662 1048 8E       		.byte	0x8e
 2663 1049 53100000 		.4byte	0x1053
 2664 104d 12       		.uleb128 0x12
 2665 104e 150D0000 		.4byte	0xd15
 2666 1052 00       		.byte	0
 2667 1053 31       		.uleb128 0x31
 2668 1054 6F060000 		.4byte	.LASF145
 2669 1058 0A       		.byte	0xa
 2670 1059 5801     		.2byte	0x158
 2671 105b 65100000 		.4byte	0x1065
 2672 105f 12       		.uleb128 0x12
 2673 1060 A20F0000 		.4byte	0xfa2
 2674 1064 00       		.byte	0
 2675 1065 31       		.uleb128 0x31
 2676 1066 93020000 		.4byte	.LASF146
 2677 106a 0A       		.byte	0xa
 2678 106b 5101     		.2byte	0x151
 2679 106d 77100000 		.4byte	0x1077
 2680 1071 12       		.uleb128 0x12
 2681 1072 770F0000 		.4byte	0xf77
 2682 1076 00       		.byte	0
 2683 1077 30       		.uleb128 0x30
 2684 1078 27020000 		.4byte	.LASF148
 2685 107c 0F       		.byte	0xf
 2686 107d 9F       		.byte	0x9f
 2687 107e 2F       		.uleb128 0x2f
 2688 107f 46020000 		.4byte	.LASF149
 2689 1083 0A       		.byte	0xa
 2690 1084 5201     		.2byte	0x152
 2691 1086 D9000000 		.4byte	0xd9
 2692 108a 99100000 		.4byte	0x1099
 2693 108e 12       		.uleb128 0x12
 2694 108f 770F0000 		.4byte	0xf77
 2695 1093 12       		.uleb128 0x12
 2696 1094 45000000 		.4byte	0x45
 2697 1098 00       		.byte	0
 2698 1099 32       		.uleb128 0x32
 2699 109a F2010000 		.4byte	.LASF150
 2700 109e 09       		.byte	0x9
 2701 109f B3       		.byte	0xb3
 2702 10a0 AF100000 		.4byte	0x10af
 2703 10a4 12       		.uleb128 0x12
 2704 10a5 AF100000 		.4byte	0x10af
 2705 10a9 12       		.uleb128 0x12
 2706 10aa E4000000 		.4byte	0xe4
 2707 10ae 00       		.byte	0
 2708 10af 09       		.uleb128 0x9
 2709 10b0 04       		.byte	0x4
 2710 10b1 9F030000 		.4byte	0x39f
 2711 10b5 33       		.uleb128 0x33
 2712 10b6 CA010000 		.4byte	.LASF151
 2713 10ba 0A       		.byte	0xa
 2714 10bb 5A01     		.2byte	0x15a
 2715 10bd D9000000 		.4byte	0xd9
 2716 10c1 12       		.uleb128 0x12
ARM GAS  /tmp/ccDEJPNx.s 			page 49


 2717 10c2 A20F0000 		.4byte	0xfa2
 2718 10c6 00       		.byte	0
 2719 10c7 00       		.byte	0
 2720              		.section	.debug_abbrev,"",%progbits
 2721              	.Ldebug_abbrev0:
 2722 0000 01       		.uleb128 0x1
 2723 0001 11       		.uleb128 0x11
 2724 0002 01       		.byte	0x1
 2725 0003 25       		.uleb128 0x25
 2726 0004 0E       		.uleb128 0xe
 2727 0005 13       		.uleb128 0x13
 2728 0006 0B       		.uleb128 0xb
 2729 0007 03       		.uleb128 0x3
 2730 0008 0E       		.uleb128 0xe
 2731 0009 1B       		.uleb128 0x1b
 2732 000a 0E       		.uleb128 0xe
 2733 000b 55       		.uleb128 0x55
 2734 000c 17       		.uleb128 0x17
 2735 000d 11       		.uleb128 0x11
 2736 000e 01       		.uleb128 0x1
 2737 000f 10       		.uleb128 0x10
 2738 0010 17       		.uleb128 0x17
 2739 0011 00       		.byte	0
 2740 0012 00       		.byte	0
 2741 0013 02       		.uleb128 0x2
 2742 0014 24       		.uleb128 0x24
 2743 0015 00       		.byte	0
 2744 0016 0B       		.uleb128 0xb
 2745 0017 0B       		.uleb128 0xb
 2746 0018 3E       		.uleb128 0x3e
 2747 0019 0B       		.uleb128 0xb
 2748 001a 03       		.uleb128 0x3
 2749 001b 08       		.uleb128 0x8
 2750 001c 00       		.byte	0
 2751 001d 00       		.byte	0
 2752 001e 03       		.uleb128 0x3
 2753 001f 16       		.uleb128 0x16
 2754 0020 00       		.byte	0
 2755 0021 03       		.uleb128 0x3
 2756 0022 0E       		.uleb128 0xe
 2757 0023 3A       		.uleb128 0x3a
 2758 0024 0B       		.uleb128 0xb
 2759 0025 3B       		.uleb128 0x3b
 2760 0026 0B       		.uleb128 0xb
 2761 0027 49       		.uleb128 0x49
 2762 0028 13       		.uleb128 0x13
 2763 0029 00       		.byte	0
 2764 002a 00       		.byte	0
 2765 002b 04       		.uleb128 0x4
 2766 002c 24       		.uleb128 0x24
 2767 002d 00       		.byte	0
 2768 002e 0B       		.uleb128 0xb
 2769 002f 0B       		.uleb128 0xb
 2770 0030 3E       		.uleb128 0x3e
 2771 0031 0B       		.uleb128 0xb
 2772 0032 03       		.uleb128 0x3
 2773 0033 0E       		.uleb128 0xe
ARM GAS  /tmp/ccDEJPNx.s 			page 50


 2774 0034 00       		.byte	0
 2775 0035 00       		.byte	0
 2776 0036 05       		.uleb128 0x5
 2777 0037 13       		.uleb128 0x13
 2778 0038 01       		.byte	0x1
 2779 0039 03       		.uleb128 0x3
 2780 003a 0E       		.uleb128 0xe
 2781 003b 0B       		.uleb128 0xb
 2782 003c 0B       		.uleb128 0xb
 2783 003d 3A       		.uleb128 0x3a
 2784 003e 0B       		.uleb128 0xb
 2785 003f 3B       		.uleb128 0x3b
 2786 0040 0B       		.uleb128 0xb
 2787 0041 01       		.uleb128 0x1
 2788 0042 13       		.uleb128 0x13
 2789 0043 00       		.byte	0
 2790 0044 00       		.byte	0
 2791 0045 06       		.uleb128 0x6
 2792 0046 0D       		.uleb128 0xd
 2793 0047 00       		.byte	0
 2794 0048 03       		.uleb128 0x3
 2795 0049 0E       		.uleb128 0xe
 2796 004a 3A       		.uleb128 0x3a
 2797 004b 0B       		.uleb128 0xb
 2798 004c 3B       		.uleb128 0x3b
 2799 004d 0B       		.uleb128 0xb
 2800 004e 49       		.uleb128 0x49
 2801 004f 13       		.uleb128 0x13
 2802 0050 38       		.uleb128 0x38
 2803 0051 0B       		.uleb128 0xb
 2804 0052 00       		.byte	0
 2805 0053 00       		.byte	0
 2806 0054 07       		.uleb128 0x7
 2807 0055 0D       		.uleb128 0xd
 2808 0056 00       		.byte	0
 2809 0057 03       		.uleb128 0x3
 2810 0058 08       		.uleb128 0x8
 2811 0059 3A       		.uleb128 0x3a
 2812 005a 0B       		.uleb128 0xb
 2813 005b 3B       		.uleb128 0x3b
 2814 005c 0B       		.uleb128 0xb
 2815 005d 49       		.uleb128 0x49
 2816 005e 13       		.uleb128 0x13
 2817 005f 38       		.uleb128 0x38
 2818 0060 0B       		.uleb128 0xb
 2819 0061 00       		.byte	0
 2820 0062 00       		.byte	0
 2821 0063 08       		.uleb128 0x8
 2822 0064 13       		.uleb128 0x13
 2823 0065 01       		.byte	0x1
 2824 0066 0B       		.uleb128 0xb
 2825 0067 0B       		.uleb128 0xb
 2826 0068 3A       		.uleb128 0x3a
 2827 0069 0B       		.uleb128 0xb
 2828 006a 3B       		.uleb128 0x3b
 2829 006b 0B       		.uleb128 0xb
 2830 006c 01       		.uleb128 0x1
ARM GAS  /tmp/ccDEJPNx.s 			page 51


 2831 006d 13       		.uleb128 0x13
 2832 006e 00       		.byte	0
 2833 006f 00       		.byte	0
 2834 0070 09       		.uleb128 0x9
 2835 0071 0F       		.uleb128 0xf
 2836 0072 00       		.byte	0
 2837 0073 0B       		.uleb128 0xb
 2838 0074 0B       		.uleb128 0xb
 2839 0075 49       		.uleb128 0x49
 2840 0076 13       		.uleb128 0x13
 2841 0077 00       		.byte	0
 2842 0078 00       		.byte	0
 2843 0079 0A       		.uleb128 0xa
 2844 007a 0F       		.uleb128 0xf
 2845 007b 00       		.byte	0
 2846 007c 0B       		.uleb128 0xb
 2847 007d 0B       		.uleb128 0xb
 2848 007e 00       		.byte	0
 2849 007f 00       		.byte	0
 2850 0080 0B       		.uleb128 0xb
 2851 0081 0D       		.uleb128 0xd
 2852 0082 00       		.byte	0
 2853 0083 03       		.uleb128 0x3
 2854 0084 08       		.uleb128 0x8
 2855 0085 3A       		.uleb128 0x3a
 2856 0086 0B       		.uleb128 0xb
 2857 0087 3B       		.uleb128 0x3b
 2858 0088 05       		.uleb128 0x5
 2859 0089 49       		.uleb128 0x49
 2860 008a 13       		.uleb128 0x13
 2861 008b 38       		.uleb128 0x38
 2862 008c 0B       		.uleb128 0xb
 2863 008d 00       		.byte	0
 2864 008e 00       		.byte	0
 2865 008f 0C       		.uleb128 0xc
 2866 0090 13       		.uleb128 0x13
 2867 0091 01       		.byte	0x1
 2868 0092 03       		.uleb128 0x3
 2869 0093 0E       		.uleb128 0xe
 2870 0094 0B       		.uleb128 0xb
 2871 0095 0B       		.uleb128 0xb
 2872 0096 3A       		.uleb128 0x3a
 2873 0097 0B       		.uleb128 0xb
 2874 0098 3B       		.uleb128 0x3b
 2875 0099 05       		.uleb128 0x5
 2876 009a 01       		.uleb128 0x1
 2877 009b 13       		.uleb128 0x13
 2878 009c 00       		.byte	0
 2879 009d 00       		.byte	0
 2880 009e 0D       		.uleb128 0xd
 2881 009f 35       		.uleb128 0x35
 2882 00a0 00       		.byte	0
 2883 00a1 49       		.uleb128 0x49
 2884 00a2 13       		.uleb128 0x13
 2885 00a3 00       		.byte	0
 2886 00a4 00       		.byte	0
 2887 00a5 0E       		.uleb128 0xe
ARM GAS  /tmp/ccDEJPNx.s 			page 52


 2888 00a6 17       		.uleb128 0x17
 2889 00a7 01       		.byte	0x1
 2890 00a8 0B       		.uleb128 0xb
 2891 00a9 0B       		.uleb128 0xb
 2892 00aa 3A       		.uleb128 0x3a
 2893 00ab 0B       		.uleb128 0xb
 2894 00ac 3B       		.uleb128 0x3b
 2895 00ad 0B       		.uleb128 0xb
 2896 00ae 01       		.uleb128 0x1
 2897 00af 13       		.uleb128 0x13
 2898 00b0 00       		.byte	0
 2899 00b1 00       		.byte	0
 2900 00b2 0F       		.uleb128 0xf
 2901 00b3 0D       		.uleb128 0xd
 2902 00b4 00       		.byte	0
 2903 00b5 03       		.uleb128 0x3
 2904 00b6 0E       		.uleb128 0xe
 2905 00b7 3A       		.uleb128 0x3a
 2906 00b8 0B       		.uleb128 0xb
 2907 00b9 3B       		.uleb128 0x3b
 2908 00ba 0B       		.uleb128 0xb
 2909 00bb 49       		.uleb128 0x49
 2910 00bc 13       		.uleb128 0x13
 2911 00bd 00       		.byte	0
 2912 00be 00       		.byte	0
 2913 00bf 10       		.uleb128 0x10
 2914 00c0 26       		.uleb128 0x26
 2915 00c1 00       		.byte	0
 2916 00c2 49       		.uleb128 0x49
 2917 00c3 13       		.uleb128 0x13
 2918 00c4 00       		.byte	0
 2919 00c5 00       		.byte	0
 2920 00c6 11       		.uleb128 0x11
 2921 00c7 15       		.uleb128 0x15
 2922 00c8 01       		.byte	0x1
 2923 00c9 27       		.uleb128 0x27
 2924 00ca 19       		.uleb128 0x19
 2925 00cb 01       		.uleb128 0x1
 2926 00cc 13       		.uleb128 0x13
 2927 00cd 00       		.byte	0
 2928 00ce 00       		.byte	0
 2929 00cf 12       		.uleb128 0x12
 2930 00d0 05       		.uleb128 0x5
 2931 00d1 00       		.byte	0
 2932 00d2 49       		.uleb128 0x49
 2933 00d3 13       		.uleb128 0x13
 2934 00d4 00       		.byte	0
 2935 00d5 00       		.byte	0
 2936 00d6 13       		.uleb128 0x13
 2937 00d7 15       		.uleb128 0x15
 2938 00d8 01       		.byte	0x1
 2939 00d9 27       		.uleb128 0x27
 2940 00da 19       		.uleb128 0x19
 2941 00db 49       		.uleb128 0x49
 2942 00dc 13       		.uleb128 0x13
 2943 00dd 01       		.uleb128 0x1
 2944 00de 13       		.uleb128 0x13
ARM GAS  /tmp/ccDEJPNx.s 			page 53


 2945 00df 00       		.byte	0
 2946 00e0 00       		.byte	0
 2947 00e1 14       		.uleb128 0x14
 2948 00e2 16       		.uleb128 0x16
 2949 00e3 00       		.byte	0
 2950 00e4 03       		.uleb128 0x3
 2951 00e5 0E       		.uleb128 0xe
 2952 00e6 3A       		.uleb128 0x3a
 2953 00e7 0B       		.uleb128 0xb
 2954 00e8 3B       		.uleb128 0x3b
 2955 00e9 05       		.uleb128 0x5
 2956 00ea 49       		.uleb128 0x49
 2957 00eb 13       		.uleb128 0x13
 2958 00ec 00       		.byte	0
 2959 00ed 00       		.byte	0
 2960 00ee 15       		.uleb128 0x15
 2961 00ef 0D       		.uleb128 0xd
 2962 00f0 00       		.byte	0
 2963 00f1 03       		.uleb128 0x3
 2964 00f2 0E       		.uleb128 0xe
 2965 00f3 3A       		.uleb128 0x3a
 2966 00f4 0B       		.uleb128 0xb
 2967 00f5 3B       		.uleb128 0x3b
 2968 00f6 05       		.uleb128 0x5
 2969 00f7 49       		.uleb128 0x49
 2970 00f8 13       		.uleb128 0x13
 2971 00f9 38       		.uleb128 0x38
 2972 00fa 0B       		.uleb128 0xb
 2973 00fb 00       		.byte	0
 2974 00fc 00       		.byte	0
 2975 00fd 16       		.uleb128 0x16
 2976 00fe 13       		.uleb128 0x13
 2977 00ff 01       		.byte	0x1
 2978 0100 0B       		.uleb128 0xb
 2979 0101 0B       		.uleb128 0xb
 2980 0102 3A       		.uleb128 0x3a
 2981 0103 0B       		.uleb128 0xb
 2982 0104 3B       		.uleb128 0x3b
 2983 0105 05       		.uleb128 0x5
 2984 0106 01       		.uleb128 0x1
 2985 0107 13       		.uleb128 0x13
 2986 0108 00       		.byte	0
 2987 0109 00       		.byte	0
 2988 010a 17       		.uleb128 0x17
 2989 010b 13       		.uleb128 0x13
 2990 010c 01       		.byte	0x1
 2991 010d 0B       		.uleb128 0xb
 2992 010e 05       		.uleb128 0x5
 2993 010f 3A       		.uleb128 0x3a
 2994 0110 0B       		.uleb128 0xb
 2995 0111 3B       		.uleb128 0x3b
 2996 0112 05       		.uleb128 0x5
 2997 0113 01       		.uleb128 0x1
 2998 0114 13       		.uleb128 0x13
 2999 0115 00       		.byte	0
 3000 0116 00       		.byte	0
 3001 0117 18       		.uleb128 0x18
ARM GAS  /tmp/ccDEJPNx.s 			page 54


 3002 0118 0D       		.uleb128 0xd
 3003 0119 00       		.byte	0
 3004 011a 03       		.uleb128 0x3
 3005 011b 0E       		.uleb128 0xe
 3006 011c 3A       		.uleb128 0x3a
 3007 011d 0B       		.uleb128 0xb
 3008 011e 3B       		.uleb128 0x3b
 3009 011f 05       		.uleb128 0x5
 3010 0120 49       		.uleb128 0x49
 3011 0121 13       		.uleb128 0x13
 3012 0122 38       		.uleb128 0x38
 3013 0123 05       		.uleb128 0x5
 3014 0124 00       		.byte	0
 3015 0125 00       		.byte	0
 3016 0126 19       		.uleb128 0x19
 3017 0127 01       		.uleb128 0x1
 3018 0128 01       		.byte	0x1
 3019 0129 49       		.uleb128 0x49
 3020 012a 13       		.uleb128 0x13
 3021 012b 01       		.uleb128 0x1
 3022 012c 13       		.uleb128 0x13
 3023 012d 00       		.byte	0
 3024 012e 00       		.byte	0
 3025 012f 1A       		.uleb128 0x1a
 3026 0130 21       		.uleb128 0x21
 3027 0131 00       		.byte	0
 3028 0132 49       		.uleb128 0x49
 3029 0133 13       		.uleb128 0x13
 3030 0134 2F       		.uleb128 0x2f
 3031 0135 0B       		.uleb128 0xb
 3032 0136 00       		.byte	0
 3033 0137 00       		.byte	0
 3034 0138 1B       		.uleb128 0x1b
 3035 0139 04       		.uleb128 0x4
 3036 013a 01       		.byte	0x1
 3037 013b 0B       		.uleb128 0xb
 3038 013c 0B       		.uleb128 0xb
 3039 013d 3A       		.uleb128 0x3a
 3040 013e 0B       		.uleb128 0xb
 3041 013f 3B       		.uleb128 0x3b
 3042 0140 0B       		.uleb128 0xb
 3043 0141 01       		.uleb128 0x1
 3044 0142 13       		.uleb128 0x13
 3045 0143 00       		.byte	0
 3046 0144 00       		.byte	0
 3047 0145 1C       		.uleb128 0x1c
 3048 0146 28       		.uleb128 0x28
 3049 0147 00       		.byte	0
 3050 0148 03       		.uleb128 0x3
 3051 0149 0E       		.uleb128 0xe
 3052 014a 1C       		.uleb128 0x1c
 3053 014b 0D       		.uleb128 0xd
 3054 014c 00       		.byte	0
 3055 014d 00       		.byte	0
 3056 014e 1D       		.uleb128 0x1d
 3057 014f 2E       		.uleb128 0x2e
 3058 0150 01       		.byte	0x1
ARM GAS  /tmp/ccDEJPNx.s 			page 55


 3059 0151 03       		.uleb128 0x3
 3060 0152 0E       		.uleb128 0xe
 3061 0153 3A       		.uleb128 0x3a
 3062 0154 0B       		.uleb128 0xb
 3063 0155 3B       		.uleb128 0x3b
 3064 0156 0B       		.uleb128 0xb
 3065 0157 27       		.uleb128 0x27
 3066 0158 19       		.uleb128 0x19
 3067 0159 49       		.uleb128 0x49
 3068 015a 13       		.uleb128 0x13
 3069 015b 11       		.uleb128 0x11
 3070 015c 01       		.uleb128 0x1
 3071 015d 12       		.uleb128 0x12
 3072 015e 06       		.uleb128 0x6
 3073 015f 40       		.uleb128 0x40
 3074 0160 18       		.uleb128 0x18
 3075 0161 9742     		.uleb128 0x2117
 3076 0163 19       		.uleb128 0x19
 3077 0164 01       		.uleb128 0x1
 3078 0165 13       		.uleb128 0x13
 3079 0166 00       		.byte	0
 3080 0167 00       		.byte	0
 3081 0168 1E       		.uleb128 0x1e
 3082 0169 05       		.uleb128 0x5
 3083 016a 00       		.byte	0
 3084 016b 03       		.uleb128 0x3
 3085 016c 08       		.uleb128 0x8
 3086 016d 3A       		.uleb128 0x3a
 3087 016e 0B       		.uleb128 0xb
 3088 016f 3B       		.uleb128 0x3b
 3089 0170 0B       		.uleb128 0xb
 3090 0171 49       		.uleb128 0x49
 3091 0172 13       		.uleb128 0x13
 3092 0173 02       		.uleb128 0x2
 3093 0174 17       		.uleb128 0x17
 3094 0175 00       		.byte	0
 3095 0176 00       		.byte	0
 3096 0177 1F       		.uleb128 0x1f
 3097 0178 34       		.uleb128 0x34
 3098 0179 00       		.byte	0
 3099 017a 03       		.uleb128 0x3
 3100 017b 0E       		.uleb128 0xe
 3101 017c 3A       		.uleb128 0x3a
 3102 017d 0B       		.uleb128 0xb
 3103 017e 3B       		.uleb128 0x3b
 3104 017f 0B       		.uleb128 0xb
 3105 0180 49       		.uleb128 0x49
 3106 0181 13       		.uleb128 0x13
 3107 0182 02       		.uleb128 0x2
 3108 0183 18       		.uleb128 0x18
 3109 0184 00       		.byte	0
 3110 0185 00       		.byte	0
 3111 0186 20       		.uleb128 0x20
 3112 0187 0B       		.uleb128 0xb
 3113 0188 01       		.byte	0x1
 3114 0189 11       		.uleb128 0x11
 3115 018a 01       		.uleb128 0x1
ARM GAS  /tmp/ccDEJPNx.s 			page 56


 3116 018b 12       		.uleb128 0x12
 3117 018c 06       		.uleb128 0x6
 3118 018d 01       		.uleb128 0x1
 3119 018e 13       		.uleb128 0x13
 3120 018f 00       		.byte	0
 3121 0190 00       		.byte	0
 3122 0191 21       		.uleb128 0x21
 3123 0192 34       		.uleb128 0x34
 3124 0193 00       		.byte	0
 3125 0194 03       		.uleb128 0x3
 3126 0195 08       		.uleb128 0x8
 3127 0196 3A       		.uleb128 0x3a
 3128 0197 0B       		.uleb128 0xb
 3129 0198 3B       		.uleb128 0x3b
 3130 0199 0B       		.uleb128 0xb
 3131 019a 49       		.uleb128 0x49
 3132 019b 13       		.uleb128 0x13
 3133 019c 02       		.uleb128 0x2
 3134 019d 18       		.uleb128 0x18
 3135 019e 00       		.byte	0
 3136 019f 00       		.byte	0
 3137 01a0 22       		.uleb128 0x22
 3138 01a1 0B       		.uleb128 0xb
 3139 01a2 01       		.byte	0x1
 3140 01a3 55       		.uleb128 0x55
 3141 01a4 17       		.uleb128 0x17
 3142 01a5 00       		.byte	0
 3143 01a6 00       		.byte	0
 3144 01a7 23       		.uleb128 0x23
 3145 01a8 05       		.uleb128 0x5
 3146 01a9 00       		.byte	0
 3147 01aa 03       		.uleb128 0x3
 3148 01ab 0E       		.uleb128 0xe
 3149 01ac 3A       		.uleb128 0x3a
 3150 01ad 0B       		.uleb128 0xb
 3151 01ae 3B       		.uleb128 0x3b
 3152 01af 0B       		.uleb128 0xb
 3153 01b0 49       		.uleb128 0x49
 3154 01b1 13       		.uleb128 0x13
 3155 01b2 02       		.uleb128 0x2
 3156 01b3 17       		.uleb128 0x17
 3157 01b4 00       		.byte	0
 3158 01b5 00       		.byte	0
 3159 01b6 24       		.uleb128 0x24
 3160 01b7 898201   		.uleb128 0x4109
 3161 01ba 01       		.byte	0x1
 3162 01bb 11       		.uleb128 0x11
 3163 01bc 01       		.uleb128 0x1
 3164 01bd 9542     		.uleb128 0x2115
 3165 01bf 19       		.uleb128 0x19
 3166 01c0 31       		.uleb128 0x31
 3167 01c1 13       		.uleb128 0x13
 3168 01c2 00       		.byte	0
 3169 01c3 00       		.byte	0
 3170 01c4 25       		.uleb128 0x25
 3171 01c5 8A8201   		.uleb128 0x410a
 3172 01c8 00       		.byte	0
ARM GAS  /tmp/ccDEJPNx.s 			page 57


 3173 01c9 02       		.uleb128 0x2
 3174 01ca 18       		.uleb128 0x18
 3175 01cb 9142     		.uleb128 0x2111
 3176 01cd 18       		.uleb128 0x18
 3177 01ce 00       		.byte	0
 3178 01cf 00       		.byte	0
 3179 01d0 26       		.uleb128 0x26
 3180 01d1 2E       		.uleb128 0x2e
 3181 01d2 01       		.byte	0x1
 3182 01d3 3F       		.uleb128 0x3f
 3183 01d4 19       		.uleb128 0x19
 3184 01d5 03       		.uleb128 0x3
 3185 01d6 0E       		.uleb128 0xe
 3186 01d7 3A       		.uleb128 0x3a
 3187 01d8 0B       		.uleb128 0xb
 3188 01d9 3B       		.uleb128 0x3b
 3189 01da 0B       		.uleb128 0xb
 3190 01db 27       		.uleb128 0x27
 3191 01dc 19       		.uleb128 0x19
 3192 01dd 11       		.uleb128 0x11
 3193 01de 01       		.uleb128 0x1
 3194 01df 12       		.uleb128 0x12
 3195 01e0 06       		.uleb128 0x6
 3196 01e1 40       		.uleb128 0x40
 3197 01e2 18       		.uleb128 0x18
 3198 01e3 9742     		.uleb128 0x2117
 3199 01e5 19       		.uleb128 0x19
 3200 01e6 01       		.uleb128 0x1
 3201 01e7 13       		.uleb128 0x13
 3202 01e8 00       		.byte	0
 3203 01e9 00       		.byte	0
 3204 01ea 27       		.uleb128 0x27
 3205 01eb 898201   		.uleb128 0x4109
 3206 01ee 00       		.byte	0
 3207 01ef 11       		.uleb128 0x11
 3208 01f0 01       		.uleb128 0x1
 3209 01f1 9542     		.uleb128 0x2115
 3210 01f3 19       		.uleb128 0x19
 3211 01f4 31       		.uleb128 0x31
 3212 01f5 13       		.uleb128 0x13
 3213 01f6 00       		.byte	0
 3214 01f7 00       		.byte	0
 3215 01f8 28       		.uleb128 0x28
 3216 01f9 898201   		.uleb128 0x4109
 3217 01fc 01       		.byte	0x1
 3218 01fd 11       		.uleb128 0x11
 3219 01fe 01       		.uleb128 0x1
 3220 01ff 31       		.uleb128 0x31
 3221 0200 13       		.uleb128 0x13
 3222 0201 01       		.uleb128 0x1
 3223 0202 13       		.uleb128 0x13
 3224 0203 00       		.byte	0
 3225 0204 00       		.byte	0
 3226 0205 29       		.uleb128 0x29
 3227 0206 0B       		.uleb128 0xb
 3228 0207 01       		.byte	0x1
 3229 0208 55       		.uleb128 0x55
ARM GAS  /tmp/ccDEJPNx.s 			page 58


 3230 0209 17       		.uleb128 0x17
 3231 020a 01       		.uleb128 0x1
 3232 020b 13       		.uleb128 0x13
 3233 020c 00       		.byte	0
 3234 020d 00       		.byte	0
 3235 020e 2A       		.uleb128 0x2a
 3236 020f 898201   		.uleb128 0x4109
 3237 0212 01       		.byte	0x1
 3238 0213 11       		.uleb128 0x11
 3239 0214 01       		.uleb128 0x1
 3240 0215 31       		.uleb128 0x31
 3241 0216 13       		.uleb128 0x13
 3242 0217 00       		.byte	0
 3243 0218 00       		.byte	0
 3244 0219 2B       		.uleb128 0x2b
 3245 021a 898201   		.uleb128 0x4109
 3246 021d 00       		.byte	0
 3247 021e 11       		.uleb128 0x11
 3248 021f 01       		.uleb128 0x1
 3249 0220 31       		.uleb128 0x31
 3250 0221 13       		.uleb128 0x13
 3251 0222 00       		.byte	0
 3252 0223 00       		.byte	0
 3253 0224 2C       		.uleb128 0x2c
 3254 0225 2E       		.uleb128 0x2e
 3255 0226 01       		.byte	0x1
 3256 0227 3F       		.uleb128 0x3f
 3257 0228 19       		.uleb128 0x19
 3258 0229 03       		.uleb128 0x3
 3259 022a 0E       		.uleb128 0xe
 3260 022b 3A       		.uleb128 0x3a
 3261 022c 0B       		.uleb128 0xb
 3262 022d 3B       		.uleb128 0x3b
 3263 022e 0B       		.uleb128 0xb
 3264 022f 27       		.uleb128 0x27
 3265 0230 19       		.uleb128 0x19
 3266 0231 49       		.uleb128 0x49
 3267 0232 13       		.uleb128 0x13
 3268 0233 11       		.uleb128 0x11
 3269 0234 01       		.uleb128 0x1
 3270 0235 12       		.uleb128 0x12
 3271 0236 06       		.uleb128 0x6
 3272 0237 40       		.uleb128 0x40
 3273 0238 18       		.uleb128 0x18
 3274 0239 9742     		.uleb128 0x2117
 3275 023b 19       		.uleb128 0x19
 3276 023c 01       		.uleb128 0x1
 3277 023d 13       		.uleb128 0x13
 3278 023e 00       		.byte	0
 3279 023f 00       		.byte	0
 3280 0240 2D       		.uleb128 0x2d
 3281 0241 34       		.uleb128 0x34
 3282 0242 00       		.byte	0
 3283 0243 03       		.uleb128 0x3
 3284 0244 08       		.uleb128 0x8
 3285 0245 3A       		.uleb128 0x3a
 3286 0246 0B       		.uleb128 0xb
ARM GAS  /tmp/ccDEJPNx.s 			page 59


 3287 0247 3B       		.uleb128 0x3b
 3288 0248 0B       		.uleb128 0xb
 3289 0249 49       		.uleb128 0x49
 3290 024a 13       		.uleb128 0x13
 3291 024b 02       		.uleb128 0x2
 3292 024c 17       		.uleb128 0x17
 3293 024d 00       		.byte	0
 3294 024e 00       		.byte	0
 3295 024f 2E       		.uleb128 0x2e
 3296 0250 34       		.uleb128 0x34
 3297 0251 00       		.byte	0
 3298 0252 03       		.uleb128 0x3
 3299 0253 0E       		.uleb128 0xe
 3300 0254 3A       		.uleb128 0x3a
 3301 0255 0B       		.uleb128 0xb
 3302 0256 3B       		.uleb128 0x3b
 3303 0257 05       		.uleb128 0x5
 3304 0258 49       		.uleb128 0x49
 3305 0259 13       		.uleb128 0x13
 3306 025a 3F       		.uleb128 0x3f
 3307 025b 19       		.uleb128 0x19
 3308 025c 3C       		.uleb128 0x3c
 3309 025d 19       		.uleb128 0x19
 3310 025e 00       		.byte	0
 3311 025f 00       		.byte	0
 3312 0260 2F       		.uleb128 0x2f
 3313 0261 2E       		.uleb128 0x2e
 3314 0262 01       		.byte	0x1
 3315 0263 3F       		.uleb128 0x3f
 3316 0264 19       		.uleb128 0x19
 3317 0265 03       		.uleb128 0x3
 3318 0266 0E       		.uleb128 0xe
 3319 0267 3A       		.uleb128 0x3a
 3320 0268 0B       		.uleb128 0xb
 3321 0269 3B       		.uleb128 0x3b
 3322 026a 05       		.uleb128 0x5
 3323 026b 27       		.uleb128 0x27
 3324 026c 19       		.uleb128 0x19
 3325 026d 49       		.uleb128 0x49
 3326 026e 13       		.uleb128 0x13
 3327 026f 3C       		.uleb128 0x3c
 3328 0270 19       		.uleb128 0x19
 3329 0271 01       		.uleb128 0x1
 3330 0272 13       		.uleb128 0x13
 3331 0273 00       		.byte	0
 3332 0274 00       		.byte	0
 3333 0275 30       		.uleb128 0x30
 3334 0276 2E       		.uleb128 0x2e
 3335 0277 00       		.byte	0
 3336 0278 3F       		.uleb128 0x3f
 3337 0279 19       		.uleb128 0x19
 3338 027a 03       		.uleb128 0x3
 3339 027b 0E       		.uleb128 0xe
 3340 027c 3A       		.uleb128 0x3a
 3341 027d 0B       		.uleb128 0xb
 3342 027e 3B       		.uleb128 0x3b
 3343 027f 0B       		.uleb128 0xb
ARM GAS  /tmp/ccDEJPNx.s 			page 60


 3344 0280 27       		.uleb128 0x27
 3345 0281 19       		.uleb128 0x19
 3346 0282 3C       		.uleb128 0x3c
 3347 0283 19       		.uleb128 0x19
 3348 0284 00       		.byte	0
 3349 0285 00       		.byte	0
 3350 0286 31       		.uleb128 0x31
 3351 0287 2E       		.uleb128 0x2e
 3352 0288 01       		.byte	0x1
 3353 0289 3F       		.uleb128 0x3f
 3354 028a 19       		.uleb128 0x19
 3355 028b 03       		.uleb128 0x3
 3356 028c 0E       		.uleb128 0xe
 3357 028d 3A       		.uleb128 0x3a
 3358 028e 0B       		.uleb128 0xb
 3359 028f 3B       		.uleb128 0x3b
 3360 0290 05       		.uleb128 0x5
 3361 0291 27       		.uleb128 0x27
 3362 0292 19       		.uleb128 0x19
 3363 0293 3C       		.uleb128 0x3c
 3364 0294 19       		.uleb128 0x19
 3365 0295 01       		.uleb128 0x1
 3366 0296 13       		.uleb128 0x13
 3367 0297 00       		.byte	0
 3368 0298 00       		.byte	0
 3369 0299 32       		.uleb128 0x32
 3370 029a 2E       		.uleb128 0x2e
 3371 029b 01       		.byte	0x1
 3372 029c 3F       		.uleb128 0x3f
 3373 029d 19       		.uleb128 0x19
 3374 029e 03       		.uleb128 0x3
 3375 029f 0E       		.uleb128 0xe
 3376 02a0 3A       		.uleb128 0x3a
 3377 02a1 0B       		.uleb128 0xb
 3378 02a2 3B       		.uleb128 0x3b
 3379 02a3 0B       		.uleb128 0xb
 3380 02a4 27       		.uleb128 0x27
 3381 02a5 19       		.uleb128 0x19
 3382 02a6 3C       		.uleb128 0x3c
 3383 02a7 19       		.uleb128 0x19
 3384 02a8 01       		.uleb128 0x1
 3385 02a9 13       		.uleb128 0x13
 3386 02aa 00       		.byte	0
 3387 02ab 00       		.byte	0
 3388 02ac 33       		.uleb128 0x33
 3389 02ad 2E       		.uleb128 0x2e
 3390 02ae 01       		.byte	0x1
 3391 02af 3F       		.uleb128 0x3f
 3392 02b0 19       		.uleb128 0x19
 3393 02b1 03       		.uleb128 0x3
 3394 02b2 0E       		.uleb128 0xe
 3395 02b3 3A       		.uleb128 0x3a
 3396 02b4 0B       		.uleb128 0xb
 3397 02b5 3B       		.uleb128 0x3b
 3398 02b6 05       		.uleb128 0x5
 3399 02b7 27       		.uleb128 0x27
 3400 02b8 19       		.uleb128 0x19
ARM GAS  /tmp/ccDEJPNx.s 			page 61


 3401 02b9 49       		.uleb128 0x49
 3402 02ba 13       		.uleb128 0x13
 3403 02bb 3C       		.uleb128 0x3c
 3404 02bc 19       		.uleb128 0x19
 3405 02bd 00       		.byte	0
 3406 02be 00       		.byte	0
 3407 02bf 00       		.byte	0
 3408              		.section	.debug_loc,"",%progbits
 3409              	.Ldebug_loc0:
 3410              	.LLST0:
 3411 0000 00000000 		.4byte	.LVL0
 3412 0004 02000000 		.4byte	.LVL1
 3413 0008 0100     		.2byte	0x1
 3414 000a 50       		.byte	0x50
 3415 000b 02000000 		.4byte	.LVL1
 3416 000f 0C000000 		.4byte	.LFE38
 3417 0013 0400     		.2byte	0x4
 3418 0015 F3       		.byte	0xf3
 3419 0016 01       		.uleb128 0x1
 3420 0017 50       		.byte	0x50
 3421 0018 9F       		.byte	0x9f
 3422 0019 00000000 		.4byte	0
 3423 001d 00000000 		.4byte	0
 3424              	.LLST1:
 3425 0021 00000000 		.4byte	.LVL2
 3426 0025 02000000 		.4byte	.LVL3
 3427 0029 0100     		.2byte	0x1
 3428 002b 50       		.byte	0x50
 3429 002c 02000000 		.4byte	.LVL3
 3430 0030 0C000000 		.4byte	.LFE39
 3431 0034 0400     		.2byte	0x4
 3432 0036 F3       		.byte	0xf3
 3433 0037 01       		.uleb128 0x1
 3434 0038 50       		.byte	0x50
 3435 0039 9F       		.byte	0x9f
 3436 003a 00000000 		.4byte	0
 3437 003e 00000000 		.4byte	0
 3438              	.LLST2:
 3439 0042 00000000 		.4byte	.LVL4
 3440 0046 0C000000 		.4byte	.LVL5
 3441 004a 0100     		.2byte	0x1
 3442 004c 50       		.byte	0x50
 3443 004d 0C000000 		.4byte	.LVL5
 3444 0051 16000000 		.4byte	.LFE44
 3445 0055 0100     		.2byte	0x1
 3446 0057 52       		.byte	0x52
 3447 0058 00000000 		.4byte	0
 3448 005c 00000000 		.4byte	0
 3449              	.LLST3:
 3450 0060 00000000 		.4byte	.LVL6
 3451 0064 02000000 		.4byte	.LVL7
 3452 0068 0100     		.2byte	0x1
 3453 006a 50       		.byte	0x50
 3454 006b 02000000 		.4byte	.LVL7
 3455 006f 05000000 		.4byte	.LVL8-1
 3456 0073 0300     		.2byte	0x3
 3457 0075 70       		.byte	0x70
ARM GAS  /tmp/ccDEJPNx.s 			page 62


 3458 0076 70       		.sleb128 -16
 3459 0077 9F       		.byte	0x9f
 3460 0078 05000000 		.4byte	.LVL8-1
 3461 007c 06000000 		.4byte	.LFE43
 3462 0080 0400     		.2byte	0x4
 3463 0082 F3       		.byte	0xf3
 3464 0083 01       		.uleb128 0x1
 3465 0084 50       		.byte	0x50
 3466 0085 9F       		.byte	0x9f
 3467 0086 00000000 		.4byte	0
 3468 008a 00000000 		.4byte	0
 3469              	.LLST4:
 3470 008e 00000000 		.4byte	.LVL6
 3471 0092 05000000 		.4byte	.LVL8-1
 3472 0096 0100     		.2byte	0x1
 3473 0098 51       		.byte	0x51
 3474 0099 05000000 		.4byte	.LVL8-1
 3475 009d 06000000 		.4byte	.LFE43
 3476 00a1 0400     		.2byte	0x4
 3477 00a3 F3       		.byte	0xf3
 3478 00a4 01       		.uleb128 0x1
 3479 00a5 51       		.byte	0x51
 3480 00a6 9F       		.byte	0x9f
 3481 00a7 00000000 		.4byte	0
 3482 00ab 00000000 		.4byte	0
 3483              	.LLST5:
 3484 00af 00000000 		.4byte	.LVL6
 3485 00b3 05000000 		.4byte	.LVL8-1
 3486 00b7 0100     		.2byte	0x1
 3487 00b9 52       		.byte	0x52
 3488 00ba 05000000 		.4byte	.LVL8-1
 3489 00be 06000000 		.4byte	.LFE43
 3490 00c2 0400     		.2byte	0x4
 3491 00c4 F3       		.byte	0xf3
 3492 00c5 01       		.uleb128 0x1
 3493 00c6 52       		.byte	0x52
 3494 00c7 9F       		.byte	0x9f
 3495 00c8 00000000 		.4byte	0
 3496 00cc 00000000 		.4byte	0
 3497              	.LLST6:
 3498 00d0 00000000 		.4byte	.LVL6
 3499 00d4 05000000 		.4byte	.LVL8-1
 3500 00d8 0100     		.2byte	0x1
 3501 00da 53       		.byte	0x53
 3502 00db 05000000 		.4byte	.LVL8-1
 3503 00df 06000000 		.4byte	.LFE43
 3504 00e3 0400     		.2byte	0x4
 3505 00e5 F3       		.byte	0xf3
 3506 00e6 01       		.uleb128 0x1
 3507 00e7 53       		.byte	0x53
 3508 00e8 9F       		.byte	0x9f
 3509 00e9 00000000 		.4byte	0
 3510 00ed 00000000 		.4byte	0
 3511              	.LLST7:
 3512 00f1 00000000 		.4byte	.LVL9
 3513 00f5 02000000 		.4byte	.LVL10
 3514 00f9 0100     		.2byte	0x1
ARM GAS  /tmp/ccDEJPNx.s 			page 63


 3515 00fb 50       		.byte	0x50
 3516 00fc 02000000 		.4byte	.LVL10
 3517 0100 09000000 		.4byte	.LVL11-1
 3518 0104 0300     		.2byte	0x3
 3519 0106 70       		.byte	0x70
 3520 0107 70       		.sleb128 -16
 3521 0108 9F       		.byte	0x9f
 3522 0109 09000000 		.4byte	.LVL11-1
 3523 010d 0A000000 		.4byte	.LFE37
 3524 0111 0400     		.2byte	0x4
 3525 0113 F3       		.byte	0xf3
 3526 0114 01       		.uleb128 0x1
 3527 0115 50       		.byte	0x50
 3528 0116 9F       		.byte	0x9f
 3529 0117 00000000 		.4byte	0
 3530 011b 00000000 		.4byte	0
 3531              	.LLST8:
 3532 011f 00000000 		.4byte	.LVL9
 3533 0123 09000000 		.4byte	.LVL11-1
 3534 0127 0100     		.2byte	0x1
 3535 0129 51       		.byte	0x51
 3536 012a 09000000 		.4byte	.LVL11-1
 3537 012e 0A000000 		.4byte	.LFE37
 3538 0132 0400     		.2byte	0x4
 3539 0134 F3       		.byte	0xf3
 3540 0135 01       		.uleb128 0x1
 3541 0136 51       		.byte	0x51
 3542 0137 9F       		.byte	0x9f
 3543 0138 00000000 		.4byte	0
 3544 013c 00000000 		.4byte	0
 3545              	.LLST9:
 3546 0140 00000000 		.4byte	.LVL9
 3547 0144 09000000 		.4byte	.LVL11-1
 3548 0148 0100     		.2byte	0x1
 3549 014a 52       		.byte	0x52
 3550 014b 09000000 		.4byte	.LVL11-1
 3551 014f 0A000000 		.4byte	.LFE37
 3552 0153 0400     		.2byte	0x4
 3553 0155 F3       		.byte	0xf3
 3554 0156 01       		.uleb128 0x1
 3555 0157 52       		.byte	0x52
 3556 0158 9F       		.byte	0x9f
 3557 0159 00000000 		.4byte	0
 3558 015d 00000000 		.4byte	0
 3559              	.LLST10:
 3560 0161 00000000 		.4byte	.LVL12
 3561 0165 02000000 		.4byte	.LVL13
 3562 0169 0100     		.2byte	0x1
 3563 016b 50       		.byte	0x50
 3564 016c 02000000 		.4byte	.LVL13
 3565 0170 05000000 		.4byte	.LVL14-1
 3566 0174 0300     		.2byte	0x3
 3567 0176 70       		.byte	0x70
 3568 0177 50       		.sleb128 -48
 3569 0178 9F       		.byte	0x9f
 3570 0179 05000000 		.4byte	.LVL14-1
 3571 017d 06000000 		.4byte	.LFE42
ARM GAS  /tmp/ccDEJPNx.s 			page 64


 3572 0181 0400     		.2byte	0x4
 3573 0183 F3       		.byte	0xf3
 3574 0184 01       		.uleb128 0x1
 3575 0185 50       		.byte	0x50
 3576 0186 9F       		.byte	0x9f
 3577 0187 00000000 		.4byte	0
 3578 018b 00000000 		.4byte	0
 3579              	.LLST11:
 3580 018f 00000000 		.4byte	.LVL12
 3581 0193 05000000 		.4byte	.LVL14-1
 3582 0197 0100     		.2byte	0x1
 3583 0199 51       		.byte	0x51
 3584 019a 05000000 		.4byte	.LVL14-1
 3585 019e 06000000 		.4byte	.LFE42
 3586 01a2 0400     		.2byte	0x4
 3587 01a4 F3       		.byte	0xf3
 3588 01a5 01       		.uleb128 0x1
 3589 01a6 51       		.byte	0x51
 3590 01a7 9F       		.byte	0x9f
 3591 01a8 00000000 		.4byte	0
 3592 01ac 00000000 		.4byte	0
 3593              	.LLST12:
 3594 01b0 00000000 		.4byte	.LVL12
 3595 01b4 05000000 		.4byte	.LVL14-1
 3596 01b8 0100     		.2byte	0x1
 3597 01ba 52       		.byte	0x52
 3598 01bb 05000000 		.4byte	.LVL14-1
 3599 01bf 06000000 		.4byte	.LFE42
 3600 01c3 0400     		.2byte	0x4
 3601 01c5 F3       		.byte	0xf3
 3602 01c6 01       		.uleb128 0x1
 3603 01c7 52       		.byte	0x52
 3604 01c8 9F       		.byte	0x9f
 3605 01c9 00000000 		.4byte	0
 3606 01cd 00000000 		.4byte	0
 3607              	.LLST13:
 3608 01d1 00000000 		.4byte	.LVL12
 3609 01d5 05000000 		.4byte	.LVL14-1
 3610 01d9 0100     		.2byte	0x1
 3611 01db 53       		.byte	0x53
 3612 01dc 05000000 		.4byte	.LVL14-1
 3613 01e0 06000000 		.4byte	.LFE42
 3614 01e4 0400     		.2byte	0x4
 3615 01e6 F3       		.byte	0xf3
 3616 01e7 01       		.uleb128 0x1
 3617 01e8 53       		.byte	0x53
 3618 01e9 9F       		.byte	0x9f
 3619 01ea 00000000 		.4byte	0
 3620 01ee 00000000 		.4byte	0
 3621              	.LLST14:
 3622 01f2 00000000 		.4byte	.LVL15
 3623 01f6 02000000 		.4byte	.LVL16
 3624 01fa 0100     		.2byte	0x1
 3625 01fc 50       		.byte	0x50
 3626 01fd 02000000 		.4byte	.LVL16
 3627 0201 09000000 		.4byte	.LVL17-1
 3628 0205 0300     		.2byte	0x3
ARM GAS  /tmp/ccDEJPNx.s 			page 65


 3629 0207 70       		.byte	0x70
 3630 0208 50       		.sleb128 -48
 3631 0209 9F       		.byte	0x9f
 3632 020a 09000000 		.4byte	.LVL17-1
 3633 020e 0A000000 		.4byte	.LFE36
 3634 0212 0400     		.2byte	0x4
 3635 0214 F3       		.byte	0xf3
 3636 0215 01       		.uleb128 0x1
 3637 0216 50       		.byte	0x50
 3638 0217 9F       		.byte	0x9f
 3639 0218 00000000 		.4byte	0
 3640 021c 00000000 		.4byte	0
 3641              	.LLST15:
 3642 0220 00000000 		.4byte	.LVL15
 3643 0224 09000000 		.4byte	.LVL17-1
 3644 0228 0100     		.2byte	0x1
 3645 022a 51       		.byte	0x51
 3646 022b 09000000 		.4byte	.LVL17-1
 3647 022f 0A000000 		.4byte	.LFE36
 3648 0233 0400     		.2byte	0x4
 3649 0235 F3       		.byte	0xf3
 3650 0236 01       		.uleb128 0x1
 3651 0237 51       		.byte	0x51
 3652 0238 9F       		.byte	0x9f
 3653 0239 00000000 		.4byte	0
 3654 023d 00000000 		.4byte	0
 3655              	.LLST16:
 3656 0241 00000000 		.4byte	.LVL15
 3657 0245 09000000 		.4byte	.LVL17-1
 3658 0249 0100     		.2byte	0x1
 3659 024b 52       		.byte	0x52
 3660 024c 09000000 		.4byte	.LVL17-1
 3661 0250 0A000000 		.4byte	.LFE36
 3662 0254 0400     		.2byte	0x4
 3663 0256 F3       		.byte	0xf3
 3664 0257 01       		.uleb128 0x1
 3665 0258 52       		.byte	0x52
 3666 0259 9F       		.byte	0x9f
 3667 025a 00000000 		.4byte	0
 3668 025e 00000000 		.4byte	0
 3669              	.LLST17:
 3670 0262 00000000 		.4byte	.LVL18
 3671 0266 02000000 		.4byte	.LVL19
 3672 026a 0100     		.2byte	0x1
 3673 026c 50       		.byte	0x50
 3674 026d 02000000 		.4byte	.LVL19
 3675 0271 05000000 		.4byte	.LVL20-1
 3676 0275 0300     		.2byte	0x3
 3677 0277 70       		.byte	0x70
 3678 0278 70       		.sleb128 -16
 3679 0279 9F       		.byte	0x9f
 3680 027a 05000000 		.4byte	.LVL20-1
 3681 027e 06000000 		.4byte	.LFE41
 3682 0282 0400     		.2byte	0x4
 3683 0284 F3       		.byte	0xf3
 3684 0285 01       		.uleb128 0x1
 3685 0286 50       		.byte	0x50
ARM GAS  /tmp/ccDEJPNx.s 			page 66


 3686 0287 9F       		.byte	0x9f
 3687 0288 00000000 		.4byte	0
 3688 028c 00000000 		.4byte	0
 3689              	.LLST18:
 3690 0290 00000000 		.4byte	.LVL18
 3691 0294 05000000 		.4byte	.LVL20-1
 3692 0298 0100     		.2byte	0x1
 3693 029a 51       		.byte	0x51
 3694 029b 05000000 		.4byte	.LVL20-1
 3695 029f 06000000 		.4byte	.LFE41
 3696 02a3 0400     		.2byte	0x4
 3697 02a5 F3       		.byte	0xf3
 3698 02a6 01       		.uleb128 0x1
 3699 02a7 51       		.byte	0x51
 3700 02a8 9F       		.byte	0x9f
 3701 02a9 00000000 		.4byte	0
 3702 02ad 00000000 		.4byte	0
 3703              	.LLST19:
 3704 02b1 00000000 		.4byte	.LVL21
 3705 02b5 02000000 		.4byte	.LVL22
 3706 02b9 0100     		.2byte	0x1
 3707 02bb 50       		.byte	0x50
 3708 02bc 02000000 		.4byte	.LVL22
 3709 02c0 05000000 		.4byte	.LVL23-1
 3710 02c4 0300     		.2byte	0x3
 3711 02c6 70       		.byte	0x70
 3712 02c7 50       		.sleb128 -48
 3713 02c8 9F       		.byte	0x9f
 3714 02c9 05000000 		.4byte	.LVL23-1
 3715 02cd 06000000 		.4byte	.LFE40
 3716 02d1 0400     		.2byte	0x4
 3717 02d3 F3       		.byte	0xf3
 3718 02d4 01       		.uleb128 0x1
 3719 02d5 50       		.byte	0x50
 3720 02d6 9F       		.byte	0x9f
 3721 02d7 00000000 		.4byte	0
 3722 02db 00000000 		.4byte	0
 3723              	.LLST20:
 3724 02df 00000000 		.4byte	.LVL21
 3725 02e3 05000000 		.4byte	.LVL23-1
 3726 02e7 0100     		.2byte	0x1
 3727 02e9 51       		.byte	0x51
 3728 02ea 05000000 		.4byte	.LVL23-1
 3729 02ee 06000000 		.4byte	.LFE40
 3730 02f2 0400     		.2byte	0x4
 3731 02f4 F3       		.byte	0xf3
 3732 02f5 01       		.uleb128 0x1
 3733 02f6 51       		.byte	0x51
 3734 02f7 9F       		.byte	0x9f
 3735 02f8 00000000 		.4byte	0
 3736 02fc 00000000 		.4byte	0
 3737              	.LLST21:
 3738 0300 00000000 		.4byte	.LVL21
 3739 0304 05000000 		.4byte	.LVL23-1
 3740 0308 0100     		.2byte	0x1
 3741 030a 52       		.byte	0x52
 3742 030b 05000000 		.4byte	.LVL23-1
ARM GAS  /tmp/ccDEJPNx.s 			page 67


 3743 030f 06000000 		.4byte	.LFE40
 3744 0313 0400     		.2byte	0x4
 3745 0315 F3       		.byte	0xf3
 3746 0316 01       		.uleb128 0x1
 3747 0317 52       		.byte	0x52
 3748 0318 9F       		.byte	0x9f
 3749 0319 00000000 		.4byte	0
 3750 031d 00000000 		.4byte	0
 3751              	.LLST22:
 3752 0321 00000000 		.4byte	.LVL25
 3753 0325 14000000 		.4byte	.LVL26
 3754 0329 0100     		.2byte	0x1
 3755 032b 50       		.byte	0x50
 3756 032c 14000000 		.4byte	.LVL26
 3757 0330 3E000000 		.4byte	.LVL30
 3758 0334 0100     		.2byte	0x1
 3759 0336 54       		.byte	0x54
 3760 0337 3E000000 		.4byte	.LVL30
 3761 033b 41000000 		.4byte	.LVL31-1
 3762 033f 0400     		.2byte	0x4
 3763 0341 71       		.byte	0x71
 3764 0342 A07F     		.sleb128 -96
 3765 0344 9F       		.byte	0x9f
 3766 0345 41000000 		.4byte	.LVL31-1
 3767 0349 42000000 		.4byte	.LFE46
 3768 034d 0400     		.2byte	0x4
 3769 034f F3       		.byte	0xf3
 3770 0350 01       		.uleb128 0x1
 3771 0351 50       		.byte	0x50
 3772 0352 9F       		.byte	0x9f
 3773 0353 00000000 		.4byte	0
 3774 0357 00000000 		.4byte	0
 3775              	.LLST23:
 3776 035b 00000000 		.4byte	.LVL25
 3777 035f 20000000 		.4byte	.LVL27
 3778 0363 0100     		.2byte	0x1
 3779 0365 51       		.byte	0x51
 3780 0366 20000000 		.4byte	.LVL27
 3781 036a 2D000000 		.4byte	.LVL29-1
 3782 036e 0100     		.2byte	0x1
 3783 0370 53       		.byte	0x53
 3784 0371 2D000000 		.4byte	.LVL29-1
 3785 0375 42000000 		.4byte	.LFE46
 3786 0379 0400     		.2byte	0x4
 3787 037b F3       		.byte	0xf3
 3788 037c 01       		.uleb128 0x1
 3789 037d 51       		.byte	0x51
 3790 037e 9F       		.byte	0x9f
 3791 037f 00000000 		.4byte	0
 3792 0383 00000000 		.4byte	0
 3793              	.LLST24:
 3794 0387 00000000 		.4byte	.LVL25
 3795 038b 2A000000 		.4byte	.LVL28
 3796 038f 0100     		.2byte	0x1
 3797 0391 52       		.byte	0x52
 3798 0392 2A000000 		.4byte	.LVL28
 3799 0396 3E000000 		.4byte	.LVL30
ARM GAS  /tmp/ccDEJPNx.s 			page 68


 3800 039a 0100     		.2byte	0x1
 3801 039c 55       		.byte	0x55
 3802 039d 3E000000 		.4byte	.LVL30
 3803 03a1 41000000 		.4byte	.LVL31-1
 3804 03a5 0100     		.2byte	0x1
 3805 03a7 53       		.byte	0x53
 3806 03a8 41000000 		.4byte	.LVL31-1
 3807 03ac 42000000 		.4byte	.LFE46
 3808 03b0 0400     		.2byte	0x4
 3809 03b2 F3       		.byte	0xf3
 3810 03b3 01       		.uleb128 0x1
 3811 03b4 52       		.byte	0x52
 3812 03b5 9F       		.byte	0x9f
 3813 03b6 00000000 		.4byte	0
 3814 03ba 00000000 		.4byte	0
 3815              	.LLST25:
 3816 03be 00000000 		.4byte	.LVL32
 3817 03c2 0D000000 		.4byte	.LVL33-1
 3818 03c6 0100     		.2byte	0x1
 3819 03c8 50       		.byte	0x50
 3820 03c9 0D000000 		.4byte	.LVL33-1
 3821 03cd 1A000000 		.4byte	.LFE47
 3822 03d1 0100     		.2byte	0x1
 3823 03d3 54       		.byte	0x54
 3824 03d4 00000000 		.4byte	0
 3825 03d8 00000000 		.4byte	0
 3826              	.LLST26:
 3827 03dc 00000000 		.4byte	.LVL32
 3828 03e0 0D000000 		.4byte	.LVL33-1
 3829 03e4 0100     		.2byte	0x1
 3830 03e6 51       		.byte	0x51
 3831 03e7 0D000000 		.4byte	.LVL33-1
 3832 03eb 1A000000 		.4byte	.LFE47
 3833 03ef 0400     		.2byte	0x4
 3834 03f1 F3       		.byte	0xf3
 3835 03f2 01       		.uleb128 0x1
 3836 03f3 51       		.byte	0x51
 3837 03f4 9F       		.byte	0x9f
 3838 03f5 00000000 		.4byte	0
 3839 03f9 00000000 		.4byte	0
 3840              	.LLST27:
 3841 03fd 00000000 		.4byte	.LVL34
 3842 0401 0D000000 		.4byte	.LVL35-1
 3843 0405 0100     		.2byte	0x1
 3844 0407 50       		.byte	0x50
 3845 0408 0D000000 		.4byte	.LVL35-1
 3846 040c 2E000000 		.4byte	.LFE48
 3847 0410 0100     		.2byte	0x1
 3848 0412 54       		.byte	0x54
 3849 0413 00000000 		.4byte	0
 3850 0417 00000000 		.4byte	0
 3851              	.LLST28:
 3852 041b 00000000 		.4byte	.LVL39
 3853 041f 10000000 		.4byte	.LVL41
 3854 0423 0100     		.2byte	0x1
 3855 0425 50       		.byte	0x50
 3856 0426 10000000 		.4byte	.LVL41
ARM GAS  /tmp/ccDEJPNx.s 			page 69


 3857 042a 1A000000 		.4byte	.LVL43
 3858 042e 0100     		.2byte	0x1
 3859 0430 54       		.byte	0x54
 3860 0431 1A000000 		.4byte	.LVL43
 3861 0435 26000000 		.4byte	.LVL45
 3862 0439 0100     		.2byte	0x1
 3863 043b 50       		.byte	0x50
 3864 043c 26000000 		.4byte	.LVL45
 3865 0440 48000000 		.4byte	.LVL48
 3866 0444 0100     		.2byte	0x1
 3867 0446 54       		.byte	0x54
 3868 0447 48000000 		.4byte	.LVL48
 3869 044b 4B000000 		.4byte	.LVL49-1
 3870 044f 0300     		.2byte	0x3
 3871 0451 70       		.byte	0x70
 3872 0452 7C       		.sleb128 -4
 3873 0453 9F       		.byte	0x9f
 3874 0454 4B000000 		.4byte	.LVL49-1
 3875 0458 4C000000 		.4byte	.LFE49
 3876 045c 0400     		.2byte	0x4
 3877 045e F3       		.byte	0xf3
 3878 045f 01       		.uleb128 0x1
 3879 0460 50       		.byte	0x50
 3880 0461 9F       		.byte	0x9f
 3881 0462 00000000 		.4byte	0
 3882 0466 00000000 		.4byte	0
 3883              	.LLST29:
 3884 046a 00000000 		.4byte	.LVL39
 3885 046e 0C000000 		.4byte	.LVL40
 3886 0472 0100     		.2byte	0x1
 3887 0474 51       		.byte	0x51
 3888 0475 0C000000 		.4byte	.LVL40
 3889 0479 1A000000 		.4byte	.LVL43
 3890 047d 0400     		.2byte	0x4
 3891 047f F3       		.byte	0xf3
 3892 0480 01       		.uleb128 0x1
 3893 0481 51       		.byte	0x51
 3894 0482 9F       		.byte	0x9f
 3895 0483 1A000000 		.4byte	.LVL43
 3896 0487 1E000000 		.4byte	.LVL44
 3897 048b 0100     		.2byte	0x1
 3898 048d 51       		.byte	0x51
 3899 048e 1E000000 		.4byte	.LVL44
 3900 0492 4C000000 		.4byte	.LFE49
 3901 0496 0400     		.2byte	0x4
 3902 0498 F3       		.byte	0xf3
 3903 0499 01       		.uleb128 0x1
 3904 049a 51       		.byte	0x51
 3905 049b 9F       		.byte	0x9f
 3906 049c 00000000 		.4byte	0
 3907 04a0 00000000 		.4byte	0
 3908              	.LLST30:
 3909 04a4 00000000 		.4byte	.LVL50
 3910 04a8 06000000 		.4byte	.LVL51
 3911 04ac 0100     		.2byte	0x1
 3912 04ae 50       		.byte	0x50
 3913 04af 06000000 		.4byte	.LVL51
ARM GAS  /tmp/ccDEJPNx.s 			page 70


 3914 04b3 26000000 		.4byte	.LFE50
 3915 04b7 0100     		.2byte	0x1
 3916 04b9 54       		.byte	0x54
 3917 04ba 00000000 		.4byte	0
 3918 04be 00000000 		.4byte	0
 3919              	.LLST31:
 3920 04c2 0A000000 		.4byte	.LVL52
 3921 04c6 16000000 		.4byte	.LVL54
 3922 04ca 0100     		.2byte	0x1
 3923 04cc 50       		.byte	0x50
 3924 04cd 16000000 		.4byte	.LVL54
 3925 04d1 26000000 		.4byte	.LFE50
 3926 04d5 0100     		.2byte	0x1
 3927 04d7 55       		.byte	0x55
 3928 04d8 00000000 		.4byte	0
 3929 04dc 00000000 		.4byte	0
 3930              		.section	.debug_aranges,"",%progbits
 3931 0000 8C000000 		.4byte	0x8c
 3932 0004 0200     		.2byte	0x2
 3933 0006 00000000 		.4byte	.Ldebug_info0
 3934 000a 04       		.byte	0x4
 3935 000b 00       		.byte	0
 3936 000c 0000     		.2byte	0
 3937 000e 0000     		.2byte	0
 3938 0010 00000000 		.4byte	.LFB38
 3939 0014 0C000000 		.4byte	.LFE38-.LFB38
 3940 0018 00000000 		.4byte	.LFB39
 3941 001c 0C000000 		.4byte	.LFE39-.LFB39
 3942 0020 00000000 		.4byte	.LFB44
 3943 0024 16000000 		.4byte	.LFE44-.LFB44
 3944 0028 00000000 		.4byte	.LFB43
 3945 002c 06000000 		.4byte	.LFE43-.LFB43
 3946 0030 00000000 		.4byte	.LFB37
 3947 0034 0A000000 		.4byte	.LFE37-.LFB37
 3948 0038 00000000 		.4byte	.LFB42
 3949 003c 06000000 		.4byte	.LFE42-.LFB42
 3950 0040 00000000 		.4byte	.LFB36
 3951 0044 0A000000 		.4byte	.LFE36-.LFB36
 3952 0048 00000000 		.4byte	.LFB41
 3953 004c 06000000 		.4byte	.LFE41-.LFB41
 3954 0050 00000000 		.4byte	.LFB40
 3955 0054 06000000 		.4byte	.LFE40-.LFB40
 3956 0058 00000000 		.4byte	.LFB45
 3957 005c 04000000 		.4byte	.LFE45-.LFB45
 3958 0060 00000000 		.4byte	.LFB46
 3959 0064 42000000 		.4byte	.LFE46-.LFB46
 3960 0068 00000000 		.4byte	.LFB47
 3961 006c 1A000000 		.4byte	.LFE47-.LFB47
 3962 0070 00000000 		.4byte	.LFB48
 3963 0074 2E000000 		.4byte	.LFE48-.LFB48
 3964 0078 00000000 		.4byte	.LFB49
 3965 007c 4C000000 		.4byte	.LFE49-.LFB49
 3966 0080 00000000 		.4byte	.LFB50
 3967 0084 26000000 		.4byte	.LFE50-.LFB50
 3968 0088 00000000 		.4byte	0
 3969 008c 00000000 		.4byte	0
 3970              		.section	.debug_ranges,"",%progbits
ARM GAS  /tmp/ccDEJPNx.s 			page 71


 3971              	.Ldebug_ranges0:
 3972 0000 0C000000 		.4byte	.LBB3
 3973 0004 0E000000 		.4byte	.LBE3
 3974 0008 10000000 		.4byte	.LBB4
 3975 000c 14000000 		.4byte	.LBE4
 3976 0010 00000000 		.4byte	0
 3977 0014 00000000 		.4byte	0
 3978 0018 02000000 		.4byte	.LBB5
 3979 001c 04000000 		.4byte	.LBE5
 3980 0020 06000000 		.4byte	.LBB6
 3981 0024 0A000000 		.4byte	.LBE6
 3982 0028 00000000 		.4byte	0
 3983 002c 00000000 		.4byte	0
 3984 0030 02000000 		.4byte	.LBB8
 3985 0034 04000000 		.4byte	.LBE8
 3986 0038 06000000 		.4byte	.LBB9
 3987 003c 0A000000 		.4byte	.LBE9
 3988 0040 00000000 		.4byte	0
 3989 0044 00000000 		.4byte	0
 3990 0048 00000000 		.4byte	.LFB38
 3991 004c 0C000000 		.4byte	.LFE38
 3992 0050 00000000 		.4byte	.LFB39
 3993 0054 0C000000 		.4byte	.LFE39
 3994 0058 00000000 		.4byte	.LFB44
 3995 005c 16000000 		.4byte	.LFE44
 3996 0060 00000000 		.4byte	.LFB43
 3997 0064 06000000 		.4byte	.LFE43
 3998 0068 00000000 		.4byte	.LFB37
 3999 006c 0A000000 		.4byte	.LFE37
 4000 0070 00000000 		.4byte	.LFB42
 4001 0074 06000000 		.4byte	.LFE42
 4002 0078 00000000 		.4byte	.LFB36
 4003 007c 0A000000 		.4byte	.LFE36
 4004 0080 00000000 		.4byte	.LFB41
 4005 0084 06000000 		.4byte	.LFE41
 4006 0088 00000000 		.4byte	.LFB40
 4007 008c 06000000 		.4byte	.LFE40
 4008 0090 00000000 		.4byte	.LFB45
 4009 0094 04000000 		.4byte	.LFE45
 4010 0098 00000000 		.4byte	.LFB46
 4011 009c 42000000 		.4byte	.LFE46
 4012 00a0 00000000 		.4byte	.LFB47
 4013 00a4 1A000000 		.4byte	.LFE47
 4014 00a8 00000000 		.4byte	.LFB48
 4015 00ac 2E000000 		.4byte	.LFE48
 4016 00b0 00000000 		.4byte	.LFB49
 4017 00b4 4C000000 		.4byte	.LFE49
 4018 00b8 00000000 		.4byte	.LFB50
 4019 00bc 26000000 		.4byte	.LFE50
 4020 00c0 00000000 		.4byte	0
 4021 00c4 00000000 		.4byte	0
 4022              		.section	.debug_line,"",%progbits
 4023              	.Ldebug_line0:
 4024 0000 85030000 		.section	.debug_str,"MS",%progbits,1
 4024      02005602 
 4024      00000201 
 4024      FB0E0D00 
ARM GAS  /tmp/ccDEJPNx.s 			page 72


 4024      01010101 
 4025              	.LASF140:
 4026 0000 63684F51 		.ascii	"chOQPutTimeout\000"
 4026      50757454 
 4026      696D656F 
 4026      757400
 4027              	.LASF92:
 4028 000f 55415254 		.ascii	"UART_IMR\000"
 4028      5F494D52 
 4028      00
 4029              	.LASF2:
 4030 0018 73697A65 		.ascii	"size_t\000"
 4030      5F7400
 4031              	.LASF57:
 4032 001f 7264796D 		.ascii	"rdymsg\000"
 4032      736700
 4033              	.LASF153:
 4034 0026 2E2E2F74 		.ascii	"../third_party/ChibiOS/os/hal/src/serial.c\000"
 4034      68697264 
 4034      5F706172 
 4034      74792F43 
 4034      68696269 
 4035              	.LASF72:
 4036 0051 4F757470 		.ascii	"OutputQueue\000"
 4036      75745175 
 4036      65756500 
 4037              	.LASF137:
 4038 005d 63684951 		.ascii	"chIQReadTimeout\000"
 4038      52656164 
 4038      54696D65 
 4038      6F757400 
 4039              	.LASF152:
 4040 006d 474E5520 		.ascii	"GNU C 4.8.1 -mcpu=cortex-m3 -mno-thumb-interwork -m"
 4040      4320342E 
 4040      382E3120 
 4040      2D6D6370 
 4040      753D636F 
 4041 00a0 7468756D 		.ascii	"thumb -ggdb -O2 -std=gnu99 -fomit-frame-pointer -fa"
 4041      62202D67 
 4041      67646220 
 4041      2D4F3220 
 4041      2D737464 
 4042 00d3 6C69676E 		.ascii	"lign-functions=16 -ffunction-sections -fdata-sectio"
 4042      2D66756E 
 4042      6374696F 
 4042      6E733D31 
 4042      36202D66 
 4043 0106 6E73202D 		.ascii	"ns -fno-common\000"
 4043      666E6F2D 
 4043      636F6D6D 
 4043      6F6E00
 4044              	.LASF99:
 4045 0115 55415254 		.ascii	"UART_RCR\000"
 4045      5F524352 
 4045      00
 4046              	.LASF12:
 4047 011e 6C6F6E67 		.ascii	"long long unsigned int\000"
ARM GAS  /tmp/ccDEJPNx.s 			page 73


 4047      206C6F6E 
 4047      6720756E 
 4047      7369676E 
 4047      65642069 
 4048              	.LASF142:
 4049 0135 63684F51 		.ascii	"chOQInit\000"
 4049      496E6974 
 4049      00
 4050              	.LASF58:
 4051 013e 65786974 		.ascii	"exitcode\000"
 4051      636F6465 
 4051      00
 4052              	.LASF156:
 4053 0147 49544D5F 		.ascii	"ITM_RxBuffer\000"
 4053      52784275 
 4053      66666572 
 4053      00
 4054              	.LASF130:
 4055 0154 73644F62 		.ascii	"sdObjectInit\000"
 4055      6A656374 
 4055      496E6974 
 4055      00
 4056              	.LASF124:
 4057 0161 72656164 		.ascii	"reads\000"
 4057      7300
 4058              	.LASF80:
 4059 0167 72656164 		.ascii	"readt\000"
 4059      7400
 4060              	.LASF63:
 4061 016d 715F7761 		.ascii	"q_waiting\000"
 4061      6974696E 
 4061      6700
 4062              	.LASF11:
 4063 0177 6C6F6E67 		.ascii	"long long int\000"
 4063      206C6F6E 
 4063      6720696E 
 4063      7400
 4064              	.LASF1:
 4065 0185 7369676E 		.ascii	"signed char\000"
 4065      65642063 
 4065      68617200 
 4066              	.LASF106:
 4067 0191 55415254 		.ascii	"UART_PTCR\000"
 4067      5F505443 
 4067      5200
 4068              	.LASF40:
 4069 019b 705F6D70 		.ascii	"p_mpool\000"
 4069      6F6F6C00 
 4070              	.LASF14:
 4071 01a3 626F6F6C 		.ascii	"bool_t\000"
 4071      5F7400
 4072              	.LASF48:
 4073 01aa 6D5F7175 		.ascii	"m_queue\000"
 4073      65756500 
 4074              	.LASF114:
 4075 01b2 73746174 		.ascii	"state\000"
 4075      6500
ARM GAS  /tmp/ccDEJPNx.s 			page 74


 4076              	.LASF8:
 4077 01b8 6C6F6E67 		.ascii	"long int\000"
 4077      20696E74 
 4077      00
 4078              	.LASF16:
 4079 01c1 74737461 		.ascii	"tstate_t\000"
 4079      74655F74 
 4079      00
 4080              	.LASF151:
 4081 01ca 63684F51 		.ascii	"chOQGetI\000"
 4081      47657449 
 4081      00
 4082              	.LASF32:
 4083 01d3 705F7265 		.ascii	"p_refs\000"
 4083      667300
 4084              	.LASF65:
 4085 01da 715F6275 		.ascii	"q_buffer\000"
 4085      66666572 
 4085      00
 4086              	.LASF67:
 4087 01e3 715F7772 		.ascii	"q_wrptr\000"
 4087      70747200 
 4088              	.LASF33:
 4089 01eb 705F7469 		.ascii	"p_time\000"
 4089      6D6500
 4090              	.LASF150:
 4091 01f2 63684576 		.ascii	"chEvtBroadcastFlagsI\000"
 4091      7442726F 
 4091      61646361 
 4091      7374466C 
 4091      61677349 
 4092              	.LASF27:
 4093 0207 705F6E65 		.ascii	"p_newer\000"
 4093      77657200 
 4094              	.LASF77:
 4095 020f 70757477 		.ascii	"putwouldblock\000"
 4095      6F756C64 
 4095      626C6F63 
 4095      6B00
 4096              	.LASF107:
 4097 021d 55415254 		.ascii	"UART_PTSR\000"
 4097      5F505453 
 4097      5200
 4098              	.LASF148:
 4099 0227 63685363 		.ascii	"chSchRescheduleS\000"
 4099      68526573 
 4099      63686564 
 4099      756C6553 
 4099      00
 4100              	.LASF122:
 4101 0238 6D61736B 		.ascii	"mask\000"
 4101      00
 4102              	.LASF43:
 4103 023d 72656761 		.ascii	"regarm_t\000"
 4103      726D5F74 
 4103      00
 4104              	.LASF149:
ARM GAS  /tmp/ccDEJPNx.s 			page 75


 4105 0246 63684951 		.ascii	"chIQPutI\000"
 4105      50757449 
 4105      00
 4106              	.LASF55:
 4107 024f 4576656E 		.ascii	"EventSource\000"
 4107      74536F75 
 4107      72636500 
 4108              	.LASF74:
 4109 025b 42617365 		.ascii	"BaseAsynchronousChannelVMT\000"
 4109      4173796E 
 4109      6368726F 
 4109      6E6F7573 
 4109      4368616E 
 4110              	.LASF0:
 4111 0276 756E7369 		.ascii	"unsigned int\000"
 4111      676E6564 
 4111      20696E74 
 4111      00
 4112              	.LASF121:
 4113 0283 53657269 		.ascii	"SerialDriverVMT\000"
 4113      616C4472 
 4113      69766572 
 4113      564D5400 
 4114              	.LASF146:
 4115 0293 63684951 		.ascii	"chIQResetI\000"
 4115      52657365 
 4115      744900
 4116              	.LASF131:
 4117 029e 696E6F74 		.ascii	"inotify\000"
 4117      69667900 
 4118              	.LASF115:
 4119 02a6 69717565 		.ascii	"iqueue\000"
 4119      756500
 4120              	.LASF35:
 4121 02ad 705F6D73 		.ascii	"p_msgqueue\000"
 4121      67717565 
 4121      756500
 4122              	.LASF147:
 4123 02b8 73645F6C 		.ascii	"sd_lld_init\000"
 4123      6C645F69 
 4123      6E697400 
 4124              	.LASF97:
 4125 02c4 52657365 		.ascii	"Reserved1\000"
 4125      72766564 
 4125      3100
 4126              	.LASF126:
 4127 02ce 67657474 		.ascii	"gett\000"
 4127      00
 4128              	.LASF95:
 4129 02d3 55415254 		.ascii	"UART_THR\000"
 4129      5F544852 
 4129      00
 4130              	.LASF82:
 4131 02dc 6576656E 		.ascii	"event\000"
 4131      7400
 4132              	.LASF6:
 4133 02e2 73686F72 		.ascii	"short unsigned int\000"
ARM GAS  /tmp/ccDEJPNx.s 			page 76


 4133      7420756E 
 4133      7369676E 
 4133      65642069 
 4133      6E7400
 4134              	.LASF19:
 4135 02f5 6D73675F 		.ascii	"msg_t\000"
 4135      7400
 4136              	.LASF116:
 4137 02fb 6F717565 		.ascii	"oqueue\000"
 4137      756500
 4138              	.LASF52:
 4139 0302 656C5F6E 		.ascii	"el_next\000"
 4139      65787400 
 4140              	.LASF125:
 4141 030a 77726974 		.ascii	"writes\000"
 4141      657300
 4142              	.LASF79:
 4143 0311 77726974 		.ascii	"writet\000"
 4143      657400
 4144              	.LASF100:
 4145 0318 55415254 		.ascii	"UART_TPR\000"
 4145      5F545052 
 4145      00
 4146              	.LASF85:
 4147 0321 526F5265 		.ascii	"RoReg\000"
 4147      6700
 4148              	.LASF88:
 4149 0327 55415254 		.ascii	"UART_CR\000"
 4149      5F435200 
 4150              	.LASF42:
 4151 032f 54687265 		.ascii	"ThreadsList\000"
 4151      6164734C 
 4151      69737400 
 4152              	.LASF20:
 4153 033b 6576656E 		.ascii	"eventmask_t\000"
 4153      746D6173 
 4153      6B5F7400 
 4154              	.LASF71:
 4155 0347 496E7075 		.ascii	"InputQueue\000"
 4155      74517565 
 4155      756500
 4156              	.LASF70:
 4157 0352 716E6F74 		.ascii	"qnotify_t\000"
 4157      6966795F 
 4157      7400
 4158              	.LASF62:
 4159 035c 47656E65 		.ascii	"GenericQueue\000"
 4159      72696351 
 4159      75657565 
 4159      00
 4160              	.LASF138:
 4161 0369 63684F51 		.ascii	"chOQWriteTimeout\000"
 4161      57726974 
 4161      6554696D 
 4161      656F7574 
 4161      00
 4162              	.LASF41:
ARM GAS  /tmp/ccDEJPNx.s 			page 77


 4163 037a 54687265 		.ascii	"ThreadsQueue\000"
 4163      61647351 
 4163      75657565 
 4163      00
 4164              	.LASF75:
 4165 0387 77726974 		.ascii	"write\000"
 4165      6500
 4166              	.LASF128:
 4167 038d 70757474 		.ascii	"putt\000"
 4167      00
 4168              	.LASF54:
 4169 0392 656C5F6D 		.ascii	"el_mask\000"
 4169      61736B00 
 4170              	.LASF105:
 4171 039a 55415254 		.ascii	"UART_TNCR\000"
 4171      5F544E43 
 4171      5200
 4172              	.LASF46:
 4173 03a4 73697A65 		.ascii	"sizetype\000"
 4173      74797065 
 4173      00
 4174              	.LASF104:
 4175 03ad 55415254 		.ascii	"UART_TNPR\000"
 4175      5F544E50 
 4175      5200
 4176              	.LASF64:
 4177 03b7 715F636F 		.ascii	"q_counter\000"
 4177      756E7465 
 4177      7200
 4178              	.LASF47:
 4179 03c1 4D757465 		.ascii	"Mutex\000"
 4179      7800
 4180              	.LASF119:
 4181 03c7 73635F6D 		.ascii	"sc_mr\000"
 4181      7200
 4182              	.LASF103:
 4183 03cd 55415254 		.ascii	"UART_RNCR\000"
 4183      5F524E43 
 4183      5200
 4184              	.LASF93:
 4185 03d7 55415254 		.ascii	"UART_SR\000"
 4185      5F535200 
 4186              	.LASF81:
 4187 03df 67657466 		.ascii	"getflags\000"
 4187      6C616773 
 4187      00
 4188              	.LASF73:
 4189 03e8 696F666C 		.ascii	"ioflags_t\000"
 4189      6167735F 
 4189      7400
 4190              	.LASF154:
 4191 03f2 2F686F6D 		.ascii	"/home/santi/Documentos/ProyectoDron_2018/MCU/creato"
 4191      652F7361 
 4191      6E74692F 
 4191      446F6375 
 4191      6D656E74 
 4192 0425 7200     		.ascii	"r\000"
ARM GAS  /tmp/ccDEJPNx.s 			page 78


 4193              	.LASF135:
 4194 0427 73645374 		.ascii	"sdStop\000"
 4194      6F7000
 4195              	.LASF98:
 4196 042e 55415254 		.ascii	"UART_RPR\000"
 4196      5F525052 
 4196      00
 4197              	.LASF86:
 4198 0437 576F5265 		.ascii	"WoReg\000"
 4198      6700
 4199              	.LASF96:
 4200 043d 55415254 		.ascii	"UART_BRGR\000"
 4200      5F425247 
 4200      5200
 4201              	.LASF120:
 4202 0447 53657269 		.ascii	"SerialConfig\000"
 4202      616C436F 
 4202      6E666967 
 4202      00
 4203              	.LASF117:
 4204 0454 75617274 		.ascii	"uart\000"
 4204      00
 4205              	.LASF111:
 4206 0459 53445F52 		.ascii	"SD_READY\000"
 4206      45414459 
 4206      00
 4207              	.LASF90:
 4208 0462 55415254 		.ascii	"UART_IER\000"
 4208      5F494552 
 4208      00
 4209              	.LASF17:
 4210 046b 74726566 		.ascii	"trefs_t\000"
 4210      735F7400 
 4211              	.LASF13:
 4212 0473 75696E74 		.ascii	"uint_fast16_t\000"
 4212      5F666173 
 4212      7431365F 
 4212      7400
 4213              	.LASF24:
 4214 0481 705F7072 		.ascii	"p_prev\000"
 4214      657600
 4215              	.LASF18:
 4216 0488 74707269 		.ascii	"tprio_t\000"
 4216      6F5F7400 
 4217              	.LASF68:
 4218 0490 715F7264 		.ascii	"q_rdptr\000"
 4218      70747200 
 4219              	.LASF7:
 4220 0498 696E7433 		.ascii	"int32_t\000"
 4220      325F7400 
 4221              	.LASF4:
 4222 04a0 756E7369 		.ascii	"unsigned char\000"
 4222      676E6564 
 4222      20636861 
 4222      7200
 4223              	.LASF143:
 4224 04ae 73645F6C 		.ascii	"sd_lld_start\000"
ARM GAS  /tmp/ccDEJPNx.s 			page 79


 4224      6C645F73 
 4224      74617274 
 4224      00
 4225              	.LASF53:
 4226 04bb 656C5F6C 		.ascii	"el_listener\000"
 4226      69737465 
 4226      6E657200 
 4227              	.LASF30:
 4228 04c7 705F7374 		.ascii	"p_state\000"
 4228      61746500 
 4229              	.LASF38:
 4230 04cf 705F6D74 		.ascii	"p_mtxlist\000"
 4230      786C6973 
 4230      7400
 4231              	.LASF5:
 4232 04d9 73686F72 		.ascii	"short int\000"
 4232      7420696E 
 4232      7400
 4233              	.LASF28:
 4234 04e3 705F6F6C 		.ascii	"p_older\000"
 4234      64657200 
 4235              	.LASF60:
 4236 04eb 65776D61 		.ascii	"ewmask\000"
 4236      736B00
 4237              	.LASF23:
 4238 04f2 705F6E65 		.ascii	"p_next\000"
 4238      787400
 4239              	.LASF15:
 4240 04f9 746D6F64 		.ascii	"tmode_t\000"
 4240      655F7400 
 4241              	.LASF31:
 4242 0501 705F666C 		.ascii	"p_flags\000"
 4242      61677300 
 4243              	.LASF102:
 4244 0509 55415254 		.ascii	"UART_RNPR\000"
 4244      5F524E50 
 4244      5200
 4245              	.LASF110:
 4246 0513 53445F53 		.ascii	"SD_STOP\000"
 4246      544F5000 
 4247              	.LASF22:
 4248 051b 54687265 		.ascii	"Thread\000"
 4248      616400
 4249              	.LASF101:
 4250 0522 55415254 		.ascii	"UART_TCR\000"
 4250      5F544352 
 4250      00
 4251              	.LASF37:
 4252 052b 705F6570 		.ascii	"p_epending\000"
 4252      656E6469 
 4252      6E6700
 4253              	.LASF109:
 4254 0536 53445F55 		.ascii	"SD_UNINIT\000"
 4254      4E494E49 
 4254      5400
 4255              	.LASF9:
 4256 0540 75696E74 		.ascii	"uint32_t\000"
ARM GAS  /tmp/ccDEJPNx.s 			page 80


 4256      33325F74 
 4256      00
 4257              	.LASF94:
 4258 0549 55415254 		.ascii	"UART_RHR\000"
 4258      5F524852 
 4258      00
 4259              	.LASF112:
 4260 0552 73647374 		.ascii	"sdstate_t\000"
 4260      6174655F 
 4260      7400
 4261              	.LASF113:
 4262 055c 53657269 		.ascii	"SerialDriver\000"
 4262      616C4472 
 4262      69766572 
 4262      00
 4263              	.LASF89:
 4264 0569 55415254 		.ascii	"UART_MR\000"
 4264      5F4D5200 
 4265              	.LASF10:
 4266 0571 6C6F6E67 		.ascii	"long unsigned int\000"
 4266      20756E73 
 4266      69676E65 
 4266      6420696E 
 4266      7400
 4267              	.LASF76:
 4268 0583 72656164 		.ascii	"read\000"
 4268      00
 4269              	.LASF61:
 4270 0588 63686172 		.ascii	"char\000"
 4270      00
 4271              	.LASF136:
 4272 058d 7364496E 		.ascii	"sdIncomingDataI\000"
 4272      636F6D69 
 4272      6E674461 
 4272      74614900 
 4273              	.LASF134:
 4274 059d 636F6E66 		.ascii	"config\000"
 4274      696700
 4275              	.LASF133:
 4276 05a4 73645374 		.ascii	"sdStart\000"
 4276      61727400 
 4277              	.LASF50:
 4278 05ac 6D5F6E65 		.ascii	"m_next\000"
 4278      787400
 4279              	.LASF21:
 4280 05b3 73797374 		.ascii	"systime_t\000"
 4280      696D655F 
 4280      7400
 4281              	.LASF39:
 4282 05bd 705F7265 		.ascii	"p_realprio\000"
 4282      616C7072 
 4282      696F00
 4283              	.LASF108:
 4284 05c8 55617274 		.ascii	"Uart\000"
 4284      00
 4285              	.LASF118:
 4286 05cd 73635F73 		.ascii	"sc_speed\000"
ARM GAS  /tmp/ccDEJPNx.s 			page 81


 4286      70656564 
 4286      00
 4287              	.LASF84:
 4288 05d6 42617365 		.ascii	"BaseAsynchronousChannel\000"
 4288      4173796E 
 4288      6368726F 
 4288      6E6F7573 
 4288      4368616E 
 4289              	.LASF45:
 4290 05ee 636F6E74 		.ascii	"context\000"
 4290      65787400 
 4291              	.LASF51:
 4292 05f6 4576656E 		.ascii	"EventListener\000"
 4292      744C6973 
 4292      74656E65 
 4292      7200
 4293              	.LASF91:
 4294 0604 55415254 		.ascii	"UART_IDR\000"
 4294      5F494452 
 4294      00
 4295              	.LASF44:
 4296 060d 696E7463 		.ascii	"intctx\000"
 4296      747800
 4297              	.LASF123:
 4298 0614 74696D65 		.ascii	"time\000"
 4298      00
 4299              	.LASF87:
 4300 0619 52775265 		.ascii	"RwReg\000"
 4300      6700
 4301              	.LASF66:
 4302 061f 715F746F 		.ascii	"q_top\000"
 4302      7000
 4303              	.LASF29:
 4304 0625 705F6E61 		.ascii	"p_name\000"
 4304      6D6500
 4305              	.LASF56:
 4306 062c 65735F6E 		.ascii	"es_next\000"
 4306      65787400 
 4307              	.LASF69:
 4308 0634 715F6E6F 		.ascii	"q_notify\000"
 4308      74696679 
 4308      00
 4309              	.LASF36:
 4310 063d 705F6D73 		.ascii	"p_msg\000"
 4310      6700
 4311              	.LASF155:
 4312 0643 73645265 		.ascii	"sdRequestDataI\000"
 4312      71756573 
 4312      74446174 
 4312      614900
 4313              	.LASF3:
 4314 0652 75696E74 		.ascii	"uint8_t\000"
 4314      385F7400 
 4315              	.LASF83:
 4316 065a 666C6167 		.ascii	"flags\000"
 4316      7300
 4317              	.LASF132:
ARM GAS  /tmp/ccDEJPNx.s 			page 82


 4318 0660 6F6E6F74 		.ascii	"onotify\000"
 4318      69667900 
 4319              	.LASF25:
 4320 0668 705F7072 		.ascii	"p_prio\000"
 4320      696F00
 4321              	.LASF145:
 4322 066f 63684F51 		.ascii	"chOQResetI\000"
 4322      52657365 
 4322      744900
 4323              	.LASF59:
 4324 067a 77746F62 		.ascii	"wtobjp\000"
 4324      6A7000
 4325              	.LASF78:
 4326 0681 67657477 		.ascii	"getwouldblock\000"
 4326      6F756C64 
 4326      626C6F63 
 4326      6B00
 4327              	.LASF144:
 4328 068f 73645F6C 		.ascii	"sd_lld_stop\000"
 4328      6C645F73 
 4328      746F7000 
 4329              	.LASF127:
 4330 069b 74696D65 		.ascii	"timeout\000"
 4330      6F757400 
 4331              	.LASF129:
 4332 06a3 7364496E 		.ascii	"sdInit\000"
 4332      697400
 4333              	.LASF141:
 4334 06aa 63684951 		.ascii	"chIQInit\000"
 4334      496E6974 
 4334      00
 4335              	.LASF49:
 4336 06b3 6D5F6F77 		.ascii	"m_owner\000"
 4336      6E657200 
 4337              	.LASF26:
 4338 06bb 705F6374 		.ascii	"p_ctx\000"
 4338      7800
 4339              	.LASF34:
 4340 06c1 705F7761 		.ascii	"p_waiting\000"
 4340      6974696E 
 4340      6700
 4341              	.LASF139:
 4342 06cb 63684951 		.ascii	"chIQGetTimeout\000"
 4342      47657454 
 4342      696D656F 
 4342      757400
 4343              		.ident	"GCC: (Sourcery CodeBench Lite 2013.11-24) 4.8.1"
ARM GAS  /tmp/ccDEJPNx.s 			page 83


DEFINED SYMBOLS
                            *ABS*:00000000 serial.c
     /tmp/ccDEJPNx.s:19     .text.putwouldblock:00000000 $t
     /tmp/ccDEJPNx.s:24     .text.putwouldblock:00000000 putwouldblock
     /tmp/ccDEJPNx.s:45     .text.getwouldblock:00000000 $t
     /tmp/ccDEJPNx.s:50     .text.getwouldblock:00000000 getwouldblock
     /tmp/ccDEJPNx.s:70     .text.getflags:00000000 $t
     /tmp/ccDEJPNx.s:75     .text.getflags:00000000 getflags
     /tmp/ccDEJPNx.s:112    .text.readt:00000000 $t
     /tmp/ccDEJPNx.s:117    .text.readt:00000000 readt
     /tmp/ccDEJPNx.s:134    .text.reads:00000000 $t
     /tmp/ccDEJPNx.s:139    .text.reads:00000000 reads
     /tmp/ccDEJPNx.s:157    .text.writet:00000000 $t
     /tmp/ccDEJPNx.s:162    .text.writet:00000000 writet
     /tmp/ccDEJPNx.s:179    .text.writes:00000000 $t
     /tmp/ccDEJPNx.s:184    .text.writes:00000000 writes
     /tmp/ccDEJPNx.s:202    .text.gett:00000000 $t
     /tmp/ccDEJPNx.s:207    .text.gett:00000000 gett
     /tmp/ccDEJPNx.s:224    .text.putt:00000000 $t
     /tmp/ccDEJPNx.s:229    .text.putt:00000000 putt
     /tmp/ccDEJPNx.s:246    .text.sdInit:00000000 $t
     /tmp/ccDEJPNx.s:252    .text.sdInit:00000000 sdInit
     /tmp/ccDEJPNx.s:266    .text.sdObjectInit:00000000 $t
     /tmp/ccDEJPNx.s:272    .text.sdObjectInit:00000000 sdObjectInit
     /tmp/ccDEJPNx.s:565    .rodata.vmt:00000000 .LANCHOR0
     /tmp/ccDEJPNx.s:332    .text.sdStart:00000000 $t
     /tmp/ccDEJPNx.s:338    .text.sdStart:00000000 sdStart
     /tmp/ccDEJPNx.s:381    .text.sdStop:00000000 $t
     /tmp/ccDEJPNx.s:387    .text.sdStop:00000000 sdStop
     /tmp/ccDEJPNx.s:441    .text.sdIncomingDataI:00000000 $t
     /tmp/ccDEJPNx.s:447    .text.sdIncomingDataI:00000000 sdIncomingDataI
     /tmp/ccDEJPNx.s:514    .text.sdRequestDataI:00000000 $t
     /tmp/ccDEJPNx.s:520    .text.sdRequestDataI:00000000 sdRequestDataI
     /tmp/ccDEJPNx.s:564    .rodata.vmt:00000000 $d
     /tmp/ccDEJPNx.s:568    .rodata.vmt:00000000 vmt
                     .debug_frame:00000010 $d

UNDEFINED SYMBOLS
chIQReadTimeout
chOQWriteTimeout
chIQGetTimeout
chOQPutTimeout
sd_lld_init
chIQInit
chOQInit
sd_lld_start
sd_lld_stop
chOQResetI
chIQResetI
chSchRescheduleS
chIQPutI
chEvtBroadcastFlagsI
chOQGetI
