ARM GAS  /tmp/ccR4B9nj.s 			page 1


   1              		.syntax unified
   2              		.cpu cortex-m3
   3              		.fpu softvfp
   4              		.eabi_attribute 20, 1
   5              		.eabi_attribute 21, 1
   6              		.eabi_attribute 23, 3
   7              		.eabi_attribute 24, 1
   8              		.eabi_attribute 25, 1
   9              		.eabi_attribute 26, 1
  10              		.eabi_attribute 30, 2
  11              		.eabi_attribute 34, 1
  12              		.eabi_attribute 18, 4
  13              		.thumb
  14              		.file	"serial_lld.c"
  15              		.text
  16              	.Ltext0:
  17              		.cfi_sections	.debug_frame
  18              		.section	.text.notify1,"ax",%progbits
  19              		.align	2
  20              		.p2align 4,,15
  21              		.thumb
  22              		.thumb_func
  23              		.type	notify1, %function
  24              	notify1:
  25              	.LFB40:
  26              		.file 1 "../third_party/ChibiOS/os/hal/platforms/AT91SAM3S/serial_lld.c"
  27              		.loc 1 174 0
  28              		.cfi_startproc
  29              		@ args = 0, pretend = 0, frame = 0
  30              		@ frame_needed = 0, uses_anonymous_args = 0
  31              		@ link register save eliminated.
  32              	.LVL0:
  33              		.loc 1 177 0
  34 0000 4FF4C063 		mov	r3, #1536
  35 0004 C4F20E03 		movt	r3, 16398
  36 0008 0222     		movs	r2, #2
  37 000a 9A60     		str	r2, [r3, #8]
  38 000c 7047     		bx	lr
  39              		.cfi_endproc
  40              	.LFE40:
  41              		.size	notify1, .-notify1
  42              		.section	.text.notify2,"ax",%progbits
  43              		.align	2
  44              		.p2align 4,,15
  45              		.thumb
  46              		.thumb_func
  47              		.type	notify2, %function
  48              	notify2:
  49              	.LFB41:
  50              		.loc 1 183 0
  51              		.cfi_startproc
  52              		@ args = 0, pretend = 0, frame = 0
  53              		@ frame_needed = 0, uses_anonymous_args = 0
  54              		@ link register save eliminated.
  55              	.LVL1:
  56              		.loc 1 186 0
  57 0000 4FF40063 		mov	r3, #2048
ARM GAS  /tmp/ccR4B9nj.s 			page 2


  58 0004 C4F20E03 		movt	r3, 16398
  59 0008 0222     		movs	r2, #2
  60 000a 9A60     		str	r2, [r3, #8]
  61 000c 7047     		bx	lr
  62              		.cfi_endproc
  63              	.LFE41:
  64              		.size	notify2, .-notify2
  65 000e 00BF     		.section	.text.serve_interrupt,"ax",%progbits
  66              		.align	2
  67              		.p2align 4,,15
  68              		.thumb
  69              		.thumb_func
  70              		.type	serve_interrupt, %function
  71              	serve_interrupt:
  72              	.LFB39:
  73              		.loc 1 136 0
  74              		.cfi_startproc
  75              		@ args = 0, pretend = 0, frame = 0
  76              		@ frame_needed = 0, uses_anonymous_args = 0
  77              	.LVL2:
  78 0000 70B5     		push	{r4, r5, r6, lr}
  79              		.cfi_def_cfa_offset 16
  80              		.cfi_offset 4, -16
  81              		.cfi_offset 5, -12
  82              		.cfi_offset 6, -8
  83              		.cfi_offset 14, -4
  84              		.loc 1 138 0
  85 0002 056F     		ldr	r5, [r0, #112]
  86              	.LVL3:
  87              		.loc 1 136 0
  88 0004 0646     		mov	r6, r0
  89              		.loc 1 141 0
  90 0006 6C69     		ldr	r4, [r5, #20]
  91              	.LVL4:
  92              		.loc 1 144 0
  93 0008 E207     		lsls	r2, r4, #31
  94 000a 26D4     		bmi	.L32
  95              	.LVL5:
  96              	.L4:
  97              		.loc 1 151 0
  98 000c 2B69     		ldr	r3, [r5, #16]
  99 000e 9B07     		lsls	r3, r3, #30
 100 0010 01D5     		bpl	.L5
 101              		.loc 1 151 0 is_stmt 0 discriminator 1
 102 0012 A007     		lsls	r0, r4, #30
 103 0014 2CD4     		bmi	.L33
 104              	.L5:
 105              	.LVL6:
 106              		.loc 1 167 0 is_stmt 1
 107 0016 14F0E004 		ands	r4, r4, #224
 108              	.LVL7:
 109 001a 1DD0     		beq	.L3
 110              		.loc 1 168 0
 111 001c A4B2     		uxth	r4, r4
 112              	.LVL8:
 113              	.LBB17:
 114              	.LBB18:
ARM GAS  /tmp/ccR4B9nj.s 			page 3


 115              		.loc 1 118 0
 116 001e 14F0200F 		tst	r4, #32
 117 0022 14BF     		ite	ne
 118 0024 8022     		movne	r2, #128
 119 0026 0022     		moveq	r2, #0
 120              	.LVL9:
 121              		.loc 1 122 0
 122 0028 2106     		lsls	r1, r4, #24
 123              		.loc 1 123 0
 124 002a 48BF     		it	mi
 125 002c 42F02002 		orrmi	r2, r2, #32
 126              	.LVL10:
 127              		.loc 1 124 0
 128 0030 6306     		lsls	r3, r4, #25
 129              		.loc 1 125 0
 130 0032 48BF     		it	mi
 131 0034 42F04002 		orrmi	r2, r2, #64
 132              	.LVL11:
 133              	.LBB19:
 134              		.loc 1 126 0
 135 0038 2023     		movs	r3, #32
 136              	@ 126 "../third_party/ChibiOS/os/hal/platforms/AT91SAM3S/serial_lld.c" 1
 137 003a 83F31188 		msr     BASEPRI, r3
 138              	@ 0 "" 2
 139              		.thumb
 140              	.LBE19:
 141              		.loc 1 127 0
 142 003e B368     		ldr	r3, [r6, #8]
 143 0040 301D     		adds	r0, r6, #4
 144 0042 1A43     		orrs	r2, r2, r3
 145              	.LVL12:
 146 0044 B260     		str	r2, [r6, #8]
 147 0046 0021     		movs	r1, #0
 148 0048 FFF7FEFF 		bl	chEvtBroadcastFlagsI
 149              	.LVL13:
 150              	.LBB20:
 151              		.loc 1 128 0
 152 004c 0023     		movs	r3, #0
 153              	@ 128 "../third_party/ChibiOS/os/hal/platforms/AT91SAM3S/serial_lld.c" 1
 154 004e 83F31188 		msr     BASEPRI, r3
 155              	@ 0 "" 2
 156              		.thumb
 157              	.LBE20:
 158              	.LBE18:
 159              	.LBE17:
 160              		.loc 1 169 0
 161 0052 4FF48073 		mov	r3, #256
 162 0056 2B60     		str	r3, [r5]
 163              	.LVL14:
 164              	.L3:
 165 0058 70BD     		pop	{r4, r5, r6, pc}
 166              	.LVL15:
 167              	.L32:
 168              	.LBB21:
 169              		.loc 1 145 0
 170 005a 2023     		movs	r3, #32
 171              	@ 145 "../third_party/ChibiOS/os/hal/platforms/AT91SAM3S/serial_lld.c" 1
ARM GAS  /tmp/ccR4B9nj.s 			page 4


 172 005c 83F31188 		msr     BASEPRI, r3
 173              	@ 0 "" 2
 174              		.thumb
 175              	.LBE21:
 176              		.loc 1 146 0
 177 0060 A969     		ldr	r1, [r5, #24]
 178 0062 C9B2     		uxtb	r1, r1
 179 0064 FFF7FEFF 		bl	sdIncomingDataI
 180              	.LVL16:
 181              	.LBB22:
 182              		.loc 1 147 0
 183 0068 0023     		movs	r3, #0
 184              	@ 147 "../third_party/ChibiOS/os/hal/platforms/AT91SAM3S/serial_lld.c" 1
 185 006a 83F31188 		msr     BASEPRI, r3
 186              	@ 0 "" 2
 187              		.thumb
 188 006e CDE7     		b	.L4
 189              	.L33:
 190              	.LBE22:
 191              	.LBB23:
 192              	.LBB24:
 193              		.loc 1 154 0
 194 0070 2023     		movs	r3, #32
 195              	@ 154 "../third_party/ChibiOS/os/hal/platforms/AT91SAM3S/serial_lld.c" 1
 196 0072 83F31188 		msr     BASEPRI, r3
 197              	@ 0 "" 2
 198              		.thumb
 199              	.LBE24:
 200              		.loc 1 155 0
 201 0076 06F13000 		add	r0, r6, #48
 202 007a FFF7FEFF 		bl	chOQGetI
 203              	.LVL17:
 204              		.loc 1 156 0
 205 007e 0028     		cmp	r0, #0
 206              		.loc 1 161 0
 207 0080 A8BF     		it	ge
 208 0082 E861     		strge	r0, [r5, #28]
 209              		.loc 1 156 0
 210 0084 03DB     		blt	.L34
 211              	.LVL18:
 212              	.L7:
 213              	.LBB25:
 214              		.loc 1 162 0
 215 0086 0023     		movs	r3, #0
 216              	@ 162 "../third_party/ChibiOS/os/hal/platforms/AT91SAM3S/serial_lld.c" 1
 217 0088 83F31188 		msr     BASEPRI, r3
 218              	@ 0 "" 2
 219              		.thumb
 220 008c C3E7     		b	.L5
 221              	.LVL19:
 222              	.L34:
 223              	.LBE25:
 224              		.loc 1 157 0
 225 008e B368     		ldr	r3, [r6, #8]
 226 0090 301D     		adds	r0, r6, #4
 227              	.LVL20:
 228 0092 43F00803 		orr	r3, r3, #8
ARM GAS  /tmp/ccR4B9nj.s 			page 5


 229 0096 B360     		str	r3, [r6, #8]
 230 0098 0021     		movs	r1, #0
 231 009a FFF7FEFF 		bl	chEvtBroadcastFlagsI
 232              	.LVL21:
 233              		.loc 1 158 0
 234 009e 0223     		movs	r3, #2
 235 00a0 EB60     		str	r3, [r5, #12]
 236 00a2 F0E7     		b	.L7
 237              	.LBE23:
 238              		.cfi_endproc
 239              	.LFE39:
 240              		.size	serve_interrupt, .-serve_interrupt
 241 00a4 AFF30080 		.section	.text.Vector60,"ax",%progbits
 241      AFF30080 
 241      AFF30080 
 242              		.align	2
 243              		.p2align 4,,15
 244              		.global	Vector60
 245              		.thumb
 246              		.thumb_func
 247              		.type	Vector60, %function
 248              	Vector60:
 249              	.LFB42:
 250              		.loc 1 201 0
 251              		.cfi_startproc
 252              		@ args = 0, pretend = 0, frame = 0
 253              		@ frame_needed = 0, uses_anonymous_args = 0
 254 0000 08B5     		push	{r3, lr}
 255              		.cfi_def_cfa_offset 8
 256              		.cfi_offset 3, -8
 257              		.cfi_offset 14, -4
 258              		.loc 1 205 0
 259 0002 40F20000 		movw	r0, #:lower16:.LANCHOR0
 260 0006 C0F20000 		movt	r0, #:upper16:.LANCHOR0
 261 000a FFF7FEFF 		bl	serve_interrupt
 262              	.LVL22:
 263              		.loc 1 208 0
 264 000e BDE80840 		pop	{r3, lr}
 265              		.loc 1 207 0
 266 0012 FFF7FEBF 		b	_port_irq_epilogue
 267              	.LVL23:
 268              		.cfi_endproc
 269              	.LFE42:
 270              		.size	Vector60, .-Vector60
 271 0016 00BFAFF3 		.section	.text.Vector64,"ax",%progbits
 271      0080AFF3 
 271      0080
 272              		.align	2
 273              		.p2align 4,,15
 274              		.global	Vector64
 275              		.thumb
 276              		.thumb_func
 277              		.type	Vector64, %function
 278              	Vector64:
 279              	.LFB43:
 280              		.loc 1 218 0
 281              		.cfi_startproc
ARM GAS  /tmp/ccR4B9nj.s 			page 6


 282              		@ args = 0, pretend = 0, frame = 0
 283              		@ frame_needed = 0, uses_anonymous_args = 0
 284 0000 08B5     		push	{r3, lr}
 285              		.cfi_def_cfa_offset 8
 286              		.cfi_offset 3, -8
 287              		.cfi_offset 14, -4
 288              		.loc 1 222 0
 289 0002 40F20000 		movw	r0, #:lower16:.LANCHOR1
 290 0006 C0F20000 		movt	r0, #:upper16:.LANCHOR1
 291 000a FFF7FEFF 		bl	serve_interrupt
 292              	.LVL24:
 293              		.loc 1 225 0
 294 000e BDE80840 		pop	{r3, lr}
 295              		.loc 1 224 0
 296 0012 FFF7FEBF 		b	_port_irq_epilogue
 297              	.LVL25:
 298              		.cfi_endproc
 299              	.LFE43:
 300              		.size	Vector64, .-Vector64
 301 0016 00BFAFF3 		.section	.text.sd_lld_init,"ax",%progbits
 301      0080AFF3 
 301      0080
 302              		.align	2
 303              		.p2align 4,,15
 304              		.global	sd_lld_init
 305              		.thumb
 306              		.thumb_func
 307              		.type	sd_lld_init, %function
 308              	sd_lld_init:
 309              	.LFB44:
 310              		.loc 1 238 0
 311              		.cfi_startproc
 312              		@ args = 0, pretend = 0, frame = 0
 313              		@ frame_needed = 0, uses_anonymous_args = 0
 314 0000 38B5     		push	{r3, r4, r5, lr}
 315              		.cfi_def_cfa_offset 16
 316              		.cfi_offset 3, -16
 317              		.cfi_offset 4, -12
 318              		.cfi_offset 5, -8
 319              		.cfi_offset 14, -4
 320              		.loc 1 241 0
 321 0002 40F20005 		movw	r5, #:lower16:.LANCHOR0
 322 0006 C0F20005 		movt	r5, #:upper16:.LANCHOR0
 323 000a 40F20002 		movw	r2, #:lower16:notify1
 324 000e 2846     		mov	r0, r5
 325 0010 C0F20002 		movt	r2, #:upper16:notify1
 326 0014 0021     		movs	r1, #0
 327 0016 FFF7FEFF 		bl	sdObjectInit
 328              	.LVL26:
 329              		.loc 1 248 0
 330 001a 40F20004 		movw	r4, #:lower16:.LANCHOR1
 331              		.loc 1 242 0
 332 001e 4FF4C060 		mov	r0, #1536
 333              		.loc 1 243 0
 334 0022 4FF46063 		mov	r3, #3584
 335 0026 C4F20E03 		movt	r3, 16398
 336 002a 4FF4C061 		mov	r1, #1536
ARM GAS  /tmp/ccR4B9nj.s 			page 7


 337              		.loc 1 242 0
 338 002e C4F20E00 		movt	r0, 16398
 339              		.loc 1 248 0
 340 0032 C0F20004 		movt	r4, #:upper16:.LANCHOR1
 341 0036 40F20002 		movw	r2, #:lower16:notify2
 342              		.loc 1 242 0
 343 003a 2867     		str	r0, [r5, #112]
 344              		.loc 1 248 0
 345 003c C0F20002 		movt	r2, #:upper16:notify2
 346              		.loc 1 243 0
 347 0040 5960     		str	r1, [r3, #4]
 348              		.loc 1 248 0
 349 0042 2046     		mov	r0, r4
 350              		.loc 1 244 0
 351 0044 1966     		str	r1, [r3, #96]
 352              		.loc 1 248 0
 353 0046 0021     		movs	r1, #0
 354 0048 FFF7FEFF 		bl	sdObjectInit
 355              	.LVL27:
 356              		.loc 1 249 0
 357 004c 4FF40061 		mov	r1, #2048
 358              		.loc 1 250 0
 359 0050 4FF48053 		mov	r3, #4096
 360 0054 C4F20E03 		movt	r3, 16398
 361 0058 0C22     		movs	r2, #12
 362              		.loc 1 249 0
 363 005a C4F20E01 		movt	r1, 16398
 364 005e 2167     		str	r1, [r4, #112]
 365              		.loc 1 250 0
 366 0060 5A60     		str	r2, [r3, #4]
 367              		.loc 1 251 0
 368 0062 1A66     		str	r2, [r3, #96]
 369 0064 38BD     		pop	{r3, r4, r5, pc}
 370              		.cfi_endproc
 371              	.LFE44:
 372              		.size	sd_lld_init, .-sd_lld_init
 373 0066 00BFAFF3 		.section	.text.sd_lld_start,"ax",%progbits
 373      0080AFF3 
 373      0080
 374              		.align	2
 375              		.p2align 4,,15
 376              		.global	sd_lld_start
 377              		.thumb
 378              		.thumb_func
 379              		.type	sd_lld_start, %function
 380              	sd_lld_start:
 381              	.LFB45:
 382              		.loc 1 266 0
 383              		.cfi_startproc
 384              		@ args = 0, pretend = 0, frame = 0
 385              		@ frame_needed = 0, uses_anonymous_args = 0
 386              	.LVL28:
 387              		.loc 1 269 0
 388 0000 40F20003 		movw	r3, #:lower16:.LANCHOR2
 389              		.loc 1 271 0
 390 0004 027B     		ldrb	r2, [r0, #12]	@ zero_extendqisi2
 391              		.loc 1 269 0
ARM GAS  /tmp/ccR4B9nj.s 			page 8


 392 0006 C0F20003 		movt	r3, #:upper16:.LANCHOR2
 393              		.loc 1 266 0
 394 000a 70B5     		push	{r4, r5, r6, lr}
 395              		.cfi_def_cfa_offset 16
 396              		.cfi_offset 4, -16
 397              		.cfi_offset 5, -12
 398              		.cfi_offset 6, -8
 399              		.cfi_offset 14, -4
 400              		.loc 1 269 0
 401 000c 0029     		cmp	r1, #0
 402 000e 14BF     		ite	ne
 403 0010 0D46     		movne	r5, r1
 404 0012 1D46     		moveq	r5, r3
 405              	.LVL29:
 406              		.loc 1 271 0
 407 0014 012A     		cmp	r2, #1
 408              		.loc 1 266 0
 409 0016 0446     		mov	r4, r0
 410              		.loc 1 271 0
 411 0018 19D0     		beq	.L43
 412              	.LVL30:
 413              	.L40:
 414              		.loc 1 266 0
 415 001a 246F     		ldr	r4, [r4, #112]
 416              	.LVL31:
 417              	.LBB26:
 418              	.LBB27:
 419              		.loc 1 81 0
 420 001c FFF7FEFF 		bl	SystemCoreClockUpdate
 421              	.LVL32:
 422              		.loc 1 82 0
 423 0020 40F20003 		movw	r3, #:lower16:SystemCoreClock
 424              		.loc 1 89 0
 425 0024 2A68     		ldr	r2, [r5]
 426              		.loc 1 82 0
 427 0026 C0F20003 		movt	r3, #:upper16:SystemCoreClock
 428 002a 1B68     		ldr	r3, [r3]
 429              	.LVL33:
 430              		.loc 1 90 0
 431 002c 6868     		ldr	r0, [r5, #4]
 432              		.loc 1 89 0
 433 002e 1201     		lsls	r2, r2, #4
 434 0030 B3FBF2F2 		udiv	r2, r3, r2
 435              		.loc 1 85 0
 436 0034 4FF0FF36 		mov	r6, #-1
 437              		.loc 1 86 0
 438 0038 4FF48675 		mov	r5, #268
 439              	.LVL34:
 440              		.loc 1 93 0
 441 003c 5021     		movs	r1, #80
 442              		.loc 1 94 0
 443 003e E323     		movs	r3, #227
 444              	.LVL35:
 445              		.loc 1 85 0
 446 0040 E660     		str	r6, [r4, #12]
 447              		.loc 1 86 0
 448 0042 2560     		str	r5, [r4]
ARM GAS  /tmp/ccR4B9nj.s 			page 9


 449              		.loc 1 89 0
 450 0044 2262     		str	r2, [r4, #32]
 451              		.loc 1 90 0
 452 0046 6060     		str	r0, [r4, #4]
 453              		.loc 1 93 0
 454 0048 2160     		str	r1, [r4]
 455              		.loc 1 94 0
 456 004a A360     		str	r3, [r4, #8]
 457 004c 70BD     		pop	{r4, r5, r6, pc}
 458              	.LVL36:
 459              	.L43:
 460              	.LBE27:
 461              	.LBE26:
 462              		.loc 1 273 0
 463 004e 40F20003 		movw	r3, #:lower16:.LANCHOR0
 464 0052 C0F20003 		movt	r3, #:upper16:.LANCHOR0
 465 0056 9842     		cmp	r0, r3
 466 0058 1DD0     		beq	.L44
 467              		.loc 1 289 0
 468 005a 40F20003 		movw	r3, #:lower16:.LANCHOR1
 469 005e C0F20003 		movt	r3, #:upper16:.LANCHOR1
 470 0062 9842     		cmp	r0, r3
 471 0064 D9D1     		bne	.L40
 472              		.loc 1 294 0
 473 0066 4FF48063 		mov	r3, #1024
 474 006a 4FF48641 		mov	r1, #17152
 475              		.loc 1 296 0
 476 006e 44F20132 		movw	r2, #17153
 477              		.loc 1 294 0
 478 0072 C4F20E03 		movt	r3, 16398
 479 0076 C5F24D01 		movt	r1, 20557
 480              		.loc 1 295 0
 481 007a 4FF40076 		mov	r6, #512
 482              		.loc 1 296 0
 483 007e C5F24D02 		movt	r2, 20557
 484              		.loc 1 294 0
 485 0082 C3F8E410 		str	r1, [r3, #228]
 486              		.loc 1 300 0
 487 0086 0920     		movs	r0, #9
 488              	.LVL37:
 489              		.loc 1 295 0
 490 0088 1E61     		str	r6, [r3, #16]
 491              		.loc 1 300 0
 492 008a C021     		movs	r1, #192
 493              		.loc 1 296 0
 494 008c C3F8E420 		str	r2, [r3, #228]
 495              		.loc 1 300 0
 496 0090 FFF7FEFF 		bl	nvicEnableVector
 497              	.LVL38:
 498 0094 C1E7     		b	.L40
 499              	.LVL39:
 500              	.L44:
 501              		.loc 1 278 0
 502 0096 4FF48641 		mov	r1, #17152
 503              		.loc 1 280 0
 504 009a 0A44     		add	r2, r2, r1
 505              		.loc 1 278 0
ARM GAS  /tmp/ccR4B9nj.s 			page 10


 506 009c 4FF48063 		mov	r3, #1024
 507 00a0 C4F20E03 		movt	r3, 16398
 508 00a4 C5F24D01 		movt	r1, 20557
 509              		.loc 1 279 0
 510 00a8 4FF48076 		mov	r6, #256
 511              		.loc 1 280 0
 512 00ac C5F24D02 		movt	r2, 20557
 513              		.loc 1 278 0
 514 00b0 C3F8E410 		str	r1, [r3, #228]
 515              		.loc 1 284 0
 516 00b4 0820     		movs	r0, #8
 517              	.LVL40:
 518              		.loc 1 279 0
 519 00b6 1E61     		str	r6, [r3, #16]
 520              		.loc 1 284 0
 521 00b8 C021     		movs	r1, #192
 522              		.loc 1 280 0
 523 00ba C3F8E420 		str	r2, [r3, #228]
 524              		.loc 1 284 0
 525 00be FFF7FEFF 		bl	nvicEnableVector
 526              	.LVL41:
 527 00c2 AAE7     		b	.L40
 528              		.cfi_endproc
 529              	.LFE45:
 530              		.size	sd_lld_start, .-sd_lld_start
 531 00c4 AFF30080 		.section	.text.sd_lld_stop,"ax",%progbits
 531      AFF30080 
 531      AFF30080 
 532              		.align	2
 533              		.p2align 4,,15
 534              		.global	sd_lld_stop
 535              		.thumb
 536              		.thumb_func
 537              		.type	sd_lld_stop, %function
 538              	sd_lld_stop:
 539              	.LFB46:
 540              		.loc 1 317 0
 541              		.cfi_startproc
 542              		@ args = 0, pretend = 0, frame = 0
 543              		@ frame_needed = 0, uses_anonymous_args = 0
 544              		@ link register save eliminated.
 545              	.LVL42:
 546              		.loc 1 319 0
 547 0000 037B     		ldrb	r3, [r0, #12]	@ zero_extendqisi2
 548              		.loc 1 317 0
 549 0002 30B4     		push	{r4, r5}
 550              		.cfi_def_cfa_offset 8
 551              		.cfi_offset 4, -8
 552              		.cfi_offset 5, -4
 553              		.loc 1 319 0
 554 0004 022B     		cmp	r3, #2
 555 0006 01D0     		beq	.L51
 556              	.L45:
 557              		.loc 1 355 0
 558 0008 30BC     		pop	{r4, r5}
 559 000a 7047     		bx	lr
 560              	.L51:
ARM GAS  /tmp/ccR4B9nj.s 			page 11


 561              		.loc 1 322 0
 562 000c 40F20002 		movw	r2, #:lower16:.LANCHOR0
 563              		.loc 1 320 0
 564 0010 036F     		ldr	r3, [r0, #112]
 565              	.LVL43:
 566              		.loc 1 322 0
 567 0012 C0F20002 		movt	r2, #:upper16:.LANCHOR0
 568              	.LBB28:
 569              	.LBB29:
 570              		.loc 1 106 0
 571 0016 4FF0FF35 		mov	r5, #-1
 572              		.loc 1 107 0
 573 001a 4FF48674 		mov	r4, #268
 574              		.loc 1 108 0
 575 001e 0021     		movs	r1, #0
 576              	.LBE29:
 577              	.LBE28:
 578              		.loc 1 322 0
 579 0020 9042     		cmp	r0, r2
 580              	.LBB31:
 581              	.LBB30:
 582              		.loc 1 106 0
 583 0022 DD60     		str	r5, [r3, #12]
 584              		.loc 1 107 0
 585 0024 1C60     		str	r4, [r3]
 586              		.loc 1 108 0
 587 0026 5960     		str	r1, [r3, #4]
 588              	.LBE30:
 589              	.LBE31:
 590              		.loc 1 322 0
 591 0028 1FD0     		beq	.L52
 592              	.LVL44:
 593              		.loc 1 340 0
 594 002a 40F20002 		movw	r2, #:lower16:.LANCHOR1
 595 002e C0F20002 		movt	r2, #:upper16:.LANCHOR1
 596 0032 9042     		cmp	r0, r2
 597              	.LBB32:
 598              	.LBB33:
 599              		.loc 1 106 0
 600 0034 DD60     		str	r5, [r3, #12]
 601              		.loc 1 107 0
 602 0036 1C60     		str	r4, [r3]
 603              		.loc 1 108 0
 604 0038 5960     		str	r1, [r3, #4]
 605              	.LBE33:
 606              	.LBE32:
 607              		.loc 1 340 0
 608 003a E5D1     		bne	.L45
 609              		.loc 1 345 0
 610 003c 4FF48063 		mov	r3, #1024
 611              	.LVL45:
 612 0040 4FF48641 		mov	r1, #17152
 613              		.loc 1 347 0
 614 0044 44F20132 		movw	r2, #17153
 615              		.loc 1 345 0
 616 0048 C4F20E03 		movt	r3, 16398
 617              		.loc 1 346 0
ARM GAS  /tmp/ccR4B9nj.s 			page 12


 618 004c 4FF40074 		mov	r4, #512
 619              		.loc 1 345 0
 620 0050 C5F24D01 		movt	r1, 20557
 621              		.loc 1 347 0
 622 0054 C5F24D02 		movt	r2, 20557
 623              		.loc 1 345 0
 624 0058 C3F8E410 		str	r1, [r3, #228]
 625              		.loc 1 349 0
 626 005c 0920     		movs	r0, #9
 627              	.LVL46:
 628              		.loc 1 346 0
 629 005e 5C61     		str	r4, [r3, #20]
 630              		.loc 1 347 0
 631 0060 C3F8E420 		str	r2, [r3, #228]
 632              		.loc 1 355 0
 633 0064 30BC     		pop	{r4, r5}
 634              		.loc 1 349 0
 635 0066 FFF7FEBF 		b	nvicDisableVector
 636              	.LVL47:
 637              	.L52:
 638              		.loc 1 327 0
 639 006a 4FF48063 		mov	r3, #1024
 640              	.LVL48:
 641 006e 4FF48641 		mov	r1, #17152
 642              		.loc 1 329 0
 643 0072 44F20132 		movw	r2, #17153
 644              		.loc 1 327 0
 645 0076 C4F20E03 		movt	r3, 16398
 646              		.loc 1 328 0
 647 007a 4FF48074 		mov	r4, #256
 648              		.loc 1 327 0
 649 007e C5F24D01 		movt	r1, 20557
 650              		.loc 1 329 0
 651 0082 C5F24D02 		movt	r2, 20557
 652              		.loc 1 327 0
 653 0086 C3F8E410 		str	r1, [r3, #228]
 654              		.loc 1 331 0
 655 008a 0820     		movs	r0, #8
 656              	.LVL49:
 657              		.loc 1 328 0
 658 008c 5C61     		str	r4, [r3, #20]
 659              		.loc 1 329 0
 660 008e C3F8E420 		str	r2, [r3, #228]
 661              		.loc 1 355 0
 662 0092 30BC     		pop	{r4, r5}
 663              		.loc 1 331 0
 664 0094 FFF7FEBF 		b	nvicDisableVector
 665              	.LVL50:
 666              		.cfi_endproc
 667              	.LFE46:
 668              		.size	sd_lld_stop, .-sd_lld_stop
 669              		.global	SD2
 670              		.global	SD1
 671 0098 AFF30080 		.section	.rodata.default_config,"a",%progbits
 671      AFF30080 
 672              		.align	2
 673              		.set	.LANCHOR2,. + 0
ARM GAS  /tmp/ccR4B9nj.s 			page 13


 674              		.type	default_config, %object
 675              		.size	default_config, 8
 676              	default_config:
 677 0000 00C20100 		.word	115200
 678 0004 00280000 		.word	10240
 679              		.section	.bss.SD1,"aw",%nobits
 680              		.align	2
 681              		.set	.LANCHOR0,. + 0
 682              		.type	SD1, %object
 683              		.size	SD1, 116
 684              	SD1:
 685 0000 00000000 		.space	116
 685      00000000 
 685      00000000 
 685      00000000 
 685      00000000 
 686              		.section	.bss.SD2,"aw",%nobits
 687              		.align	2
 688              		.set	.LANCHOR1,. + 0
 689              		.type	SD2, %object
 690              		.size	SD2, 116
 691              	SD2:
 692 0000 00000000 		.space	116
 692      00000000 
 692      00000000 
 692      00000000 
 692      00000000 
 693              		.text
 694              	.Letext0:
 695              		.file 2 "/home/santi/arm-2013.11/lib/gcc/arm-none-eabi/4.8.1/include/stddef.h"
 696              		.file 3 "/home/santi/arm-2013.11/arm-none-eabi/include/stdint.h"
 697              		.file 4 "../third_party/ChibiOS/os/ports/GCC/ARMCMx/chtypes.h"
 698              		.file 5 "../third_party/ChibiOS/os/kernel/include/chlists.h"
 699              		.file 6 "../third_party/ChibiOS/os/kernel/include/chthreads.h"
 700              		.file 7 "../third_party/ChibiOS/os/ports/GCC/ARMCMx/chcore_v7m.h"
 701              		.file 8 "../third_party/ChibiOS/os/kernel/include/chmtx.h"
 702              		.file 9 "../third_party/ChibiOS/os/kernel/include/chevents.h"
 703              		.file 10 "../third_party/ChibiOS/os/kernel/include/chqueues.h"
 704              		.file 11 "../third_party/ChibiOS/os/kernel/include/chioch.h"
 705              		.file 12 "../third_party/ChibiOS/os/hal/platforms/AT91SAM3S/at91lib/SAM3S.h"
 706              		.file 13 "../third_party/ChibiOS/os/hal/include/serial.h"
 707              		.file 14 "../third_party/ChibiOS/os/hal/platforms/AT91SAM3S/serial_lld.h"
 708              		.file 15 "../third_party/ChibiOS/os/hal/platforms/AT91SAM3S/core_cm3.h"
 709              		.file 16 "../third_party/ChibiOS/os/hal/platforms/AT91SAM3S/system_SAM3.h"
 710              		.file 17 "../third_party/ChibiOS/os/ports/common/ARMCMx/nvic.h"
 711              		.section	.debug_info,"",%progbits
 712              	.Ldebug_info0:
 713 0000 64150000 		.4byte	0x1564
 714 0004 0400     		.2byte	0x4
 715 0006 00000000 		.4byte	.Ldebug_abbrev0
 716 000a 04       		.byte	0x4
 717 000b 01       		.uleb128 0x1
 718 000c 94070000 		.4byte	.LASF284
 719 0010 01       		.byte	0x1
 720 0011 070B0000 		.4byte	.LASF285
 721 0015 B9000000 		.4byte	.LASF286
 722 0019 18000000 		.4byte	.Ldebug_ranges0+0x18
ARM GAS  /tmp/ccR4B9nj.s 			page 14


 723 001d 00000000 		.4byte	0
 724 0021 00000000 		.4byte	.Ldebug_line0
 725 0025 02       		.uleb128 0x2
 726 0026 04       		.byte	0x4
 727 0027 05       		.byte	0x5
 728 0028 696E7400 		.ascii	"int\000"
 729 002c 03       		.uleb128 0x3
 730 002d 25000000 		.4byte	.LASF2
 731 0031 02       		.byte	0x2
 732 0032 D4       		.byte	0xd4
 733 0033 37000000 		.4byte	0x37
 734 0037 04       		.uleb128 0x4
 735 0038 04       		.byte	0x4
 736 0039 07       		.byte	0x7
 737 003a 7F060000 		.4byte	.LASF0
 738 003e 04       		.uleb128 0x4
 739 003f 01       		.byte	0x1
 740 0040 06       		.byte	0x6
 741 0041 B8020000 		.4byte	.LASF1
 742 0045 03       		.uleb128 0x3
 743 0046 CB020000 		.4byte	.LASF3
 744 004a 03       		.byte	0x3
 745 004b 2A       		.byte	0x2a
 746 004c 50000000 		.4byte	0x50
 747 0050 04       		.uleb128 0x4
 748 0051 01       		.byte	0x1
 749 0052 08       		.byte	0x8
 750 0053 F0020000 		.4byte	.LASF4
 751 0057 04       		.uleb128 0x4
 752 0058 02       		.byte	0x2
 753 0059 05       		.byte	0x5
 754 005a F5090000 		.4byte	.LASF5
 755 005e 03       		.uleb128 0x3
 756 005f 5B080000 		.4byte	.LASF6
 757 0063 03       		.byte	0x3
 758 0064 36       		.byte	0x36
 759 0065 69000000 		.4byte	0x69
 760 0069 04       		.uleb128 0x4
 761 006a 02       		.byte	0x2
 762 006b 07       		.byte	0x7
 763 006c F40A0000 		.4byte	.LASF7
 764 0070 03       		.uleb128 0x3
 765 0071 6F000000 		.4byte	.LASF8
 766 0075 03       		.byte	0x3
 767 0076 4F       		.byte	0x4f
 768 0077 7B000000 		.4byte	0x7b
 769 007b 04       		.uleb128 0x4
 770 007c 04       		.byte	0x4
 771 007d 05       		.byte	0x5
 772 007e D9010000 		.4byte	.LASF9
 773 0082 03       		.uleb128 0x3
 774 0083 A10A0000 		.4byte	.LASF10
 775 0087 03       		.byte	0x3
 776 0088 50       		.byte	0x50
 777 0089 8D000000 		.4byte	0x8d
 778 008d 04       		.uleb128 0x4
 779 008e 04       		.byte	0x4
ARM GAS  /tmp/ccR4B9nj.s 			page 15


 780 008f 07       		.byte	0x7
 781 0090 07050000 		.4byte	.LASF11
 782 0094 04       		.uleb128 0x4
 783 0095 08       		.byte	0x8
 784 0096 05       		.byte	0x5
 785 0097 CC050000 		.4byte	.LASF12
 786 009b 04       		.uleb128 0x4
 787 009c 08       		.byte	0x8
 788 009d 07       		.byte	0x7
 789 009e 3C080000 		.4byte	.LASF13
 790 00a2 03       		.uleb128 0x3
 791 00a3 CA0A0000 		.4byte	.LASF14
 792 00a7 03       		.byte	0x3
 793 00a8 A6       		.byte	0xa6
 794 00a9 37000000 		.4byte	0x37
 795 00ad 03       		.uleb128 0x3
 796 00ae 2B0A0000 		.4byte	.LASF15
 797 00b2 04       		.byte	0x4
 798 00b3 2E       		.byte	0x2e
 799 00b4 70000000 		.4byte	0x70
 800 00b8 03       		.uleb128 0x3
 801 00b9 62090000 		.4byte	.LASF16
 802 00bd 04       		.byte	0x4
 803 00be 2F       		.byte	0x2f
 804 00bf 45000000 		.4byte	0x45
 805 00c3 03       		.uleb128 0x3
 806 00c4 37020000 		.4byte	.LASF17
 807 00c8 04       		.byte	0x4
 808 00c9 30       		.byte	0x30
 809 00ca 45000000 		.4byte	0x45
 810 00ce 03       		.uleb128 0x3
 811 00cf 5A0A0000 		.4byte	.LASF18
 812 00d3 04       		.byte	0x4
 813 00d4 31       		.byte	0x31
 814 00d5 45000000 		.4byte	0x45
 815 00d9 03       		.uleb128 0x3
 816 00da 51000000 		.4byte	.LASF19
 817 00de 04       		.byte	0x4
 818 00df 32       		.byte	0x32
 819 00e0 82000000 		.4byte	0x82
 820 00e4 03       		.uleb128 0x3
 821 00e5 74080000 		.4byte	.LASF20
 822 00e9 04       		.byte	0x4
 823 00ea 33       		.byte	0x33
 824 00eb 70000000 		.4byte	0x70
 825 00ef 03       		.uleb128 0x3
 826 00f0 D3020000 		.4byte	.LASF21
 827 00f4 04       		.byte	0x4
 828 00f5 35       		.byte	0x35
 829 00f6 82000000 		.4byte	0x82
 830 00fa 03       		.uleb128 0x3
 831 00fb 41000000 		.4byte	.LASF22
 832 00ff 04       		.byte	0x4
 833 0100 36       		.byte	0x36
 834 0101 82000000 		.4byte	0x82
 835 0105 03       		.uleb128 0x3
 836 0106 320A0000 		.4byte	.LASF23
ARM GAS  /tmp/ccR4B9nj.s 			page 16


 837 010a 05       		.byte	0x5
 838 010b 2A       		.byte	0x2a
 839 010c 10010000 		.4byte	0x110
 840 0110 05       		.uleb128 0x5
 841 0111 320A0000 		.4byte	.LASF23
 842 0115 48       		.byte	0x48
 843 0116 06       		.byte	0x6
 844 0117 5E       		.byte	0x5e
 845 0118 01020000 		.4byte	0x201
 846 011c 06       		.uleb128 0x6
 847 011d E2010000 		.4byte	.LASF24
 848 0121 06       		.byte	0x6
 849 0122 5F       		.byte	0x5f
 850 0123 22020000 		.4byte	0x222
 851 0127 00       		.byte	0
 852 0128 06       		.uleb128 0x6
 853 0129 FA010000 		.4byte	.LASF25
 854 012d 06       		.byte	0x6
 855 012e 61       		.byte	0x61
 856 012f 22020000 		.4byte	0x222
 857 0133 04       		.byte	0x4
 858 0134 06       		.uleb128 0x6
 859 0135 8F030000 		.4byte	.LASF26
 860 0139 06       		.byte	0x6
 861 013a 63       		.byte	0x63
 862 013b D9000000 		.4byte	0xd9
 863 013f 08       		.byte	0x8
 864 0140 06       		.uleb128 0x6
 865 0141 4B000000 		.4byte	.LASF27
 866 0145 06       		.byte	0x6
 867 0146 64       		.byte	0x64
 868 0147 DB020000 		.4byte	0x2db
 869 014b 0C       		.byte	0xc
 870 014c 06       		.uleb128 0x6
 871 014d D1010000 		.4byte	.LASF28
 872 0151 06       		.byte	0x6
 873 0152 66       		.byte	0x66
 874 0153 22020000 		.4byte	0x222
 875 0157 10       		.byte	0x10
 876 0158 06       		.uleb128 0x6
 877 0159 53080000 		.4byte	.LASF29
 878 015d 06       		.byte	0x6
 879 015e 67       		.byte	0x67
 880 015f 22020000 		.4byte	0x222
 881 0163 14       		.byte	0x14
 882 0164 06       		.uleb128 0x6
 883 0165 AD0B0000 		.4byte	.LASF30
 884 0169 06       		.byte	0x6
 885 016a 6E       		.byte	0x6e
 886 016b EA030000 		.4byte	0x3ea
 887 016f 18       		.byte	0x18
 888 0170 06       		.uleb128 0x6
 889 0171 0F0C0000 		.4byte	.LASF31
 890 0175 06       		.byte	0x6
 891 0176 79       		.byte	0x79
 892 0177 C3000000 		.4byte	0xc3
 893 017b 1C       		.byte	0x1c
ARM GAS  /tmp/ccR4B9nj.s 			page 17


 894 017c 06       		.uleb128 0x6
 895 017d 69060000 		.4byte	.LASF32
 896 0181 06       		.byte	0x6
 897 0182 7D       		.byte	0x7d
 898 0183 B8000000 		.4byte	0xb8
 899 0187 1D       		.byte	0x1d
 900 0188 06       		.uleb128 0x6
 901 0189 B0060000 		.4byte	.LASF33
 902 018d 06       		.byte	0x6
 903 018e 82       		.byte	0x82
 904 018f CE000000 		.4byte	0xce
 905 0193 1E       		.byte	0x1e
 906 0194 06       		.uleb128 0x6
 907 0195 04070000 		.4byte	.LASF34
 908 0199 06       		.byte	0x6
 909 019a 89       		.byte	0x89
 910 019b 08030000 		.4byte	0x308
 911 019f 20       		.byte	0x20
 912 01a0 07       		.uleb128 0x7
 913 01a1 705F7500 		.ascii	"p_u\000"
 914 01a5 06       		.byte	0x6
 915 01a6 AE       		.byte	0xae
 916 01a7 B5030000 		.4byte	0x3b5
 917 01ab 24       		.byte	0x24
 918 01ac 06       		.uleb128 0x6
 919 01ad 59060000 		.4byte	.LASF35
 920 01b1 06       		.byte	0x6
 921 01b2 B3       		.byte	0xb3
 922 01b3 48020000 		.4byte	0x248
 923 01b7 28       		.byte	0x28
 924 01b8 06       		.uleb128 0x6
 925 01b9 64000000 		.4byte	.LASF36
 926 01bd 06       		.byte	0x6
 927 01be B9       		.byte	0xb9
 928 01bf 28020000 		.4byte	0x228
 929 01c3 2C       		.byte	0x2c
 930 01c4 06       		.uleb128 0x6
 931 01c5 EA0B0000 		.4byte	.LASF37
 932 01c9 06       		.byte	0x6
 933 01ca BD       		.byte	0xbd
 934 01cb E4000000 		.4byte	0xe4
 935 01cf 34       		.byte	0x34
 936 01d0 06       		.uleb128 0x6
 937 01d1 4F040000 		.4byte	.LASF38
 938 01d5 06       		.byte	0x6
 939 01d6 C3       		.byte	0xc3
 940 01d7 EF000000 		.4byte	0xef
 941 01db 38       		.byte	0x38
 942 01dc 06       		.uleb128 0x6
 943 01dd 54020000 		.4byte	.LASF39
 944 01e1 06       		.byte	0x6
 945 01e2 CA       		.byte	0xca
 946 01e3 FC030000 		.4byte	0x3fc
 947 01e7 3C       		.byte	0x3c
 948 01e8 06       		.uleb128 0x6
 949 01e9 61070000 		.4byte	.LASF40
 950 01ed 06       		.byte	0x6
ARM GAS  /tmp/ccR4B9nj.s 			page 18


 951 01ee CE       		.byte	0xce
 952 01ef D9000000 		.4byte	0xd9
 953 01f3 40       		.byte	0x40
 954 01f4 06       		.uleb128 0x6
 955 01f5 9E060000 		.4byte	.LASF41
 956 01f9 06       		.byte	0x6
 957 01fa D4       		.byte	0xd4
 958 01fb 5E020000 		.4byte	0x25e
 959 01ff 44       		.byte	0x44
 960 0200 00       		.byte	0
 961 0201 08       		.uleb128 0x8
 962 0202 08       		.byte	0x8
 963 0203 05       		.byte	0x5
 964 0204 61       		.byte	0x61
 965 0205 22020000 		.4byte	0x222
 966 0209 06       		.uleb128 0x6
 967 020a E2010000 		.4byte	.LASF24
 968 020e 05       		.byte	0x5
 969 020f 62       		.byte	0x62
 970 0210 22020000 		.4byte	0x222
 971 0214 00       		.byte	0
 972 0215 06       		.uleb128 0x6
 973 0216 FA010000 		.4byte	.LASF25
 974 021a 05       		.byte	0x5
 975 021b 64       		.byte	0x64
 976 021c 22020000 		.4byte	0x222
 977 0220 04       		.byte	0x4
 978 0221 00       		.byte	0
 979 0222 09       		.uleb128 0x9
 980 0223 04       		.byte	0x4
 981 0224 05010000 		.4byte	0x105
 982 0228 03       		.uleb128 0x3
 983 0229 B40A0000 		.4byte	.LASF42
 984 022d 05       		.byte	0x5
 985 022e 66       		.byte	0x66
 986 022f 01020000 		.4byte	0x201
 987 0233 08       		.uleb128 0x8
 988 0234 04       		.byte	0x4
 989 0235 05       		.byte	0x5
 990 0236 6B       		.byte	0x6b
 991 0237 48020000 		.4byte	0x248
 992 023b 06       		.uleb128 0x6
 993 023c E2010000 		.4byte	.LASF24
 994 0240 05       		.byte	0x5
 995 0241 6D       		.byte	0x6d
 996 0242 22020000 		.4byte	0x222
 997 0246 00       		.byte	0
 998 0247 00       		.byte	0
 999 0248 03       		.uleb128 0x3
 1000 0249 EE060000 		.4byte	.LASF43
 1001 024d 05       		.byte	0x5
 1002 024e 70       		.byte	0x70
 1003 024f 33020000 		.4byte	0x233
 1004 0253 03       		.uleb128 0x3
 1005 0254 65020000 		.4byte	.LASF44
 1006 0258 07       		.byte	0x7
 1007 0259 D7       		.byte	0xd7
ARM GAS  /tmp/ccR4B9nj.s 			page 19


 1008 025a 5E020000 		.4byte	0x25e
 1009 025e 0A       		.uleb128 0xa
 1010 025f 04       		.byte	0x4
 1011 0260 05       		.uleb128 0x5
 1012 0261 48040000 		.4byte	.LASF45
 1013 0265 24       		.byte	0x24
 1014 0266 07       		.byte	0x7
 1015 0267 FE       		.byte	0xfe
 1016 0268 DB020000 		.4byte	0x2db
 1017 026c 0B       		.uleb128 0xb
 1018 026d 723400   		.ascii	"r4\000"
 1019 0270 07       		.byte	0x7
 1020 0271 1101     		.2byte	0x111
 1021 0273 53020000 		.4byte	0x253
 1022 0277 00       		.byte	0
 1023 0278 0B       		.uleb128 0xb
 1024 0279 723500   		.ascii	"r5\000"
 1025 027c 07       		.byte	0x7
 1026 027d 1201     		.2byte	0x112
 1027 027f 53020000 		.4byte	0x253
 1028 0283 04       		.byte	0x4
 1029 0284 0B       		.uleb128 0xb
 1030 0285 723600   		.ascii	"r6\000"
 1031 0288 07       		.byte	0x7
 1032 0289 1301     		.2byte	0x113
 1033 028b 53020000 		.4byte	0x253
 1034 028f 08       		.byte	0x8
 1035 0290 0B       		.uleb128 0xb
 1036 0291 723700   		.ascii	"r7\000"
 1037 0294 07       		.byte	0x7
 1038 0295 1401     		.2byte	0x114
 1039 0297 53020000 		.4byte	0x253
 1040 029b 0C       		.byte	0xc
 1041 029c 0B       		.uleb128 0xb
 1042 029d 723800   		.ascii	"r8\000"
 1043 02a0 07       		.byte	0x7
 1044 02a1 1501     		.2byte	0x115
 1045 02a3 53020000 		.4byte	0x253
 1046 02a7 10       		.byte	0x10
 1047 02a8 0B       		.uleb128 0xb
 1048 02a9 723900   		.ascii	"r9\000"
 1049 02ac 07       		.byte	0x7
 1050 02ad 1601     		.2byte	0x116
 1051 02af 53020000 		.4byte	0x253
 1052 02b3 14       		.byte	0x14
 1053 02b4 0B       		.uleb128 0xb
 1054 02b5 72313000 		.ascii	"r10\000"
 1055 02b9 07       		.byte	0x7
 1056 02ba 1701     		.2byte	0x117
 1057 02bc 53020000 		.4byte	0x253
 1058 02c0 18       		.byte	0x18
 1059 02c1 0B       		.uleb128 0xb
 1060 02c2 72313100 		.ascii	"r11\000"
 1061 02c6 07       		.byte	0x7
 1062 02c7 1801     		.2byte	0x118
 1063 02c9 53020000 		.4byte	0x253
 1064 02cd 1C       		.byte	0x1c
ARM GAS  /tmp/ccR4B9nj.s 			page 20


 1065 02ce 0B       		.uleb128 0xb
 1066 02cf 6C7200   		.ascii	"lr\000"
 1067 02d2 07       		.byte	0x7
 1068 02d3 1901     		.2byte	0x119
 1069 02d5 53020000 		.4byte	0x253
 1070 02d9 20       		.byte	0x20
 1071 02da 00       		.byte	0
 1072 02db 0C       		.uleb128 0xc
 1073 02dc DF020000 		.4byte	.LASF46
 1074 02e0 04       		.byte	0x4
 1075 02e1 07       		.byte	0x7
 1076 02e2 2301     		.2byte	0x123
 1077 02e4 F6020000 		.4byte	0x2f6
 1078 02e8 0B       		.uleb128 0xb
 1079 02e9 72313300 		.ascii	"r13\000"
 1080 02ed 07       		.byte	0x7
 1081 02ee 2401     		.2byte	0x124
 1082 02f0 F6020000 		.4byte	0x2f6
 1083 02f4 00       		.byte	0
 1084 02f5 00       		.byte	0
 1085 02f6 09       		.uleb128 0x9
 1086 02f7 04       		.byte	0x4
 1087 02f8 60020000 		.4byte	0x260
 1088 02fc 0D       		.uleb128 0xd
 1089 02fd 82000000 		.4byte	0x82
 1090 0301 04       		.uleb128 0x4
 1091 0302 04       		.byte	0x4
 1092 0303 07       		.byte	0x7
 1093 0304 2C000000 		.4byte	.LASF47
 1094 0308 0D       		.uleb128 0xd
 1095 0309 FA000000 		.4byte	0xfa
 1096 030d 05       		.uleb128 0x5
 1097 030e B6050000 		.4byte	.LASF48
 1098 0312 10       		.byte	0x10
 1099 0313 08       		.byte	0x8
 1100 0314 2C       		.byte	0x2c
 1101 0315 3E030000 		.4byte	0x33e
 1102 0319 06       		.uleb128 0x6
 1103 031a E4050000 		.4byte	.LASF49
 1104 031e 08       		.byte	0x8
 1105 031f 2D       		.byte	0x2d
 1106 0320 28020000 		.4byte	0x228
 1107 0324 00       		.byte	0
 1108 0325 06       		.uleb128 0x6
 1109 0326 6D010000 		.4byte	.LASF50
 1110 032a 08       		.byte	0x8
 1111 032b 2F       		.byte	0x2f
 1112 032c 22020000 		.4byte	0x222
 1113 0330 08       		.byte	0x8
 1114 0331 06       		.uleb128 0x6
 1115 0332 B40B0000 		.4byte	.LASF51
 1116 0336 08       		.byte	0x8
 1117 0337 31       		.byte	0x31
 1118 0338 3E030000 		.4byte	0x33e
 1119 033c 0C       		.byte	0xc
 1120 033d 00       		.byte	0
 1121 033e 09       		.uleb128 0x9
ARM GAS  /tmp/ccR4B9nj.s 			page 21


 1122 033f 04       		.byte	0x4
 1123 0340 0D030000 		.4byte	0x30d
 1124 0344 03       		.uleb128 0x3
 1125 0345 B6050000 		.4byte	.LASF48
 1126 0349 08       		.byte	0x8
 1127 034a 33       		.byte	0x33
 1128 034b 0D030000 		.4byte	0x30d
 1129 034f 03       		.uleb128 0x3
 1130 0350 620A0000 		.4byte	.LASF52
 1131 0354 09       		.byte	0x9
 1132 0355 29       		.byte	0x29
 1133 0356 5A030000 		.4byte	0x35a
 1134 035a 05       		.uleb128 0x5
 1135 035b 620A0000 		.4byte	.LASF52
 1136 035f 0C       		.byte	0xc
 1137 0360 09       		.byte	0x9
 1138 0361 2E       		.byte	0x2e
 1139 0362 8B030000 		.4byte	0x38b
 1140 0366 06       		.uleb128 0x6
 1141 0367 47050000 		.4byte	.LASF53
 1142 036b 09       		.byte	0x9
 1143 036c 2F       		.byte	0x2f
 1144 036d 8B030000 		.4byte	0x38b
 1145 0371 00       		.byte	0
 1146 0372 06       		.uleb128 0x6
 1147 0373 F00B0000 		.4byte	.LASF54
 1148 0377 09       		.byte	0x9
 1149 0378 32       		.byte	0x32
 1150 0379 22020000 		.4byte	0x222
 1151 037d 04       		.byte	0x4
 1152 037e 06       		.uleb128 0x6
 1153 037f 910B0000 		.4byte	.LASF55
 1154 0383 09       		.byte	0x9
 1155 0384 34       		.byte	0x34
 1156 0385 EF000000 		.4byte	0xef
 1157 0389 08       		.byte	0x8
 1158 038a 00       		.byte	0
 1159 038b 09       		.uleb128 0x9
 1160 038c 04       		.byte	0x4
 1161 038d 4F030000 		.4byte	0x34f
 1162 0391 05       		.uleb128 0x5
 1163 0392 FB040000 		.4byte	.LASF56
 1164 0396 04       		.byte	0x4
 1165 0397 09       		.byte	0x9
 1166 0398 3C       		.byte	0x3c
 1167 0399 AA030000 		.4byte	0x3aa
 1168 039d 06       		.uleb128 0x6
 1169 039e B0040000 		.4byte	.LASF57
 1170 03a2 09       		.byte	0x9
 1171 03a3 3D       		.byte	0x3d
 1172 03a4 8B030000 		.4byte	0x38b
 1173 03a8 00       		.byte	0
 1174 03a9 00       		.byte	0
 1175 03aa 03       		.uleb128 0x3
 1176 03ab FB040000 		.4byte	.LASF56
 1177 03af 09       		.byte	0x9
 1178 03b0 40       		.byte	0x40
ARM GAS  /tmp/ccR4B9nj.s 			page 22


 1179 03b1 91030000 		.4byte	0x391
 1180 03b5 0E       		.uleb128 0xe
 1181 03b6 04       		.byte	0x4
 1182 03b7 06       		.byte	0x6
 1183 03b8 90       		.byte	0x90
 1184 03b9 EA030000 		.4byte	0x3ea
 1185 03bd 0F       		.uleb128 0xf
 1186 03be ED0A0000 		.4byte	.LASF58
 1187 03c2 06       		.byte	0x6
 1188 03c3 97       		.byte	0x97
 1189 03c4 E4000000 		.4byte	0xe4
 1190 03c8 0F       		.uleb128 0xf
 1191 03c9 75010000 		.4byte	.LASF59
 1192 03cd 06       		.byte	0x6
 1193 03ce 9E       		.byte	0x9e
 1194 03cf E4000000 		.4byte	0xe4
 1195 03d3 0F       		.uleb128 0xf
 1196 03d4 AC030000 		.4byte	.LASF60
 1197 03d8 06       		.byte	0x6
 1198 03d9 A5       		.byte	0xa5
 1199 03da 5E020000 		.4byte	0x25e
 1200 03de 0F       		.uleb128 0xf
 1201 03df C4020000 		.4byte	.LASF61
 1202 03e3 06       		.byte	0x6
 1203 03e4 AC       		.byte	0xac
 1204 03e5 EF000000 		.4byte	0xef
 1205 03e9 00       		.byte	0
 1206 03ea 09       		.uleb128 0x9
 1207 03eb 04       		.byte	0x4
 1208 03ec F0030000 		.4byte	0x3f0
 1209 03f0 10       		.uleb128 0x10
 1210 03f1 F5030000 		.4byte	0x3f5
 1211 03f5 04       		.uleb128 0x4
 1212 03f6 01       		.byte	0x1
 1213 03f7 08       		.byte	0x8
 1214 03f8 4D030000 		.4byte	.LASF62
 1215 03fc 09       		.uleb128 0x9
 1216 03fd 04       		.byte	0x4
 1217 03fe 44030000 		.4byte	0x344
 1218 0402 03       		.uleb128 0x3
 1219 0403 96030000 		.4byte	.LASF63
 1220 0407 0A       		.byte	0xa
 1221 0408 37       		.byte	0x37
 1222 0409 0D040000 		.4byte	0x40d
 1223 040d 05       		.uleb128 0x5
 1224 040e 96030000 		.4byte	.LASF63
 1225 0412 20       		.byte	0x20
 1226 0413 0A       		.byte	0xa
 1227 0414 45       		.byte	0x45
 1228 0415 6E040000 		.4byte	0x46e
 1229 0419 06       		.uleb128 0x6
 1230 041a FE080000 		.4byte	.LASF64
 1231 041e 0A       		.byte	0xa
 1232 041f 46       		.byte	0x46
 1233 0420 28020000 		.4byte	0x228
 1234 0424 00       		.byte	0
 1235 0425 06       		.uleb128 0x6
ARM GAS  /tmp/ccR4B9nj.s 			page 23


 1236 0426 B8040000 		.4byte	.LASF65
 1237 042a 0A       		.byte	0xa
 1238 042b 47       		.byte	0x47
 1239 042c 2C000000 		.4byte	0x2c
 1240 0430 08       		.byte	0x8
 1241 0431 06       		.uleb128 0x6
 1242 0432 A0010000 		.4byte	.LASF66
 1243 0436 0A       		.byte	0xa
 1244 0437 48       		.byte	0x48
 1245 0438 90040000 		.4byte	0x490
 1246 043c 0C       		.byte	0xc
 1247 043d 06       		.uleb128 0x6
 1248 043e 7E010000 		.4byte	.LASF67
 1249 0442 0A       		.byte	0xa
 1250 0443 49       		.byte	0x49
 1251 0444 90040000 		.4byte	0x490
 1252 0448 10       		.byte	0x10
 1253 0449 06       		.uleb128 0x6
 1254 044a 61050000 		.4byte	.LASF68
 1255 044e 0A       		.byte	0xa
 1256 044f 4B       		.byte	0x4b
 1257 0450 90040000 		.4byte	0x490
 1258 0454 14       		.byte	0x14
 1259 0455 06       		.uleb128 0x6
 1260 0456 E9010000 		.4byte	.LASF69
 1261 045a 0A       		.byte	0xa
 1262 045b 4C       		.byte	0x4c
 1263 045c 90040000 		.4byte	0x490
 1264 0460 18       		.byte	0x18
 1265 0461 06       		.uleb128 0x6
 1266 0462 B1010000 		.4byte	.LASF70
 1267 0466 0A       		.byte	0xa
 1268 0467 4D       		.byte	0x4d
 1269 0468 6E040000 		.4byte	0x46e
 1270 046c 1C       		.byte	0x1c
 1271 046d 00       		.byte	0
 1272 046e 03       		.uleb128 0x3
 1273 046f 4F060000 		.4byte	.LASF71
 1274 0473 0A       		.byte	0xa
 1275 0474 3A       		.byte	0x3a
 1276 0475 79040000 		.4byte	0x479
 1277 0479 09       		.uleb128 0x9
 1278 047a 04       		.byte	0x4
 1279 047b 7F040000 		.4byte	0x47f
 1280 047f 11       		.uleb128 0x11
 1281 0480 8A040000 		.4byte	0x48a
 1282 0484 12       		.uleb128 0x12
 1283 0485 8A040000 		.4byte	0x48a
 1284 0489 00       		.byte	0
 1285 048a 09       		.uleb128 0x9
 1286 048b 04       		.byte	0x4
 1287 048c 02040000 		.4byte	0x402
 1288 0490 09       		.uleb128 0x9
 1289 0491 04       		.byte	0x4
 1290 0492 45000000 		.4byte	0x45
 1291 0496 03       		.uleb128 0x3
 1292 0497 5A0B0000 		.4byte	.LASF72
ARM GAS  /tmp/ccR4B9nj.s 			page 24


 1293 049b 0A       		.byte	0xa
 1294 049c 76       		.byte	0x76
 1295 049d 02040000 		.4byte	0x402
 1296 04a1 03       		.uleb128 0x3
 1297 04a2 CD030000 		.4byte	.LASF73
 1298 04a6 0A       		.byte	0xa
 1299 04a7 E6       		.byte	0xe6
 1300 04a8 02040000 		.4byte	0x402
 1301 04ac 13       		.uleb128 0x13
 1302 04ad 2C000000 		.4byte	0x2c
 1303 04b1 C5040000 		.4byte	0x4c5
 1304 04b5 12       		.uleb128 0x12
 1305 04b6 5E020000 		.4byte	0x25e
 1306 04ba 12       		.uleb128 0x12
 1307 04bb C5040000 		.4byte	0x4c5
 1308 04bf 12       		.uleb128 0x12
 1309 04c0 2C000000 		.4byte	0x2c
 1310 04c4 00       		.byte	0
 1311 04c5 09       		.uleb128 0x9
 1312 04c6 04       		.byte	0x4
 1313 04c7 CB040000 		.4byte	0x4cb
 1314 04cb 10       		.uleb128 0x10
 1315 04cc 45000000 		.4byte	0x45
 1316 04d0 09       		.uleb128 0x9
 1317 04d1 04       		.byte	0x4
 1318 04d2 AC040000 		.4byte	0x4ac
 1319 04d6 13       		.uleb128 0x13
 1320 04d7 2C000000 		.4byte	0x2c
 1321 04db EF040000 		.4byte	0x4ef
 1322 04df 12       		.uleb128 0x12
 1323 04e0 5E020000 		.4byte	0x25e
 1324 04e4 12       		.uleb128 0x12
 1325 04e5 90040000 		.4byte	0x490
 1326 04e9 12       		.uleb128 0x12
 1327 04ea 2C000000 		.4byte	0x2c
 1328 04ee 00       		.byte	0
 1329 04ef 09       		.uleb128 0x9
 1330 04f0 04       		.byte	0x4
 1331 04f1 D6040000 		.4byte	0x4d6
 1332 04f5 13       		.uleb128 0x13
 1333 04f6 AD000000 		.4byte	0xad
 1334 04fa 04050000 		.4byte	0x504
 1335 04fe 12       		.uleb128 0x12
 1336 04ff 5E020000 		.4byte	0x25e
 1337 0503 00       		.byte	0
 1338 0504 09       		.uleb128 0x9
 1339 0505 04       		.byte	0x4
 1340 0506 F5040000 		.4byte	0x4f5
 1341 050a 13       		.uleb128 0x13
 1342 050b E4000000 		.4byte	0xe4
 1343 050f 23050000 		.4byte	0x523
 1344 0513 12       		.uleb128 0x12
 1345 0514 5E020000 		.4byte	0x25e
 1346 0518 12       		.uleb128 0x12
 1347 0519 45000000 		.4byte	0x45
 1348 051d 12       		.uleb128 0x12
 1349 051e FA000000 		.4byte	0xfa
ARM GAS  /tmp/ccR4B9nj.s 			page 25


 1350 0522 00       		.byte	0
 1351 0523 09       		.uleb128 0x9
 1352 0524 04       		.byte	0x4
 1353 0525 0A050000 		.4byte	0x50a
 1354 0529 13       		.uleb128 0x13
 1355 052a E4000000 		.4byte	0xe4
 1356 052e 3D050000 		.4byte	0x53d
 1357 0532 12       		.uleb128 0x12
 1358 0533 5E020000 		.4byte	0x25e
 1359 0537 12       		.uleb128 0x12
 1360 0538 FA000000 		.4byte	0xfa
 1361 053c 00       		.byte	0
 1362 053d 09       		.uleb128 0x9
 1363 053e 04       		.byte	0x4
 1364 053f 29050000 		.4byte	0x529
 1365 0543 13       		.uleb128 0x13
 1366 0544 2C000000 		.4byte	0x2c
 1367 0548 61050000 		.4byte	0x561
 1368 054c 12       		.uleb128 0x12
 1369 054d 5E020000 		.4byte	0x25e
 1370 0551 12       		.uleb128 0x12
 1371 0552 C5040000 		.4byte	0x4c5
 1372 0556 12       		.uleb128 0x12
 1373 0557 2C000000 		.4byte	0x2c
 1374 055b 12       		.uleb128 0x12
 1375 055c FA000000 		.4byte	0xfa
 1376 0560 00       		.byte	0
 1377 0561 09       		.uleb128 0x9
 1378 0562 04       		.byte	0x4
 1379 0563 43050000 		.4byte	0x543
 1380 0567 13       		.uleb128 0x13
 1381 0568 2C000000 		.4byte	0x2c
 1382 056c 85050000 		.4byte	0x585
 1383 0570 12       		.uleb128 0x12
 1384 0571 5E020000 		.4byte	0x25e
 1385 0575 12       		.uleb128 0x12
 1386 0576 90040000 		.4byte	0x490
 1387 057a 12       		.uleb128 0x12
 1388 057b 2C000000 		.4byte	0x2c
 1389 057f 12       		.uleb128 0x12
 1390 0580 FA000000 		.4byte	0xfa
 1391 0584 00       		.byte	0
 1392 0585 09       		.uleb128 0x9
 1393 0586 04       		.byte	0x4
 1394 0587 67050000 		.4byte	0x567
 1395 058b 14       		.uleb128 0x14
 1396 058c FA060000 		.4byte	.LASF74
 1397 0590 0B       		.byte	0xb
 1398 0591 0B01     		.2byte	0x10b
 1399 0593 A2000000 		.4byte	0xa2
 1400 0597 13       		.uleb128 0x13
 1401 0598 8B050000 		.4byte	0x58b
 1402 059c A6050000 		.4byte	0x5a6
 1403 05a0 12       		.uleb128 0x12
 1404 05a1 5E020000 		.4byte	0x25e
 1405 05a5 00       		.byte	0
 1406 05a6 09       		.uleb128 0x9
ARM GAS  /tmp/ccR4B9nj.s 			page 26


 1407 05a7 04       		.byte	0x4
 1408 05a8 97050000 		.4byte	0x597
 1409 05ac 03       		.uleb128 0x3
 1410 05ad FF090000 		.4byte	.LASF75
 1411 05b1 0C       		.byte	0xc
 1412 05b2 35       		.byte	0x35
 1413 05b3 B7050000 		.4byte	0x5b7
 1414 05b7 10       		.uleb128 0x10
 1415 05b8 FC020000 		.4byte	0x2fc
 1416 05bc 03       		.uleb128 0x3
 1417 05bd 9E000000 		.4byte	.LASF76
 1418 05c1 0C       		.byte	0xc
 1419 05c2 39       		.byte	0x39
 1420 05c3 FC020000 		.4byte	0x2fc
 1421 05c7 03       		.uleb128 0x3
 1422 05c8 390A0000 		.4byte	.LASF77
 1423 05cc 0C       		.byte	0xc
 1424 05cd 3A       		.byte	0x3a
 1425 05ce FC020000 		.4byte	0x2fc
 1426 05d2 15       		.uleb128 0x15
 1427 05d3 14070000 		.4byte	.LASF287
 1428 05d7 01       		.byte	0x1
 1429 05d8 0C       		.byte	0xc
 1430 05d9 49       		.byte	0x49
 1431 05da CF060000 		.4byte	0x6cf
 1432 05de 16       		.uleb128 0x16
 1433 05df E7040000 		.4byte	.LASF78
 1434 05e3 72       		.sleb128 -14
 1435 05e4 16       		.uleb128 0x16
 1436 05e5 19050000 		.4byte	.LASF79
 1437 05e9 74       		.sleb128 -12
 1438 05ea 16       		.uleb128 0x16
 1439 05eb 94050000 		.4byte	.LASF80
 1440 05ef 75       		.sleb128 -11
 1441 05f0 16       		.uleb128 0x16
 1442 05f1 3D030000 		.4byte	.LASF81
 1443 05f5 76       		.sleb128 -10
 1444 05f6 16       		.uleb128 0x16
 1445 05f7 07060000 		.4byte	.LASF82
 1446 05fb 7B       		.sleb128 -5
 1447 05fc 16       		.uleb128 0x16
 1448 05fd A3090000 		.4byte	.LASF83
 1449 0601 7C       		.sleb128 -4
 1450 0602 16       		.uleb128 0x16
 1451 0603 650B0000 		.4byte	.LASF84
 1452 0607 7E       		.sleb128 -2
 1453 0608 16       		.uleb128 0x16
 1454 0609 AB020000 		.4byte	.LASF85
 1455 060d 7F       		.sleb128 -1
 1456 060e 16       		.uleb128 0x16
 1457 060f 82040000 		.4byte	.LASF86
 1458 0613 00       		.sleb128 0
 1459 0614 16       		.uleb128 0x16
 1460 0615 2D010000 		.4byte	.LASF87
 1461 0619 01       		.sleb128 1
 1462 061a 16       		.uleb128 0x16
 1463 061b D60B0000 		.4byte	.LASF88
ARM GAS  /tmp/ccR4B9nj.s 			page 27


 1464 061f 02       		.sleb128 2
 1465 0620 16       		.uleb128 0x16
 1466 0621 C2040000 		.4byte	.LASF89
 1467 0625 03       		.sleb128 3
 1468 0626 16       		.uleb128 0x16
 1469 0627 8B050000 		.4byte	.LASF90
 1470 062b 04       		.sleb128 4
 1471 062c 16       		.uleb128 0x16
 1472 062d 65040000 		.4byte	.LASF91
 1473 0631 05       		.sleb128 5
 1474 0632 16       		.uleb128 0x16
 1475 0633 6E040000 		.4byte	.LASF92
 1476 0637 06       		.sleb128 6
 1477 0638 16       		.uleb128 0x16
 1478 0639 C9080000 		.4byte	.LASF93
 1479 063d 08       		.sleb128 8
 1480 063e 16       		.uleb128 0x16
 1481 063f 5A040000 		.4byte	.LASF94
 1482 0643 09       		.sleb128 9
 1483 0644 16       		.uleb128 0x16
 1484 0645 5A030000 		.4byte	.LASF95
 1485 0649 0A       		.sleb128 10
 1486 064a 16       		.uleb128 0x16
 1487 064b 210A0000 		.4byte	.LASF96
 1488 064f 0B       		.sleb128 11
 1489 0650 16       		.uleb128 0x16
 1490 0651 74090000 		.4byte	.LASF97
 1491 0655 0C       		.sleb128 12
 1492 0656 16       		.uleb128 0x16
 1493 0657 95040000 		.4byte	.LASF98
 1494 065b 0D       		.sleb128 13
 1495 065c 16       		.uleb128 0x16
 1496 065d 11090000 		.4byte	.LASF99
 1497 0661 0E       		.sleb128 14
 1498 0662 16       		.uleb128 0x16
 1499 0663 8E080000 		.4byte	.LASF100
 1500 0667 0F       		.sleb128 15
 1501 0668 16       		.uleb128 0x16
 1502 0669 83080000 		.4byte	.LASF101
 1503 066d 12       		.sleb128 18
 1504 066e 16       		.uleb128 0x16
 1505 066f A6060000 		.4byte	.LASF102
 1506 0673 13       		.sleb128 19
 1507 0674 16       		.uleb128 0x16
 1508 0675 F5050000 		.4byte	.LASF103
 1509 0679 14       		.sleb128 20
 1510 067a 16       		.uleb128 0x16
 1511 067b 08090000 		.4byte	.LASF104
 1512 067f 15       		.sleb128 21
 1513 0680 16       		.uleb128 0x16
 1514 0681 980A0000 		.4byte	.LASF105
 1515 0685 16       		.sleb128 22
 1516 0686 16       		.uleb128 0x16
 1517 0687 59090000 		.4byte	.LASF106
 1518 068b 17       		.sleb128 23
 1519 068c 16       		.uleb128 0x16
 1520 068d 8C040000 		.4byte	.LASF107
ARM GAS  /tmp/ccR4B9nj.s 			page 28


 1521 0691 18       		.sleb128 24
 1522 0692 16       		.uleb128 0x16
 1523 0693 13000000 		.4byte	.LASF108
 1524 0697 19       		.sleb128 25
 1525 0698 16       		.uleb128 0x16
 1526 0699 710B0000 		.4byte	.LASF109
 1527 069d 1A       		.sleb128 26
 1528 069e 16       		.uleb128 0x16
 1529 069f 95060000 		.4byte	.LASF110
 1530 06a3 1B       		.sleb128 27
 1531 06a4 16       		.uleb128 0x16
 1532 06a5 80020000 		.4byte	.LASF111
 1533 06a9 1C       		.sleb128 28
 1534 06aa 16       		.uleb128 0x16
 1535 06ab AE080000 		.4byte	.LASF112
 1536 06af 1D       		.sleb128 29
 1537 06b0 16       		.uleb128 0x16
 1538 06b1 DD040000 		.4byte	.LASF113
 1539 06b5 1E       		.sleb128 30
 1540 06b6 16       		.uleb128 0x16
 1541 06b7 EC030000 		.4byte	.LASF114
 1542 06bb 1F       		.sleb128 31
 1543 06bc 16       		.uleb128 0x16
 1544 06bd 77040000 		.4byte	.LASF115
 1545 06c1 20       		.sleb128 32
 1546 06c2 16       		.uleb128 0x16
 1547 06c3 3F040000 		.4byte	.LASF116
 1548 06c7 21       		.sleb128 33
 1549 06c8 16       		.uleb128 0x16
 1550 06c9 D4040000 		.4byte	.LASF117
 1551 06cd 22       		.sleb128 34
 1552 06ce 00       		.byte	0
 1553 06cf 17       		.uleb128 0x17
 1554 06d0 C7050000 		.4byte	0x5c7
 1555 06d4 DF060000 		.4byte	0x6df
 1556 06d8 18       		.uleb128 0x18
 1557 06d9 01030000 		.4byte	0x301
 1558 06dd 12       		.byte	0x12
 1559 06de 00       		.byte	0
 1560 06df 17       		.uleb128 0x17
 1561 06e0 C7050000 		.4byte	0x5c7
 1562 06e4 EF060000 		.4byte	0x6ef
 1563 06e8 18       		.uleb128 0x18
 1564 06e9 01030000 		.4byte	0x301
 1565 06ed 00       		.byte	0
 1566 06ee 00       		.byte	0
 1567 06ef 17       		.uleb128 0x17
 1568 06f0 C7050000 		.4byte	0x5c7
 1569 06f4 FF060000 		.4byte	0x6ff
 1570 06f8 18       		.uleb128 0x18
 1571 06f9 01030000 		.4byte	0x301
 1572 06fd 01       		.byte	0x1
 1573 06fe 00       		.byte	0
 1574 06ff 17       		.uleb128 0x17
 1575 0700 C7050000 		.4byte	0x5c7
 1576 0704 0F070000 		.4byte	0x70f
 1577 0708 18       		.uleb128 0x18
ARM GAS  /tmp/ccR4B9nj.s 			page 29


 1578 0709 01030000 		.4byte	0x301
 1579 070d 04       		.byte	0x4
 1580 070e 00       		.byte	0
 1581 070f 19       		.uleb128 0x19
 1582 0710 9001     		.2byte	0x190
 1583 0712 0C       		.byte	0xc
 1584 0713 DA06     		.2byte	0x6da
 1585 0715 080B0000 		.4byte	0xb08
 1586 0719 1A       		.uleb128 0x1a
 1587 071a 520B0000 		.4byte	.LASF118
 1588 071e 0C       		.byte	0xc
 1589 071f DB06     		.2byte	0x6db
 1590 0721 BC050000 		.4byte	0x5bc
 1591 0725 00       		.byte	0
 1592 0726 1A       		.uleb128 0x1a
 1593 0727 FE030000 		.4byte	.LASF119
 1594 072b 0C       		.byte	0xc
 1595 072c DC06     		.2byte	0x6dc
 1596 072e BC050000 		.4byte	0x5bc
 1597 0732 04       		.byte	0x4
 1598 0733 1A       		.uleb128 0x1a
 1599 0734 9F040000 		.4byte	.LASF120
 1600 0738 0C       		.byte	0xc
 1601 0739 DD06     		.2byte	0x6dd
 1602 073b AC050000 		.4byte	0x5ac
 1603 073f 08       		.byte	0x8
 1604 0740 1A       		.uleb128 0x1a
 1605 0741 1D090000 		.4byte	.LASF121
 1606 0745 0C       		.byte	0xc
 1607 0746 DE06     		.2byte	0x6de
 1608 0748 080B0000 		.4byte	0xb08
 1609 074c 0C       		.byte	0xc
 1610 074d 1A       		.uleb128 0x1a
 1611 074e B7080000 		.4byte	.LASF122
 1612 0752 0C       		.byte	0xc
 1613 0753 DF06     		.2byte	0x6df
 1614 0755 BC050000 		.4byte	0x5bc
 1615 0759 10       		.byte	0x10
 1616 075a 1A       		.uleb128 0x1a
 1617 075b 6C080000 		.4byte	.LASF123
 1618 075f 0C       		.byte	0xc
 1619 0760 E006     		.2byte	0x6e0
 1620 0762 BC050000 		.4byte	0x5bc
 1621 0766 14       		.byte	0x14
 1622 0767 1A       		.uleb128 0x1a
 1623 0768 A3020000 		.4byte	.LASF124
 1624 076c 0C       		.byte	0xc
 1625 076d E106     		.2byte	0x6e1
 1626 076f AC050000 		.4byte	0x5ac
 1627 0773 18       		.byte	0x18
 1628 0774 1A       		.uleb128 0x1a
 1629 0775 27090000 		.4byte	.LASF125
 1630 0779 0C       		.byte	0xc
 1631 077a E206     		.2byte	0x6e2
 1632 077c 0D0B0000 		.4byte	0xb0d
 1633 0780 1C       		.byte	0x1c
 1634 0781 1A       		.uleb128 0x1a
ARM GAS  /tmp/ccR4B9nj.s 			page 30


 1635 0782 7A080000 		.4byte	.LASF126
 1636 0786 0C       		.byte	0xc
 1637 0787 E306     		.2byte	0x6e3
 1638 0789 BC050000 		.4byte	0x5bc
 1639 078d 20       		.byte	0x20
 1640 078e 1A       		.uleb128 0x1a
 1641 078f 83070000 		.4byte	.LASF127
 1642 0793 0C       		.byte	0xc
 1643 0794 E406     		.2byte	0x6e4
 1644 0796 BC050000 		.4byte	0x5bc
 1645 079a 24       		.byte	0x24
 1646 079b 1A       		.uleb128 0x1a
 1647 079c 23020000 		.4byte	.LASF128
 1648 07a0 0C       		.byte	0xc
 1649 07a1 E506     		.2byte	0x6e5
 1650 07a3 AC050000 		.4byte	0x5ac
 1651 07a7 28       		.byte	0x28
 1652 07a8 1A       		.uleb128 0x1a
 1653 07a9 31090000 		.4byte	.LASF129
 1654 07ad 0C       		.byte	0xc
 1655 07ae E606     		.2byte	0x6e6
 1656 07b0 120B0000 		.4byte	0xb12
 1657 07b4 2C       		.byte	0x2c
 1658 07b5 1A       		.uleb128 0x1a
 1659 07b6 3B060000 		.4byte	.LASF130
 1660 07ba 0C       		.byte	0xc
 1661 07bb E706     		.2byte	0x6e7
 1662 07bd BC050000 		.4byte	0x5bc
 1663 07c1 30       		.byte	0x30
 1664 07c2 1A       		.uleb128 0x1a
 1665 07c3 82050000 		.4byte	.LASF131
 1666 07c7 0C       		.byte	0xc
 1667 07c8 E806     		.2byte	0x6e8
 1668 07ca BC050000 		.4byte	0x5bc
 1669 07ce 34       		.byte	0x34
 1670 07cf 1A       		.uleb128 0x1a
 1671 07d0 BE090000 		.4byte	.LASF132
 1672 07d4 0C       		.byte	0xc
 1673 07d5 E906     		.2byte	0x6e9
 1674 07d7 C7050000 		.4byte	0x5c7
 1675 07db 38       		.byte	0x38
 1676 07dc 1A       		.uleb128 0x1a
 1677 07dd B3030000 		.4byte	.LASF133
 1678 07e1 0C       		.byte	0xc
 1679 07e2 EA06     		.2byte	0x6ea
 1680 07e4 AC050000 		.4byte	0x5ac
 1681 07e8 3C       		.byte	0x3c
 1682 07e9 1A       		.uleb128 0x1a
 1683 07ea 1C060000 		.4byte	.LASF134
 1684 07ee 0C       		.byte	0xc
 1685 07ef EB06     		.2byte	0x6eb
 1686 07f1 BC050000 		.4byte	0x5bc
 1687 07f5 40       		.byte	0x40
 1688 07f6 1A       		.uleb128 0x1a
 1689 07f7 AE050000 		.4byte	.LASF135
 1690 07fb 0C       		.byte	0xc
 1691 07fc EC06     		.2byte	0x6ec
ARM GAS  /tmp/ccR4B9nj.s 			page 31


 1692 07fe BC050000 		.4byte	0x5bc
 1693 0802 44       		.byte	0x44
 1694 0803 1A       		.uleb128 0x1a
 1695 0804 9B090000 		.4byte	.LASF136
 1696 0808 0C       		.byte	0xc
 1697 0809 ED06     		.2byte	0x6ed
 1698 080b AC050000 		.4byte	0x5ac
 1699 080f 48       		.byte	0x48
 1700 0810 1A       		.uleb128 0x1a
 1701 0811 BB0B0000 		.4byte	.LASF137
 1702 0815 0C       		.byte	0xc
 1703 0816 EE06     		.2byte	0x6ee
 1704 0818 AC050000 		.4byte	0x5ac
 1705 081c 4C       		.byte	0x4c
 1706 081d 1A       		.uleb128 0x1a
 1707 081e F5030000 		.4byte	.LASF138
 1708 0822 0C       		.byte	0xc
 1709 0823 EF06     		.2byte	0x6ef
 1710 0825 BC050000 		.4byte	0x5bc
 1711 0829 50       		.byte	0x50
 1712 082a 1A       		.uleb128 0x1a
 1713 082b A3030000 		.4byte	.LASF139
 1714 082f 0C       		.byte	0xc
 1715 0830 F006     		.2byte	0x6f0
 1716 0832 BC050000 		.4byte	0x5bc
 1717 0836 54       		.byte	0x54
 1718 0837 1A       		.uleb128 0x1a
 1719 0838 92090000 		.4byte	.LASF140
 1720 083c 0C       		.byte	0xc
 1721 083d F106     		.2byte	0x6f1
 1722 083f AC050000 		.4byte	0x5ac
 1723 0843 58       		.byte	0x58
 1724 0844 1A       		.uleb128 0x1a
 1725 0845 3B090000 		.4byte	.LASF141
 1726 0849 0C       		.byte	0xc
 1727 084a F206     		.2byte	0x6f2
 1728 084c 170B0000 		.4byte	0xb17
 1729 0850 5C       		.byte	0x5c
 1730 0851 1A       		.uleb128 0x1a
 1731 0852 FE020000 		.4byte	.LASF142
 1732 0856 0C       		.byte	0xc
 1733 0857 F306     		.2byte	0x6f3
 1734 0859 BC050000 		.4byte	0x5bc
 1735 085d 60       		.byte	0x60
 1736 085e 1A       		.uleb128 0x1a
 1737 085f CB040000 		.4byte	.LASF143
 1738 0863 0C       		.byte	0xc
 1739 0864 F406     		.2byte	0x6f4
 1740 0866 BC050000 		.4byte	0x5bc
 1741 086a 64       		.byte	0x64
 1742 086b 1A       		.uleb128 0x1a
 1743 086c A5080000 		.4byte	.LASF144
 1744 0870 0C       		.byte	0xc
 1745 0871 F506     		.2byte	0x6f5
 1746 0873 AC050000 		.4byte	0x5ac
 1747 0877 68       		.byte	0x68
 1748 0878 1A       		.uleb128 0x1a
ARM GAS  /tmp/ccR4B9nj.s 			page 32


 1749 0879 45090000 		.4byte	.LASF145
 1750 087d 0C       		.byte	0xc
 1751 087e F606     		.2byte	0x6f6
 1752 0880 1C0B0000 		.4byte	0xb1c
 1753 0884 6C       		.byte	0x6c
 1754 0885 1A       		.uleb128 0x1a
 1755 0886 2C020000 		.4byte	.LASF146
 1756 088a 0C       		.byte	0xc
 1757 088b F706     		.2byte	0x6f7
 1758 088d 210B0000 		.4byte	0xb21
 1759 0891 70       		.byte	0x70
 1760 0892 1A       		.uleb128 0x1a
 1761 0893 4F090000 		.4byte	.LASF147
 1762 0897 0C       		.byte	0xc
 1763 0898 F806     		.2byte	0x6f8
 1764 089a 260B0000 		.4byte	0xb26
 1765 089e 78       		.byte	0x78
 1766 089f 1A       		.uleb128 0x1a
 1767 08a0 9A080000 		.4byte	.LASF148
 1768 08a4 0C       		.byte	0xc
 1769 08a5 F906     		.2byte	0x6f9
 1770 08a7 BC050000 		.4byte	0x5bc
 1771 08ab 80       		.byte	0x80
 1772 08ac 1A       		.uleb128 0x1a
 1773 08ad 44060000 		.4byte	.LASF149
 1774 08b1 0C       		.byte	0xc
 1775 08b2 FA06     		.2byte	0x6fa
 1776 08b4 BC050000 		.4byte	0x5bc
 1777 08b8 84       		.byte	0x84
 1778 08b9 1A       		.uleb128 0x1a
 1779 08ba 00000000 		.4byte	.LASF150
 1780 08be 0C       		.byte	0xc
 1781 08bf FB06     		.2byte	0x6fb
 1782 08c1 AC050000 		.4byte	0x5ac
 1783 08c5 88       		.byte	0x88
 1784 08c6 1A       		.uleb128 0x1a
 1785 08c7 EC050000 		.4byte	.LASF151
 1786 08cb 0C       		.byte	0xc
 1787 08cc FC06     		.2byte	0x6fc
 1788 08ce C7050000 		.4byte	0x5c7
 1789 08d2 8C       		.byte	0x8c
 1790 08d3 1A       		.uleb128 0x1a
 1791 08d4 C7010000 		.4byte	.LASF152
 1792 08d8 0C       		.byte	0xc
 1793 08d9 FD06     		.2byte	0x6fd
 1794 08db BC050000 		.4byte	0x5bc
 1795 08df 90       		.byte	0x90
 1796 08e0 1A       		.uleb128 0x1a
 1797 08e1 6E020000 		.4byte	.LASF153
 1798 08e5 0C       		.byte	0xc
 1799 08e6 FE06     		.2byte	0x6fe
 1800 08e8 BC050000 		.4byte	0x5bc
 1801 08ec 94       		.byte	0x94
 1802 08ed 1A       		.uleb128 0x1a
 1803 08ee 30070000 		.4byte	.LASF154
 1804 08f2 0C       		.byte	0xc
 1805 08f3 FF06     		.2byte	0x6ff
ARM GAS  /tmp/ccR4B9nj.s 			page 33


 1806 08f5 AC050000 		.4byte	0x5ac
 1807 08f9 98       		.byte	0x98
 1808 08fa 1A       		.uleb128 0x1a
 1809 08fb 10010000 		.4byte	.LASF155
 1810 08ff 0C       		.byte	0xc
 1811 0900 0007     		.2byte	0x700
 1812 0902 2B0B0000 		.4byte	0xb2b
 1813 0906 9C       		.byte	0x9c
 1814 0907 1A       		.uleb128 0x1a
 1815 0908 1A020000 		.4byte	.LASF156
 1816 090c 0C       		.byte	0xc
 1817 090d 0107     		.2byte	0x701
 1818 090f BC050000 		.4byte	0x5bc
 1819 0913 A0       		.byte	0xa0
 1820 0914 1A       		.uleb128 0x1a
 1821 0915 84010000 		.4byte	.LASF157
 1822 0919 0C       		.byte	0xc
 1823 091a 0207     		.2byte	0x702
 1824 091c BC050000 		.4byte	0x5bc
 1825 0920 A4       		.byte	0xa4
 1826 0921 1A       		.uleb128 0x1a
 1827 0922 0B070000 		.4byte	.LASF158
 1828 0926 0C       		.byte	0xc
 1829 0927 0307     		.2byte	0x703
 1830 0929 AC050000 		.4byte	0x5ac
 1831 092d A8       		.byte	0xa8
 1832 092e 1A       		.uleb128 0x1a
 1833 092f 1A010000 		.4byte	.LASF159
 1834 0933 0C       		.byte	0xc
 1835 0934 0407     		.2byte	0x704
 1836 0936 300B0000 		.4byte	0xb30
 1837 093a AC       		.byte	0xac
 1838 093b 1A       		.uleb128 0x1a
 1839 093c 7E090000 		.4byte	.LASF160
 1840 0940 0C       		.byte	0xc
 1841 0941 0507     		.2byte	0x705
 1842 0943 BC050000 		.4byte	0x5bc
 1843 0947 B0       		.byte	0xb0
 1844 0948 1A       		.uleb128 0x1a
 1845 0949 BF080000 		.4byte	.LASF161
 1846 094d 0C       		.byte	0xc
 1847 094e 0607     		.2byte	0x706
 1848 0950 BC050000 		.4byte	0x5bc
 1849 0954 B4       		.byte	0xb4
 1850 0955 1A       		.uleb128 0x1a
 1851 0956 8B000000 		.4byte	.LASF162
 1852 095a 0C       		.byte	0xc
 1853 095b 0707     		.2byte	0x707
 1854 095d AC050000 		.4byte	0x5ac
 1855 0961 B8       		.byte	0xb8
 1856 0962 1A       		.uleb128 0x1a
 1857 0963 6A090000 		.4byte	.LASF163
 1858 0967 0C       		.byte	0xc
 1859 0968 0807     		.2byte	0x708
 1860 096a 350B0000 		.4byte	0xb35
 1861 096e BC       		.byte	0xbc
 1862 096f 1A       		.uleb128 0x1a
ARM GAS  /tmp/ccR4B9nj.s 			page 34


 1863 0970 78020000 		.4byte	.LASF164
 1864 0974 0C       		.byte	0xc
 1865 0975 0907     		.2byte	0x709
 1866 0977 BC050000 		.4byte	0x5bc
 1867 097b C0       		.byte	0xc0
 1868 097c 1A       		.uleb128 0x1a
 1869 097d CA060000 		.4byte	.LASF165
 1870 0981 0C       		.byte	0xc
 1871 0982 0A07     		.2byte	0x70a
 1872 0984 BC050000 		.4byte	0x5bc
 1873 0988 C4       		.byte	0xc4
 1874 0989 1A       		.uleb128 0x1a
 1875 098a 36040000 		.4byte	.LASF166
 1876 098e 0C       		.byte	0xc
 1877 098f 0B07     		.2byte	0x70b
 1878 0991 AC050000 		.4byte	0x5ac
 1879 0995 C8       		.byte	0xc8
 1880 0996 1A       		.uleb128 0x1a
 1881 0997 63030000 		.4byte	.LASF167
 1882 099b 0C       		.byte	0xc
 1883 099c 0C07     		.2byte	0x70c
 1884 099e 3A0B0000 		.4byte	0xb3a
 1885 09a2 CC       		.byte	0xcc
 1886 09a3 1A       		.uleb128 0x1a
 1887 09a4 D9030000 		.4byte	.LASF168
 1888 09a8 0C       		.byte	0xc
 1889 09a9 0D07     		.2byte	0x70d
 1890 09ab BC050000 		.4byte	0x5bc
 1891 09af D0       		.byte	0xd0
 1892 09b0 1A       		.uleb128 0x1a
 1893 09b1 E20A0000 		.4byte	.LASF169
 1894 09b5 0C       		.byte	0xc
 1895 09b6 0E07     		.2byte	0x70e
 1896 09b8 BC050000 		.4byte	0x5bc
 1897 09bc D4       		.byte	0xd4
 1898 09bd 1A       		.uleb128 0x1a
 1899 09be E9080000 		.4byte	.LASF170
 1900 09c2 0C       		.byte	0xc
 1901 09c3 0F07     		.2byte	0x70f
 1902 09c5 AC050000 		.4byte	0x5ac
 1903 09c9 D8       		.byte	0xd8
 1904 09ca 1A       		.uleb128 0x1a
 1905 09cb 6E030000 		.4byte	.LASF171
 1906 09cf 0C       		.byte	0xc
 1907 09d0 1007     		.2byte	0x710
 1908 09d2 3F0B0000 		.4byte	0xb3f
 1909 09d6 DC       		.byte	0xdc
 1910 09d7 1A       		.uleb128 0x1a
 1911 09d8 C2030000 		.4byte	.LASF172
 1912 09dc 0C       		.byte	0xc
 1913 09dd 1107     		.2byte	0x711
 1914 09df AC050000 		.4byte	0x5ac
 1915 09e3 E0       		.byte	0xe0
 1916 09e4 1A       		.uleb128 0x1a
 1917 09e5 A4000000 		.4byte	.LASF173
 1918 09e9 0C       		.byte	0xc
 1919 09ea 1207     		.2byte	0x712
ARM GAS  /tmp/ccR4B9nj.s 			page 35


 1920 09ec C7050000 		.4byte	0x5c7
 1921 09f0 E4       		.byte	0xe4
 1922 09f1 1A       		.uleb128 0x1a
 1923 09f2 23030000 		.4byte	.LASF174
 1924 09f6 0C       		.byte	0xc
 1925 09f7 1307     		.2byte	0x713
 1926 09f9 AC050000 		.4byte	0x5ac
 1927 09fd E8       		.byte	0xe8
 1928 09fe 1A       		.uleb128 0x1a
 1929 09ff 79030000 		.4byte	.LASF175
 1930 0a03 0C       		.byte	0xc
 1931 0a04 1407     		.2byte	0x714
 1932 0a06 440B0000 		.4byte	0xb44
 1933 0a0a EC       		.byte	0xec
 1934 0a0b 1B       		.uleb128 0x1b
 1935 0a0c E9090000 		.4byte	.LASF176
 1936 0a10 0C       		.byte	0xc
 1937 0a11 1507     		.2byte	0x715
 1938 0a13 C7050000 		.4byte	0x5c7
 1939 0a17 0001     		.2byte	0x100
 1940 0a19 1B       		.uleb128 0x1b
 1941 0a1a 84030000 		.4byte	.LASF177
 1942 0a1e 0C       		.byte	0xc
 1943 0a1f 1607     		.2byte	0x716
 1944 0a21 490B0000 		.4byte	0xb49
 1945 0a25 0401     		.2byte	0x104
 1946 0a27 1B       		.uleb128 0x1b
 1947 0a28 8F0A0000 		.4byte	.LASF178
 1948 0a2c 0C       		.byte	0xc
 1949 0a2d 1707     		.2byte	0x717
 1950 0a2f C7050000 		.4byte	0x5c7
 1951 0a33 5001     		.2byte	0x150
 1952 0a35 1B       		.uleb128 0x1b
 1953 0a36 050C0000 		.4byte	.LASF179
 1954 0a3a 0C       		.byte	0xc
 1955 0a3b 1807     		.2byte	0x718
 1956 0a3d BC050000 		.4byte	0x5bc
 1957 0a41 5401     		.2byte	0x154
 1958 0a43 1B       		.uleb128 0x1b
 1959 0a44 C0060000 		.4byte	.LASF180
 1960 0a48 0C       		.byte	0xc
 1961 0a49 1907     		.2byte	0x719
 1962 0a4b BC050000 		.4byte	0x5bc
 1963 0a4f 5801     		.2byte	0x158
 1964 0a51 1B       		.uleb128 0x1b
 1965 0a52 500A0000 		.4byte	.LASF181
 1966 0a56 0C       		.byte	0xc
 1967 0a57 1A07     		.2byte	0x71a
 1968 0a59 AC050000 		.4byte	0x5ac
 1969 0a5d 5C01     		.2byte	0x15c
 1970 0a5f 1B       		.uleb128 0x1b
 1971 0a60 FD000000 		.4byte	.LASF182
 1972 0a64 0C       		.byte	0xc
 1973 0a65 1B07     		.2byte	0x71b
 1974 0a67 AC050000 		.4byte	0x5ac
 1975 0a6b 6001     		.2byte	0x160
 1976 0a6d 1B       		.uleb128 0x1b
ARM GAS  /tmp/ccR4B9nj.s 			page 36


 1977 0a6e 24060000 		.4byte	.LASF183
 1978 0a72 0C       		.byte	0xc
 1979 0a73 1C07     		.2byte	0x71c
 1980 0a75 AC050000 		.4byte	0x5ac
 1981 0a79 6401     		.2byte	0x164
 1982 0a7b 1B       		.uleb128 0x1b
 1983 0a7c 64080000 		.4byte	.LASF184
 1984 0a80 0C       		.byte	0xc
 1985 0a81 1D07     		.2byte	0x71d
 1986 0a83 C7050000 		.4byte	0x5c7
 1987 0a87 6801     		.2byte	0x168
 1988 0a89 1B       		.uleb128 0x1b
 1989 0a8a 52030000 		.4byte	.LASF185
 1990 0a8e 0C       		.byte	0xc
 1991 0a8f 1E07     		.2byte	0x71e
 1992 0a91 C7050000 		.4byte	0x5c7
 1993 0a95 6C01     		.2byte	0x16c
 1994 0a97 1B       		.uleb128 0x1b
 1995 0a98 51010000 		.4byte	.LASF186
 1996 0a9c 0C       		.byte	0xc
 1997 0a9d 1F07     		.2byte	0x71f
 1998 0a9f C7050000 		.4byte	0x5c7
 1999 0aa3 7001     		.2byte	0x170
 2000 0aa5 1B       		.uleb128 0x1b
 2001 0aa6 8C070000 		.4byte	.LASF187
 2002 0aaa 0C       		.byte	0xc
 2003 0aab 2007     		.2byte	0x720
 2004 0aad C7050000 		.4byte	0x5c7
 2005 0ab1 7401     		.2byte	0x174
 2006 0ab3 1B       		.uleb128 0x1b
 2007 0ab4 E7020000 		.4byte	.LASF188
 2008 0ab8 0C       		.byte	0xc
 2009 0ab9 2107     		.2byte	0x721
 2010 0abb C7050000 		.4byte	0x5c7
 2011 0abf 7801     		.2byte	0x178
 2012 0ac1 1B       		.uleb128 0x1b
 2013 0ac2 C7090000 		.4byte	.LASF189
 2014 0ac6 0C       		.byte	0xc
 2015 0ac7 2207     		.2byte	0x722
 2016 0ac9 C7050000 		.4byte	0x5c7
 2017 0acd 7C01     		.2byte	0x17c
 2018 0acf 1B       		.uleb128 0x1b
 2019 0ad0 10030000 		.4byte	.LASF190
 2020 0ad4 0C       		.byte	0xc
 2021 0ad5 2307     		.2byte	0x723
 2022 0ad7 C7050000 		.4byte	0x5c7
 2023 0adb 8001     		.2byte	0x180
 2024 0add 1B       		.uleb128 0x1b
 2025 0ade E0090000 		.4byte	.LASF191
 2026 0ae2 0C       		.byte	0xc
 2027 0ae3 2407     		.2byte	0x724
 2028 0ae5 C7050000 		.4byte	0x5c7
 2029 0ae9 8401     		.2byte	0x184
 2030 0aeb 1B       		.uleb128 0x1b
 2031 0aec FC0B0000 		.4byte	.LASF192
 2032 0af0 0C       		.byte	0xc
 2033 0af1 2507     		.2byte	0x725
ARM GAS  /tmp/ccR4B9nj.s 			page 37


 2034 0af3 BC050000 		.4byte	0x5bc
 2035 0af7 8801     		.2byte	0x188
 2036 0af9 1B       		.uleb128 0x1b
 2037 0afa 13060000 		.4byte	.LASF193
 2038 0afe 0C       		.byte	0xc
 2039 0aff 2607     		.2byte	0x726
 2040 0b01 AC050000 		.4byte	0x5ac
 2041 0b05 8C01     		.2byte	0x18c
 2042 0b07 00       		.byte	0
 2043 0b08 0D       		.uleb128 0xd
 2044 0b09 DF060000 		.4byte	0x6df
 2045 0b0d 0D       		.uleb128 0xd
 2046 0b0e DF060000 		.4byte	0x6df
 2047 0b12 0D       		.uleb128 0xd
 2048 0b13 DF060000 		.4byte	0x6df
 2049 0b17 0D       		.uleb128 0xd
 2050 0b18 DF060000 		.4byte	0x6df
 2051 0b1c 0D       		.uleb128 0xd
 2052 0b1d DF060000 		.4byte	0x6df
 2053 0b21 0D       		.uleb128 0xd
 2054 0b22 EF060000 		.4byte	0x6ef
 2055 0b26 0D       		.uleb128 0xd
 2056 0b27 EF060000 		.4byte	0x6ef
 2057 0b2b 0D       		.uleb128 0xd
 2058 0b2c DF060000 		.4byte	0x6df
 2059 0b30 0D       		.uleb128 0xd
 2060 0b31 DF060000 		.4byte	0x6df
 2061 0b35 0D       		.uleb128 0xd
 2062 0b36 DF060000 		.4byte	0x6df
 2063 0b3a 0D       		.uleb128 0xd
 2064 0b3b DF060000 		.4byte	0x6df
 2065 0b3f 0D       		.uleb128 0xd
 2066 0b40 DF060000 		.4byte	0x6df
 2067 0b44 0D       		.uleb128 0xd
 2068 0b45 FF060000 		.4byte	0x6ff
 2069 0b49 0D       		.uleb128 0xd
 2070 0b4a CF060000 		.4byte	0x6cf
 2071 0b4e 1C       		.uleb128 0x1c
 2072 0b4f 50696F00 		.ascii	"Pio\000"
 2073 0b53 0C       		.byte	0xc
 2074 0b54 2707     		.2byte	0x727
 2075 0b56 0F070000 		.4byte	0x70f
 2076 0b5a 19       		.uleb128 0x19
 2077 0b5b 1401     		.2byte	0x114
 2078 0b5d 0C       		.byte	0xc
 2079 0b5e 3F0D     		.2byte	0xd3f
 2080 0b60 240D0000 		.4byte	0xd24
 2081 0b64 1A       		.uleb128 0x1a
 2082 0b65 C30B0000 		.4byte	.LASF194
 2083 0b69 0C       		.byte	0xc
 2084 0b6a 400D     		.2byte	0xd40
 2085 0b6c BC050000 		.4byte	0x5bc
 2086 0b70 00       		.byte	0
 2087 0b71 1A       		.uleb128 0x1a
 2088 0b72 880B0000 		.4byte	.LASF195
 2089 0b76 0C       		.byte	0xc
 2090 0b77 410D     		.2byte	0xd41
ARM GAS  /tmp/ccR4B9nj.s 			page 38


 2091 0b79 BC050000 		.4byte	0x5bc
 2092 0b7d 04       		.byte	0x4
 2093 0b7e 1A       		.uleb128 0x1a
 2094 0b7f 69050000 		.4byte	.LASF196
 2095 0b83 0C       		.byte	0xc
 2096 0b84 420D     		.2byte	0xd42
 2097 0b86 AC050000 		.4byte	0x5ac
 2098 0b8a 08       		.byte	0x8
 2099 0b8b 1A       		.uleb128 0x1a
 2100 0b8c 1D090000 		.4byte	.LASF121
 2101 0b90 0C       		.byte	0xc
 2102 0b91 430D     		.2byte	0xd43
 2103 0b93 240D0000 		.4byte	0xd24
 2104 0b97 0C       		.byte	0xc
 2105 0b98 1A       		.uleb128 0x1a
 2106 0b99 40020000 		.4byte	.LASF197
 2107 0b9d 0C       		.byte	0xc
 2108 0b9e 440D     		.2byte	0xd44
 2109 0ba0 BC050000 		.4byte	0x5bc
 2110 0ba4 10       		.byte	0x10
 2111 0ba5 1A       		.uleb128 0x1a
 2112 0ba6 990B0000 		.4byte	.LASF198
 2113 0baa 0C       		.byte	0xc
 2114 0bab 450D     		.2byte	0xd45
 2115 0bad BC050000 		.4byte	0x5bc
 2116 0bb1 14       		.byte	0x14
 2117 0bb2 1A       		.uleb128 0x1a
 2118 0bb3 DA050000 		.4byte	.LASF199
 2119 0bb7 0C       		.byte	0xc
 2120 0bb8 460D     		.2byte	0xd46
 2121 0bba AC050000 		.4byte	0x5ac
 2122 0bbe 18       		.byte	0x18
 2123 0bbf 1A       		.uleb128 0x1a
 2124 0bc0 27090000 		.4byte	.LASF125
 2125 0bc4 0C       		.byte	0xc
 2126 0bc5 470D     		.2byte	0xd47
 2127 0bc7 290D0000 		.4byte	0xd29
 2128 0bcb 1C       		.byte	0x1c
 2129 0bcc 1A       		.uleb128 0x1a
 2130 0bcd 89020000 		.4byte	.LASF200
 2131 0bd1 0C       		.byte	0xc
 2132 0bd2 480D     		.2byte	0xd48
 2133 0bd4 C7050000 		.4byte	0x5c7
 2134 0bd8 20       		.byte	0x20
 2135 0bd9 1A       		.uleb128 0x1a
 2136 0bda 47010000 		.4byte	.LASF201
 2137 0bde 0C       		.byte	0xc
 2138 0bdf 490D     		.2byte	0xd49
 2139 0be1 AC050000 		.4byte	0x5ac
 2140 0be5 24       		.byte	0x24
 2141 0be6 1A       		.uleb128 0x1a
 2142 0be7 DF0B0000 		.4byte	.LASF202
 2143 0beb 0C       		.byte	0xc
 2144 0bec 4A0D     		.2byte	0xd4a
 2145 0bee C7050000 		.4byte	0x5c7
 2146 0bf2 28       		.byte	0x28
 2147 0bf3 1A       		.uleb128 0x1a
ARM GAS  /tmp/ccR4B9nj.s 			page 39


 2148 0bf4 59000000 		.4byte	.LASF203
 2149 0bf8 0C       		.byte	0xc
 2150 0bf9 4B0D     		.2byte	0xd4b
 2151 0bfb C7050000 		.4byte	0x5c7
 2152 0bff 2C       		.byte	0x2c
 2153 0c00 1A       		.uleb128 0x1a
 2154 0c01 F1010000 		.4byte	.LASF204
 2155 0c05 0C       		.byte	0xc
 2156 0c06 4C0D     		.2byte	0xd4c
 2157 0c08 C7050000 		.4byte	0x5c7
 2158 0c0c 30       		.byte	0x30
 2159 0c0d 1A       		.uleb128 0x1a
 2160 0c0e 31090000 		.4byte	.LASF129
 2161 0c12 0C       		.byte	0xc
 2162 0c13 4D0D     		.2byte	0xd4d
 2163 0c15 2E0D0000 		.4byte	0xd2e
 2164 0c19 34       		.byte	0x34
 2165 0c1a 1A       		.uleb128 0x1a
 2166 0c1b 0B000000 		.4byte	.LASF205
 2167 0c1f 0C       		.byte	0xc
 2168 0c20 4E0D     		.2byte	0xd4e
 2169 0c22 C7050000 		.4byte	0x5c7
 2170 0c26 38       		.byte	0x38
 2171 0c27 1A       		.uleb128 0x1a
 2172 0c28 3B090000 		.4byte	.LASF141
 2173 0c2c 0C       		.byte	0xc
 2174 0c2d 4F0D     		.2byte	0xd4f
 2175 0c2f 330D0000 		.4byte	0xd33
 2176 0c33 3C       		.byte	0x3c
 2177 0c34 1A       		.uleb128 0x1a
 2178 0c35 FF050000 		.4byte	.LASF206
 2179 0c39 0C       		.byte	0xc
 2180 0c3a 500D     		.2byte	0xd50
 2181 0c3c 480D0000 		.4byte	0xd48
 2182 0c40 40       		.byte	0x40
 2183 0c41 1A       		.uleb128 0x1a
 2184 0c42 45090000 		.4byte	.LASF145
 2185 0c46 0C       		.byte	0xc
 2186 0c47 510D     		.2byte	0xd51
 2187 0c49 4D0D0000 		.4byte	0xd4d
 2188 0c4d 4C       		.byte	0x4c
 2189 0c4e 1A       		.uleb128 0x1a
 2190 0c4f D4080000 		.4byte	.LASF207
 2191 0c53 0C       		.byte	0xc
 2192 0c54 520D     		.2byte	0xd52
 2193 0c56 BC050000 		.4byte	0x5bc
 2194 0c5a 60       		.byte	0x60
 2195 0c5b 1A       		.uleb128 0x1a
 2196 0c5c A9010000 		.4byte	.LASF208
 2197 0c60 0C       		.byte	0xc
 2198 0c61 530D     		.2byte	0xd53
 2199 0c63 BC050000 		.4byte	0x5bc
 2200 0c67 64       		.byte	0x64
 2201 0c68 1A       		.uleb128 0x1a
 2202 0c69 1A0A0000 		.4byte	.LASF209
 2203 0c6d 0C       		.byte	0xc
 2204 0c6e 540D     		.2byte	0xd54
ARM GAS  /tmp/ccR4B9nj.s 			page 40


 2205 0c70 AC050000 		.4byte	0x5ac
 2206 0c74 68       		.byte	0x68
 2207 0c75 1A       		.uleb128 0x1a
 2208 0c76 3F050000 		.4byte	.LASF210
 2209 0c7a 0C       		.byte	0xc
 2210 0c7b 550D     		.2byte	0xd55
 2211 0c7d AC050000 		.4byte	0x5ac
 2212 0c81 6C       		.byte	0x6c
 2213 0c82 1A       		.uleb128 0x1a
 2214 0c83 C10A0000 		.4byte	.LASF211
 2215 0c87 0C       		.byte	0xc
 2216 0c88 560D     		.2byte	0xd56
 2217 0c8a C7050000 		.4byte	0x5c7
 2218 0c8e 70       		.byte	0x70
 2219 0c8f 1A       		.uleb128 0x1a
 2220 0c90 1C000000 		.4byte	.LASF212
 2221 0c94 0C       		.byte	0xc
 2222 0c95 570D     		.2byte	0xd57
 2223 0c97 C7050000 		.4byte	0x5c7
 2224 0c9b 74       		.byte	0x74
 2225 0c9c 1A       		.uleb128 0x1a
 2226 0c9d 71060000 		.4byte	.LASF213
 2227 0ca1 0C       		.byte	0xc
 2228 0ca2 580D     		.2byte	0xd58
 2229 0ca4 BC050000 		.4byte	0x5bc
 2230 0ca8 78       		.byte	0x78
 2231 0ca9 1A       		.uleb128 0x1a
 2232 0caa 4F090000 		.4byte	.LASF147
 2233 0cae 0C       		.byte	0xc
 2234 0caf 590D     		.2byte	0xd59
 2235 0cb1 620D0000 		.4byte	0xd62
 2236 0cb5 7C       		.byte	0x7c
 2237 0cb6 1A       		.uleb128 0x1a
 2238 0cb7 700A0000 		.4byte	.LASF214
 2239 0cbb 0C       		.byte	0xc
 2240 0cbc 5A0D     		.2byte	0xd5a
 2241 0cbe C7050000 		.4byte	0x5c7
 2242 0cc2 E4       		.byte	0xe4
 2243 0cc3 1A       		.uleb128 0x1a
 2244 0cc4 24010000 		.4byte	.LASF215
 2245 0cc8 0C       		.byte	0xc
 2246 0cc9 5B0D     		.2byte	0xd5b
 2247 0ccb AC050000 		.4byte	0x5ac
 2248 0ccf E8       		.byte	0xe8
 2249 0cd0 1A       		.uleb128 0x1a
 2250 0cd1 10010000 		.4byte	.LASF155
 2251 0cd5 0C       		.byte	0xc
 2252 0cd6 5C0D     		.2byte	0xd5c
 2253 0cd8 670D0000 		.4byte	0xd67
 2254 0cdc EC       		.byte	0xec
 2255 0cdd 1B       		.uleb128 0x1b
 2256 0cde 4A020000 		.4byte	.LASF216
 2257 0ce2 0C       		.byte	0xc
 2258 0ce3 5D0D     		.2byte	0xd5d
 2259 0ce5 BC050000 		.4byte	0x5bc
 2260 0ce9 0001     		.2byte	0x100
 2261 0ceb 1B       		.uleb128 0x1b
ARM GAS  /tmp/ccR4B9nj.s 			page 41


 2262 0cec A30B0000 		.4byte	.LASF217
 2263 0cf0 0C       		.byte	0xc
 2264 0cf1 5E0D     		.2byte	0xd5e
 2265 0cf3 BC050000 		.4byte	0x5bc
 2266 0cf7 0401     		.2byte	0x104
 2267 0cf9 1B       		.uleb128 0x1b
 2268 0cfa CC0B0000 		.4byte	.LASF218
 2269 0cfe 0C       		.byte	0xc
 2270 0cff 5F0D     		.2byte	0xd5f
 2271 0d01 AC050000 		.4byte	0x5ac
 2272 0d05 0801     		.2byte	0x108
 2273 0d07 1B       		.uleb128 0x1b
 2274 0d08 1A010000 		.4byte	.LASF159
 2275 0d0c 0C       		.byte	0xc
 2276 0d0d 600D     		.2byte	0xd60
 2277 0d0f 6C0D0000 		.4byte	0xd6c
 2278 0d13 0C01     		.2byte	0x10c
 2279 0d15 1B       		.uleb128 0x1b
 2280 0d16 E4030000 		.4byte	.LASF219
 2281 0d1a 0C       		.byte	0xc
 2282 0d1b 610D     		.2byte	0xd61
 2283 0d1d C7050000 		.4byte	0x5c7
 2284 0d21 1001     		.2byte	0x110
 2285 0d23 00       		.byte	0
 2286 0d24 0D       		.uleb128 0xd
 2287 0d25 DF060000 		.4byte	0x6df
 2288 0d29 0D       		.uleb128 0xd
 2289 0d2a DF060000 		.4byte	0x6df
 2290 0d2e 0D       		.uleb128 0xd
 2291 0d2f DF060000 		.4byte	0x6df
 2292 0d33 0D       		.uleb128 0xd
 2293 0d34 DF060000 		.4byte	0x6df
 2294 0d38 17       		.uleb128 0x17
 2295 0d39 C7050000 		.4byte	0x5c7
 2296 0d3d 480D0000 		.4byte	0xd48
 2297 0d41 18       		.uleb128 0x18
 2298 0d42 01030000 		.4byte	0x301
 2299 0d46 02       		.byte	0x2
 2300 0d47 00       		.byte	0
 2301 0d48 0D       		.uleb128 0xd
 2302 0d49 380D0000 		.4byte	0xd38
 2303 0d4d 0D       		.uleb128 0xd
 2304 0d4e FF060000 		.4byte	0x6ff
 2305 0d52 17       		.uleb128 0x17
 2306 0d53 C7050000 		.4byte	0x5c7
 2307 0d57 620D0000 		.4byte	0xd62
 2308 0d5b 18       		.uleb128 0x18
 2309 0d5c 01030000 		.4byte	0x301
 2310 0d60 19       		.byte	0x19
 2311 0d61 00       		.byte	0
 2312 0d62 0D       		.uleb128 0xd
 2313 0d63 520D0000 		.4byte	0xd52
 2314 0d67 0D       		.uleb128 0xd
 2315 0d68 FF060000 		.4byte	0x6ff
 2316 0d6c 0D       		.uleb128 0xd
 2317 0d6d DF060000 		.4byte	0x6df
 2318 0d71 1C       		.uleb128 0x1c
ARM GAS  /tmp/ccR4B9nj.s 			page 42


 2319 0d72 506D6300 		.ascii	"Pmc\000"
 2320 0d76 0C       		.byte	0xc
 2321 0d77 620D     		.2byte	0xd62
 2322 0d79 5A0B0000 		.4byte	0xb5a
 2323 0d7d 19       		.uleb128 0x19
 2324 0d7e 2801     		.2byte	0x128
 2325 0d80 0C       		.byte	0xc
 2326 0d81 0817     		.2byte	0x1708
 2327 0d83 960E0000 		.4byte	0xe96
 2328 0d87 1A       		.uleb128 0x1a
 2329 0d88 35030000 		.4byte	.LASF220
 2330 0d8c 0C       		.byte	0xc
 2331 0d8d 0917     		.2byte	0x1709
 2332 0d8f BC050000 		.4byte	0x5bc
 2333 0d93 00       		.byte	0
 2334 0d94 1A       		.uleb128 0x1a
 2335 0d95 480A0000 		.4byte	.LASF221
 2336 0d99 0C       		.byte	0xc
 2337 0d9a 0A17     		.2byte	0x170a
 2338 0d9c C7050000 		.4byte	0x5c7
 2339 0da0 04       		.byte	0x4
 2340 0da1 1A       		.uleb128 0x1a
 2341 0da2 07010000 		.4byte	.LASF222
 2342 0da6 0C       		.byte	0xc
 2343 0da7 0B17     		.2byte	0x170b
 2344 0da9 BC050000 		.4byte	0x5bc
 2345 0dad 08       		.byte	0x8
 2346 0dae 1A       		.uleb128 0x1a
 2347 0daf 95000000 		.4byte	.LASF223
 2348 0db3 0C       		.byte	0xc
 2349 0db4 0C17     		.2byte	0x170c
 2350 0db6 BC050000 		.4byte	0x5bc
 2351 0dba 0C       		.byte	0xc
 2352 0dbb 1A       		.uleb128 0x1a
 2353 0dbc 1E040000 		.4byte	.LASF224
 2354 0dc0 0C       		.byte	0xc
 2355 0dc1 0D17     		.2byte	0x170d
 2356 0dc3 AC050000 		.4byte	0x5ac
 2357 0dc7 10       		.byte	0x10
 2358 0dc8 1A       		.uleb128 0x1a
 2359 0dc9 F5000000 		.4byte	.LASF225
 2360 0dcd 0C       		.byte	0xc
 2361 0dce 0E17     		.2byte	0x170e
 2362 0dd0 AC050000 		.4byte	0x5ac
 2363 0dd4 14       		.byte	0x14
 2364 0dd5 1A       		.uleb128 0x1a
 2365 0dd6 8C060000 		.4byte	.LASF226
 2366 0dda 0C       		.byte	0xc
 2367 0ddb 0F17     		.2byte	0x170f
 2368 0ddd AC050000 		.4byte	0x5ac
 2369 0de1 18       		.byte	0x18
 2370 0de2 1A       		.uleb128 0x1a
 2371 0de3 A7040000 		.4byte	.LASF227
 2372 0de7 0C       		.byte	0xc
 2373 0de8 1017     		.2byte	0x1710
 2374 0dea BC050000 		.4byte	0x5bc
 2375 0dee 1C       		.byte	0x1c
ARM GAS  /tmp/ccR4B9nj.s 			page 43


 2376 0def 1A       		.uleb128 0x1a
 2377 0df0 F4080000 		.4byte	.LASF228
 2378 0df4 0C       		.byte	0xc
 2379 0df5 1117     		.2byte	0x1711
 2380 0df7 C7050000 		.4byte	0x5c7
 2381 0dfb 20       		.byte	0x20
 2382 0dfc 1A       		.uleb128 0x1a
 2383 0dfd 1D090000 		.4byte	.LASF121
 2384 0e01 0C       		.byte	0xc
 2385 0e02 1217     		.2byte	0x1712
 2386 0e04 A60E0000 		.4byte	0xea6
 2387 0e08 24       		.byte	0x24
 2388 0e09 1B       		.uleb128 0x1b
 2389 0e0a 2C030000 		.4byte	.LASF229
 2390 0e0e 0C       		.byte	0xc
 2391 0e0f 1317     		.2byte	0x1713
 2392 0e11 C7050000 		.4byte	0x5c7
 2393 0e15 0001     		.2byte	0x100
 2394 0e17 1B       		.uleb128 0x1b
 2395 0e18 050A0000 		.4byte	.LASF230
 2396 0e1c 0C       		.byte	0xc
 2397 0e1d 1417     		.2byte	0x1714
 2398 0e1f C7050000 		.4byte	0x5c7
 2399 0e23 0401     		.2byte	0x104
 2400 0e25 1B       		.uleb128 0x1b
 2401 0e26 7A070000 		.4byte	.LASF231
 2402 0e2a 0C       		.byte	0xc
 2403 0e2b 1517     		.2byte	0x1715
 2404 0e2d C7050000 		.4byte	0x5c7
 2405 0e31 0801     		.2byte	0x108
 2406 0e33 1B       		.uleb128 0x1b
 2407 0e34 07030000 		.4byte	.LASF232
 2408 0e38 0C       		.byte	0xc
 2409 0e39 1617     		.2byte	0x1716
 2410 0e3b C7050000 		.4byte	0x5c7
 2411 0e3f 0C01     		.2byte	0x10c
 2412 0e41 1B       		.uleb128 0x1b
 2413 0e42 14040000 		.4byte	.LASF233
 2414 0e46 0C       		.byte	0xc
 2415 0e47 1717     		.2byte	0x1717
 2416 0e49 C7050000 		.4byte	0x5c7
 2417 0e4d 1001     		.2byte	0x110
 2418 0e4f 1B       		.uleb128 0x1b
 2419 0e50 AA0A0000 		.4byte	.LASF234
 2420 0e54 0C       		.byte	0xc
 2421 0e55 1817     		.2byte	0x1718
 2422 0e57 C7050000 		.4byte	0x5c7
 2423 0e5b 1401     		.2byte	0x114
 2424 0e5d 1B       		.uleb128 0x1b
 2425 0e5e 2C040000 		.4byte	.LASF235
 2426 0e62 0C       		.byte	0xc
 2427 0e63 1917     		.2byte	0x1719
 2428 0e65 C7050000 		.4byte	0x5c7
 2429 0e69 1801     		.2byte	0x118
 2430 0e6b 1B       		.uleb128 0x1b
 2431 0e6c D80A0000 		.4byte	.LASF236
 2432 0e70 0C       		.byte	0xc
ARM GAS  /tmp/ccR4B9nj.s 			page 44


 2433 0e71 1A17     		.2byte	0x171a
 2434 0e73 C7050000 		.4byte	0x5c7
 2435 0e77 1C01     		.2byte	0x11c
 2436 0e79 1B       		.uleb128 0x1b
 2437 0e7a 59010000 		.4byte	.LASF237
 2438 0e7e 0C       		.byte	0xc
 2439 0e7f 1B17     		.2byte	0x171b
 2440 0e81 BC050000 		.4byte	0x5bc
 2441 0e85 2001     		.2byte	0x120
 2442 0e87 1B       		.uleb128 0x1b
 2443 0e88 26070000 		.4byte	.LASF238
 2444 0e8c 0C       		.byte	0xc
 2445 0e8d 1C17     		.2byte	0x171c
 2446 0e8f AC050000 		.4byte	0x5ac
 2447 0e93 2401     		.2byte	0x124
 2448 0e95 00       		.byte	0
 2449 0e96 17       		.uleb128 0x17
 2450 0e97 C7050000 		.4byte	0x5c7
 2451 0e9b A60E0000 		.4byte	0xea6
 2452 0e9f 18       		.uleb128 0x18
 2453 0ea0 01030000 		.4byte	0x301
 2454 0ea4 36       		.byte	0x36
 2455 0ea5 00       		.byte	0
 2456 0ea6 0D       		.uleb128 0xd
 2457 0ea7 960E0000 		.4byte	0xe96
 2458 0eab 14       		.uleb128 0x14
 2459 0eac 27040000 		.4byte	.LASF239
 2460 0eb0 0C       		.byte	0xc
 2461 0eb1 1D17     		.2byte	0x171d
 2462 0eb3 7D0D0000 		.4byte	0xd7d
 2463 0eb7 1D       		.uleb128 0x1d
 2464 0eb8 01       		.byte	0x1
 2465 0eb9 0D       		.byte	0xd
 2466 0eba 64       		.byte	0x64
 2467 0ebb D20E0000 		.4byte	0xed2
 2468 0ebf 16       		.uleb128 0x16
 2469 0ec0 19030000 		.4byte	.LASF240
 2470 0ec4 00       		.sleb128 0
 2471 0ec5 16       		.uleb128 0x16
 2472 0ec6 800B0000 		.4byte	.LASF241
 2473 0eca 01       		.sleb128 1
 2474 0ecb 16       		.uleb128 0x16
 2475 0ecc B5090000 		.4byte	.LASF242
 2476 0ed0 02       		.sleb128 2
 2477 0ed1 00       		.byte	0
 2478 0ed2 03       		.uleb128 0x3
 2479 0ed3 88090000 		.4byte	.LASF243
 2480 0ed7 0D       		.byte	0xd
 2481 0ed8 68       		.byte	0x68
 2482 0ed9 B70E0000 		.4byte	0xeb7
 2483 0edd 03       		.uleb128 0x3
 2484 0ede DC080000 		.4byte	.LASF244
 2485 0ee2 0D       		.byte	0xd
 2486 0ee3 6D       		.byte	0x6d
 2487 0ee4 E80E0000 		.4byte	0xee8
 2488 0ee8 05       		.uleb128 0x5
 2489 0ee9 DC080000 		.4byte	.LASF244
ARM GAS  /tmp/ccR4B9nj.s 			page 45


 2490 0eed 74       		.byte	0x74
 2491 0eee 0D       		.byte	0xd
 2492 0eef 87       		.byte	0x87
 2493 0ef0 5F0F0000 		.4byte	0xf5f
 2494 0ef4 07       		.uleb128 0x7
 2495 0ef5 766D7400 		.ascii	"vmt\000"
 2496 0ef9 0D       		.byte	0xd
 2497 0efa 89       		.byte	0x89
 2498 0efb 04100000 		.4byte	0x1004
 2499 0eff 00       		.byte	0
 2500 0f00 06       		.uleb128 0x6
 2501 0f01 63060000 		.4byte	.LASF245
 2502 0f05 0D       		.byte	0xd
 2503 0f06 8A       		.byte	0x8a
 2504 0f07 AA030000 		.4byte	0x3aa
 2505 0f0b 04       		.byte	0x4
 2506 0f0c 06       		.uleb128 0x6
 2507 0f0d BC030000 		.4byte	.LASF246
 2508 0f11 0D       		.byte	0xd
 2509 0f12 8A       		.byte	0x8a
 2510 0f13 8B050000 		.4byte	0x58b
 2511 0f17 08       		.byte	0x8
 2512 0f18 06       		.uleb128 0x6
 2513 0f19 7A0B0000 		.4byte	.LASF247
 2514 0f1d 0D       		.byte	0xd
 2515 0f1e 8A       		.byte	0x8a
 2516 0f1f D20E0000 		.4byte	0xed2
 2517 0f23 0C       		.byte	0xc
 2518 0f24 06       		.uleb128 0x6
 2519 0f25 130A0000 		.4byte	.LASF248
 2520 0f29 0D       		.byte	0xd
 2521 0f2a 8A       		.byte	0x8a
 2522 0f2b 96040000 		.4byte	0x496
 2523 0f2f 10       		.byte	0x10
 2524 0f30 06       		.uleb128 0x6
 2525 0f31 5E020000 		.4byte	.LASF249
 2526 0f35 0D       		.byte	0xd
 2527 0f36 8A       		.byte	0x8a
 2528 0f37 A1040000 		.4byte	0x4a1
 2529 0f3b 30       		.byte	0x30
 2530 0f3c 07       		.uleb128 0x7
 2531 0f3d 696200   		.ascii	"ib\000"
 2532 0f40 0D       		.byte	0xd
 2533 0f41 8A       		.byte	0x8a
 2534 0f42 0F100000 		.4byte	0x100f
 2535 0f46 50       		.byte	0x50
 2536 0f47 07       		.uleb128 0x7
 2537 0f48 6F6200   		.ascii	"ob\000"
 2538 0f4b 0D       		.byte	0xd
 2539 0f4c 8A       		.byte	0x8a
 2540 0f4d 0F100000 		.4byte	0x100f
 2541 0f51 60       		.byte	0x60
 2542 0f52 06       		.uleb128 0x6
 2543 0f53 0E0A0000 		.4byte	.LASF250
 2544 0f57 0D       		.byte	0xd
 2545 0f58 8A       		.byte	0x8a
 2546 0f59 1F100000 		.4byte	0x101f
ARM GAS  /tmp/ccR4B9nj.s 			page 46


 2547 0f5d 70       		.byte	0x70
 2548 0f5e 00       		.byte	0
 2549 0f5f 08       		.uleb128 0x8
 2550 0f60 08       		.byte	0x8
 2551 0f61 0E       		.byte	0xe
 2552 0f62 58       		.byte	0x58
 2553 0f63 800F0000 		.4byte	0xf80
 2554 0f67 06       		.uleb128 0x6
 2555 0f68 D2060000 		.4byte	.LASF251
 2556 0f6c 0E       		.byte	0xe
 2557 0f6d 5D       		.byte	0x5d
 2558 0f6e 82000000 		.4byte	0x82
 2559 0f72 00       		.byte	0
 2560 0f73 06       		.uleb128 0x6
 2561 0f74 B3000000 		.4byte	.LASF252
 2562 0f78 0E       		.byte	0xe
 2563 0f79 62       		.byte	0x62
 2564 0f7a 82000000 		.4byte	0x82
 2565 0f7e 04       		.byte	0x4
 2566 0f7f 00       		.byte	0
 2567 0f80 03       		.uleb128 0x3
 2568 0f81 77000000 		.4byte	.LASF253
 2569 0f85 0E       		.byte	0xe
 2570 0f86 63       		.byte	0x63
 2571 0f87 5F0F0000 		.4byte	0xf5f
 2572 0f8b 05       		.uleb128 0x5
 2573 0f8c 72050000 		.4byte	.LASF254
 2574 0f90 24       		.byte	0x24
 2575 0f91 0D       		.byte	0xd
 2576 0f92 7C       		.byte	0x7c
 2577 0f93 04100000 		.4byte	0x1004
 2578 0f97 06       		.uleb128 0x6
 2579 0f98 AD000000 		.4byte	.LASF255
 2580 0f9c 0D       		.byte	0xd
 2581 0f9d 7D       		.byte	0x7d
 2582 0f9e D0040000 		.4byte	0x4d0
 2583 0fa2 00       		.byte	0
 2584 0fa3 06       		.uleb128 0x6
 2585 0fa4 7A060000 		.4byte	.LASF256
 2586 0fa8 0D       		.byte	0xd
 2587 0fa9 7D       		.byte	0x7d
 2588 0faa EF040000 		.4byte	0x4ef
 2589 0fae 04       		.byte	0x4
 2590 0faf 06       		.uleb128 0x6
 2591 0fb0 06040000 		.4byte	.LASF257
 2592 0fb4 0D       		.byte	0xd
 2593 0fb5 7D       		.byte	0x7d
 2594 0fb6 04050000 		.4byte	0x504
 2595 0fba 08       		.byte	0x8
 2596 0fbb 06       		.uleb128 0x6
 2597 0fbc 6C070000 		.4byte	.LASF258
 2598 0fc0 0D       		.byte	0xd
 2599 0fc1 7D       		.byte	0x7d
 2600 0fc2 04050000 		.4byte	0x504
 2601 0fc6 0C       		.byte	0xc
 2602 0fc7 07       		.uleb128 0x7
 2603 0fc8 70757400 		.ascii	"put\000"
ARM GAS  /tmp/ccR4B9nj.s 			page 47


 2604 0fcc 0D       		.byte	0xd
 2605 0fcd 7D       		.byte	0x7d
 2606 0fce 23050000 		.4byte	0x523
 2607 0fd2 10       		.byte	0x10
 2608 0fd3 07       		.uleb128 0x7
 2609 0fd4 67657400 		.ascii	"get\000"
 2610 0fd8 0D       		.byte	0xd
 2611 0fd9 7D       		.byte	0x7d
 2612 0fda 3D050000 		.4byte	0x53d
 2613 0fde 14       		.byte	0x14
 2614 0fdf 06       		.uleb128 0x6
 2615 0fe0 84000000 		.4byte	.LASF259
 2616 0fe4 0D       		.byte	0xd
 2617 0fe5 7D       		.byte	0x7d
 2618 0fe6 61050000 		.4byte	0x561
 2619 0fea 18       		.byte	0x18
 2620 0feb 06       		.uleb128 0x6
 2621 0fec 8D010000 		.4byte	.LASF260
 2622 0ff0 0D       		.byte	0xd
 2623 0ff1 7D       		.byte	0x7d
 2624 0ff2 85050000 		.4byte	0x585
 2625 0ff6 1C       		.byte	0x1c
 2626 0ff7 06       		.uleb128 0x6
 2627 0ff8 3F0A0000 		.4byte	.LASF261
 2628 0ffc 0D       		.byte	0xd
 2629 0ffd 7D       		.byte	0x7d
 2630 0ffe A6050000 		.4byte	0x5a6
 2631 1002 20       		.byte	0x20
 2632 1003 00       		.byte	0
 2633 1004 09       		.uleb128 0x9
 2634 1005 04       		.byte	0x4
 2635 1006 0A100000 		.4byte	0x100a
 2636 100a 10       		.uleb128 0x10
 2637 100b 8B0F0000 		.4byte	0xf8b
 2638 100f 17       		.uleb128 0x17
 2639 1010 45000000 		.4byte	0x45
 2640 1014 1F100000 		.4byte	0x101f
 2641 1018 18       		.uleb128 0x18
 2642 1019 01030000 		.4byte	0x301
 2643 101d 0F       		.byte	0xf
 2644 101e 00       		.byte	0
 2645 101f 09       		.uleb128 0x9
 2646 1020 04       		.byte	0x4
 2647 1021 AB0E0000 		.4byte	0xeab
 2648 1025 1E       		.uleb128 0x1e
 2649 1026 10020000 		.4byte	.LASF264
 2650 102a 01       		.byte	0x1
 2651 102b 4C       		.byte	0x4c
 2652 102c 01       		.byte	0x1
 2653 102d 5C100000 		.4byte	0x105c
 2654 1031 1F       		.uleb128 0x1f
 2655 1032 73647000 		.ascii	"sdp\000"
 2656 1036 01       		.byte	0x1
 2657 1037 4C       		.byte	0x4c
 2658 1038 5C100000 		.4byte	0x105c
 2659 103c 20       		.uleb128 0x20
 2660 103d EE000000 		.4byte	.LASF262
ARM GAS  /tmp/ccR4B9nj.s 			page 48


 2661 1041 01       		.byte	0x1
 2662 1042 4C       		.byte	0x4c
 2663 1043 62100000 		.4byte	0x1062
 2664 1047 21       		.uleb128 0x21
 2665 1048 7500     		.ascii	"u\000"
 2666 104a 01       		.byte	0x1
 2667 104b 4D       		.byte	0x4d
 2668 104c 1F100000 		.4byte	0x101f
 2669 1050 22       		.uleb128 0x22
 2670 1051 19070000 		.4byte	.LASF263
 2671 1055 01       		.byte	0x1
 2672 1056 4E       		.byte	0x4e
 2673 1057 82000000 		.4byte	0x82
 2674 105b 00       		.byte	0
 2675 105c 09       		.uleb128 0x9
 2676 105d 04       		.byte	0x4
 2677 105e DD0E0000 		.4byte	0xedd
 2678 1062 09       		.uleb128 0x9
 2679 1063 04       		.byte	0x4
 2680 1064 68100000 		.4byte	0x1068
 2681 1068 10       		.uleb128 0x10
 2682 1069 800F0000 		.4byte	0xf80
 2683 106d 1E       		.uleb128 0x1e
 2684 106e 35000000 		.4byte	.LASF265
 2685 1072 01       		.byte	0x1
 2686 1073 67       		.byte	0x67
 2687 1074 01       		.byte	0x1
 2688 1075 83100000 		.4byte	0x1083
 2689 1079 1F       		.uleb128 0x1f
 2690 107a 7500     		.ascii	"u\000"
 2691 107c 01       		.byte	0x1
 2692 107d 67       		.byte	0x67
 2693 107e 1F100000 		.4byte	0x101f
 2694 1082 00       		.byte	0
 2695 1083 23       		.uleb128 0x23
 2696 1084 D0090000 		.4byte	.LASF266
 2697 1088 01       		.byte	0x1
 2698 1089 AE       		.byte	0xae
 2699 108a 00000000 		.4byte	.LFB40
 2700 108e 0E000000 		.4byte	.LFE40-.LFB40
 2701 1092 01       		.uleb128 0x1
 2702 1093 9C       		.byte	0x9c
 2703 1094 A5100000 		.4byte	0x10a5
 2704 1098 24       		.uleb128 0x24
 2705 1099 717000   		.ascii	"qp\000"
 2706 109c 01       		.byte	0x1
 2707 109d AE       		.byte	0xae
 2708 109e 8A040000 		.4byte	0x48a
 2709 10a2 01       		.uleb128 0x1
 2710 10a3 50       		.byte	0x50
 2711 10a4 00       		.byte	0
 2712 10a5 23       		.uleb128 0x23
 2713 10a6 D8090000 		.4byte	.LASF267
 2714 10aa 01       		.byte	0x1
 2715 10ab B7       		.byte	0xb7
 2716 10ac 00000000 		.4byte	.LFB41
 2717 10b0 0E000000 		.4byte	.LFE41-.LFB41
ARM GAS  /tmp/ccR4B9nj.s 			page 49


 2718 10b4 01       		.uleb128 0x1
 2719 10b5 9C       		.byte	0x9c
 2720 10b6 C7100000 		.4byte	0x10c7
 2721 10ba 24       		.uleb128 0x24
 2722 10bb 717000   		.ascii	"qp\000"
 2723 10be 01       		.byte	0x1
 2724 10bf B7       		.byte	0xb7
 2725 10c0 8A040000 		.4byte	0x48a
 2726 10c4 01       		.uleb128 0x1
 2727 10c5 50       		.byte	0x50
 2728 10c6 00       		.byte	0
 2729 10c7 1E       		.uleb128 0x1e
 2730 10c8 63010000 		.4byte	.LASF268
 2731 10cc 01       		.byte	0x1
 2732 10cd 75       		.byte	0x75
 2733 10ce 01       		.byte	0x1
 2734 10cf 12110000 		.4byte	0x1112
 2735 10d3 1F       		.uleb128 0x1f
 2736 10d4 73647000 		.ascii	"sdp\000"
 2737 10d8 01       		.byte	0x1
 2738 10d9 75       		.byte	0x75
 2739 10da 5C100000 		.4byte	0x105c
 2740 10de 1F       		.uleb128 0x1f
 2741 10df 737200   		.ascii	"sr\000"
 2742 10e2 01       		.byte	0x1
 2743 10e3 75       		.byte	0x75
 2744 10e4 5E000000 		.4byte	0x5e
 2745 10e8 21       		.uleb128 0x21
 2746 10e9 73747300 		.ascii	"sts\000"
 2747 10ed 01       		.byte	0x1
 2748 10ee 76       		.byte	0x76
 2749 10ef 8B050000 		.4byte	0x58b
 2750 10f3 25       		.uleb128 0x25
 2751 10f4 04110000 		.4byte	0x1104
 2752 10f8 21       		.uleb128 0x21
 2753 10f9 746D7000 		.ascii	"tmp\000"
 2754 10fd 01       		.byte	0x1
 2755 10fe 7E       		.byte	0x7e
 2756 10ff 82000000 		.4byte	0x82
 2757 1103 00       		.byte	0
 2758 1104 26       		.uleb128 0x26
 2759 1105 21       		.uleb128 0x21
 2760 1106 746D7000 		.ascii	"tmp\000"
 2761 110a 01       		.byte	0x1
 2762 110b 80       		.byte	0x80
 2763 110c 82000000 		.4byte	0x82
 2764 1110 00       		.byte	0
 2765 1111 00       		.byte	0
 2766 1112 23       		.uleb128 0x23
 2767 1113 37010000 		.4byte	.LASF269
 2768 1117 01       		.byte	0x1
 2769 1118 88       		.byte	0x88
 2770 1119 00000000 		.4byte	.LFB39
 2771 111d A4000000 		.4byte	.LFE39-.LFB39
 2772 1121 01       		.uleb128 0x1
 2773 1122 9C       		.byte	0x9c
 2774 1123 81120000 		.4byte	0x1281
ARM GAS  /tmp/ccR4B9nj.s 			page 50


 2775 1127 27       		.uleb128 0x27
 2776 1128 73647000 		.ascii	"sdp\000"
 2777 112c 01       		.byte	0x1
 2778 112d 88       		.byte	0x88
 2779 112e 5C100000 		.4byte	0x105c
 2780 1132 00000000 		.4byte	.LLST0
 2781 1136 28       		.uleb128 0x28
 2782 1137 737200   		.ascii	"sr\000"
 2783 113a 01       		.byte	0x1
 2784 113b 89       		.byte	0x89
 2785 113c 82000000 		.4byte	0x82
 2786 1140 34000000 		.4byte	.LLST1
 2787 1144 29       		.uleb128 0x29
 2788 1145 7500     		.ascii	"u\000"
 2789 1147 01       		.byte	0x1
 2790 1148 8A       		.byte	0x8a
 2791 1149 1F100000 		.4byte	0x101f
 2792 114d 01       		.uleb128 0x1
 2793 114e 55       		.byte	0x55
 2794 114f 2A       		.uleb128 0x2a
 2795 1150 C7100000 		.4byte	0x10c7
 2796 1154 1E000000 		.4byte	.LBB17
 2797 1158 34000000 		.4byte	.LBE17-.LBB17
 2798 115c 01       		.byte	0x1
 2799 115d A8       		.byte	0xa8
 2800 115e C7110000 		.4byte	0x11c7
 2801 1162 2B       		.uleb128 0x2b
 2802 1163 DE100000 		.4byte	0x10de
 2803 1167 6D000000 		.4byte	.LLST2
 2804 116b 2B       		.uleb128 0x2b
 2805 116c D3100000 		.4byte	0x10d3
 2806 1170 80000000 		.4byte	.LLST3
 2807 1174 2C       		.uleb128 0x2c
 2808 1175 1E000000 		.4byte	.LBB18
 2809 1179 34000000 		.4byte	.LBE18-.LBB18
 2810 117d 2D       		.uleb128 0x2d
 2811 117e E8100000 		.4byte	0x10e8
 2812 1182 93000000 		.4byte	.LLST4
 2813 1186 2E       		.uleb128 0x2e
 2814 1187 38000000 		.4byte	.LBB19
 2815 118b 06000000 		.4byte	.LBE19-.LBB19
 2816 118f 9B110000 		.4byte	0x119b
 2817 1193 2F       		.uleb128 0x2f
 2818 1194 F8100000 		.4byte	0x10f8
 2819 1198 01       		.uleb128 0x1
 2820 1199 53       		.byte	0x53
 2821 119a 00       		.byte	0
 2822 119b 2E       		.uleb128 0x2e
 2823 119c 4C000000 		.4byte	.LBB20
 2824 11a0 06000000 		.4byte	.LBE20-.LBB20
 2825 11a4 B0110000 		.4byte	0x11b0
 2826 11a8 2F       		.uleb128 0x2f
 2827 11a9 05110000 		.4byte	0x1105
 2828 11ad 01       		.uleb128 0x1
 2829 11ae 53       		.byte	0x53
 2830 11af 00       		.byte	0
 2831 11b0 30       		.uleb128 0x30
ARM GAS  /tmp/ccR4B9nj.s 			page 51


 2832 11b1 4C000000 		.4byte	.LVL13
 2833 11b5 C8140000 		.4byte	0x14c8
 2834 11b9 31       		.uleb128 0x31
 2835 11ba 01       		.uleb128 0x1
 2836 11bb 51       		.byte	0x51
 2837 11bc 01       		.uleb128 0x1
 2838 11bd 30       		.byte	0x30
 2839 11be 31       		.uleb128 0x31
 2840 11bf 01       		.uleb128 0x1
 2841 11c0 50       		.byte	0x50
 2842 11c1 02       		.uleb128 0x2
 2843 11c2 76       		.byte	0x76
 2844 11c3 04       		.sleb128 4
 2845 11c4 00       		.byte	0
 2846 11c5 00       		.byte	0
 2847 11c6 00       		.byte	0
 2848 11c7 2E       		.uleb128 0x2e
 2849 11c8 5A000000 		.4byte	.LBB21
 2850 11cc 06000000 		.4byte	.LBE21-.LBB21
 2851 11d0 E2110000 		.4byte	0x11e2
 2852 11d4 29       		.uleb128 0x29
 2853 11d5 746D7000 		.ascii	"tmp\000"
 2854 11d9 01       		.byte	0x1
 2855 11da 91       		.byte	0x91
 2856 11db 82000000 		.4byte	0x82
 2857 11df 01       		.uleb128 0x1
 2858 11e0 53       		.byte	0x53
 2859 11e1 00       		.byte	0
 2860 11e2 2E       		.uleb128 0x2e
 2861 11e3 68000000 		.4byte	.LBB22
 2862 11e7 08000000 		.4byte	.LBE22-.LBB22
 2863 11eb FD110000 		.4byte	0x11fd
 2864 11ef 29       		.uleb128 0x29
 2865 11f0 746D7000 		.ascii	"tmp\000"
 2866 11f4 01       		.byte	0x1
 2867 11f5 93       		.byte	0x93
 2868 11f6 82000000 		.4byte	0x82
 2869 11fa 01       		.uleb128 0x1
 2870 11fb 53       		.byte	0x53
 2871 11fc 00       		.byte	0
 2872 11fd 2E       		.uleb128 0x2e
 2873 11fe 70000000 		.4byte	.LBB23
 2874 1202 34000000 		.4byte	.LBE23-.LBB23
 2875 1206 77120000 		.4byte	0x1277
 2876 120a 28       		.uleb128 0x28
 2877 120b 6200     		.ascii	"b\000"
 2878 120d 01       		.byte	0x1
 2879 120e 98       		.byte	0x98
 2880 120f E4000000 		.4byte	0xe4
 2881 1213 2B010000 		.4byte	.LLST5
 2882 1217 2E       		.uleb128 0x2e
 2883 1218 70000000 		.4byte	.LBB24
 2884 121c 06000000 		.4byte	.LBE24-.LBB24
 2885 1220 32120000 		.4byte	0x1232
 2886 1224 29       		.uleb128 0x29
 2887 1225 746D7000 		.ascii	"tmp\000"
 2888 1229 01       		.byte	0x1
ARM GAS  /tmp/ccR4B9nj.s 			page 52


 2889 122a 9A       		.byte	0x9a
 2890 122b 82000000 		.4byte	0x82
 2891 122f 01       		.uleb128 0x1
 2892 1230 53       		.byte	0x53
 2893 1231 00       		.byte	0
 2894 1232 2E       		.uleb128 0x2e
 2895 1233 86000000 		.4byte	.LBB25
 2896 1237 08000000 		.4byte	.LBE25-.LBB25
 2897 123b 4D120000 		.4byte	0x124d
 2898 123f 29       		.uleb128 0x29
 2899 1240 746D7000 		.ascii	"tmp\000"
 2900 1244 01       		.byte	0x1
 2901 1245 A2       		.byte	0xa2
 2902 1246 82000000 		.4byte	0x82
 2903 124a 01       		.uleb128 0x1
 2904 124b 53       		.byte	0x53
 2905 124c 00       		.byte	0
 2906 124d 32       		.uleb128 0x32
 2907 124e 7E000000 		.4byte	.LVL17
 2908 1252 E4140000 		.4byte	0x14e4
 2909 1256 61120000 		.4byte	0x1261
 2910 125a 31       		.uleb128 0x31
 2911 125b 01       		.uleb128 0x1
 2912 125c 50       		.byte	0x50
 2913 125d 02       		.uleb128 0x2
 2914 125e 76       		.byte	0x76
 2915 125f 30       		.sleb128 48
 2916 1260 00       		.byte	0
 2917 1261 30       		.uleb128 0x30
 2918 1262 9E000000 		.4byte	.LVL21
 2919 1266 C8140000 		.4byte	0x14c8
 2920 126a 31       		.uleb128 0x31
 2921 126b 01       		.uleb128 0x1
 2922 126c 51       		.byte	0x51
 2923 126d 01       		.uleb128 0x1
 2924 126e 30       		.byte	0x30
 2925 126f 31       		.uleb128 0x31
 2926 1270 01       		.uleb128 0x1
 2927 1271 50       		.byte	0x50
 2928 1272 02       		.uleb128 0x2
 2929 1273 76       		.byte	0x76
 2930 1274 04       		.sleb128 4
 2931 1275 00       		.byte	0
 2932 1276 00       		.byte	0
 2933 1277 33       		.uleb128 0x33
 2934 1278 68000000 		.4byte	.LVL16
 2935 127c 00150000 		.4byte	0x1500
 2936 1280 00       		.byte	0
 2937 1281 34       		.uleb128 0x34
 2938 1282 4F050000 		.4byte	.LASF270
 2939 1286 01       		.byte	0x1
 2940 1287 C9       		.byte	0xc9
 2941 1288 00000000 		.4byte	.LFB42
 2942 128c 16000000 		.4byte	.LFE42-.LFB42
 2943 1290 01       		.uleb128 0x1
 2944 1291 9C       		.byte	0x9c
 2945 1292 B7120000 		.4byte	0x12b7
ARM GAS  /tmp/ccR4B9nj.s 			page 53


 2946 1296 32       		.uleb128 0x32
 2947 1297 0E000000 		.4byte	.LVL22
 2948 129b 12110000 		.4byte	0x1112
 2949 129f AD120000 		.4byte	0x12ad
 2950 12a3 31       		.uleb128 0x31
 2951 12a4 01       		.uleb128 0x1
 2952 12a5 50       		.byte	0x50
 2953 12a6 05       		.uleb128 0x5
 2954 12a7 03       		.byte	0x3
 2955 12a8 00000000 		.4byte	.LANCHOR0
 2956 12ac 00       		.byte	0
 2957 12ad 35       		.uleb128 0x35
 2958 12ae 16000000 		.4byte	.LVL23
 2959 12b2 17150000 		.4byte	0x1517
 2960 12b6 00       		.byte	0
 2961 12b7 34       		.uleb128 0x34
 2962 12b8 58050000 		.4byte	.LASF271
 2963 12bc 01       		.byte	0x1
 2964 12bd DA       		.byte	0xda
 2965 12be 00000000 		.4byte	.LFB43
 2966 12c2 16000000 		.4byte	.LFE43-.LFB43
 2967 12c6 01       		.uleb128 0x1
 2968 12c7 9C       		.byte	0x9c
 2969 12c8 ED120000 		.4byte	0x12ed
 2970 12cc 32       		.uleb128 0x32
 2971 12cd 0E000000 		.4byte	.LVL24
 2972 12d1 12110000 		.4byte	0x1112
 2973 12d5 E3120000 		.4byte	0x12e3
 2974 12d9 31       		.uleb128 0x31
 2975 12da 01       		.uleb128 0x1
 2976 12db 50       		.byte	0x50
 2977 12dc 05       		.uleb128 0x5
 2978 12dd 03       		.byte	0x3
 2979 12de 00000000 		.4byte	.LANCHOR1
 2980 12e2 00       		.byte	0
 2981 12e3 35       		.uleb128 0x35
 2982 12e4 16000000 		.4byte	.LVL25
 2983 12e8 17150000 		.4byte	0x1517
 2984 12ec 00       		.byte	0
 2985 12ed 34       		.uleb128 0x34
 2986 12ee A2050000 		.4byte	.LASF272
 2987 12f2 01       		.byte	0x1
 2988 12f3 EE       		.byte	0xee
 2989 12f4 00000000 		.4byte	.LFB44
 2990 12f8 66000000 		.4byte	.LFE44-.LFB44
 2991 12fc 01       		.uleb128 0x1
 2992 12fd 9C       		.byte	0x9c
 2993 12fe 43130000 		.4byte	0x1343
 2994 1302 32       		.uleb128 0x32
 2995 1303 1A000000 		.4byte	.LVL26
 2996 1307 1F150000 		.4byte	0x151f
 2997 130b 24130000 		.4byte	0x1324
 2998 130f 31       		.uleb128 0x31
 2999 1310 01       		.uleb128 0x1
 3000 1311 52       		.byte	0x52
 3001 1312 05       		.uleb128 0x5
 3002 1313 03       		.byte	0x3
ARM GAS  /tmp/ccR4B9nj.s 			page 54


 3003 1314 00000000 		.4byte	notify1
 3004 1318 31       		.uleb128 0x31
 3005 1319 01       		.uleb128 0x1
 3006 131a 51       		.byte	0x51
 3007 131b 01       		.uleb128 0x1
 3008 131c 30       		.byte	0x30
 3009 131d 31       		.uleb128 0x31
 3010 131e 01       		.uleb128 0x1
 3011 131f 50       		.byte	0x50
 3012 1320 02       		.uleb128 0x2
 3013 1321 75       		.byte	0x75
 3014 1322 00       		.sleb128 0
 3015 1323 00       		.byte	0
 3016 1324 30       		.uleb128 0x30
 3017 1325 4C000000 		.4byte	.LVL27
 3018 1329 1F150000 		.4byte	0x151f
 3019 132d 31       		.uleb128 0x31
 3020 132e 01       		.uleb128 0x1
 3021 132f 52       		.byte	0x52
 3022 1330 05       		.uleb128 0x5
 3023 1331 03       		.byte	0x3
 3024 1332 00000000 		.4byte	notify2
 3025 1336 31       		.uleb128 0x31
 3026 1337 01       		.uleb128 0x1
 3027 1338 51       		.byte	0x51
 3028 1339 01       		.uleb128 0x1
 3029 133a 30       		.byte	0x30
 3030 133b 31       		.uleb128 0x31
 3031 133c 01       		.uleb128 0x1
 3032 133d 50       		.byte	0x50
 3033 133e 02       		.uleb128 0x2
 3034 133f 74       		.byte	0x74
 3035 1340 00       		.sleb128 0
 3036 1341 00       		.byte	0
 3037 1342 00       		.byte	0
 3038 1343 36       		.uleb128 0x36
 3039 1344 93010000 		.4byte	.LASF273
 3040 1348 01       		.byte	0x1
 3041 1349 0A01     		.2byte	0x10a
 3042 134b 00000000 		.4byte	.LFB45
 3043 134f C4000000 		.4byte	.LFE45-.LFB45
 3044 1353 01       		.uleb128 0x1
 3045 1354 9C       		.byte	0x9c
 3046 1355 F4130000 		.4byte	0x13f4
 3047 1359 37       		.uleb128 0x37
 3048 135a 73647000 		.ascii	"sdp\000"
 3049 135e 01       		.byte	0x1
 3050 135f 0A01     		.2byte	0x10a
 3051 1361 5C100000 		.4byte	0x105c
 3052 1365 49010000 		.4byte	.LLST6
 3053 1369 38       		.uleb128 0x38
 3054 136a EE000000 		.4byte	.LASF262
 3055 136e 01       		.byte	0x1
 3056 136f 0A01     		.2byte	0x10a
 3057 1371 62100000 		.4byte	0x1062
 3058 1375 A1010000 		.4byte	.LLST7
 3059 1379 39       		.uleb128 0x39
ARM GAS  /tmp/ccR4B9nj.s 			page 55


 3060 137a 25100000 		.4byte	0x1025
 3061 137e 1C000000 		.4byte	.LBB26
 3062 1382 32000000 		.4byte	.LBE26-.LBB26
 3063 1386 01       		.byte	0x1
 3064 1387 3101     		.2byte	0x131
 3065 1389 C5130000 		.4byte	0x13c5
 3066 138d 2B       		.uleb128 0x2b
 3067 138e 31100000 		.4byte	0x1031
 3068 1392 E7010000 		.4byte	.LLST8
 3069 1396 2B       		.uleb128 0x2b
 3070 1397 3C100000 		.4byte	0x103c
 3071 139b FD010000 		.4byte	.LLST9
 3072 139f 2C       		.uleb128 0x2c
 3073 13a0 1C000000 		.4byte	.LBB27
 3074 13a4 32000000 		.4byte	.LBE27-.LBB27
 3075 13a8 2D       		.uleb128 0x2d
 3076 13a9 47100000 		.4byte	0x1047
 3077 13ad 2D020000 		.4byte	.LLST10
 3078 13b1 2D       		.uleb128 0x2d
 3079 13b2 50100000 		.4byte	0x1050
 3080 13b6 40020000 		.4byte	.LLST11
 3081 13ba 33       		.uleb128 0x33
 3082 13bb 20000000 		.4byte	.LVL32
 3083 13bf 3B150000 		.4byte	0x153b
 3084 13c3 00       		.byte	0
 3085 13c4 00       		.byte	0
 3086 13c5 32       		.uleb128 0x32
 3087 13c6 94000000 		.4byte	.LVL38
 3088 13ca 42150000 		.4byte	0x1542
 3089 13ce DE130000 		.4byte	0x13de
 3090 13d2 31       		.uleb128 0x31
 3091 13d3 01       		.uleb128 0x1
 3092 13d4 51       		.byte	0x51
 3093 13d5 02       		.uleb128 0x2
 3094 13d6 08       		.byte	0x8
 3095 13d7 C0       		.byte	0xc0
 3096 13d8 31       		.uleb128 0x31
 3097 13d9 01       		.uleb128 0x1
 3098 13da 50       		.byte	0x50
 3099 13db 01       		.uleb128 0x1
 3100 13dc 39       		.byte	0x39
 3101 13dd 00       		.byte	0
 3102 13de 30       		.uleb128 0x30
 3103 13df C2000000 		.4byte	.LVL41
 3104 13e3 42150000 		.4byte	0x1542
 3105 13e7 31       		.uleb128 0x31
 3106 13e8 01       		.uleb128 0x1
 3107 13e9 51       		.byte	0x51
 3108 13ea 02       		.uleb128 0x2
 3109 13eb 08       		.byte	0x8
 3110 13ec C0       		.byte	0xc0
 3111 13ed 31       		.uleb128 0x31
 3112 13ee 01       		.uleb128 0x1
 3113 13ef 50       		.byte	0x50
 3114 13f0 01       		.uleb128 0x1
 3115 13f1 38       		.byte	0x38
 3116 13f2 00       		.byte	0
ARM GAS  /tmp/ccR4B9nj.s 			page 56


 3117 13f3 00       		.byte	0
 3118 13f4 36       		.uleb128 0x36
 3119 13f5 460B0000 		.4byte	.LASF274
 3120 13f9 01       		.byte	0x1
 3121 13fa 3D01     		.2byte	0x13d
 3122 13fc 00000000 		.4byte	.LFB46
 3123 1400 98000000 		.4byte	.LFE46-.LFB46
 3124 1404 01       		.uleb128 0x1
 3125 1405 9C       		.byte	0x9c
 3126 1406 79140000 		.4byte	0x1479
 3127 140a 37       		.uleb128 0x37
 3128 140b 73647000 		.ascii	"sdp\000"
 3129 140f 01       		.byte	0x1
 3130 1410 3D01     		.2byte	0x13d
 3131 1412 5C100000 		.4byte	0x105c
 3132 1416 53020000 		.4byte	.LLST12
 3133 141a 3A       		.uleb128 0x3a
 3134 141b 6D100000 		.4byte	0x106d
 3135 141f 16000000 		.4byte	.LBB28
 3136 1423 00000000 		.4byte	.Ldebug_ranges0+0
 3137 1427 01       		.byte	0x1
 3138 1428 4001     		.2byte	0x140
 3139 142a 38140000 		.4byte	0x1438
 3140 142e 2B       		.uleb128 0x2b
 3141 142f 79100000 		.4byte	0x1079
 3142 1433 8D020000 		.4byte	.LLST13
 3143 1437 00       		.byte	0
 3144 1438 39       		.uleb128 0x39
 3145 1439 6D100000 		.4byte	0x106d
 3146 143d 34000000 		.4byte	.LBB32
 3147 1441 06000000 		.4byte	.LBE32-.LBB32
 3148 1445 01       		.byte	0x1
 3149 1446 5201     		.2byte	0x152
 3150 1448 56140000 		.4byte	0x1456
 3151 144c 2B       		.uleb128 0x2b
 3152 144d 79100000 		.4byte	0x1079
 3153 1451 E3020000 		.4byte	.LLST14
 3154 1455 00       		.byte	0
 3155 1456 3B       		.uleb128 0x3b
 3156 1457 6A000000 		.4byte	.LVL47
 3157 145b 59150000 		.4byte	0x1559
 3158 145f 69140000 		.4byte	0x1469
 3159 1463 31       		.uleb128 0x31
 3160 1464 01       		.uleb128 0x1
 3161 1465 50       		.byte	0x50
 3162 1466 01       		.uleb128 0x1
 3163 1467 39       		.byte	0x39
 3164 1468 00       		.byte	0
 3165 1469 3C       		.uleb128 0x3c
 3166 146a 98000000 		.4byte	.LVL50
 3167 146e 59150000 		.4byte	0x1559
 3168 1472 31       		.uleb128 0x31
 3169 1473 01       		.uleb128 0x1
 3170 1474 50       		.byte	0x50
 3171 1475 01       		.uleb128 0x1
 3172 1476 38       		.byte	0x38
 3173 1477 00       		.byte	0
ARM GAS  /tmp/ccR4B9nj.s 			page 57


 3174 1478 00       		.byte	0
 3175 1479 3D       		.uleb128 0x3d
 3176 147a 01020000 		.4byte	.LASF275
 3177 147e 01       		.byte	0x1
 3178 147f 3C       		.byte	0x3c
 3179 1480 68100000 		.4byte	0x1068
 3180 1484 05       		.uleb128 0x5
 3181 1485 03       		.byte	0x3
 3182 1486 00000000 		.4byte	default_config
 3183 148a 3E       		.uleb128 0x3e
 3184 148b 2E060000 		.4byte	.LASF276
 3185 148f 0F       		.byte	0xf
 3186 1490 CE06     		.2byte	0x6ce
 3187 1492 96140000 		.4byte	0x1496
 3188 1496 0D       		.uleb128 0xd
 3189 1497 25000000 		.4byte	0x25
 3190 149b 3F       		.uleb128 0x3f
 3191 149c 2F050000 		.4byte	.LASF277
 3192 14a0 10       		.byte	0x10
 3193 14a1 21       		.byte	0x21
 3194 14a2 82000000 		.4byte	0x82
 3195 14a6 40       		.uleb128 0x40
 3196 14a7 53443100 		.ascii	"SD1\000"
 3197 14ab 01       		.byte	0x1
 3198 14ac 2E       		.byte	0x2e
 3199 14ad DD0E0000 		.4byte	0xedd
 3200 14b1 05       		.uleb128 0x5
 3201 14b2 03       		.byte	0x3
 3202 14b3 00000000 		.4byte	SD1
 3203 14b7 40       		.uleb128 0x40
 3204 14b8 53443200 		.ascii	"SD2\000"
 3205 14bc 01       		.byte	0x1
 3206 14bd 32       		.byte	0x32
 3207 14be DD0E0000 		.4byte	0xedd
 3208 14c2 05       		.uleb128 0x5
 3209 14c3 03       		.byte	0x3
 3210 14c4 00000000 		.4byte	SD2
 3211 14c8 41       		.uleb128 0x41
 3212 14c9 3A070000 		.4byte	.LASF278
 3213 14cd 09       		.byte	0x9
 3214 14ce B3       		.byte	0xb3
 3215 14cf DE140000 		.4byte	0x14de
 3216 14d3 12       		.uleb128 0x12
 3217 14d4 DE140000 		.4byte	0x14de
 3218 14d8 12       		.uleb128 0x12
 3219 14d9 EF000000 		.4byte	0xef
 3220 14dd 00       		.byte	0
 3221 14de 09       		.uleb128 0x9
 3222 14df 04       		.byte	0x4
 3223 14e0 AA030000 		.4byte	0x3aa
 3224 14e4 42       		.uleb128 0x42
 3225 14e5 B7060000 		.4byte	.LASF288
 3226 14e9 0A       		.byte	0xa
 3227 14ea 5A01     		.2byte	0x15a
 3228 14ec E4000000 		.4byte	0xe4
 3229 14f0 FA140000 		.4byte	0x14fa
 3230 14f4 12       		.uleb128 0x12
ARM GAS  /tmp/ccR4B9nj.s 			page 58


 3231 14f5 FA140000 		.4byte	0x14fa
 3232 14f9 00       		.byte	0
 3233 14fa 09       		.uleb128 0x9
 3234 14fb 04       		.byte	0x4
 3235 14fc A1040000 		.4byte	0x4a1
 3236 1500 43       		.uleb128 0x43
 3237 1501 BC050000 		.4byte	.LASF279
 3238 1505 0D       		.byte	0xd
 3239 1506 3B01     		.2byte	0x13b
 3240 1508 17150000 		.4byte	0x1517
 3241 150c 12       		.uleb128 0x12
 3242 150d 5C100000 		.4byte	0x105c
 3243 1511 12       		.uleb128 0x12
 3244 1512 45000000 		.4byte	0x45
 3245 1516 00       		.byte	0
 3246 1517 44       		.uleb128 0x44
 3247 1518 DB060000 		.4byte	.LASF281
 3248 151c 07       		.byte	0x7
 3249 151d F501     		.2byte	0x1f5
 3250 151f 43       		.uleb128 0x43
 3251 1520 BA010000 		.4byte	.LASF280
 3252 1524 0D       		.byte	0xd
 3253 1525 3801     		.2byte	0x138
 3254 1527 3B150000 		.4byte	0x153b
 3255 152b 12       		.uleb128 0x12
 3256 152c 5C100000 		.4byte	0x105c
 3257 1530 12       		.uleb128 0x12
 3258 1531 6E040000 		.4byte	0x46e
 3259 1535 12       		.uleb128 0x12
 3260 1536 6E040000 		.4byte	0x46e
 3261 153a 00       		.byte	0
 3262 153b 45       		.uleb128 0x45
 3263 153c 790A0000 		.4byte	.LASF282
 3264 1540 10       		.byte	0x10
 3265 1541 38       		.byte	0x38
 3266 1542 43       		.uleb128 0x43
 3267 1543 92020000 		.4byte	.LASF283
 3268 1547 11       		.byte	0x11
 3269 1548 2301     		.2byte	0x123
 3270 154a 59150000 		.4byte	0x1559
 3271 154e 12       		.uleb128 0x12
 3272 154f 82000000 		.4byte	0x82
 3273 1553 12       		.uleb128 0x12
 3274 1554 82000000 		.4byte	0x82
 3275 1558 00       		.byte	0
 3276 1559 46       		.uleb128 0x46
 3277 155a 4F070000 		.4byte	.LASF289
 3278 155e 11       		.byte	0x11
 3279 155f 2401     		.2byte	0x124
 3280 1561 12       		.uleb128 0x12
 3281 1562 82000000 		.4byte	0x82
 3282 1566 00       		.byte	0
 3283 1567 00       		.byte	0
 3284              		.section	.debug_abbrev,"",%progbits
 3285              	.Ldebug_abbrev0:
 3286 0000 01       		.uleb128 0x1
 3287 0001 11       		.uleb128 0x11
ARM GAS  /tmp/ccR4B9nj.s 			page 59


 3288 0002 01       		.byte	0x1
 3289 0003 25       		.uleb128 0x25
 3290 0004 0E       		.uleb128 0xe
 3291 0005 13       		.uleb128 0x13
 3292 0006 0B       		.uleb128 0xb
 3293 0007 03       		.uleb128 0x3
 3294 0008 0E       		.uleb128 0xe
 3295 0009 1B       		.uleb128 0x1b
 3296 000a 0E       		.uleb128 0xe
 3297 000b 55       		.uleb128 0x55
 3298 000c 17       		.uleb128 0x17
 3299 000d 11       		.uleb128 0x11
 3300 000e 01       		.uleb128 0x1
 3301 000f 10       		.uleb128 0x10
 3302 0010 17       		.uleb128 0x17
 3303 0011 00       		.byte	0
 3304 0012 00       		.byte	0
 3305 0013 02       		.uleb128 0x2
 3306 0014 24       		.uleb128 0x24
 3307 0015 00       		.byte	0
 3308 0016 0B       		.uleb128 0xb
 3309 0017 0B       		.uleb128 0xb
 3310 0018 3E       		.uleb128 0x3e
 3311 0019 0B       		.uleb128 0xb
 3312 001a 03       		.uleb128 0x3
 3313 001b 08       		.uleb128 0x8
 3314 001c 00       		.byte	0
 3315 001d 00       		.byte	0
 3316 001e 03       		.uleb128 0x3
 3317 001f 16       		.uleb128 0x16
 3318 0020 00       		.byte	0
 3319 0021 03       		.uleb128 0x3
 3320 0022 0E       		.uleb128 0xe
 3321 0023 3A       		.uleb128 0x3a
 3322 0024 0B       		.uleb128 0xb
 3323 0025 3B       		.uleb128 0x3b
 3324 0026 0B       		.uleb128 0xb
 3325 0027 49       		.uleb128 0x49
 3326 0028 13       		.uleb128 0x13
 3327 0029 00       		.byte	0
 3328 002a 00       		.byte	0
 3329 002b 04       		.uleb128 0x4
 3330 002c 24       		.uleb128 0x24
 3331 002d 00       		.byte	0
 3332 002e 0B       		.uleb128 0xb
 3333 002f 0B       		.uleb128 0xb
 3334 0030 3E       		.uleb128 0x3e
 3335 0031 0B       		.uleb128 0xb
 3336 0032 03       		.uleb128 0x3
 3337 0033 0E       		.uleb128 0xe
 3338 0034 00       		.byte	0
 3339 0035 00       		.byte	0
 3340 0036 05       		.uleb128 0x5
 3341 0037 13       		.uleb128 0x13
 3342 0038 01       		.byte	0x1
 3343 0039 03       		.uleb128 0x3
 3344 003a 0E       		.uleb128 0xe
ARM GAS  /tmp/ccR4B9nj.s 			page 60


 3345 003b 0B       		.uleb128 0xb
 3346 003c 0B       		.uleb128 0xb
 3347 003d 3A       		.uleb128 0x3a
 3348 003e 0B       		.uleb128 0xb
 3349 003f 3B       		.uleb128 0x3b
 3350 0040 0B       		.uleb128 0xb
 3351 0041 01       		.uleb128 0x1
 3352 0042 13       		.uleb128 0x13
 3353 0043 00       		.byte	0
 3354 0044 00       		.byte	0
 3355 0045 06       		.uleb128 0x6
 3356 0046 0D       		.uleb128 0xd
 3357 0047 00       		.byte	0
 3358 0048 03       		.uleb128 0x3
 3359 0049 0E       		.uleb128 0xe
 3360 004a 3A       		.uleb128 0x3a
 3361 004b 0B       		.uleb128 0xb
 3362 004c 3B       		.uleb128 0x3b
 3363 004d 0B       		.uleb128 0xb
 3364 004e 49       		.uleb128 0x49
 3365 004f 13       		.uleb128 0x13
 3366 0050 38       		.uleb128 0x38
 3367 0051 0B       		.uleb128 0xb
 3368 0052 00       		.byte	0
 3369 0053 00       		.byte	0
 3370 0054 07       		.uleb128 0x7
 3371 0055 0D       		.uleb128 0xd
 3372 0056 00       		.byte	0
 3373 0057 03       		.uleb128 0x3
 3374 0058 08       		.uleb128 0x8
 3375 0059 3A       		.uleb128 0x3a
 3376 005a 0B       		.uleb128 0xb
 3377 005b 3B       		.uleb128 0x3b
 3378 005c 0B       		.uleb128 0xb
 3379 005d 49       		.uleb128 0x49
 3380 005e 13       		.uleb128 0x13
 3381 005f 38       		.uleb128 0x38
 3382 0060 0B       		.uleb128 0xb
 3383 0061 00       		.byte	0
 3384 0062 00       		.byte	0
 3385 0063 08       		.uleb128 0x8
 3386 0064 13       		.uleb128 0x13
 3387 0065 01       		.byte	0x1
 3388 0066 0B       		.uleb128 0xb
 3389 0067 0B       		.uleb128 0xb
 3390 0068 3A       		.uleb128 0x3a
 3391 0069 0B       		.uleb128 0xb
 3392 006a 3B       		.uleb128 0x3b
 3393 006b 0B       		.uleb128 0xb
 3394 006c 01       		.uleb128 0x1
 3395 006d 13       		.uleb128 0x13
 3396 006e 00       		.byte	0
 3397 006f 00       		.byte	0
 3398 0070 09       		.uleb128 0x9
 3399 0071 0F       		.uleb128 0xf
 3400 0072 00       		.byte	0
 3401 0073 0B       		.uleb128 0xb
ARM GAS  /tmp/ccR4B9nj.s 			page 61


 3402 0074 0B       		.uleb128 0xb
 3403 0075 49       		.uleb128 0x49
 3404 0076 13       		.uleb128 0x13
 3405 0077 00       		.byte	0
 3406 0078 00       		.byte	0
 3407 0079 0A       		.uleb128 0xa
 3408 007a 0F       		.uleb128 0xf
 3409 007b 00       		.byte	0
 3410 007c 0B       		.uleb128 0xb
 3411 007d 0B       		.uleb128 0xb
 3412 007e 00       		.byte	0
 3413 007f 00       		.byte	0
 3414 0080 0B       		.uleb128 0xb
 3415 0081 0D       		.uleb128 0xd
 3416 0082 00       		.byte	0
 3417 0083 03       		.uleb128 0x3
 3418 0084 08       		.uleb128 0x8
 3419 0085 3A       		.uleb128 0x3a
 3420 0086 0B       		.uleb128 0xb
 3421 0087 3B       		.uleb128 0x3b
 3422 0088 05       		.uleb128 0x5
 3423 0089 49       		.uleb128 0x49
 3424 008a 13       		.uleb128 0x13
 3425 008b 38       		.uleb128 0x38
 3426 008c 0B       		.uleb128 0xb
 3427 008d 00       		.byte	0
 3428 008e 00       		.byte	0
 3429 008f 0C       		.uleb128 0xc
 3430 0090 13       		.uleb128 0x13
 3431 0091 01       		.byte	0x1
 3432 0092 03       		.uleb128 0x3
 3433 0093 0E       		.uleb128 0xe
 3434 0094 0B       		.uleb128 0xb
 3435 0095 0B       		.uleb128 0xb
 3436 0096 3A       		.uleb128 0x3a
 3437 0097 0B       		.uleb128 0xb
 3438 0098 3B       		.uleb128 0x3b
 3439 0099 05       		.uleb128 0x5
 3440 009a 01       		.uleb128 0x1
 3441 009b 13       		.uleb128 0x13
 3442 009c 00       		.byte	0
 3443 009d 00       		.byte	0
 3444 009e 0D       		.uleb128 0xd
 3445 009f 35       		.uleb128 0x35
 3446 00a0 00       		.byte	0
 3447 00a1 49       		.uleb128 0x49
 3448 00a2 13       		.uleb128 0x13
 3449 00a3 00       		.byte	0
 3450 00a4 00       		.byte	0
 3451 00a5 0E       		.uleb128 0xe
 3452 00a6 17       		.uleb128 0x17
 3453 00a7 01       		.byte	0x1
 3454 00a8 0B       		.uleb128 0xb
 3455 00a9 0B       		.uleb128 0xb
 3456 00aa 3A       		.uleb128 0x3a
 3457 00ab 0B       		.uleb128 0xb
 3458 00ac 3B       		.uleb128 0x3b
ARM GAS  /tmp/ccR4B9nj.s 			page 62


 3459 00ad 0B       		.uleb128 0xb
 3460 00ae 01       		.uleb128 0x1
 3461 00af 13       		.uleb128 0x13
 3462 00b0 00       		.byte	0
 3463 00b1 00       		.byte	0
 3464 00b2 0F       		.uleb128 0xf
 3465 00b3 0D       		.uleb128 0xd
 3466 00b4 00       		.byte	0
 3467 00b5 03       		.uleb128 0x3
 3468 00b6 0E       		.uleb128 0xe
 3469 00b7 3A       		.uleb128 0x3a
 3470 00b8 0B       		.uleb128 0xb
 3471 00b9 3B       		.uleb128 0x3b
 3472 00ba 0B       		.uleb128 0xb
 3473 00bb 49       		.uleb128 0x49
 3474 00bc 13       		.uleb128 0x13
 3475 00bd 00       		.byte	0
 3476 00be 00       		.byte	0
 3477 00bf 10       		.uleb128 0x10
 3478 00c0 26       		.uleb128 0x26
 3479 00c1 00       		.byte	0
 3480 00c2 49       		.uleb128 0x49
 3481 00c3 13       		.uleb128 0x13
 3482 00c4 00       		.byte	0
 3483 00c5 00       		.byte	0
 3484 00c6 11       		.uleb128 0x11
 3485 00c7 15       		.uleb128 0x15
 3486 00c8 01       		.byte	0x1
 3487 00c9 27       		.uleb128 0x27
 3488 00ca 19       		.uleb128 0x19
 3489 00cb 01       		.uleb128 0x1
 3490 00cc 13       		.uleb128 0x13
 3491 00cd 00       		.byte	0
 3492 00ce 00       		.byte	0
 3493 00cf 12       		.uleb128 0x12
 3494 00d0 05       		.uleb128 0x5
 3495 00d1 00       		.byte	0
 3496 00d2 49       		.uleb128 0x49
 3497 00d3 13       		.uleb128 0x13
 3498 00d4 00       		.byte	0
 3499 00d5 00       		.byte	0
 3500 00d6 13       		.uleb128 0x13
 3501 00d7 15       		.uleb128 0x15
 3502 00d8 01       		.byte	0x1
 3503 00d9 27       		.uleb128 0x27
 3504 00da 19       		.uleb128 0x19
 3505 00db 49       		.uleb128 0x49
 3506 00dc 13       		.uleb128 0x13
 3507 00dd 01       		.uleb128 0x1
 3508 00de 13       		.uleb128 0x13
 3509 00df 00       		.byte	0
 3510 00e0 00       		.byte	0
 3511 00e1 14       		.uleb128 0x14
 3512 00e2 16       		.uleb128 0x16
 3513 00e3 00       		.byte	0
 3514 00e4 03       		.uleb128 0x3
 3515 00e5 0E       		.uleb128 0xe
ARM GAS  /tmp/ccR4B9nj.s 			page 63


 3516 00e6 3A       		.uleb128 0x3a
 3517 00e7 0B       		.uleb128 0xb
 3518 00e8 3B       		.uleb128 0x3b
 3519 00e9 05       		.uleb128 0x5
 3520 00ea 49       		.uleb128 0x49
 3521 00eb 13       		.uleb128 0x13
 3522 00ec 00       		.byte	0
 3523 00ed 00       		.byte	0
 3524 00ee 15       		.uleb128 0x15
 3525 00ef 04       		.uleb128 0x4
 3526 00f0 01       		.byte	0x1
 3527 00f1 03       		.uleb128 0x3
 3528 00f2 0E       		.uleb128 0xe
 3529 00f3 0B       		.uleb128 0xb
 3530 00f4 0B       		.uleb128 0xb
 3531 00f5 3A       		.uleb128 0x3a
 3532 00f6 0B       		.uleb128 0xb
 3533 00f7 3B       		.uleb128 0x3b
 3534 00f8 0B       		.uleb128 0xb
 3535 00f9 01       		.uleb128 0x1
 3536 00fa 13       		.uleb128 0x13
 3537 00fb 00       		.byte	0
 3538 00fc 00       		.byte	0
 3539 00fd 16       		.uleb128 0x16
 3540 00fe 28       		.uleb128 0x28
 3541 00ff 00       		.byte	0
 3542 0100 03       		.uleb128 0x3
 3543 0101 0E       		.uleb128 0xe
 3544 0102 1C       		.uleb128 0x1c
 3545 0103 0D       		.uleb128 0xd
 3546 0104 00       		.byte	0
 3547 0105 00       		.byte	0
 3548 0106 17       		.uleb128 0x17
 3549 0107 01       		.uleb128 0x1
 3550 0108 01       		.byte	0x1
 3551 0109 49       		.uleb128 0x49
 3552 010a 13       		.uleb128 0x13
 3553 010b 01       		.uleb128 0x1
 3554 010c 13       		.uleb128 0x13
 3555 010d 00       		.byte	0
 3556 010e 00       		.byte	0
 3557 010f 18       		.uleb128 0x18
 3558 0110 21       		.uleb128 0x21
 3559 0111 00       		.byte	0
 3560 0112 49       		.uleb128 0x49
 3561 0113 13       		.uleb128 0x13
 3562 0114 2F       		.uleb128 0x2f
 3563 0115 0B       		.uleb128 0xb
 3564 0116 00       		.byte	0
 3565 0117 00       		.byte	0
 3566 0118 19       		.uleb128 0x19
 3567 0119 13       		.uleb128 0x13
 3568 011a 01       		.byte	0x1
 3569 011b 0B       		.uleb128 0xb
 3570 011c 05       		.uleb128 0x5
 3571 011d 3A       		.uleb128 0x3a
 3572 011e 0B       		.uleb128 0xb
ARM GAS  /tmp/ccR4B9nj.s 			page 64


 3573 011f 3B       		.uleb128 0x3b
 3574 0120 05       		.uleb128 0x5
 3575 0121 01       		.uleb128 0x1
 3576 0122 13       		.uleb128 0x13
 3577 0123 00       		.byte	0
 3578 0124 00       		.byte	0
 3579 0125 1A       		.uleb128 0x1a
 3580 0126 0D       		.uleb128 0xd
 3581 0127 00       		.byte	0
 3582 0128 03       		.uleb128 0x3
 3583 0129 0E       		.uleb128 0xe
 3584 012a 3A       		.uleb128 0x3a
 3585 012b 0B       		.uleb128 0xb
 3586 012c 3B       		.uleb128 0x3b
 3587 012d 05       		.uleb128 0x5
 3588 012e 49       		.uleb128 0x49
 3589 012f 13       		.uleb128 0x13
 3590 0130 38       		.uleb128 0x38
 3591 0131 0B       		.uleb128 0xb
 3592 0132 00       		.byte	0
 3593 0133 00       		.byte	0
 3594 0134 1B       		.uleb128 0x1b
 3595 0135 0D       		.uleb128 0xd
 3596 0136 00       		.byte	0
 3597 0137 03       		.uleb128 0x3
 3598 0138 0E       		.uleb128 0xe
 3599 0139 3A       		.uleb128 0x3a
 3600 013a 0B       		.uleb128 0xb
 3601 013b 3B       		.uleb128 0x3b
 3602 013c 05       		.uleb128 0x5
 3603 013d 49       		.uleb128 0x49
 3604 013e 13       		.uleb128 0x13
 3605 013f 38       		.uleb128 0x38
 3606 0140 05       		.uleb128 0x5
 3607 0141 00       		.byte	0
 3608 0142 00       		.byte	0
 3609 0143 1C       		.uleb128 0x1c
 3610 0144 16       		.uleb128 0x16
 3611 0145 00       		.byte	0
 3612 0146 03       		.uleb128 0x3
 3613 0147 08       		.uleb128 0x8
 3614 0148 3A       		.uleb128 0x3a
 3615 0149 0B       		.uleb128 0xb
 3616 014a 3B       		.uleb128 0x3b
 3617 014b 05       		.uleb128 0x5
 3618 014c 49       		.uleb128 0x49
 3619 014d 13       		.uleb128 0x13
 3620 014e 00       		.byte	0
 3621 014f 00       		.byte	0
 3622 0150 1D       		.uleb128 0x1d
 3623 0151 04       		.uleb128 0x4
 3624 0152 01       		.byte	0x1
 3625 0153 0B       		.uleb128 0xb
 3626 0154 0B       		.uleb128 0xb
 3627 0155 3A       		.uleb128 0x3a
 3628 0156 0B       		.uleb128 0xb
 3629 0157 3B       		.uleb128 0x3b
ARM GAS  /tmp/ccR4B9nj.s 			page 65


 3630 0158 0B       		.uleb128 0xb
 3631 0159 01       		.uleb128 0x1
 3632 015a 13       		.uleb128 0x13
 3633 015b 00       		.byte	0
 3634 015c 00       		.byte	0
 3635 015d 1E       		.uleb128 0x1e
 3636 015e 2E       		.uleb128 0x2e
 3637 015f 01       		.byte	0x1
 3638 0160 03       		.uleb128 0x3
 3639 0161 0E       		.uleb128 0xe
 3640 0162 3A       		.uleb128 0x3a
 3641 0163 0B       		.uleb128 0xb
 3642 0164 3B       		.uleb128 0x3b
 3643 0165 0B       		.uleb128 0xb
 3644 0166 27       		.uleb128 0x27
 3645 0167 19       		.uleb128 0x19
 3646 0168 20       		.uleb128 0x20
 3647 0169 0B       		.uleb128 0xb
 3648 016a 01       		.uleb128 0x1
 3649 016b 13       		.uleb128 0x13
 3650 016c 00       		.byte	0
 3651 016d 00       		.byte	0
 3652 016e 1F       		.uleb128 0x1f
 3653 016f 05       		.uleb128 0x5
 3654 0170 00       		.byte	0
 3655 0171 03       		.uleb128 0x3
 3656 0172 08       		.uleb128 0x8
 3657 0173 3A       		.uleb128 0x3a
 3658 0174 0B       		.uleb128 0xb
 3659 0175 3B       		.uleb128 0x3b
 3660 0176 0B       		.uleb128 0xb
 3661 0177 49       		.uleb128 0x49
 3662 0178 13       		.uleb128 0x13
 3663 0179 00       		.byte	0
 3664 017a 00       		.byte	0
 3665 017b 20       		.uleb128 0x20
 3666 017c 05       		.uleb128 0x5
 3667 017d 00       		.byte	0
 3668 017e 03       		.uleb128 0x3
 3669 017f 0E       		.uleb128 0xe
 3670 0180 3A       		.uleb128 0x3a
 3671 0181 0B       		.uleb128 0xb
 3672 0182 3B       		.uleb128 0x3b
 3673 0183 0B       		.uleb128 0xb
 3674 0184 49       		.uleb128 0x49
 3675 0185 13       		.uleb128 0x13
 3676 0186 00       		.byte	0
 3677 0187 00       		.byte	0
 3678 0188 21       		.uleb128 0x21
 3679 0189 34       		.uleb128 0x34
 3680 018a 00       		.byte	0
 3681 018b 03       		.uleb128 0x3
 3682 018c 08       		.uleb128 0x8
 3683 018d 3A       		.uleb128 0x3a
 3684 018e 0B       		.uleb128 0xb
 3685 018f 3B       		.uleb128 0x3b
 3686 0190 0B       		.uleb128 0xb
ARM GAS  /tmp/ccR4B9nj.s 			page 66


 3687 0191 49       		.uleb128 0x49
 3688 0192 13       		.uleb128 0x13
 3689 0193 00       		.byte	0
 3690 0194 00       		.byte	0
 3691 0195 22       		.uleb128 0x22
 3692 0196 34       		.uleb128 0x34
 3693 0197 00       		.byte	0
 3694 0198 03       		.uleb128 0x3
 3695 0199 0E       		.uleb128 0xe
 3696 019a 3A       		.uleb128 0x3a
 3697 019b 0B       		.uleb128 0xb
 3698 019c 3B       		.uleb128 0x3b
 3699 019d 0B       		.uleb128 0xb
 3700 019e 49       		.uleb128 0x49
 3701 019f 13       		.uleb128 0x13
 3702 01a0 00       		.byte	0
 3703 01a1 00       		.byte	0
 3704 01a2 23       		.uleb128 0x23
 3705 01a3 2E       		.uleb128 0x2e
 3706 01a4 01       		.byte	0x1
 3707 01a5 03       		.uleb128 0x3
 3708 01a6 0E       		.uleb128 0xe
 3709 01a7 3A       		.uleb128 0x3a
 3710 01a8 0B       		.uleb128 0xb
 3711 01a9 3B       		.uleb128 0x3b
 3712 01aa 0B       		.uleb128 0xb
 3713 01ab 27       		.uleb128 0x27
 3714 01ac 19       		.uleb128 0x19
 3715 01ad 11       		.uleb128 0x11
 3716 01ae 01       		.uleb128 0x1
 3717 01af 12       		.uleb128 0x12
 3718 01b0 06       		.uleb128 0x6
 3719 01b1 40       		.uleb128 0x40
 3720 01b2 18       		.uleb128 0x18
 3721 01b3 9742     		.uleb128 0x2117
 3722 01b5 19       		.uleb128 0x19
 3723 01b6 01       		.uleb128 0x1
 3724 01b7 13       		.uleb128 0x13
 3725 01b8 00       		.byte	0
 3726 01b9 00       		.byte	0
 3727 01ba 24       		.uleb128 0x24
 3728 01bb 05       		.uleb128 0x5
 3729 01bc 00       		.byte	0
 3730 01bd 03       		.uleb128 0x3
 3731 01be 08       		.uleb128 0x8
 3732 01bf 3A       		.uleb128 0x3a
 3733 01c0 0B       		.uleb128 0xb
 3734 01c1 3B       		.uleb128 0x3b
 3735 01c2 0B       		.uleb128 0xb
 3736 01c3 49       		.uleb128 0x49
 3737 01c4 13       		.uleb128 0x13
 3738 01c5 02       		.uleb128 0x2
 3739 01c6 18       		.uleb128 0x18
 3740 01c7 00       		.byte	0
 3741 01c8 00       		.byte	0
 3742 01c9 25       		.uleb128 0x25
 3743 01ca 0B       		.uleb128 0xb
ARM GAS  /tmp/ccR4B9nj.s 			page 67


 3744 01cb 01       		.byte	0x1
 3745 01cc 01       		.uleb128 0x1
 3746 01cd 13       		.uleb128 0x13
 3747 01ce 00       		.byte	0
 3748 01cf 00       		.byte	0
 3749 01d0 26       		.uleb128 0x26
 3750 01d1 0B       		.uleb128 0xb
 3751 01d2 01       		.byte	0x1
 3752 01d3 00       		.byte	0
 3753 01d4 00       		.byte	0
 3754 01d5 27       		.uleb128 0x27
 3755 01d6 05       		.uleb128 0x5
 3756 01d7 00       		.byte	0
 3757 01d8 03       		.uleb128 0x3
 3758 01d9 08       		.uleb128 0x8
 3759 01da 3A       		.uleb128 0x3a
 3760 01db 0B       		.uleb128 0xb
 3761 01dc 3B       		.uleb128 0x3b
 3762 01dd 0B       		.uleb128 0xb
 3763 01de 49       		.uleb128 0x49
 3764 01df 13       		.uleb128 0x13
 3765 01e0 02       		.uleb128 0x2
 3766 01e1 17       		.uleb128 0x17
 3767 01e2 00       		.byte	0
 3768 01e3 00       		.byte	0
 3769 01e4 28       		.uleb128 0x28
 3770 01e5 34       		.uleb128 0x34
 3771 01e6 00       		.byte	0
 3772 01e7 03       		.uleb128 0x3
 3773 01e8 08       		.uleb128 0x8
 3774 01e9 3A       		.uleb128 0x3a
 3775 01ea 0B       		.uleb128 0xb
 3776 01eb 3B       		.uleb128 0x3b
 3777 01ec 0B       		.uleb128 0xb
 3778 01ed 49       		.uleb128 0x49
 3779 01ee 13       		.uleb128 0x13
 3780 01ef 02       		.uleb128 0x2
 3781 01f0 17       		.uleb128 0x17
 3782 01f1 00       		.byte	0
 3783 01f2 00       		.byte	0
 3784 01f3 29       		.uleb128 0x29
 3785 01f4 34       		.uleb128 0x34
 3786 01f5 00       		.byte	0
 3787 01f6 03       		.uleb128 0x3
 3788 01f7 08       		.uleb128 0x8
 3789 01f8 3A       		.uleb128 0x3a
 3790 01f9 0B       		.uleb128 0xb
 3791 01fa 3B       		.uleb128 0x3b
 3792 01fb 0B       		.uleb128 0xb
 3793 01fc 49       		.uleb128 0x49
 3794 01fd 13       		.uleb128 0x13
 3795 01fe 02       		.uleb128 0x2
 3796 01ff 18       		.uleb128 0x18
 3797 0200 00       		.byte	0
 3798 0201 00       		.byte	0
 3799 0202 2A       		.uleb128 0x2a
 3800 0203 1D       		.uleb128 0x1d
ARM GAS  /tmp/ccR4B9nj.s 			page 68


 3801 0204 01       		.byte	0x1
 3802 0205 31       		.uleb128 0x31
 3803 0206 13       		.uleb128 0x13
 3804 0207 11       		.uleb128 0x11
 3805 0208 01       		.uleb128 0x1
 3806 0209 12       		.uleb128 0x12
 3807 020a 06       		.uleb128 0x6
 3808 020b 58       		.uleb128 0x58
 3809 020c 0B       		.uleb128 0xb
 3810 020d 59       		.uleb128 0x59
 3811 020e 0B       		.uleb128 0xb
 3812 020f 01       		.uleb128 0x1
 3813 0210 13       		.uleb128 0x13
 3814 0211 00       		.byte	0
 3815 0212 00       		.byte	0
 3816 0213 2B       		.uleb128 0x2b
 3817 0214 05       		.uleb128 0x5
 3818 0215 00       		.byte	0
 3819 0216 31       		.uleb128 0x31
 3820 0217 13       		.uleb128 0x13
 3821 0218 02       		.uleb128 0x2
 3822 0219 17       		.uleb128 0x17
 3823 021a 00       		.byte	0
 3824 021b 00       		.byte	0
 3825 021c 2C       		.uleb128 0x2c
 3826 021d 0B       		.uleb128 0xb
 3827 021e 01       		.byte	0x1
 3828 021f 11       		.uleb128 0x11
 3829 0220 01       		.uleb128 0x1
 3830 0221 12       		.uleb128 0x12
 3831 0222 06       		.uleb128 0x6
 3832 0223 00       		.byte	0
 3833 0224 00       		.byte	0
 3834 0225 2D       		.uleb128 0x2d
 3835 0226 34       		.uleb128 0x34
 3836 0227 00       		.byte	0
 3837 0228 31       		.uleb128 0x31
 3838 0229 13       		.uleb128 0x13
 3839 022a 02       		.uleb128 0x2
 3840 022b 17       		.uleb128 0x17
 3841 022c 00       		.byte	0
 3842 022d 00       		.byte	0
 3843 022e 2E       		.uleb128 0x2e
 3844 022f 0B       		.uleb128 0xb
 3845 0230 01       		.byte	0x1
 3846 0231 11       		.uleb128 0x11
 3847 0232 01       		.uleb128 0x1
 3848 0233 12       		.uleb128 0x12
 3849 0234 06       		.uleb128 0x6
 3850 0235 01       		.uleb128 0x1
 3851 0236 13       		.uleb128 0x13
 3852 0237 00       		.byte	0
 3853 0238 00       		.byte	0
 3854 0239 2F       		.uleb128 0x2f
 3855 023a 34       		.uleb128 0x34
 3856 023b 00       		.byte	0
 3857 023c 31       		.uleb128 0x31
ARM GAS  /tmp/ccR4B9nj.s 			page 69


 3858 023d 13       		.uleb128 0x13
 3859 023e 02       		.uleb128 0x2
 3860 023f 18       		.uleb128 0x18
 3861 0240 00       		.byte	0
 3862 0241 00       		.byte	0
 3863 0242 30       		.uleb128 0x30
 3864 0243 898201   		.uleb128 0x4109
 3865 0246 01       		.byte	0x1
 3866 0247 11       		.uleb128 0x11
 3867 0248 01       		.uleb128 0x1
 3868 0249 31       		.uleb128 0x31
 3869 024a 13       		.uleb128 0x13
 3870 024b 00       		.byte	0
 3871 024c 00       		.byte	0
 3872 024d 31       		.uleb128 0x31
 3873 024e 8A8201   		.uleb128 0x410a
 3874 0251 00       		.byte	0
 3875 0252 02       		.uleb128 0x2
 3876 0253 18       		.uleb128 0x18
 3877 0254 9142     		.uleb128 0x2111
 3878 0256 18       		.uleb128 0x18
 3879 0257 00       		.byte	0
 3880 0258 00       		.byte	0
 3881 0259 32       		.uleb128 0x32
 3882 025a 898201   		.uleb128 0x4109
 3883 025d 01       		.byte	0x1
 3884 025e 11       		.uleb128 0x11
 3885 025f 01       		.uleb128 0x1
 3886 0260 31       		.uleb128 0x31
 3887 0261 13       		.uleb128 0x13
 3888 0262 01       		.uleb128 0x1
 3889 0263 13       		.uleb128 0x13
 3890 0264 00       		.byte	0
 3891 0265 00       		.byte	0
 3892 0266 33       		.uleb128 0x33
 3893 0267 898201   		.uleb128 0x4109
 3894 026a 00       		.byte	0
 3895 026b 11       		.uleb128 0x11
 3896 026c 01       		.uleb128 0x1
 3897 026d 31       		.uleb128 0x31
 3898 026e 13       		.uleb128 0x13
 3899 026f 00       		.byte	0
 3900 0270 00       		.byte	0
 3901 0271 34       		.uleb128 0x34
 3902 0272 2E       		.uleb128 0x2e
 3903 0273 01       		.byte	0x1
 3904 0274 3F       		.uleb128 0x3f
 3905 0275 19       		.uleb128 0x19
 3906 0276 03       		.uleb128 0x3
 3907 0277 0E       		.uleb128 0xe
 3908 0278 3A       		.uleb128 0x3a
 3909 0279 0B       		.uleb128 0xb
 3910 027a 3B       		.uleb128 0x3b
 3911 027b 0B       		.uleb128 0xb
 3912 027c 27       		.uleb128 0x27
 3913 027d 19       		.uleb128 0x19
 3914 027e 11       		.uleb128 0x11
ARM GAS  /tmp/ccR4B9nj.s 			page 70


 3915 027f 01       		.uleb128 0x1
 3916 0280 12       		.uleb128 0x12
 3917 0281 06       		.uleb128 0x6
 3918 0282 40       		.uleb128 0x40
 3919 0283 18       		.uleb128 0x18
 3920 0284 9742     		.uleb128 0x2117
 3921 0286 19       		.uleb128 0x19
 3922 0287 01       		.uleb128 0x1
 3923 0288 13       		.uleb128 0x13
 3924 0289 00       		.byte	0
 3925 028a 00       		.byte	0
 3926 028b 35       		.uleb128 0x35
 3927 028c 898201   		.uleb128 0x4109
 3928 028f 00       		.byte	0
 3929 0290 11       		.uleb128 0x11
 3930 0291 01       		.uleb128 0x1
 3931 0292 9542     		.uleb128 0x2115
 3932 0294 19       		.uleb128 0x19
 3933 0295 31       		.uleb128 0x31
 3934 0296 13       		.uleb128 0x13
 3935 0297 00       		.byte	0
 3936 0298 00       		.byte	0
 3937 0299 36       		.uleb128 0x36
 3938 029a 2E       		.uleb128 0x2e
 3939 029b 01       		.byte	0x1
 3940 029c 3F       		.uleb128 0x3f
 3941 029d 19       		.uleb128 0x19
 3942 029e 03       		.uleb128 0x3
 3943 029f 0E       		.uleb128 0xe
 3944 02a0 3A       		.uleb128 0x3a
 3945 02a1 0B       		.uleb128 0xb
 3946 02a2 3B       		.uleb128 0x3b
 3947 02a3 05       		.uleb128 0x5
 3948 02a4 27       		.uleb128 0x27
 3949 02a5 19       		.uleb128 0x19
 3950 02a6 11       		.uleb128 0x11
 3951 02a7 01       		.uleb128 0x1
 3952 02a8 12       		.uleb128 0x12
 3953 02a9 06       		.uleb128 0x6
 3954 02aa 40       		.uleb128 0x40
 3955 02ab 18       		.uleb128 0x18
 3956 02ac 9742     		.uleb128 0x2117
 3957 02ae 19       		.uleb128 0x19
 3958 02af 01       		.uleb128 0x1
 3959 02b0 13       		.uleb128 0x13
 3960 02b1 00       		.byte	0
 3961 02b2 00       		.byte	0
 3962 02b3 37       		.uleb128 0x37
 3963 02b4 05       		.uleb128 0x5
 3964 02b5 00       		.byte	0
 3965 02b6 03       		.uleb128 0x3
 3966 02b7 08       		.uleb128 0x8
 3967 02b8 3A       		.uleb128 0x3a
 3968 02b9 0B       		.uleb128 0xb
 3969 02ba 3B       		.uleb128 0x3b
 3970 02bb 05       		.uleb128 0x5
 3971 02bc 49       		.uleb128 0x49
ARM GAS  /tmp/ccR4B9nj.s 			page 71


 3972 02bd 13       		.uleb128 0x13
 3973 02be 02       		.uleb128 0x2
 3974 02bf 17       		.uleb128 0x17
 3975 02c0 00       		.byte	0
 3976 02c1 00       		.byte	0
 3977 02c2 38       		.uleb128 0x38
 3978 02c3 05       		.uleb128 0x5
 3979 02c4 00       		.byte	0
 3980 02c5 03       		.uleb128 0x3
 3981 02c6 0E       		.uleb128 0xe
 3982 02c7 3A       		.uleb128 0x3a
 3983 02c8 0B       		.uleb128 0xb
 3984 02c9 3B       		.uleb128 0x3b
 3985 02ca 05       		.uleb128 0x5
 3986 02cb 49       		.uleb128 0x49
 3987 02cc 13       		.uleb128 0x13
 3988 02cd 02       		.uleb128 0x2
 3989 02ce 17       		.uleb128 0x17
 3990 02cf 00       		.byte	0
 3991 02d0 00       		.byte	0
 3992 02d1 39       		.uleb128 0x39
 3993 02d2 1D       		.uleb128 0x1d
 3994 02d3 01       		.byte	0x1
 3995 02d4 31       		.uleb128 0x31
 3996 02d5 13       		.uleb128 0x13
 3997 02d6 11       		.uleb128 0x11
 3998 02d7 01       		.uleb128 0x1
 3999 02d8 12       		.uleb128 0x12
 4000 02d9 06       		.uleb128 0x6
 4001 02da 58       		.uleb128 0x58
 4002 02db 0B       		.uleb128 0xb
 4003 02dc 59       		.uleb128 0x59
 4004 02dd 05       		.uleb128 0x5
 4005 02de 01       		.uleb128 0x1
 4006 02df 13       		.uleb128 0x13
 4007 02e0 00       		.byte	0
 4008 02e1 00       		.byte	0
 4009 02e2 3A       		.uleb128 0x3a
 4010 02e3 1D       		.uleb128 0x1d
 4011 02e4 01       		.byte	0x1
 4012 02e5 31       		.uleb128 0x31
 4013 02e6 13       		.uleb128 0x13
 4014 02e7 52       		.uleb128 0x52
 4015 02e8 01       		.uleb128 0x1
 4016 02e9 55       		.uleb128 0x55
 4017 02ea 17       		.uleb128 0x17
 4018 02eb 58       		.uleb128 0x58
 4019 02ec 0B       		.uleb128 0xb
 4020 02ed 59       		.uleb128 0x59
 4021 02ee 05       		.uleb128 0x5
 4022 02ef 01       		.uleb128 0x1
 4023 02f0 13       		.uleb128 0x13
 4024 02f1 00       		.byte	0
 4025 02f2 00       		.byte	0
 4026 02f3 3B       		.uleb128 0x3b
 4027 02f4 898201   		.uleb128 0x4109
 4028 02f7 01       		.byte	0x1
ARM GAS  /tmp/ccR4B9nj.s 			page 72


 4029 02f8 11       		.uleb128 0x11
 4030 02f9 01       		.uleb128 0x1
 4031 02fa 9542     		.uleb128 0x2115
 4032 02fc 19       		.uleb128 0x19
 4033 02fd 31       		.uleb128 0x31
 4034 02fe 13       		.uleb128 0x13
 4035 02ff 01       		.uleb128 0x1
 4036 0300 13       		.uleb128 0x13
 4037 0301 00       		.byte	0
 4038 0302 00       		.byte	0
 4039 0303 3C       		.uleb128 0x3c
 4040 0304 898201   		.uleb128 0x4109
 4041 0307 01       		.byte	0x1
 4042 0308 11       		.uleb128 0x11
 4043 0309 01       		.uleb128 0x1
 4044 030a 9542     		.uleb128 0x2115
 4045 030c 19       		.uleb128 0x19
 4046 030d 31       		.uleb128 0x31
 4047 030e 13       		.uleb128 0x13
 4048 030f 00       		.byte	0
 4049 0310 00       		.byte	0
 4050 0311 3D       		.uleb128 0x3d
 4051 0312 34       		.uleb128 0x34
 4052 0313 00       		.byte	0
 4053 0314 03       		.uleb128 0x3
 4054 0315 0E       		.uleb128 0xe
 4055 0316 3A       		.uleb128 0x3a
 4056 0317 0B       		.uleb128 0xb
 4057 0318 3B       		.uleb128 0x3b
 4058 0319 0B       		.uleb128 0xb
 4059 031a 49       		.uleb128 0x49
 4060 031b 13       		.uleb128 0x13
 4061 031c 02       		.uleb128 0x2
 4062 031d 18       		.uleb128 0x18
 4063 031e 00       		.byte	0
 4064 031f 00       		.byte	0
 4065 0320 3E       		.uleb128 0x3e
 4066 0321 34       		.uleb128 0x34
 4067 0322 00       		.byte	0
 4068 0323 03       		.uleb128 0x3
 4069 0324 0E       		.uleb128 0xe
 4070 0325 3A       		.uleb128 0x3a
 4071 0326 0B       		.uleb128 0xb
 4072 0327 3B       		.uleb128 0x3b
 4073 0328 05       		.uleb128 0x5
 4074 0329 49       		.uleb128 0x49
 4075 032a 13       		.uleb128 0x13
 4076 032b 3F       		.uleb128 0x3f
 4077 032c 19       		.uleb128 0x19
 4078 032d 3C       		.uleb128 0x3c
 4079 032e 19       		.uleb128 0x19
 4080 032f 00       		.byte	0
 4081 0330 00       		.byte	0
 4082 0331 3F       		.uleb128 0x3f
 4083 0332 34       		.uleb128 0x34
 4084 0333 00       		.byte	0
 4085 0334 03       		.uleb128 0x3
ARM GAS  /tmp/ccR4B9nj.s 			page 73


 4086 0335 0E       		.uleb128 0xe
 4087 0336 3A       		.uleb128 0x3a
 4088 0337 0B       		.uleb128 0xb
 4089 0338 3B       		.uleb128 0x3b
 4090 0339 0B       		.uleb128 0xb
 4091 033a 49       		.uleb128 0x49
 4092 033b 13       		.uleb128 0x13
 4093 033c 3F       		.uleb128 0x3f
 4094 033d 19       		.uleb128 0x19
 4095 033e 3C       		.uleb128 0x3c
 4096 033f 19       		.uleb128 0x19
 4097 0340 00       		.byte	0
 4098 0341 00       		.byte	0
 4099 0342 40       		.uleb128 0x40
 4100 0343 34       		.uleb128 0x34
 4101 0344 00       		.byte	0
 4102 0345 03       		.uleb128 0x3
 4103 0346 08       		.uleb128 0x8
 4104 0347 3A       		.uleb128 0x3a
 4105 0348 0B       		.uleb128 0xb
 4106 0349 3B       		.uleb128 0x3b
 4107 034a 0B       		.uleb128 0xb
 4108 034b 49       		.uleb128 0x49
 4109 034c 13       		.uleb128 0x13
 4110 034d 3F       		.uleb128 0x3f
 4111 034e 19       		.uleb128 0x19
 4112 034f 02       		.uleb128 0x2
 4113 0350 18       		.uleb128 0x18
 4114 0351 00       		.byte	0
 4115 0352 00       		.byte	0
 4116 0353 41       		.uleb128 0x41
 4117 0354 2E       		.uleb128 0x2e
 4118 0355 01       		.byte	0x1
 4119 0356 3F       		.uleb128 0x3f
 4120 0357 19       		.uleb128 0x19
 4121 0358 03       		.uleb128 0x3
 4122 0359 0E       		.uleb128 0xe
 4123 035a 3A       		.uleb128 0x3a
 4124 035b 0B       		.uleb128 0xb
 4125 035c 3B       		.uleb128 0x3b
 4126 035d 0B       		.uleb128 0xb
 4127 035e 27       		.uleb128 0x27
 4128 035f 19       		.uleb128 0x19
 4129 0360 3C       		.uleb128 0x3c
 4130 0361 19       		.uleb128 0x19
 4131 0362 01       		.uleb128 0x1
 4132 0363 13       		.uleb128 0x13
 4133 0364 00       		.byte	0
 4134 0365 00       		.byte	0
 4135 0366 42       		.uleb128 0x42
 4136 0367 2E       		.uleb128 0x2e
 4137 0368 01       		.byte	0x1
 4138 0369 3F       		.uleb128 0x3f
 4139 036a 19       		.uleb128 0x19
 4140 036b 03       		.uleb128 0x3
 4141 036c 0E       		.uleb128 0xe
 4142 036d 3A       		.uleb128 0x3a
ARM GAS  /tmp/ccR4B9nj.s 			page 74


 4143 036e 0B       		.uleb128 0xb
 4144 036f 3B       		.uleb128 0x3b
 4145 0370 05       		.uleb128 0x5
 4146 0371 27       		.uleb128 0x27
 4147 0372 19       		.uleb128 0x19
 4148 0373 49       		.uleb128 0x49
 4149 0374 13       		.uleb128 0x13
 4150 0375 3C       		.uleb128 0x3c
 4151 0376 19       		.uleb128 0x19
 4152 0377 01       		.uleb128 0x1
 4153 0378 13       		.uleb128 0x13
 4154 0379 00       		.byte	0
 4155 037a 00       		.byte	0
 4156 037b 43       		.uleb128 0x43
 4157 037c 2E       		.uleb128 0x2e
 4158 037d 01       		.byte	0x1
 4159 037e 3F       		.uleb128 0x3f
 4160 037f 19       		.uleb128 0x19
 4161 0380 03       		.uleb128 0x3
 4162 0381 0E       		.uleb128 0xe
 4163 0382 3A       		.uleb128 0x3a
 4164 0383 0B       		.uleb128 0xb
 4165 0384 3B       		.uleb128 0x3b
 4166 0385 05       		.uleb128 0x5
 4167 0386 27       		.uleb128 0x27
 4168 0387 19       		.uleb128 0x19
 4169 0388 3C       		.uleb128 0x3c
 4170 0389 19       		.uleb128 0x19
 4171 038a 01       		.uleb128 0x1
 4172 038b 13       		.uleb128 0x13
 4173 038c 00       		.byte	0
 4174 038d 00       		.byte	0
 4175 038e 44       		.uleb128 0x44
 4176 038f 2E       		.uleb128 0x2e
 4177 0390 00       		.byte	0
 4178 0391 3F       		.uleb128 0x3f
 4179 0392 19       		.uleb128 0x19
 4180 0393 03       		.uleb128 0x3
 4181 0394 0E       		.uleb128 0xe
 4182 0395 3A       		.uleb128 0x3a
 4183 0396 0B       		.uleb128 0xb
 4184 0397 3B       		.uleb128 0x3b
 4185 0398 05       		.uleb128 0x5
 4186 0399 27       		.uleb128 0x27
 4187 039a 19       		.uleb128 0x19
 4188 039b 3C       		.uleb128 0x3c
 4189 039c 19       		.uleb128 0x19
 4190 039d 00       		.byte	0
 4191 039e 00       		.byte	0
 4192 039f 45       		.uleb128 0x45
 4193 03a0 2E       		.uleb128 0x2e
 4194 03a1 00       		.byte	0
 4195 03a2 3F       		.uleb128 0x3f
 4196 03a3 19       		.uleb128 0x19
 4197 03a4 03       		.uleb128 0x3
 4198 03a5 0E       		.uleb128 0xe
 4199 03a6 3A       		.uleb128 0x3a
ARM GAS  /tmp/ccR4B9nj.s 			page 75


 4200 03a7 0B       		.uleb128 0xb
 4201 03a8 3B       		.uleb128 0x3b
 4202 03a9 0B       		.uleb128 0xb
 4203 03aa 27       		.uleb128 0x27
 4204 03ab 19       		.uleb128 0x19
 4205 03ac 3C       		.uleb128 0x3c
 4206 03ad 19       		.uleb128 0x19
 4207 03ae 00       		.byte	0
 4208 03af 00       		.byte	0
 4209 03b0 46       		.uleb128 0x46
 4210 03b1 2E       		.uleb128 0x2e
 4211 03b2 01       		.byte	0x1
 4212 03b3 3F       		.uleb128 0x3f
 4213 03b4 19       		.uleb128 0x19
 4214 03b5 03       		.uleb128 0x3
 4215 03b6 0E       		.uleb128 0xe
 4216 03b7 3A       		.uleb128 0x3a
 4217 03b8 0B       		.uleb128 0xb
 4218 03b9 3B       		.uleb128 0x3b
 4219 03ba 05       		.uleb128 0x5
 4220 03bb 27       		.uleb128 0x27
 4221 03bc 19       		.uleb128 0x19
 4222 03bd 3C       		.uleb128 0x3c
 4223 03be 19       		.uleb128 0x19
 4224 03bf 00       		.byte	0
 4225 03c0 00       		.byte	0
 4226 03c1 00       		.byte	0
 4227              		.section	.debug_loc,"",%progbits
 4228              	.Ldebug_loc0:
 4229              	.LLST0:
 4230 0000 00000000 		.4byte	.LVL2
 4231 0004 0C000000 		.4byte	.LVL5
 4232 0008 0100     		.2byte	0x1
 4233 000a 50       		.byte	0x50
 4234 000b 0C000000 		.4byte	.LVL5
 4235 000f 5A000000 		.4byte	.LVL15
 4236 0013 0100     		.2byte	0x1
 4237 0015 56       		.byte	0x56
 4238 0016 5A000000 		.4byte	.LVL15
 4239 001a 67000000 		.4byte	.LVL16-1
 4240 001e 0100     		.2byte	0x1
 4241 0020 50       		.byte	0x50
 4242 0021 67000000 		.4byte	.LVL16-1
 4243 0025 A4000000 		.4byte	.LFE39
 4244 0029 0100     		.2byte	0x1
 4245 002b 56       		.byte	0x56
 4246 002c 00000000 		.4byte	0
 4247 0030 00000000 		.4byte	0
 4248              	.LLST1:
 4249 0034 08000000 		.4byte	.LVL4
 4250 0038 16000000 		.4byte	.LVL6
 4251 003c 0100     		.2byte	0x1
 4252 003e 54       		.byte	0x54
 4253 003f 16000000 		.4byte	.LVL6
 4254 0043 1A000000 		.4byte	.LVL7
 4255 0047 0600     		.2byte	0x6
 4256 0049 74       		.byte	0x74
ARM GAS  /tmp/ccR4B9nj.s 			page 76


 4257 004a 00       		.sleb128 0
 4258 004b 08       		.byte	0x8
 4259 004c E0       		.byte	0xe0
 4260 004d 1A       		.byte	0x1a
 4261 004e 9F       		.byte	0x9f
 4262 004f 1A000000 		.4byte	.LVL7
 4263 0053 1E000000 		.4byte	.LVL8
 4264 0057 0100     		.2byte	0x1
 4265 0059 54       		.byte	0x54
 4266 005a 5A000000 		.4byte	.LVL15
 4267 005e A4000000 		.4byte	.LFE39
 4268 0062 0100     		.2byte	0x1
 4269 0064 54       		.byte	0x54
 4270 0065 00000000 		.4byte	0
 4271 0069 00000000 		.4byte	0
 4272              	.LLST2:
 4273 006d 1E000000 		.4byte	.LVL8
 4274 0071 58000000 		.4byte	.LVL14
 4275 0075 0100     		.2byte	0x1
 4276 0077 54       		.byte	0x54
 4277 0078 00000000 		.4byte	0
 4278 007c 00000000 		.4byte	0
 4279              	.LLST3:
 4280 0080 1E000000 		.4byte	.LVL8
 4281 0084 58000000 		.4byte	.LVL14
 4282 0088 0100     		.2byte	0x1
 4283 008a 56       		.byte	0x56
 4284 008b 00000000 		.4byte	0
 4285 008f 00000000 		.4byte	0
 4286              	.LLST4:
 4287 0093 1E000000 		.4byte	.LVL8
 4288 0097 28000000 		.4byte	.LVL9
 4289 009b 0200     		.2byte	0x2
 4290 009d 30       		.byte	0x30
 4291 009e 9F       		.byte	0x9f
 4292 009f 28000000 		.4byte	.LVL9
 4293 00a3 44000000 		.4byte	.LVL12
 4294 00a7 0100     		.2byte	0x1
 4295 00a9 52       		.byte	0x52
 4296 00aa 4B000000 		.4byte	.LVL13-1
 4297 00ae 58000000 		.4byte	.LVL14
 4298 00b2 6F00     		.2byte	0x6f
 4299 00b4 08       		.byte	0x8
 4300 00b5 80       		.byte	0x80
 4301 00b6 30       		.byte	0x30
 4302 00b7 74       		.byte	0x74
 4303 00b8 00       		.sleb128 0
 4304 00b9 09       		.byte	0x9
 4305 00ba FE       		.byte	0xfe
 4306 00bb 24       		.byte	0x24
 4307 00bc 33       		.byte	0x33
 4308 00bd 25       		.byte	0x25
 4309 00be 30       		.byte	0x30
 4310 00bf 2E       		.byte	0x2e
 4311 00c0 28       		.byte	0x28
 4312 00c1 0100     		.2byte	0x1
 4313 00c3 16       		.byte	0x16
ARM GAS  /tmp/ccR4B9nj.s 			page 77


 4314 00c4 13       		.byte	0x13
 4315 00c5 08       		.byte	0x8
 4316 00c6 20       		.byte	0x20
 4317 00c7 21       		.byte	0x21
 4318 00c8 08       		.byte	0x8
 4319 00c9 80       		.byte	0x80
 4320 00ca 30       		.byte	0x30
 4321 00cb 74       		.byte	0x74
 4322 00cc 00       		.sleb128 0
 4323 00cd 09       		.byte	0x9
 4324 00ce FE       		.byte	0xfe
 4325 00cf 24       		.byte	0x24
 4326 00d0 33       		.byte	0x33
 4327 00d1 25       		.byte	0x25
 4328 00d2 30       		.byte	0x30
 4329 00d3 2E       		.byte	0x2e
 4330 00d4 28       		.byte	0x28
 4331 00d5 0100     		.2byte	0x1
 4332 00d7 16       		.byte	0x16
 4333 00d8 13       		.byte	0x13
 4334 00d9 74       		.byte	0x74
 4335 00da 00       		.sleb128 0
 4336 00db 48       		.byte	0x48
 4337 00dc 24       		.byte	0x24
 4338 00dd 30       		.byte	0x30
 4339 00de 2D       		.byte	0x2d
 4340 00df 28       		.byte	0x28
 4341 00e0 0100     		.2byte	0x1
 4342 00e2 16       		.byte	0x16
 4343 00e3 13       		.byte	0x13
 4344 00e4 08       		.byte	0x8
 4345 00e5 40       		.byte	0x40
 4346 00e6 21       		.byte	0x21
 4347 00e7 08       		.byte	0x8
 4348 00e8 80       		.byte	0x80
 4349 00e9 30       		.byte	0x30
 4350 00ea 74       		.byte	0x74
 4351 00eb 00       		.sleb128 0
 4352 00ec 09       		.byte	0x9
 4353 00ed FE       		.byte	0xfe
 4354 00ee 24       		.byte	0x24
 4355 00ef 33       		.byte	0x33
 4356 00f0 25       		.byte	0x25
 4357 00f1 30       		.byte	0x30
 4358 00f2 2E       		.byte	0x2e
 4359 00f3 28       		.byte	0x28
 4360 00f4 0100     		.2byte	0x1
 4361 00f6 16       		.byte	0x16
 4362 00f7 13       		.byte	0x13
 4363 00f8 08       		.byte	0x8
 4364 00f9 20       		.byte	0x20
 4365 00fa 21       		.byte	0x21
 4366 00fb 08       		.byte	0x8
 4367 00fc 80       		.byte	0x80
 4368 00fd 30       		.byte	0x30
 4369 00fe 74       		.byte	0x74
 4370 00ff 00       		.sleb128 0
ARM GAS  /tmp/ccR4B9nj.s 			page 78


 4371 0100 09       		.byte	0x9
 4372 0101 FE       		.byte	0xfe
 4373 0102 24       		.byte	0x24
 4374 0103 33       		.byte	0x33
 4375 0104 25       		.byte	0x25
 4376 0105 30       		.byte	0x30
 4377 0106 2E       		.byte	0x2e
 4378 0107 28       		.byte	0x28
 4379 0108 0100     		.2byte	0x1
 4380 010a 16       		.byte	0x16
 4381 010b 13       		.byte	0x13
 4382 010c 74       		.byte	0x74
 4383 010d 00       		.sleb128 0
 4384 010e 48       		.byte	0x48
 4385 010f 24       		.byte	0x24
 4386 0110 30       		.byte	0x30
 4387 0111 2D       		.byte	0x2d
 4388 0112 28       		.byte	0x28
 4389 0113 0100     		.2byte	0x1
 4390 0115 16       		.byte	0x16
 4391 0116 13       		.byte	0x13
 4392 0117 74       		.byte	0x74
 4393 0118 00       		.sleb128 0
 4394 0119 49       		.byte	0x49
 4395 011a 24       		.byte	0x24
 4396 011b 30       		.byte	0x30
 4397 011c 2D       		.byte	0x2d
 4398 011d 28       		.byte	0x28
 4399 011e 0100     		.2byte	0x1
 4400 0120 16       		.byte	0x16
 4401 0121 13       		.byte	0x13
 4402 0122 9F       		.byte	0x9f
 4403 0123 00000000 		.4byte	0
 4404 0127 00000000 		.4byte	0
 4405              	.LLST5:
 4406 012b 7E000000 		.4byte	.LVL17
 4407 012f 86000000 		.4byte	.LVL18
 4408 0133 0100     		.2byte	0x1
 4409 0135 50       		.byte	0x50
 4410 0136 8E000000 		.4byte	.LVL19
 4411 013a 92000000 		.4byte	.LVL20
 4412 013e 0100     		.2byte	0x1
 4413 0140 50       		.byte	0x50
 4414 0141 00000000 		.4byte	0
 4415 0145 00000000 		.4byte	0
 4416              	.LLST6:
 4417 0149 00000000 		.4byte	.LVL28
 4418 014d 1A000000 		.4byte	.LVL30
 4419 0151 0100     		.2byte	0x1
 4420 0153 50       		.byte	0x50
 4421 0154 1A000000 		.4byte	.LVL30
 4422 0158 1C000000 		.4byte	.LVL31
 4423 015c 0100     		.2byte	0x1
 4424 015e 54       		.byte	0x54
 4425 015f 1C000000 		.4byte	.LVL31
 4426 0163 4E000000 		.4byte	.LVL36
 4427 0167 0400     		.2byte	0x4
ARM GAS  /tmp/ccR4B9nj.s 			page 79


 4428 0169 F3       		.byte	0xf3
 4429 016a 01       		.uleb128 0x1
 4430 016b 50       		.byte	0x50
 4431 016c 9F       		.byte	0x9f
 4432 016d 4E000000 		.4byte	.LVL36
 4433 0171 88000000 		.4byte	.LVL37
 4434 0175 0100     		.2byte	0x1
 4435 0177 50       		.byte	0x50
 4436 0178 88000000 		.4byte	.LVL37
 4437 017c 96000000 		.4byte	.LVL39
 4438 0180 0100     		.2byte	0x1
 4439 0182 54       		.byte	0x54
 4440 0183 96000000 		.4byte	.LVL39
 4441 0187 B6000000 		.4byte	.LVL40
 4442 018b 0100     		.2byte	0x1
 4443 018d 50       		.byte	0x50
 4444 018e B6000000 		.4byte	.LVL40
 4445 0192 C4000000 		.4byte	.LFE45
 4446 0196 0100     		.2byte	0x1
 4447 0198 54       		.byte	0x54
 4448 0199 00000000 		.4byte	0
 4449 019d 00000000 		.4byte	0
 4450              	.LLST7:
 4451 01a1 00000000 		.4byte	.LVL28
 4452 01a5 14000000 		.4byte	.LVL29
 4453 01a9 0100     		.2byte	0x1
 4454 01ab 51       		.byte	0x51
 4455 01ac 14000000 		.4byte	.LVL29
 4456 01b0 3C000000 		.4byte	.LVL34
 4457 01b4 0100     		.2byte	0x1
 4458 01b6 55       		.byte	0x55
 4459 01b7 3C000000 		.4byte	.LVL34
 4460 01bb 4E000000 		.4byte	.LVL36
 4461 01bf 1300     		.2byte	0x13
 4462 01c1 F3       		.byte	0xf3
 4463 01c2 01       		.uleb128 0x1
 4464 01c3 51       		.byte	0x51
 4465 01c4 03       		.byte	0x3
 4466 01c5 00000000 		.4byte	.LANCHOR2
 4467 01c9 F3       		.byte	0xf3
 4468 01ca 01       		.uleb128 0x1
 4469 01cb 51       		.byte	0x51
 4470 01cc 30       		.byte	0x30
 4471 01cd 2E       		.byte	0x2e
 4472 01ce 28       		.byte	0x28
 4473 01cf 0100     		.2byte	0x1
 4474 01d1 16       		.byte	0x16
 4475 01d2 13       		.byte	0x13
 4476 01d3 9F       		.byte	0x9f
 4477 01d4 4E000000 		.4byte	.LVL36
 4478 01d8 C4000000 		.4byte	.LFE45
 4479 01dc 0100     		.2byte	0x1
 4480 01de 55       		.byte	0x55
 4481 01df 00000000 		.4byte	0
 4482 01e3 00000000 		.4byte	0
 4483              	.LLST8:
 4484 01e7 1C000000 		.4byte	.LVL31
ARM GAS  /tmp/ccR4B9nj.s 			page 80


 4485 01eb 4E000000 		.4byte	.LVL36
 4486 01ef 0400     		.2byte	0x4
 4487 01f1 F3       		.byte	0xf3
 4488 01f2 01       		.uleb128 0x1
 4489 01f3 50       		.byte	0x50
 4490 01f4 9F       		.byte	0x9f
 4491 01f5 00000000 		.4byte	0
 4492 01f9 00000000 		.4byte	0
 4493              	.LLST9:
 4494 01fd 1C000000 		.4byte	.LVL31
 4495 0201 3C000000 		.4byte	.LVL34
 4496 0205 0100     		.2byte	0x1
 4497 0207 55       		.byte	0x55
 4498 0208 3C000000 		.4byte	.LVL34
 4499 020c 4E000000 		.4byte	.LVL36
 4500 0210 1300     		.2byte	0x13
 4501 0212 F3       		.byte	0xf3
 4502 0213 01       		.uleb128 0x1
 4503 0214 51       		.byte	0x51
 4504 0215 03       		.byte	0x3
 4505 0216 00000000 		.4byte	.LANCHOR2
 4506 021a F3       		.byte	0xf3
 4507 021b 01       		.uleb128 0x1
 4508 021c 51       		.byte	0x51
 4509 021d 30       		.byte	0x30
 4510 021e 2E       		.byte	0x2e
 4511 021f 28       		.byte	0x28
 4512 0220 0100     		.2byte	0x1
 4513 0222 16       		.byte	0x16
 4514 0223 13       		.byte	0x13
 4515 0224 9F       		.byte	0x9f
 4516 0225 00000000 		.4byte	0
 4517 0229 00000000 		.4byte	0
 4518              	.LLST10:
 4519 022d 1C000000 		.4byte	.LVL31
 4520 0231 4E000000 		.4byte	.LVL36
 4521 0235 0100     		.2byte	0x1
 4522 0237 54       		.byte	0x54
 4523 0238 00000000 		.4byte	0
 4524 023c 00000000 		.4byte	0
 4525              	.LLST11:
 4526 0240 2C000000 		.4byte	.LVL33
 4527 0244 40000000 		.4byte	.LVL35
 4528 0248 0100     		.2byte	0x1
 4529 024a 53       		.byte	0x53
 4530 024b 00000000 		.4byte	0
 4531 024f 00000000 		.4byte	0
 4532              	.LLST12:
 4533 0253 00000000 		.4byte	.LVL42
 4534 0257 5E000000 		.4byte	.LVL46
 4535 025b 0100     		.2byte	0x1
 4536 025d 50       		.byte	0x50
 4537 025e 5E000000 		.4byte	.LVL46
 4538 0262 6A000000 		.4byte	.LVL47
 4539 0266 0400     		.2byte	0x4
 4540 0268 F3       		.byte	0xf3
 4541 0269 01       		.uleb128 0x1
ARM GAS  /tmp/ccR4B9nj.s 			page 81


 4542 026a 50       		.byte	0x50
 4543 026b 9F       		.byte	0x9f
 4544 026c 6A000000 		.4byte	.LVL47
 4545 0270 8C000000 		.4byte	.LVL49
 4546 0274 0100     		.2byte	0x1
 4547 0276 50       		.byte	0x50
 4548 0277 8C000000 		.4byte	.LVL49
 4549 027b 98000000 		.4byte	.LFE46
 4550 027f 0400     		.2byte	0x4
 4551 0281 F3       		.byte	0xf3
 4552 0282 01       		.uleb128 0x1
 4553 0283 50       		.byte	0x50
 4554 0284 9F       		.byte	0x9f
 4555 0285 00000000 		.4byte	0
 4556 0289 00000000 		.4byte	0
 4557              	.LLST13:
 4558 028d 12000000 		.4byte	.LVL43
 4559 0291 40000000 		.4byte	.LVL45
 4560 0295 0100     		.2byte	0x1
 4561 0297 53       		.byte	0x53
 4562 0298 40000000 		.4byte	.LVL45
 4563 029c 5E000000 		.4byte	.LVL46
 4564 02a0 0300     		.2byte	0x3
 4565 02a2 70       		.byte	0x70
 4566 02a3 F000     		.sleb128 112
 4567 02a5 5E000000 		.4byte	.LVL46
 4568 02a9 69000000 		.4byte	.LVL47-1
 4569 02ad 0500     		.2byte	0x5
 4570 02af F3       		.byte	0xf3
 4571 02b0 01       		.uleb128 0x1
 4572 02b1 50       		.byte	0x50
 4573 02b2 23       		.byte	0x23
 4574 02b3 70       		.uleb128 0x70
 4575 02b4 6A000000 		.4byte	.LVL47
 4576 02b8 6E000000 		.4byte	.LVL48
 4577 02bc 0100     		.2byte	0x1
 4578 02be 53       		.byte	0x53
 4579 02bf 6E000000 		.4byte	.LVL48
 4580 02c3 8C000000 		.4byte	.LVL49
 4581 02c7 0300     		.2byte	0x3
 4582 02c9 70       		.byte	0x70
 4583 02ca F000     		.sleb128 112
 4584 02cc 8C000000 		.4byte	.LVL49
 4585 02d0 97000000 		.4byte	.LVL50-1
 4586 02d4 0500     		.2byte	0x5
 4587 02d6 F3       		.byte	0xf3
 4588 02d7 01       		.uleb128 0x1
 4589 02d8 50       		.byte	0x50
 4590 02d9 23       		.byte	0x23
 4591 02da 70       		.uleb128 0x70
 4592 02db 00000000 		.4byte	0
 4593 02df 00000000 		.4byte	0
 4594              	.LLST14:
 4595 02e3 2A000000 		.4byte	.LVL44
 4596 02e7 40000000 		.4byte	.LVL45
 4597 02eb 0100     		.2byte	0x1
 4598 02ed 53       		.byte	0x53
ARM GAS  /tmp/ccR4B9nj.s 			page 82


 4599 02ee 40000000 		.4byte	.LVL45
 4600 02f2 5E000000 		.4byte	.LVL46
 4601 02f6 0300     		.2byte	0x3
 4602 02f8 70       		.byte	0x70
 4603 02f9 F000     		.sleb128 112
 4604 02fb 5E000000 		.4byte	.LVL46
 4605 02ff 69000000 		.4byte	.LVL47-1
 4606 0303 0500     		.2byte	0x5
 4607 0305 F3       		.byte	0xf3
 4608 0306 01       		.uleb128 0x1
 4609 0307 50       		.byte	0x50
 4610 0308 23       		.byte	0x23
 4611 0309 70       		.uleb128 0x70
 4612 030a 00000000 		.4byte	0
 4613 030e 00000000 		.4byte	0
 4614              		.section	.debug_aranges,"",%progbits
 4615 0000 54000000 		.4byte	0x54
 4616 0004 0200     		.2byte	0x2
 4617 0006 00000000 		.4byte	.Ldebug_info0
 4618 000a 04       		.byte	0x4
 4619 000b 00       		.byte	0
 4620 000c 0000     		.2byte	0
 4621 000e 0000     		.2byte	0
 4622 0010 00000000 		.4byte	.LFB40
 4623 0014 0E000000 		.4byte	.LFE40-.LFB40
 4624 0018 00000000 		.4byte	.LFB41
 4625 001c 0E000000 		.4byte	.LFE41-.LFB41
 4626 0020 00000000 		.4byte	.LFB39
 4627 0024 A4000000 		.4byte	.LFE39-.LFB39
 4628 0028 00000000 		.4byte	.LFB42
 4629 002c 16000000 		.4byte	.LFE42-.LFB42
 4630 0030 00000000 		.4byte	.LFB43
 4631 0034 16000000 		.4byte	.LFE43-.LFB43
 4632 0038 00000000 		.4byte	.LFB44
 4633 003c 66000000 		.4byte	.LFE44-.LFB44
 4634 0040 00000000 		.4byte	.LFB45
 4635 0044 C4000000 		.4byte	.LFE45-.LFB45
 4636 0048 00000000 		.4byte	.LFB46
 4637 004c 98000000 		.4byte	.LFE46-.LFB46
 4638 0050 00000000 		.4byte	0
 4639 0054 00000000 		.4byte	0
 4640              		.section	.debug_ranges,"",%progbits
 4641              	.Ldebug_ranges0:
 4642 0000 16000000 		.4byte	.LBB28
 4643 0004 20000000 		.4byte	.LBE28
 4644 0008 22000000 		.4byte	.LBB31
 4645 000c 28000000 		.4byte	.LBE31
 4646 0010 00000000 		.4byte	0
 4647 0014 00000000 		.4byte	0
 4648 0018 00000000 		.4byte	.LFB40
 4649 001c 0E000000 		.4byte	.LFE40
 4650 0020 00000000 		.4byte	.LFB41
 4651 0024 0E000000 		.4byte	.LFE41
 4652 0028 00000000 		.4byte	.LFB39
 4653 002c A4000000 		.4byte	.LFE39
 4654 0030 00000000 		.4byte	.LFB42
 4655 0034 16000000 		.4byte	.LFE42
ARM GAS  /tmp/ccR4B9nj.s 			page 83


 4656 0038 00000000 		.4byte	.LFB43
 4657 003c 16000000 		.4byte	.LFE43
 4658 0040 00000000 		.4byte	.LFB44
 4659 0044 66000000 		.4byte	.LFE44
 4660 0048 00000000 		.4byte	.LFB45
 4661 004c C4000000 		.4byte	.LFE45
 4662 0050 00000000 		.4byte	.LFB46
 4663 0054 98000000 		.4byte	.LFE46
 4664 0058 00000000 		.4byte	0
 4665 005c 00000000 		.4byte	0
 4666              		.section	.debug_line,"",%progbits
 4667              	.Ldebug_line0:
 4668 0000 CD030000 		.section	.debug_str,"MS",%progbits,1
 4668      02007502 
 4668      00000201 
 4668      FB0E0D00 
 4668      01010101 
 4669              	.LASF150:
 4670 0000 50494F5F 		.ascii	"PIO_IFSCSR\000"
 4670      49465343 
 4670      535200
 4671              	.LASF205:
 4672 000b 504D435F 		.ascii	"PMC_USB\000"
 4672      55534200 
 4673              	.LASF108:
 4674 0013 5443325F 		.ascii	"TC2_IRQn\000"
 4674      4952516E 
 4674      00
 4675              	.LASF212:
 4676 001c 504D435F 		.ascii	"PMC_FSPR\000"
 4676      46535052 
 4676      00
 4677              	.LASF2:
 4678 0025 73697A65 		.ascii	"size_t\000"
 4678      5F7400
 4679              	.LASF47:
 4680 002c 73697A65 		.ascii	"sizetype\000"
 4680      74797065 
 4680      00
 4681              	.LASF265:
 4682 0035 75617274 		.ascii	"uart_deinit\000"
 4682      5F646569 
 4682      6E697400 
 4683              	.LASF22:
 4684 0041 73797374 		.ascii	"systime_t\000"
 4684      696D655F 
 4684      7400
 4685              	.LASF27:
 4686 004b 705F6374 		.ascii	"p_ctx\000"
 4686      7800
 4687              	.LASF19:
 4688 0051 74707269 		.ascii	"tprio_t\000"
 4688      6F5F7400 
 4689              	.LASF203:
 4690 0059 434B4752 		.ascii	"CKGR_PLLBR\000"
 4690      5F504C4C 
 4690      425200
ARM GAS  /tmp/ccR4B9nj.s 			page 84


 4691              	.LASF36:
 4692 0064 705F6D73 		.ascii	"p_msgqueue\000"
 4692      67717565 
 4692      756500
 4693              	.LASF8:
 4694 006f 696E7433 		.ascii	"int32_t\000"
 4694      325F7400 
 4695              	.LASF253:
 4696 0077 53657269 		.ascii	"SerialConfig\000"
 4696      616C436F 
 4696      6E666967 
 4696      00
 4697              	.LASF259:
 4698 0084 77726974 		.ascii	"writet\000"
 4698      657400
 4699              	.LASF162:
 4700 008b 50494F5F 		.ascii	"PIO_AIMMR\000"
 4700      41494D4D 
 4700      5200
 4701              	.LASF223:
 4702 0095 55415254 		.ascii	"UART_IDR\000"
 4702      5F494452 
 4702      00
 4703              	.LASF76:
 4704 009e 576F5265 		.ascii	"WoReg\000"
 4704      6700
 4705              	.LASF173:
 4706 00a4 50494F5F 		.ascii	"PIO_WPMR\000"
 4706      57504D52 
 4706      00
 4707              	.LASF255:
 4708 00ad 77726974 		.ascii	"write\000"
 4708      6500
 4709              	.LASF252:
 4710 00b3 73635F6D 		.ascii	"sc_mr\000"
 4710      7200
 4711              	.LASF286:
 4712 00b9 2F686F6D 		.ascii	"/home/santi/Documentos/ProyectoDron_2018/MCU/creato"
 4712      652F7361 
 4712      6E74692F 
 4712      446F6375 
 4712      6D656E74 
 4713 00ec 7200     		.ascii	"r\000"
 4714              	.LASF262:
 4715 00ee 636F6E66 		.ascii	"config\000"
 4715      696700
 4716              	.LASF225:
 4717 00f5 55415254 		.ascii	"UART_SR\000"
 4717      5F535200 
 4718              	.LASF182:
 4719 00fd 50494F5F 		.ascii	"PIO_PCISR\000"
 4719      50434953 
 4719      5200
 4720              	.LASF222:
 4721 0107 55415254 		.ascii	"UART_IER\000"
 4721      5F494552 
 4721      00
ARM GAS  /tmp/ccR4B9nj.s 			page 85


 4722              	.LASF155:
 4723 0110 52657365 		.ascii	"Reserved7\000"
 4723      72766564 
 4723      3700
 4724              	.LASF159:
 4725 011a 52657365 		.ascii	"Reserved8\000"
 4725      72766564 
 4725      3800
 4726              	.LASF215:
 4727 0124 504D435F 		.ascii	"PMC_WPSR\000"
 4727      57505352 
 4727      00
 4728              	.LASF87:
 4729 012d 52535443 		.ascii	"RSTC_IRQn\000"
 4729      5F495251 
 4729      6E00
 4730              	.LASF269:
 4731 0137 73657276 		.ascii	"serve_interrupt\000"
 4731      655F696E 
 4731      74657272 
 4731      75707400 
 4732              	.LASF201:
 4733 0147 434B4752 		.ascii	"CKGR_MCFR\000"
 4733      5F4D4346 
 4733      5200
 4734              	.LASF186:
 4735 0151 50494F5F 		.ascii	"PIO_TPR\000"
 4735      54505200 
 4736              	.LASF237:
 4737 0159 55415254 		.ascii	"UART_PTCR\000"
 4737      5F505443 
 4737      5200
 4738              	.LASF268:
 4739 0163 7365745F 		.ascii	"set_error\000"
 4739      6572726F 
 4739      7200
 4740              	.LASF50:
 4741 016d 6D5F6F77 		.ascii	"m_owner\000"
 4741      6E657200 
 4742              	.LASF59:
 4743 0175 65786974 		.ascii	"exitcode\000"
 4743      636F6465 
 4743      00
 4744              	.LASF67:
 4745 017e 715F746F 		.ascii	"q_top\000"
 4745      7000
 4746              	.LASF157:
 4747 0184 50494F5F 		.ascii	"PIO_OWDR\000"
 4747      4F574452 
 4747      00
 4748              	.LASF260:
 4749 018d 72656164 		.ascii	"readt\000"
 4749      7400
 4750              	.LASF273:
 4751 0193 73645F6C 		.ascii	"sd_lld_start\000"
 4751      6C645F73 
 4751      74617274 
ARM GAS  /tmp/ccR4B9nj.s 			page 86


 4751      00
 4752              	.LASF66:
 4753 01a0 715F6275 		.ascii	"q_buffer\000"
 4753      66666572 
 4753      00
 4754              	.LASF208:
 4755 01a9 504D435F 		.ascii	"PMC_IDR\000"
 4755      49445200 
 4756              	.LASF70:
 4757 01b1 715F6E6F 		.ascii	"q_notify\000"
 4757      74696679 
 4757      00
 4758              	.LASF280:
 4759 01ba 73644F62 		.ascii	"sdObjectInit\000"
 4759      6A656374 
 4759      496E6974 
 4759      00
 4760              	.LASF152:
 4761 01c7 50494F5F 		.ascii	"PIO_PPDDR\000"
 4761      50504444 
 4761      5200
 4762              	.LASF28:
 4763 01d1 705F6E65 		.ascii	"p_newer\000"
 4763      77657200 
 4764              	.LASF9:
 4765 01d9 6C6F6E67 		.ascii	"long int\000"
 4765      20696E74 
 4765      00
 4766              	.LASF24:
 4767 01e2 705F6E65 		.ascii	"p_next\000"
 4767      787400
 4768              	.LASF69:
 4769 01e9 715F7264 		.ascii	"q_rdptr\000"
 4769      70747200 
 4770              	.LASF204:
 4771 01f1 504D435F 		.ascii	"PMC_MCKR\000"
 4771      4D434B52 
 4771      00
 4772              	.LASF25:
 4773 01fa 705F7072 		.ascii	"p_prev\000"
 4773      657600
 4774              	.LASF275:
 4775 0201 64656661 		.ascii	"default_config\000"
 4775      756C745F 
 4775      636F6E66 
 4775      696700
 4776              	.LASF264:
 4777 0210 75617274 		.ascii	"uart_init\000"
 4777      5F696E69 
 4777      7400
 4778              	.LASF156:
 4779 021a 50494F5F 		.ascii	"PIO_OWER\000"
 4779      4F574552 
 4779      00
 4780              	.LASF128:
 4781 0223 50494F5F 		.ascii	"PIO_IFSR\000"
 4781      49465352 
ARM GAS  /tmp/ccR4B9nj.s 			page 87


 4781      00
 4782              	.LASF146:
 4783 022c 50494F5F 		.ascii	"PIO_ABCDSR\000"
 4783      41424344 
 4783      535200
 4784              	.LASF17:
 4785 0237 74737461 		.ascii	"tstate_t\000"
 4785      74655F74 
 4785      00
 4786              	.LASF197:
 4787 0240 504D435F 		.ascii	"PMC_PCER0\000"
 4787      50434552 
 4787      3000
 4788              	.LASF216:
 4789 024a 504D435F 		.ascii	"PMC_PCER1\000"
 4789      50434552 
 4789      3100
 4790              	.LASF39:
 4791 0254 705F6D74 		.ascii	"p_mtxlist\000"
 4791      786C6973 
 4791      7400
 4792              	.LASF249:
 4793 025e 6F717565 		.ascii	"oqueue\000"
 4793      756500
 4794              	.LASF44:
 4795 0265 72656761 		.ascii	"regarm_t\000"
 4795      726D5F74 
 4795      00
 4796              	.LASF153:
 4797 026e 50494F5F 		.ascii	"PIO_PPDER\000"
 4797      50504445 
 4797      5200
 4798              	.LASF164:
 4799 0278 50494F5F 		.ascii	"PIO_ESR\000"
 4799      45535200 
 4800              	.LASF111:
 4801 0280 5443355F 		.ascii	"TC5_IRQn\000"
 4801      4952516E 
 4801      00
 4802              	.LASF200:
 4803 0289 434B4752 		.ascii	"CKGR_MOR\000"
 4803      5F4D4F52 
 4803      00
 4804              	.LASF283:
 4805 0292 6E766963 		.ascii	"nvicEnableVector\000"
 4805      456E6162 
 4805      6C655665 
 4805      63746F72 
 4805      00
 4806              	.LASF124:
 4807 02a3 50494F5F 		.ascii	"PIO_OSR\000"
 4807      4F535200 
 4808              	.LASF85:
 4809 02ab 53797354 		.ascii	"SysTick_IRQn\000"
 4809      69636B5F 
 4809      4952516E 
 4809      00
ARM GAS  /tmp/ccR4B9nj.s 			page 88


 4810              	.LASF1:
 4811 02b8 7369676E 		.ascii	"signed char\000"
 4811      65642063 
 4811      68617200 
 4812              	.LASF61:
 4813 02c4 65776D61 		.ascii	"ewmask\000"
 4813      736B00
 4814              	.LASF3:
 4815 02cb 75696E74 		.ascii	"uint8_t\000"
 4815      385F7400 
 4816              	.LASF21:
 4817 02d3 6576656E 		.ascii	"eventmask_t\000"
 4817      746D6173 
 4817      6B5F7400 
 4818              	.LASF46:
 4819 02df 636F6E74 		.ascii	"context\000"
 4819      65787400 
 4820              	.LASF188:
 4821 02e7 50494F5F 		.ascii	"PIO_RNPR\000"
 4821      524E5052 
 4821      00
 4822              	.LASF4:
 4823 02f0 756E7369 		.ascii	"unsigned char\000"
 4823      676E6564 
 4823      20636861 
 4823      7200
 4824              	.LASF142:
 4825 02fe 50494F5F 		.ascii	"PIO_PUDR\000"
 4825      50554452 
 4825      00
 4826              	.LASF232:
 4827 0307 55415254 		.ascii	"UART_TCR\000"
 4827      5F544352 
 4827      00
 4828              	.LASF190:
 4829 0310 50494F5F 		.ascii	"PIO_TNPR\000"
 4829      544E5052 
 4829      00
 4830              	.LASF240:
 4831 0319 53445F55 		.ascii	"SD_UNINIT\000"
 4831      4E494E49 
 4831      5400
 4832              	.LASF174:
 4833 0323 50494F5F 		.ascii	"PIO_WPSR\000"
 4833      57505352 
 4833      00
 4834              	.LASF229:
 4835 032c 55415254 		.ascii	"UART_RPR\000"
 4835      5F525052 
 4835      00
 4836              	.LASF220:
 4837 0335 55415254 		.ascii	"UART_CR\000"
 4837      5F435200 
 4838              	.LASF81:
 4839 033d 55736167 		.ascii	"UsageFault_IRQn\000"
 4839      65466175 
 4839      6C745F49 
ARM GAS  /tmp/ccR4B9nj.s 			page 89


 4839      52516E00 
 4840              	.LASF62:
 4841 034d 63686172 		.ascii	"char\000"
 4841      00
 4842              	.LASF185:
 4843 0352 50494F5F 		.ascii	"PIO_RCR\000"
 4843      52435200 
 4844              	.LASF95:
 4845 035a 534D435F 		.ascii	"SMC_IRQn\000"
 4845      4952516E 
 4845      00
 4846              	.LASF167:
 4847 0363 52657365 		.ascii	"Reserved10\000"
 4847      72766564 
 4847      313000
 4848              	.LASF171:
 4849 036e 52657365 		.ascii	"Reserved11\000"
 4849      72766564 
 4849      313100
 4850              	.LASF175:
 4851 0379 52657365 		.ascii	"Reserved12\000"
 4851      72766564 
 4851      313200
 4852              	.LASF177:
 4853 0384 52657365 		.ascii	"Reserved13\000"
 4853      72766564 
 4853      313300
 4854              	.LASF26:
 4855 038f 705F7072 		.ascii	"p_prio\000"
 4855      696F00
 4856              	.LASF63:
 4857 0396 47656E65 		.ascii	"GenericQueue\000"
 4857      72696351 
 4857      75657565 
 4857      00
 4858              	.LASF139:
 4859 03a3 50494F5F 		.ascii	"PIO_MDDR\000"
 4859      4D444452 
 4859      00
 4860              	.LASF60:
 4861 03ac 77746F62 		.ascii	"wtobjp\000"
 4861      6A7000
 4862              	.LASF133:
 4863 03b3 50494F5F 		.ascii	"PIO_PDSR\000"
 4863      50445352 
 4863      00
 4864              	.LASF246:
 4865 03bc 666C6167 		.ascii	"flags\000"
 4865      7300
 4866              	.LASF172:
 4867 03c2 50494F5F 		.ascii	"PIO_LOCKSR\000"
 4867      4C4F434B 
 4867      535200
 4868              	.LASF73:
 4869 03cd 4F757470 		.ascii	"OutputQueue\000"
 4869      75745175 
 4869      65756500 
ARM GAS  /tmp/ccR4B9nj.s 			page 90


 4870              	.LASF168:
 4871 03d9 50494F5F 		.ascii	"PIO_FELLSR\000"
 4871      46454C4C 
 4871      535200
 4872              	.LASF219:
 4873 03e4 504D435F 		.ascii	"PMC_OCR\000"
 4873      4F435200 
 4874              	.LASF114:
 4875 03ec 50574D5F 		.ascii	"PWM_IRQn\000"
 4875      4952516E 
 4875      00
 4876              	.LASF138:
 4877 03f5 50494F5F 		.ascii	"PIO_MDER\000"
 4877      4D444552 
 4877      00
 4878              	.LASF119:
 4879 03fe 50494F5F 		.ascii	"PIO_PDR\000"
 4879      50445200 
 4880              	.LASF257:
 4881 0406 70757477 		.ascii	"putwouldblock\000"
 4881      6F756C64 
 4881      626C6F63 
 4881      6B00
 4882              	.LASF233:
 4883 0414 55415254 		.ascii	"UART_RNPR\000"
 4883      5F524E50 
 4883      5200
 4884              	.LASF224:
 4885 041e 55415254 		.ascii	"UART_IMR\000"
 4885      5F494D52 
 4885      00
 4886              	.LASF239:
 4887 0427 55617274 		.ascii	"Uart\000"
 4887      00
 4888              	.LASF235:
 4889 042c 55415254 		.ascii	"UART_TNPR\000"
 4889      5F544E50 
 4889      5200
 4890              	.LASF166:
 4891 0436 50494F5F 		.ascii	"PIO_ELSR\000"
 4891      454C5352 
 4891      00
 4892              	.LASF116:
 4893 043f 4143435F 		.ascii	"ACC_IRQn\000"
 4893      4952516E 
 4893      00
 4894              	.LASF45:
 4895 0448 696E7463 		.ascii	"intctx\000"
 4895      747800
 4896              	.LASF38:
 4897 044f 705F6570 		.ascii	"p_epending\000"
 4897      656E6469 
 4897      6E6700
 4898              	.LASF94:
 4899 045a 55415254 		.ascii	"UART1_IRQn\000"
 4899      315F4952 
 4899      516E00
ARM GAS  /tmp/ccR4B9nj.s 			page 91


 4900              	.LASF91:
 4901 0465 504D435F 		.ascii	"PMC_IRQn\000"
 4901      4952516E 
 4901      00
 4902              	.LASF92:
 4903 046e 4546435F 		.ascii	"EFC_IRQn\000"
 4903      4952516E 
 4903      00
 4904              	.LASF115:
 4905 0477 43524343 		.ascii	"CRCCU_IRQn\000"
 4905      555F4952 
 4905      516E00
 4906              	.LASF86:
 4907 0482 53555043 		.ascii	"SUPC_IRQn\000"
 4907      5F495251 
 4907      6E00
 4908              	.LASF107:
 4909 048c 5443315F 		.ascii	"TC1_IRQn\000"
 4909      4952516E 
 4909      00
 4910              	.LASF98:
 4911 0495 50494F43 		.ascii	"PIOC_IRQn\000"
 4911      5F495251 
 4911      6E00
 4912              	.LASF120:
 4913 049f 50494F5F 		.ascii	"PIO_PSR\000"
 4913      50535200 
 4914              	.LASF227:
 4915 04a7 55415254 		.ascii	"UART_THR\000"
 4915      5F544852 
 4915      00
 4916              	.LASF57:
 4917 04b0 65735F6E 		.ascii	"es_next\000"
 4917      65787400 
 4918              	.LASF65:
 4919 04b8 715F636F 		.ascii	"q_counter\000"
 4919      756E7465 
 4919      7200
 4920              	.LASF89:
 4921 04c2 5254545F 		.ascii	"RTT_IRQn\000"
 4921      4952516E 
 4921      00
 4922              	.LASF143:
 4923 04cb 50494F5F 		.ascii	"PIO_PUER\000"
 4923      50554552 
 4923      00
 4924              	.LASF117:
 4925 04d4 5544505F 		.ascii	"UDP_IRQn\000"
 4925      4952516E 
 4925      00
 4926              	.LASF113:
 4927 04dd 44414343 		.ascii	"DACC_IRQn\000"
 4927      5F495251 
 4927      6E00
 4928              	.LASF78:
 4929 04e7 4E6F6E4D 		.ascii	"NonMaskableInt_IRQn\000"
 4929      61736B61 
ARM GAS  /tmp/ccR4B9nj.s 			page 92


 4929      626C6549 
 4929      6E745F49 
 4929      52516E00 
 4930              	.LASF56:
 4931 04fb 4576656E 		.ascii	"EventSource\000"
 4931      74536F75 
 4931      72636500 
 4932              	.LASF11:
 4933 0507 6C6F6E67 		.ascii	"long unsigned int\000"
 4933      20756E73 
 4933      69676E65 
 4933      6420696E 
 4933      7400
 4934              	.LASF79:
 4935 0519 4D656D6F 		.ascii	"MemoryManagement_IRQn\000"
 4935      72794D61 
 4935      6E616765 
 4935      6D656E74 
 4935      5F495251 
 4936              	.LASF277:
 4937 052f 53797374 		.ascii	"SystemCoreClock\000"
 4937      656D436F 
 4937      7265436C 
 4937      6F636B00 
 4938              	.LASF210:
 4939 053f 504D435F 		.ascii	"PMC_IMR\000"
 4939      494D5200 
 4940              	.LASF53:
 4941 0547 656C5F6E 		.ascii	"el_next\000"
 4941      65787400 
 4942              	.LASF270:
 4943 054f 56656374 		.ascii	"Vector60\000"
 4943      6F723630 
 4943      00
 4944              	.LASF271:
 4945 0558 56656374 		.ascii	"Vector64\000"
 4945      6F723634 
 4945      00
 4946              	.LASF68:
 4947 0561 715F7772 		.ascii	"q_wrptr\000"
 4947      70747200 
 4948              	.LASF196:
 4949 0569 504D435F 		.ascii	"PMC_SCSR\000"
 4949      53435352 
 4949      00
 4950              	.LASF254:
 4951 0572 53657269 		.ascii	"SerialDriverVMT\000"
 4951      616C4472 
 4951      69766572 
 4951      564D5400 
 4952              	.LASF131:
 4953 0582 50494F5F 		.ascii	"PIO_CODR\000"
 4953      434F4452 
 4953      00
 4954              	.LASF90:
 4955 058b 5744545F 		.ascii	"WDT_IRQn\000"
 4955      4952516E 
ARM GAS  /tmp/ccR4B9nj.s 			page 93


 4955      00
 4956              	.LASF80:
 4957 0594 42757346 		.ascii	"BusFault_IRQn\000"
 4957      61756C74 
 4957      5F495251 
 4957      6E00
 4958              	.LASF272:
 4959 05a2 73645F6C 		.ascii	"sd_lld_init\000"
 4959      6C645F69 
 4959      6E697400 
 4960              	.LASF135:
 4961 05ae 50494F5F 		.ascii	"PIO_IDR\000"
 4961      49445200 
 4962              	.LASF48:
 4963 05b6 4D757465 		.ascii	"Mutex\000"
 4963      7800
 4964              	.LASF279:
 4965 05bc 7364496E 		.ascii	"sdIncomingDataI\000"
 4965      636F6D69 
 4965      6E674461 
 4965      74614900 
 4966              	.LASF12:
 4967 05cc 6C6F6E67 		.ascii	"long long int\000"
 4967      206C6F6E 
 4967      6720696E 
 4967      7400
 4968              	.LASF199:
 4969 05da 504D435F 		.ascii	"PMC_PCSR0\000"
 4969      50435352 
 4969      3000
 4970              	.LASF49:
 4971 05e4 6D5F7175 		.ascii	"m_queue\000"
 4971      65756500 
 4972              	.LASF151:
 4973 05ec 50494F5F 		.ascii	"PIO_SCDR\000"
 4973      53434452 
 4973      00
 4974              	.LASF103:
 4975 05f5 54574931 		.ascii	"TWI1_IRQn\000"
 4975      5F495251 
 4975      6E00
 4976              	.LASF206:
 4977 05ff 504D435F 		.ascii	"PMC_PCK\000"
 4977      50434B00 
 4978              	.LASF82:
 4979 0607 53564361 		.ascii	"SVCall_IRQn\000"
 4979      6C6C5F49 
 4979      52516E00 
 4980              	.LASF193:
 4981 0613 50494F5F 		.ascii	"PIO_PTSR\000"
 4981      50545352 
 4981      00
 4982              	.LASF134:
 4983 061c 50494F5F 		.ascii	"PIO_IER\000"
 4983      49455200 
 4984              	.LASF183:
 4985 0624 50494F5F 		.ascii	"PIO_PCRHR\000"
ARM GAS  /tmp/ccR4B9nj.s 			page 94


 4985      50435248 
 4985      5200
 4986              	.LASF276:
 4987 062e 49544D5F 		.ascii	"ITM_RxBuffer\000"
 4987      52784275 
 4987      66666572 
 4987      00
 4988              	.LASF130:
 4989 063b 50494F5F 		.ascii	"PIO_SODR\000"
 4989      534F4452 
 4989      00
 4990              	.LASF149:
 4991 0644 50494F5F 		.ascii	"PIO_IFSCER\000"
 4991      49465343 
 4991      455200
 4992              	.LASF71:
 4993 064f 716E6F74 		.ascii	"qnotify_t\000"
 4993      6966795F 
 4993      7400
 4994              	.LASF35:
 4995 0659 705F7761 		.ascii	"p_waiting\000"
 4995      6974696E 
 4995      6700
 4996              	.LASF245:
 4997 0663 6576656E 		.ascii	"event\000"
 4997      7400
 4998              	.LASF32:
 4999 0669 705F666C 		.ascii	"p_flags\000"
 4999      61677300 
 5000              	.LASF213:
 5001 0671 504D435F 		.ascii	"PMC_FOCR\000"
 5001      464F4352 
 5001      00
 5002              	.LASF256:
 5003 067a 72656164 		.ascii	"read\000"
 5003      00
 5004              	.LASF0:
 5005 067f 756E7369 		.ascii	"unsigned int\000"
 5005      676E6564 
 5005      20696E74 
 5005      00
 5006              	.LASF226:
 5007 068c 55415254 		.ascii	"UART_RHR\000"
 5007      5F524852 
 5007      00
 5008              	.LASF110:
 5009 0695 5443345F 		.ascii	"TC4_IRQn\000"
 5009      4952516E 
 5009      00
 5010              	.LASF41:
 5011 069e 705F6D70 		.ascii	"p_mpool\000"
 5011      6F6F6C00 
 5012              	.LASF102:
 5013 06a6 54574930 		.ascii	"TWI0_IRQn\000"
 5013      5F495251 
 5013      6E00
 5014              	.LASF33:
ARM GAS  /tmp/ccR4B9nj.s 			page 95


 5015 06b0 705F7265 		.ascii	"p_refs\000"
 5015      667300
 5016              	.LASF288:
 5017 06b7 63684F51 		.ascii	"chOQGetI\000"
 5017      47657449 
 5017      00
 5018              	.LASF180:
 5019 06c0 50494F5F 		.ascii	"PIO_PCIDR\000"
 5019      50434944 
 5019      5200
 5020              	.LASF165:
 5021 06ca 50494F5F 		.ascii	"PIO_LSR\000"
 5021      4C535200 
 5022              	.LASF251:
 5023 06d2 73635F73 		.ascii	"sc_speed\000"
 5023      70656564 
 5023      00
 5024              	.LASF281:
 5025 06db 5F706F72 		.ascii	"_port_irq_epilogue\000"
 5025      745F6972 
 5025      715F6570 
 5025      696C6F67 
 5025      756500
 5026              	.LASF43:
 5027 06ee 54687265 		.ascii	"ThreadsList\000"
 5027      6164734C 
 5027      69737400 
 5028              	.LASF74:
 5029 06fa 696F666C 		.ascii	"ioflags_t\000"
 5029      6167735F 
 5029      7400
 5030              	.LASF34:
 5031 0704 705F7469 		.ascii	"p_time\000"
 5031      6D6500
 5032              	.LASF158:
 5033 070b 50494F5F 		.ascii	"PIO_OWSR\000"
 5033      4F575352 
 5033      00
 5034              	.LASF287:
 5035 0714 4952516E 		.ascii	"IRQn\000"
 5035      00
 5036              	.LASF263:
 5037 0719 43505546 		.ascii	"CPUFrequency\000"
 5037      72657175 
 5037      656E6379 
 5037      00
 5038              	.LASF238:
 5039 0726 55415254 		.ascii	"UART_PTSR\000"
 5039      5F505453 
 5039      5200
 5040              	.LASF154:
 5041 0730 50494F5F 		.ascii	"PIO_PPDSR\000"
 5041      50504453 
 5041      5200
 5042              	.LASF278:
 5043 073a 63684576 		.ascii	"chEvtBroadcastFlagsI\000"
 5043      7442726F 
ARM GAS  /tmp/ccR4B9nj.s 			page 96


 5043      61646361 
 5043      7374466C 
 5043      61677349 
 5044              	.LASF289:
 5045 074f 6E766963 		.ascii	"nvicDisableVector\000"
 5045      44697361 
 5045      626C6556 
 5045      6563746F 
 5045      7200
 5046              	.LASF40:
 5047 0761 705F7265 		.ascii	"p_realprio\000"
 5047      616C7072 
 5047      696F00
 5048              	.LASF258:
 5049 076c 67657477 		.ascii	"getwouldblock\000"
 5049      6F756C64 
 5049      626C6F63 
 5049      6B00
 5050              	.LASF231:
 5051 077a 55415254 		.ascii	"UART_TPR\000"
 5051      5F545052 
 5051      00
 5052              	.LASF127:
 5053 0783 50494F5F 		.ascii	"PIO_IFDR\000"
 5053      49464452 
 5053      00
 5054              	.LASF187:
 5055 078c 50494F5F 		.ascii	"PIO_TCR\000"
 5055      54435200 
 5056              	.LASF284:
 5057 0794 474E5520 		.ascii	"GNU C 4.8.1 -mcpu=cortex-m3 -mno-thumb-interwork -m"
 5057      4320342E 
 5057      382E3120 
 5057      2D6D6370 
 5057      753D636F 
 5058 07c7 7468756D 		.ascii	"thumb -ggdb -O2 -std=gnu99 -fomit-frame-pointer -fa"
 5058      62202D67 
 5058      67646220 
 5058      2D4F3220 
 5058      2D737464 
 5059 07fa 6C69676E 		.ascii	"lign-functions=16 -ffunction-sections -fdata-sectio"
 5059      2D66756E 
 5059      6374696F 
 5059      6E733D31 
 5059      36202D66 
 5060 082d 6E73202D 		.ascii	"ns -fno-common\000"
 5060      666E6F2D 
 5060      636F6D6D 
 5060      6F6E00
 5061              	.LASF13:
 5062 083c 6C6F6E67 		.ascii	"long long unsigned int\000"
 5062      206C6F6E 
 5062      6720756E 
 5062      7369676E 
 5062      65642069 
 5063              	.LASF29:
 5064 0853 705F6F6C 		.ascii	"p_older\000"
ARM GAS  /tmp/ccR4B9nj.s 			page 97


 5064      64657200 
 5065              	.LASF6:
 5066 085b 75696E74 		.ascii	"uint16_t\000"
 5066      31365F74 
 5066      00
 5067              	.LASF184:
 5068 0864 50494F5F 		.ascii	"PIO_RPR\000"
 5068      52505200 
 5069              	.LASF123:
 5070 086c 50494F5F 		.ascii	"PIO_ODR\000"
 5070      4F445200 
 5071              	.LASF20:
 5072 0874 6D73675F 		.ascii	"msg_t\000"
 5072      7400
 5073              	.LASF126:
 5074 087a 50494F5F 		.ascii	"PIO_IFER\000"
 5074      49464552 
 5074      00
 5075              	.LASF101:
 5076 0883 48534D43 		.ascii	"HSMCI_IRQn\000"
 5076      495F4952 
 5076      516E00
 5077              	.LASF100:
 5078 088e 55534152 		.ascii	"USART1_IRQn\000"
 5078      54315F49 
 5078      52516E00 
 5079              	.LASF148:
 5080 089a 50494F5F 		.ascii	"PIO_IFSCDR\000"
 5080      49465343 
 5080      445200
 5081              	.LASF144:
 5082 08a5 50494F5F 		.ascii	"PIO_PUSR\000"
 5082      50555352 
 5082      00
 5083              	.LASF112:
 5084 08ae 4144435F 		.ascii	"ADC_IRQn\000"
 5084      4952516E 
 5084      00
 5085              	.LASF122:
 5086 08b7 50494F5F 		.ascii	"PIO_OER\000"
 5086      4F455200 
 5087              	.LASF161:
 5088 08bf 50494F5F 		.ascii	"PIO_AIMDR\000"
 5088      41494D44 
 5088      5200
 5089              	.LASF93:
 5090 08c9 55415254 		.ascii	"UART0_IRQn\000"
 5090      305F4952 
 5090      516E00
 5091              	.LASF207:
 5092 08d4 504D435F 		.ascii	"PMC_IER\000"
 5092      49455200 
 5093              	.LASF244:
 5094 08dc 53657269 		.ascii	"SerialDriver\000"
 5094      616C4472 
 5094      69766572 
 5094      00
ARM GAS  /tmp/ccR4B9nj.s 			page 98


 5095              	.LASF170:
 5096 08e9 50494F5F 		.ascii	"PIO_FRLHSR\000"
 5096      46524C48 
 5096      535200
 5097              	.LASF228:
 5098 08f4 55415254 		.ascii	"UART_BRGR\000"
 5098      5F425247 
 5098      5200
 5099              	.LASF64:
 5100 08fe 715F7761 		.ascii	"q_waiting\000"
 5100      6974696E 
 5100      6700
 5101              	.LASF104:
 5102 0908 5350495F 		.ascii	"SPI_IRQn\000"
 5102      4952516E 
 5102      00
 5103              	.LASF99:
 5104 0911 55534152 		.ascii	"USART0_IRQn\000"
 5104      54305F49 
 5104      52516E00 
 5105              	.LASF121:
 5106 091d 52657365 		.ascii	"Reserved1\000"
 5106      72766564 
 5106      3100
 5107              	.LASF125:
 5108 0927 52657365 		.ascii	"Reserved2\000"
 5108      72766564 
 5108      3200
 5109              	.LASF129:
 5110 0931 52657365 		.ascii	"Reserved3\000"
 5110      72766564 
 5110      3300
 5111              	.LASF141:
 5112 093b 52657365 		.ascii	"Reserved4\000"
 5112      72766564 
 5112      3400
 5113              	.LASF145:
 5114 0945 52657365 		.ascii	"Reserved5\000"
 5114      72766564 
 5114      3500
 5115              	.LASF147:
 5116 094f 52657365 		.ascii	"Reserved6\000"
 5116      72766564 
 5116      3600
 5117              	.LASF106:
 5118 0959 5443305F 		.ascii	"TC0_IRQn\000"
 5118      4952516E 
 5118      00
 5119              	.LASF16:
 5120 0962 746D6F64 		.ascii	"tmode_t\000"
 5120      655F7400 
 5121              	.LASF163:
 5122 096a 52657365 		.ascii	"Reserved9\000"
 5122      72766564 
 5122      3900
 5123              	.LASF97:
 5124 0974 50494F42 		.ascii	"PIOB_IRQn\000"
ARM GAS  /tmp/ccR4B9nj.s 			page 99


 5124      5F495251 
 5124      6E00
 5125              	.LASF160:
 5126 097e 50494F5F 		.ascii	"PIO_AIMER\000"
 5126      41494D45 
 5126      5200
 5127              	.LASF243:
 5128 0988 73647374 		.ascii	"sdstate_t\000"
 5128      6174655F 
 5128      7400
 5129              	.LASF140:
 5130 0992 50494F5F 		.ascii	"PIO_MDSR\000"
 5130      4D445352 
 5130      00
 5131              	.LASF136:
 5132 099b 50494F5F 		.ascii	"PIO_IMR\000"
 5132      494D5200 
 5133              	.LASF83:
 5134 09a3 44656275 		.ascii	"DebugMonitor_IRQn\000"
 5134      674D6F6E 
 5134      69746F72 
 5134      5F495251 
 5134      6E00
 5135              	.LASF242:
 5136 09b5 53445F52 		.ascii	"SD_READY\000"
 5136      45414459 
 5136      00
 5137              	.LASF132:
 5138 09be 50494F5F 		.ascii	"PIO_ODSR\000"
 5138      4F445352 
 5138      00
 5139              	.LASF189:
 5140 09c7 50494F5F 		.ascii	"PIO_RNCR\000"
 5140      524E4352 
 5140      00
 5141              	.LASF266:
 5142 09d0 6E6F7469 		.ascii	"notify1\000"
 5142      66793100 
 5143              	.LASF267:
 5144 09d8 6E6F7469 		.ascii	"notify2\000"
 5144      66793200 
 5145              	.LASF191:
 5146 09e0 50494F5F 		.ascii	"PIO_TNCR\000"
 5146      544E4352 
 5146      00
 5147              	.LASF176:
 5148 09e9 50494F5F 		.ascii	"PIO_SCHMITT\000"
 5148      5343484D 
 5148      49545400 
 5149              	.LASF5:
 5150 09f5 73686F72 		.ascii	"short int\000"
 5150      7420696E 
 5150      7400
 5151              	.LASF75:
 5152 09ff 526F5265 		.ascii	"RoReg\000"
 5152      6700
 5153              	.LASF230:
ARM GAS  /tmp/ccR4B9nj.s 			page 100


 5154 0a05 55415254 		.ascii	"UART_RCR\000"
 5154      5F524352 
 5154      00
 5155              	.LASF250:
 5156 0a0e 75617274 		.ascii	"uart\000"
 5156      00
 5157              	.LASF248:
 5158 0a13 69717565 		.ascii	"iqueue\000"
 5158      756500
 5159              	.LASF209:
 5160 0a1a 504D435F 		.ascii	"PMC_SR\000"
 5160      535200
 5161              	.LASF96:
 5162 0a21 50494F41 		.ascii	"PIOA_IRQn\000"
 5162      5F495251 
 5162      6E00
 5163              	.LASF15:
 5164 0a2b 626F6F6C 		.ascii	"bool_t\000"
 5164      5F7400
 5165              	.LASF23:
 5166 0a32 54687265 		.ascii	"Thread\000"
 5166      616400
 5167              	.LASF77:
 5168 0a39 52775265 		.ascii	"RwReg\000"
 5168      6700
 5169              	.LASF261:
 5170 0a3f 67657466 		.ascii	"getflags\000"
 5170      6C616773 
 5170      00
 5171              	.LASF221:
 5172 0a48 55415254 		.ascii	"UART_MR\000"
 5172      5F4D5200 
 5173              	.LASF181:
 5174 0a50 50494F5F 		.ascii	"PIO_PCIMR\000"
 5174      5043494D 
 5174      5200
 5175              	.LASF18:
 5176 0a5a 74726566 		.ascii	"trefs_t\000"
 5176      735F7400 
 5177              	.LASF52:
 5178 0a62 4576656E 		.ascii	"EventListener\000"
 5178      744C6973 
 5178      74656E65 
 5178      7200
 5179              	.LASF214:
 5180 0a70 504D435F 		.ascii	"PMC_WPMR\000"
 5180      57504D52 
 5180      00
 5181              	.LASF282:
 5182 0a79 53797374 		.ascii	"SystemCoreClockUpdate\000"
 5182      656D436F 
 5182      7265436C 
 5182      6F636B55 
 5182      70646174 
 5183              	.LASF178:
 5184 0a8f 50494F5F 		.ascii	"PIO_PCMR\000"
 5184      50434D52 
ARM GAS  /tmp/ccR4B9nj.s 			page 101


 5184      00
 5185              	.LASF105:
 5186 0a98 5353435F 		.ascii	"SSC_IRQn\000"
 5186      4952516E 
 5186      00
 5187              	.LASF10:
 5188 0aa1 75696E74 		.ascii	"uint32_t\000"
 5188      33325F74 
 5188      00
 5189              	.LASF234:
 5190 0aaa 55415254 		.ascii	"UART_RNCR\000"
 5190      5F524E43 
 5190      5200
 5191              	.LASF42:
 5192 0ab4 54687265 		.ascii	"ThreadsQueue\000"
 5192      61647351 
 5192      75657565 
 5192      00
 5193              	.LASF211:
 5194 0ac1 504D435F 		.ascii	"PMC_FSMR\000"
 5194      46534D52 
 5194      00
 5195              	.LASF14:
 5196 0aca 75696E74 		.ascii	"uint_fast16_t\000"
 5196      5F666173 
 5196      7431365F 
 5196      7400
 5197              	.LASF236:
 5198 0ad8 55415254 		.ascii	"UART_TNCR\000"
 5198      5F544E43 
 5198      5200
 5199              	.LASF169:
 5200 0ae2 50494F5F 		.ascii	"PIO_REHLSR\000"
 5200      5245484C 
 5200      535200
 5201              	.LASF58:
 5202 0aed 7264796D 		.ascii	"rdymsg\000"
 5202      736700
 5203              	.LASF7:
 5204 0af4 73686F72 		.ascii	"short unsigned int\000"
 5204      7420756E 
 5204      7369676E 
 5204      65642069 
 5204      6E7400
 5205              	.LASF285:
 5206 0b07 2E2E2F74 		.ascii	"../third_party/ChibiOS/os/hal/platforms/AT91SAM3S/s"
 5206      68697264 
 5206      5F706172 
 5206      74792F43 
 5206      68696269 
 5207 0b3a 65726961 		.ascii	"erial_lld.c\000"
 5207      6C5F6C6C 
 5207      642E6300 
 5208              	.LASF274:
 5209 0b46 73645F6C 		.ascii	"sd_lld_stop\000"
 5209      6C645F73 
 5209      746F7000 
ARM GAS  /tmp/ccR4B9nj.s 			page 102


 5210              	.LASF118:
 5211 0b52 50494F5F 		.ascii	"PIO_PER\000"
 5211      50455200 
 5212              	.LASF72:
 5213 0b5a 496E7075 		.ascii	"InputQueue\000"
 5213      74517565 
 5213      756500
 5214              	.LASF84:
 5215 0b65 50656E64 		.ascii	"PendSV_IRQn\000"
 5215      53565F49 
 5215      52516E00 
 5216              	.LASF109:
 5217 0b71 5443335F 		.ascii	"TC3_IRQn\000"
 5217      4952516E 
 5217      00
 5218              	.LASF247:
 5219 0b7a 73746174 		.ascii	"state\000"
 5219      6500
 5220              	.LASF241:
 5221 0b80 53445F53 		.ascii	"SD_STOP\000"
 5221      544F5000 
 5222              	.LASF195:
 5223 0b88 504D435F 		.ascii	"PMC_SCDR\000"
 5223      53434452 
 5223      00
 5224              	.LASF55:
 5225 0b91 656C5F6D 		.ascii	"el_mask\000"
 5225      61736B00 
 5226              	.LASF198:
 5227 0b99 504D435F 		.ascii	"PMC_PCDR0\000"
 5227      50434452 
 5227      3000
 5228              	.LASF217:
 5229 0ba3 504D435F 		.ascii	"PMC_PCDR1\000"
 5229      50434452 
 5229      3100
 5230              	.LASF30:
 5231 0bad 705F6E61 		.ascii	"p_name\000"
 5231      6D6500
 5232              	.LASF51:
 5233 0bb4 6D5F6E65 		.ascii	"m_next\000"
 5233      787400
 5234              	.LASF137:
 5235 0bbb 50494F5F 		.ascii	"PIO_ISR\000"
 5235      49535200 
 5236              	.LASF194:
 5237 0bc3 504D435F 		.ascii	"PMC_SCER\000"
 5237      53434552 
 5237      00
 5238              	.LASF218:
 5239 0bcc 504D435F 		.ascii	"PMC_PCSR1\000"
 5239      50435352 
 5239      3100
 5240              	.LASF88:
 5241 0bd6 5254435F 		.ascii	"RTC_IRQn\000"
 5241      4952516E 
 5241      00
ARM GAS  /tmp/ccR4B9nj.s 			page 103


 5242              	.LASF202:
 5243 0bdf 434B4752 		.ascii	"CKGR_PLLAR\000"
 5243      5F504C4C 
 5243      415200
 5244              	.LASF37:
 5245 0bea 705F6D73 		.ascii	"p_msg\000"
 5245      6700
 5246              	.LASF54:
 5247 0bf0 656C5F6C 		.ascii	"el_listener\000"
 5247      69737465 
 5247      6E657200 
 5248              	.LASF192:
 5249 0bfc 50494F5F 		.ascii	"PIO_PTCR\000"
 5249      50544352 
 5249      00
 5250              	.LASF179:
 5251 0c05 50494F5F 		.ascii	"PIO_PCIER\000"
 5251      50434945 
 5251      5200
 5252              	.LASF31:
 5253 0c0f 705F7374 		.ascii	"p_state\000"
 5253      61746500 
 5254              		.ident	"GCC: (Sourcery CodeBench Lite 2013.11-24) 4.8.1"
ARM GAS  /tmp/ccR4B9nj.s 			page 104


DEFINED SYMBOLS
                            *ABS*:00000000 serial_lld.c
     /tmp/ccR4B9nj.s:19     .text.notify1:00000000 $t
     /tmp/ccR4B9nj.s:24     .text.notify1:00000000 notify1
     /tmp/ccR4B9nj.s:43     .text.notify2:00000000 $t
     /tmp/ccR4B9nj.s:48     .text.notify2:00000000 notify2
     /tmp/ccR4B9nj.s:66     .text.serve_interrupt:00000000 $t
     /tmp/ccR4B9nj.s:71     .text.serve_interrupt:00000000 serve_interrupt
     /tmp/ccR4B9nj.s:242    .text.Vector60:00000000 $t
     /tmp/ccR4B9nj.s:248    .text.Vector60:00000000 Vector60
     /tmp/ccR4B9nj.s:681    .bss.SD1:00000000 .LANCHOR0
     /tmp/ccR4B9nj.s:272    .text.Vector64:00000000 $t
     /tmp/ccR4B9nj.s:278    .text.Vector64:00000000 Vector64
     /tmp/ccR4B9nj.s:688    .bss.SD2:00000000 .LANCHOR1
     /tmp/ccR4B9nj.s:302    .text.sd_lld_init:00000000 $t
     /tmp/ccR4B9nj.s:308    .text.sd_lld_init:00000000 sd_lld_init
     /tmp/ccR4B9nj.s:374    .text.sd_lld_start:00000000 $t
     /tmp/ccR4B9nj.s:380    .text.sd_lld_start:00000000 sd_lld_start
     /tmp/ccR4B9nj.s:673    .rodata.default_config:00000000 .LANCHOR2
     /tmp/ccR4B9nj.s:532    .text.sd_lld_stop:00000000 $t
     /tmp/ccR4B9nj.s:538    .text.sd_lld_stop:00000000 sd_lld_stop
     /tmp/ccR4B9nj.s:691    .bss.SD2:00000000 SD2
     /tmp/ccR4B9nj.s:684    .bss.SD1:00000000 SD1
     /tmp/ccR4B9nj.s:672    .rodata.default_config:00000000 $d
     /tmp/ccR4B9nj.s:676    .rodata.default_config:00000000 default_config
     /tmp/ccR4B9nj.s:680    .bss.SD1:00000000 $d
     /tmp/ccR4B9nj.s:687    .bss.SD2:00000000 $d
                     .debug_frame:00000010 $d

UNDEFINED SYMBOLS
chEvtBroadcastFlagsI
sdIncomingDataI
chOQGetI
_port_irq_epilogue
sdObjectInit
SystemCoreClockUpdate
SystemCoreClock
nvicEnableVector
nvicDisableVector
