ARM GAS  /tmp/ccA0XCbo.s 			page 1


   1              		.syntax unified
   2              		.cpu cortex-m3
   3              		.fpu softvfp
   4              		.eabi_attribute 20, 1
   5              		.eabi_attribute 21, 1
   6              		.eabi_attribute 23, 3
   7              		.eabi_attribute 24, 1
   8              		.eabi_attribute 25, 1
   9              		.eabi_attribute 26, 1
  10              		.eabi_attribute 30, 2
  11              		.eabi_attribute 34, 1
  12              		.eabi_attribute 18, 4
  13              		.thumb
  14              		.file	"syscalls.c"
  15              		.text
  16              	.Ltext0:
  17              		.cfi_sections	.debug_frame
  18              		.section	.text._read_r,"ax",%progbits
  19              		.align	2
  20              		.p2align 4,,15
  21              		.global	_read_r
  22              		.thumb
  23              		.thumb_func
  24              		.type	_read_r, %function
  25              	_read_r:
  26              	.LFB7:
  27              		.file 1 "../third_party/ChibiOS/os/various/syscalls.c"
  28              		.loc 1 82 0
  29              		.cfi_startproc
  30              		@ args = 0, pretend = 0, frame = 0
  31              		@ frame_needed = 0, uses_anonymous_args = 0
  32              		@ link register save eliminated.
  33              	.LVL0:
  34              		.loc 1 95 0
  35 0000 1623     		movs	r3, #22
  36              	.LVL1:
  37 0002 0360     		str	r3, [r0]
  38              		.loc 1 98 0
  39 0004 4FF0FF30 		mov	r0, #-1
  40              	.LVL2:
  41 0008 7047     		bx	lr
  42              		.cfi_endproc
  43              	.LFE7:
  44              		.size	_read_r, .-_read_r
  45 000a 00BFAFF3 		.section	.text._lseek_r,"ax",%progbits
  45      0080
  46              		.align	2
  47              		.p2align 4,,15
  48              		.global	_lseek_r
  49              		.thumb
  50              		.thumb_func
  51              		.type	_lseek_r, %function
  52              	_lseek_r:
  53              	.LFB8:
  54              		.loc 1 103 0
  55              		.cfi_startproc
  56              		@ args = 0, pretend = 0, frame = 0
ARM GAS  /tmp/ccA0XCbo.s 			page 2


  57              		@ frame_needed = 0, uses_anonymous_args = 0
  58              		@ link register save eliminated.
  59              	.LVL3:
  60              		.loc 1 110 0
  61 0000 0020     		movs	r0, #0
  62              	.LVL4:
  63 0002 7047     		bx	lr
  64              		.cfi_endproc
  65              	.LFE8:
  66              		.size	_lseek_r, .-_lseek_r
  67 0004 AFF30080 		.section	.text._write_r,"ax",%progbits
  67      AFF30080 
  67      AFF30080 
  68              		.align	2
  69              		.p2align 4,,15
  70              		.global	_write_r
  71              		.thumb
  72              		.thumb_func
  73              		.type	_write_r, %function
  74              	_write_r:
  75              	.LFB9:
  76              		.loc 1 115 0
  77              		.cfi_startproc
  78              		@ args = 0, pretend = 0, frame = 0
  79              		@ frame_needed = 0, uses_anonymous_args = 0
  80              		@ link register save eliminated.
  81              	.LVL5:
  82              		.loc 1 127 0
  83 0000 1846     		mov	r0, r3
  84              	.LVL6:
  85 0002 7047     		bx	lr
  86              		.cfi_endproc
  87              	.LFE9:
  88              		.size	_write_r, .-_write_r
  89 0004 AFF30080 		.section	.text._close_r,"ax",%progbits
  89      AFF30080 
  89      AFF30080 
  90              		.align	2
  91              		.p2align 4,,15
  92              		.global	_close_r
  93              		.thumb
  94              		.thumb_func
  95              		.type	_close_r, %function
  96              	_close_r:
  97              	.LFB10:
  98              		.loc 1 132 0
  99              		.cfi_startproc
 100              		@ args = 0, pretend = 0, frame = 0
 101              		@ frame_needed = 0, uses_anonymous_args = 0
 102              		@ link register save eliminated.
 103              	.LVL7:
 104              		.loc 1 137 0
 105 0000 0020     		movs	r0, #0
 106              	.LVL8:
 107 0002 7047     		bx	lr
 108              		.cfi_endproc
 109              	.LFE10:
ARM GAS  /tmp/ccA0XCbo.s 			page 3


 110              		.size	_close_r, .-_close_r
 111 0004 AFF30080 		.section	.text._sbrk_r,"ax",%progbits
 111      AFF30080 
 111      AFF30080 
 112              		.align	2
 113              		.p2align 4,,15
 114              		.global	_sbrk_r
 115              		.thumb
 116              		.thumb_func
 117              		.type	_sbrk_r, %function
 118              	_sbrk_r:
 119              	.LFB11:
 120              		.loc 1 142 0
 121              		.cfi_startproc
 122              		@ args = 0, pretend = 0, frame = 0
 123              		@ frame_needed = 0, uses_anonymous_args = 0
 124              	.LVL9:
 125 0000 10B5     		push	{r4, lr}
 126              		.cfi_def_cfa_offset 8
 127              		.cfi_offset 4, -8
 128              		.cfi_offset 14, -4
 129              		.loc 1 142 0
 130 0002 0446     		mov	r4, r0
 131              		.loc 1 148 0
 132 0004 0846     		mov	r0, r1
 133              	.LVL10:
 134 0006 FFF7FEFF 		bl	chCoreAlloc
 135              	.LVL11:
 136              		.loc 1 149 0
 137 000a 00B1     		cbz	r0, .L9
 138              		.loc 1 154 0
 139 000c 10BD     		pop	{r4, pc}
 140              	.LVL12:
 141              	.L9:
 142              		.loc 1 150 0
 143 000e 0C23     		movs	r3, #12
 144 0010 2360     		str	r3, [r4]
 145              		.loc 1 151 0
 146 0012 4FF0FF30 		mov	r0, #-1
 147              	.LVL13:
 148              		.loc 1 154 0
 149 0016 10BD     		pop	{r4, pc}
 150              		.cfi_endproc
 151              	.LFE11:
 152              		.size	_sbrk_r, .-_sbrk_r
 153 0018 AFF30080 		.section	.text._fstat_r,"ax",%progbits
 153      AFF30080 
 154              		.align	2
 155              		.p2align 4,,15
 156              		.global	_fstat_r
 157              		.thumb
 158              		.thumb_func
 159              		.type	_fstat_r, %function
 160              	_fstat_r:
 161              	.LFB12:
 162              		.loc 1 159 0
 163              		.cfi_startproc
ARM GAS  /tmp/ccA0XCbo.s 			page 4


 164              		@ args = 0, pretend = 0, frame = 0
 165              		@ frame_needed = 0, uses_anonymous_args = 0
 166              	.LVL14:
 167 0000 10B5     		push	{r4, lr}
 168              		.cfi_def_cfa_offset 8
 169              		.cfi_offset 4, -8
 170              		.cfi_offset 14, -4
 171              		.loc 1 163 0
 172 0002 1046     		mov	r0, r2
 173              	.LVL15:
 174              		.loc 1 159 0
 175 0004 1446     		mov	r4, r2
 176              		.loc 1 163 0
 177 0006 0021     		movs	r1, #0
 178              	.LVL16:
 179 0008 3C22     		movs	r2, #60
 180              	.LVL17:
 181 000a FFF7FEFF 		bl	memset
 182              	.LVL18:
 183              		.loc 1 164 0
 184 000e 4FF40053 		mov	r3, #8192
 185 0012 6360     		str	r3, [r4, #4]
 186              		.loc 1 166 0
 187 0014 0020     		movs	r0, #0
 188 0016 10BD     		pop	{r4, pc}
 189              		.cfi_endproc
 190              	.LFE12:
 191              		.size	_fstat_r, .-_fstat_r
 192 0018 AFF30080 		.section	.text._isatty_r,"ax",%progbits
 192      AFF30080 
 193              		.align	2
 194              		.p2align 4,,15
 195              		.global	_isatty_r
 196              		.thumb
 197              		.thumb_func
 198              		.type	_isatty_r, %function
 199              	_isatty_r:
 200              	.LFB13:
 201              		.loc 1 171 0
 202              		.cfi_startproc
 203              		@ args = 0, pretend = 0, frame = 0
 204              		@ frame_needed = 0, uses_anonymous_args = 0
 205              		@ link register save eliminated.
 206              	.LVL19:
 207              		.loc 1 176 0
 208 0000 0120     		movs	r0, #1
 209              	.LVL20:
 210 0002 7047     		bx	lr
 211              		.cfi_endproc
 212              	.LFE13:
 213              		.size	_isatty_r, .-_isatty_r
 214 0004 AFF30080 		.section	.text._getpid,"ax",%progbits
 214      AFF30080 
 214      AFF30080 
 215              		.align	2
 216              		.p2align 4,,15
 217              		.global	_getpid
ARM GAS  /tmp/ccA0XCbo.s 			page 5


 218              		.thumb
 219              		.thumb_func
 220              		.type	_getpid, %function
 221              	_getpid:
 222              	.LFB14:
 223              		.loc 1 180 0
 224              		.cfi_startproc
 225              		@ args = 0, pretend = 0, frame = 0
 226              		@ frame_needed = 0, uses_anonymous_args = 0
 227              		@ link register save eliminated.
 228              		.loc 1 182 0
 229 0000 0020     		movs	r0, #0
 230 0002 7047     		bx	lr
 231              		.cfi_endproc
 232              	.LFE14:
 233              		.size	_getpid, .-_getpid
 234 0004 AFF30080 		.section	.text._exit,"ax",%progbits
 234      AFF30080 
 234      AFF30080 
 235              		.align	2
 236              		.p2align 4,,15
 237              		.global	_exit
 238              		.thumb
 239              		.thumb_func
 240              		.type	_exit, %function
 241              	_exit:
 242              	.LFB15:
 243              		.loc 1 185 0
 244              		.cfi_startproc
 245              		@ Volatile: function does not return.
 246              		@ args = 0, pretend = 0, frame = 0
 247              		@ frame_needed = 0, uses_anonymous_args = 0
 248              		@ link register save eliminated.
 249              	.LVL21:
 250              	.L14:
 251 0000 FEE7     		b	.L14
 252              		.cfi_endproc
 253              	.LFE15:
 254              		.size	_exit, .-_exit
 255 0002 00BFAFF3 		.section	.text._kill,"ax",%progbits
 255      0080AFF3 
 255      0080AFF3 
 255      0080
 256              		.align	2
 257              		.p2align 4,,15
 258              		.global	_kill
 259              		.thumb
 260              		.thumb_func
 261              		.type	_kill, %function
 262              	_kill:
 263              	.LFB16:
 264              		.loc 1 191 0
 265              		.cfi_startproc
 266              		@ args = 0, pretend = 0, frame = 0
 267              		@ frame_needed = 0, uses_anonymous_args = 0
 268              		@ link register save eliminated.
 269              	.LVL22:
ARM GAS  /tmp/ccA0XCbo.s 			page 6


 270              		.loc 1 194 0
 271 0000 4FF0FF30 		mov	r0, #-1
 272              	.LVL23:
 273 0004 7047     		bx	lr
 274              		.cfi_endproc
 275              	.LFE16:
 276              		.size	_kill, .-_kill
 277 0006 00BFAFF3 		.text
 277      0080AFF3 
 277      0080
 278              	.Letext0:
 279              		.file 2 "/home/santi/arm-2013.11/lib/gcc/arm-none-eabi/4.8.1/include/stddef.h"
 280              		.file 3 "/home/santi/arm-2013.11/arm-none-eabi/include/sys/lock.h"
 281              		.file 4 "/home/santi/arm-2013.11/arm-none-eabi/include/sys/_types.h"
 282              		.file 5 "/home/santi/arm-2013.11/arm-none-eabi/include/sys/reent.h"
 283              		.file 6 "/home/santi/arm-2013.11/arm-none-eabi/include/sys/types.h"
 284              		.file 7 "/home/santi/arm-2013.11/arm-none-eabi/include/sys/stat.h"
 285              		.file 8 "../third_party/ChibiOS/os/kernel/include/chmemcore.h"