ARM GAS  /tmp/ccGUJQGS.s 			page 1


   1              		.syntax unified
   2              		.cpu cortex-m3
   3              		.fpu softvfp
   4              		.eabi_attribute 20, 1
   5              		.eabi_attribute 21, 1
   6              		.eabi_attribute 23, 3
   7              		.eabi_attribute 24, 1
   8              		.eabi_attribute 25, 1
   9              		.eabi_attribute 26, 1
  10              		.eabi_attribute 30, 2
  11              		.eabi_attribute 34, 1
  12              		.eabi_attribute 18, 4
  13              		.thumb
  14              		.file	"testmtx.c"
  15              		.text
  16              	.Ltext0:
  17              		.cfi_sections	.debug_frame
  18              		.section	.text.mtx1_execute,"ax",%progbits
  19              		.align	2
  20              		.p2align 4,,15
  21              		.thumb
  22              		.thumb_func
  23              		.type	mtx1_execute, %function
  24              	mtx1_execute:
  25              	.LFB9:
  26              		.file 1 "../third_party/ChibiOS/test/testmtx.c"
  27              		.loc 1 108 0
  28              		.cfi_startproc
  29              		@ args = 0, pretend = 0, frame = 8
  30              		@ frame_needed = 0, uses_anonymous_args = 0
  31 0000 F0B5     		push	{r4, r5, r6, r7, lr}
  32              		.cfi_def_cfa_offset 20
  33              		.cfi_offset 4, -20
  34              		.cfi_offset 5, -16
  35              		.cfi_offset 6, -12
  36              		.cfi_offset 7, -8
  37              		.cfi_offset 14, -4
  38              		.loc 1 110 0
  39 0002 40F20007 		movw	r7, #:lower16:rlist
  40 0006 C0F20007 		movt	r7, #:upper16:rlist
  41 000a FB69     		ldr	r3, [r7, #28]
  42              		.loc 1 111 0
  43 000c 40F20000 		movw	r0, #:lower16:.LANCHOR0
  44              		.loc 1 108 0
  45 0010 85B0     		sub	sp, sp, #20
  46              		.cfi_def_cfa_offset 40
  47              		.loc 1 111 0
  48 0012 C0F20000 		movt	r0, #:upper16:.LANCHOR0
  49              		.loc 1 110 0
  50 0016 9E68     		ldr	r6, [r3, #8]
  51              	.LVL0:
  52              		.loc 1 112 0
  53 0018 40F20005 		movw	r5, #:lower16:wa
  54              		.loc 1 111 0
  55 001c FFF7FEFF 		bl	chMtxLock
  56              	.LVL1:
  57              		.loc 1 112 0
ARM GAS  /tmp/ccGUJQGS.s 			page 2


  58 0020 40F20001 		movw	r1, #:lower16:.LC0
  59 0024 C0F20005 		movt	r5, #:upper16:wa
  60 0028 C0F20001 		movt	r1, #:upper16:.LC0
  61 002c 40F20003 		movw	r3, #:lower16:thread1
  62 0030 2868     		ldr	r0, [r5]
  63 0032 721C     		adds	r2, r6, #1
  64 0034 0091     		str	r1, [sp]
  65 0036 C0F20003 		movt	r3, #:upper16:thread1
  66 003a 4FF49871 		mov	r1, #304
  67 003e FFF7FEFF 		bl	chThdCreateStatic
  68              	.LVL2:
  69              		.loc 1 113 0
  70 0042 6B68     		ldr	r3, [r5, #4]
  71              		.loc 1 112 0
  72 0044 40F20004 		movw	r4, #:lower16:threads
  73              		.loc 1 113 0
  74 0048 40F20001 		movw	r1, #:lower16:.LC1
  75              		.loc 1 112 0
  76 004c C0F20004 		movt	r4, #:upper16:threads
  77              		.loc 1 113 0
  78 0050 0393     		str	r3, [sp, #12]
  79 0052 C0F20001 		movt	r1, #:upper16:.LC1
  80 0056 40F20003 		movw	r3, #:lower16:thread1
  81              		.loc 1 112 0
  82 005a 2060     		str	r0, [r4]
  83              		.loc 1 113 0
  84 005c B21C     		adds	r2, r6, #2
  85 005e 0091     		str	r1, [sp]
  86 0060 C0F20003 		movt	r3, #:upper16:thread1
  87 0064 4FF49871 		mov	r1, #304
  88 0068 0398     		ldr	r0, [sp, #12]
  89 006a FFF7FEFF 		bl	chThdCreateStatic
  90              	.LVL3:
  91              		.loc 1 114 0
  92 006e AB68     		ldr	r3, [r5, #8]
  93 0070 40F20001 		movw	r1, #:lower16:.LC2
  94 0074 0393     		str	r3, [sp, #12]
  95 0076 C0F20001 		movt	r1, #:upper16:.LC2
  96 007a 40F20003 		movw	r3, #:lower16:thread1
  97              		.loc 1 113 0
  98 007e 6060     		str	r0, [r4, #4]
  99              		.loc 1 114 0
 100 0080 F21C     		adds	r2, r6, #3
 101 0082 0091     		str	r1, [sp]
 102 0084 C0F20003 		movt	r3, #:upper16:thread1
 103 0088 4FF49871 		mov	r1, #304
 104 008c 0398     		ldr	r0, [sp, #12]
 105 008e FFF7FEFF 		bl	chThdCreateStatic
 106              	.LVL4:
 107              		.loc 1 115 0
 108 0092 EB68     		ldr	r3, [r5, #12]
 109 0094 40F20001 		movw	r1, #:lower16:.LC3
 110 0098 0393     		str	r3, [sp, #12]
 111 009a C0F20001 		movt	r1, #:upper16:.LC3
 112 009e 40F20003 		movw	r3, #:lower16:thread1
 113              		.loc 1 114 0
 114 00a2 A060     		str	r0, [r4, #8]
ARM GAS  /tmp/ccGUJQGS.s 			page 3


 115              		.loc 1 115 0
 116 00a4 321D     		adds	r2, r6, #4
 117 00a6 0091     		str	r1, [sp]
 118 00a8 C0F20003 		movt	r3, #:upper16:thread1
 119 00ac 4FF49871 		mov	r1, #304
 120 00b0 0398     		ldr	r0, [sp, #12]
 121 00b2 FFF7FEFF 		bl	chThdCreateStatic
 122              	.LVL5:
 123              		.loc 1 116 0
 124 00b6 2D69     		ldr	r5, [r5, #16]
 125 00b8 40F20001 		movw	r1, #:lower16:.LC4
 126 00bc C0F20001 		movt	r1, #:upper16:.LC4
 127 00c0 40F20003 		movw	r3, #:lower16:thread1
 128 00c4 C0F20003 		movt	r3, #:upper16:thread1
 129 00c8 721D     		adds	r2, r6, #5
 130              		.loc 1 115 0
 131 00ca E060     		str	r0, [r4, #12]
 132              		.loc 1 116 0
 133 00cc 0091     		str	r1, [sp]
 134 00ce 2846     		mov	r0, r5
 135 00d0 4FF49871 		mov	r1, #304
 136 00d4 FFF7FEFF 		bl	chThdCreateStatic
 137              	.LVL6:
 138 00d8 2061     		str	r0, [r4, #16]
 139              		.loc 1 117 0
 140 00da FFF7FEFF 		bl	chMtxUnlock
 141              	.LVL7:
 142              		.loc 1 118 0
 143 00de FFF7FEFF 		bl	test_wait_threads
 144              	.LVL8:
 145              		.loc 1 119 0
 146 00e2 FB69     		ldr	r3, [r7, #28]
 147 00e4 0120     		movs	r0, #1
 148 00e6 9968     		ldr	r1, [r3, #8]
 149 00e8 8B1B     		subs	r3, r1, r6
 150 00ea 5942     		rsbs	r1, r3, #0
 151 00ec 5941     		adcs	r1, r1, r3
 152 00ee FFF7FEFF 		bl	_test_assert
 153              	.LVL9:
 154 00f2 08B1     		cbz	r0, .L4
 155              		.loc 1 121 0
 156 00f4 05B0     		add	sp, sp, #20
 157              		@ sp needed
 158 00f6 F0BD     		pop	{r4, r5, r6, r7, pc}
 159              	.LVL10:
 160              	.L4:
 161              		.loc 1 120 0
 162 00f8 40F20001 		movw	r1, #:lower16:.LC5
 163 00fc C0F20001 		movt	r1, #:upper16:.LC5
 164 0100 0220     		movs	r0, #2
 165              		.loc 1 121 0
 166 0102 05B0     		add	sp, sp, #20
 167              		@ sp needed
 168 0104 BDE8F040 		pop	{r4, r5, r6, r7, lr}
 169              	.LVL11:
 170              		.loc 1 120 0
 171 0108 FFF7FEBF 		b	_test_assert_sequence
ARM GAS  /tmp/ccGUJQGS.s 			page 4


 172              	.LVL12:
 173              		.cfi_endproc
 174              	.LFE9:
 175              		.size	mtx1_execute, .-mtx1_execute
 176 010c AFF30080 		.section	.text.thread1,"ax",%progbits
 177              		.align	2
 178              		.p2align 4,,15
 179              		.thumb
 180              		.thumb_func
 181              		.type	thread1, %function
 182              	thread1:
 183              	.LFB8:
 184              		.loc 1 100 0
 185              		.cfi_startproc
 186              		@ args = 0, pretend = 0, frame = 0
 187              		@ frame_needed = 0, uses_anonymous_args = 0
 188              	.LVL13:
 189 0000 10B5     		push	{r4, lr}
 190              		.cfi_def_cfa_offset 8
 191              		.cfi_offset 4, -8
 192              		.cfi_offset 14, -4
 193              		.loc 1 100 0
 194 0002 0446     		mov	r4, r0
 195              		.loc 1 102 0
 196 0004 40F20000 		movw	r0, #:lower16:.LANCHOR0
 197              	.LVL14:
 198 0008 C0F20000 		movt	r0, #:upper16:.LANCHOR0
 199 000c FFF7FEFF 		bl	chMtxLock
 200              	.LVL15:
 201              		.loc 1 103 0
 202 0010 2078     		ldrb	r0, [r4]	@ zero_extendqisi2
 203 0012 FFF7FEFF 		bl	test_emit_token
 204              	.LVL16:
 205              		.loc 1 104 0
 206 0016 FFF7FEFF 		bl	chMtxUnlock
 207              	.LVL17:
 208              		.loc 1 106 0
 209 001a 0020     		movs	r0, #0
 210 001c 10BD     		pop	{r4, pc}
 211              		.cfi_endproc
 212              	.LFE8:
 213              		.size	thread1, .-thread1
 214 001e 00BF     		.section	.text.thread12,"ax",%progbits
 215              		.align	2
 216              		.p2align 4,,15
 217              		.thumb
 218              		.thumb_func
 219              		.type	thread12, %function
 220              	thread12:
 221              	.LFB35:
 222              		.loc 1 598 0
 223              		.cfi_startproc
 224              		@ args = 0, pretend = 0, frame = 0
 225              		@ frame_needed = 0, uses_anonymous_args = 0
 226              	.LVL18:
 227 0000 10B5     		push	{r4, lr}
 228              		.cfi_def_cfa_offset 8
ARM GAS  /tmp/ccGUJQGS.s 			page 5


 229              		.cfi_offset 4, -8
 230              		.cfi_offset 14, -4
 231              		.loc 1 598 0
 232 0002 0446     		mov	r4, r0
 233              		.loc 1 600 0
 234 0004 40F20000 		movw	r0, #:lower16:.LANCHOR1
 235              	.LVL19:
 236 0008 C0F20000 		movt	r0, #:upper16:.LANCHOR1
 237 000c FFF7FEFF 		bl	chMtxLock
 238              	.LVL20:
 239              		.loc 1 601 0
 240 0010 2078     		ldrb	r0, [r4]	@ zero_extendqisi2
 241 0012 FFF7FEFF 		bl	test_emit_token
 242              	.LVL21:
 243              		.loc 1 602 0
 244 0016 FFF7FEFF 		bl	chMtxUnlock
 245              	.LVL22:
 246              		.loc 1 604 0
 247 001a 0020     		movs	r0, #0
 248 001c 10BD     		pop	{r4, pc}
 249              		.cfi_endproc
 250              	.LFE35:
 251              		.size	thread12, .-thread12
 252 001e 00BF     		.section	.text.mtx1_setup,"ax",%progbits
 253              		.align	2
 254              		.p2align 4,,15
 255              		.thumb
 256              		.thumb_func
 257              		.type	mtx1_setup, %function
 258              	mtx1_setup:
 259              	.LFB7:
 260              		.loc 1 95 0
 261              		.cfi_startproc
 262              		@ args = 0, pretend = 0, frame = 0
 263              		@ frame_needed = 0, uses_anonymous_args = 0
 264              		@ link register save eliminated.
 265              		.loc 1 97 0
 266 0000 40F20000 		movw	r0, #:lower16:.LANCHOR0
 267 0004 C0F20000 		movt	r0, #:upper16:.LANCHOR0
 268 0008 FFF7FEBF 		b	chMtxInit
 269              	.LVL23:
 270              		.cfi_endproc
 271              	.LFE7:
 272              		.size	mtx1_setup, .-mtx1_setup
 273 000c AFF30080 		.section	.text.mtx2_setup,"ax",%progbits
 274              		.align	2
 275              		.p2align 4,,15
 276              		.thumb
 277              		.thumb_func
 278              		.type	mtx2_setup, %function
 279              	mtx2_setup:
 280              	.LFB10:
 281              		.loc 1 162 0
 282              		.cfi_startproc
 283              		@ args = 0, pretend = 0, frame = 0
 284              		@ frame_needed = 0, uses_anonymous_args = 0
 285              		@ link register save eliminated.
ARM GAS  /tmp/ccGUJQGS.s 			page 6


 286              		.loc 1 164 0
 287 0000 40F20000 		movw	r0, #:lower16:.LANCHOR0
 288 0004 C0F20000 		movt	r0, #:upper16:.LANCHOR0
 289 0008 FFF7FEBF 		b	chMtxInit
 290              	.LVL24:
 291              		.cfi_endproc
 292              	.LFE10:
 293              		.size	mtx2_setup, .-mtx2_setup
 294 000c AFF30080 		.section	.text.mtx3_setup,"ax",%progbits
 295              		.align	2
 296              		.p2align 4,,15
 297              		.thumb
 298              		.thumb_func
 299              		.type	mtx3_setup, %function
 300              	mtx3_setup:
 301              	.LFB15:
 302              		.loc 1 252 0
 303              		.cfi_startproc
 304              		@ args = 0, pretend = 0, frame = 0
 305              		@ frame_needed = 0, uses_anonymous_args = 0
 306 0000 08B5     		push	{r3, lr}
 307              		.cfi_def_cfa_offset 8
 308              		.cfi_offset 3, -8
 309              		.cfi_offset 14, -4
 310              		.loc 1 254 0
 311 0002 40F20000 		movw	r0, #:lower16:.LANCHOR0
 312 0006 C0F20000 		movt	r0, #:upper16:.LANCHOR0
 313 000a FFF7FEFF 		bl	chMtxInit
 314              	.LVL25:
 315              		.loc 1 256 0
 316 000e BDE80840 		pop	{r3, lr}
 317              		.loc 1 255 0
 318 0012 40F20000 		movw	r0, #:lower16:.LANCHOR1
 319 0016 C0F20000 		movt	r0, #:upper16:.LANCHOR1
 320 001a FFF7FEBF 		b	chMtxInit
 321              	.LVL26:
 322              		.cfi_endproc
 323              	.LFE15:
 324              		.size	mtx3_setup, .-mtx3_setup
 325 001e 00BF     		.section	.text.mtx4_setup,"ax",%progbits
 326              		.align	2
 327              		.p2align 4,,15
 328              		.thumb
 329              		.thumb_func
 330              		.type	mtx4_setup, %function
 331              	mtx4_setup:
 332              	.LFB22:
 333              		.loc 1 352 0
 334              		.cfi_startproc
 335              		@ args = 0, pretend = 0, frame = 0
 336              		@ frame_needed = 0, uses_anonymous_args = 0
 337 0000 08B5     		push	{r3, lr}
 338              		.cfi_def_cfa_offset 8
 339              		.cfi_offset 3, -8
 340              		.cfi_offset 14, -4
 341              		.loc 1 354 0
 342 0002 40F20000 		movw	r0, #:lower16:.LANCHOR0
ARM GAS  /tmp/ccGUJQGS.s 			page 7


 343 0006 C0F20000 		movt	r0, #:upper16:.LANCHOR0
 344 000a FFF7FEFF 		bl	chMtxInit
 345              	.LVL27:
 346              		.loc 1 356 0
 347 000e BDE80840 		pop	{r3, lr}
 348              		.loc 1 355 0
 349 0012 40F20000 		movw	r0, #:lower16:.LANCHOR1
 350 0016 C0F20000 		movt	r0, #:upper16:.LANCHOR1
 351 001a FFF7FEBF 		b	chMtxInit
 352              	.LVL28:
 353              		.cfi_endproc
 354              	.LFE22:
 355              		.size	mtx4_setup, .-mtx4_setup
 356 001e 00BF     		.section	.text.mtx5_setup,"ax",%progbits
 357              		.align	2
 358              		.p2align 4,,15
 359              		.thumb
 360              		.thumb_func
 361              		.type	mtx5_setup, %function
 362              	mtx5_setup:
 363              	.LFB26:
 364              		.loc 1 439 0
 365              		.cfi_startproc
 366              		@ args = 0, pretend = 0, frame = 0
 367              		@ frame_needed = 0, uses_anonymous_args = 0
 368              		@ link register save eliminated.
 369              		.loc 1 441 0
 370 0000 40F20000 		movw	r0, #:lower16:.LANCHOR0
 371 0004 C0F20000 		movt	r0, #:upper16:.LANCHOR0
 372 0008 FFF7FEBF 		b	chMtxInit
 373              	.LVL29:
 374              		.cfi_endproc
 375              	.LFE26:
 376              		.size	mtx5_setup, .-mtx5_setup
 377 000c AFF30080 		.section	.text.mtx2_execute,"ax",%progbits
 378              		.align	2
 379              		.p2align 4,,15
 380              		.thumb
 381              		.thumb_func
 382              		.type	mtx2_execute, %function
 383              	mtx2_execute:
 384              	.LFB14:
 385              		.loc 1 201 0
 386              		.cfi_startproc
 387              		@ args = 0, pretend = 0, frame = 0
 388              		@ frame_needed = 0, uses_anonymous_args = 0
 389 0000 2DE9F041 		push	{r4, r5, r6, r7, r8, lr}
 390              		.cfi_def_cfa_offset 24
 391              		.cfi_offset 4, -24
 392              		.cfi_offset 5, -20
 393              		.cfi_offset 6, -16
 394              		.cfi_offset 7, -12
 395              		.cfi_offset 8, -8
 396              		.cfi_offset 14, -4
 397              		.loc 1 206 0
 398 0004 40F20006 		movw	r6, #:lower16:rlist
 399              		.loc 1 201 0
ARM GAS  /tmp/ccGUJQGS.s 			page 8


 400 0008 82B0     		sub	sp, sp, #8
 401              		.cfi_def_cfa_offset 32
 402              		.loc 1 206 0
 403 000a C0F20006 		movt	r6, #:upper16:rlist
 404              		.loc 1 204 0
 405 000e FFF7FEFF 		bl	test_wait_tick
 406              	.LVL30:
 407              		.loc 1 206 0
 408 0012 F369     		ldr	r3, [r6, #28]
 409 0014 40F20005 		movw	r5, #:lower16:wa
 410 0018 9A68     		ldr	r2, [r3, #8]
 411 001a C0F20005 		movt	r5, #:upper16:wa
 412 001e 0027     		movs	r7, #0
 413              		.loc 1 205 0
 414 0020 40F20004 		movw	r4, #:lower16:vtlist
 415              		.loc 1 206 0
 416 0024 40F20003 		movw	r3, #:lower16:thread2H
 417 0028 013A     		subs	r2, r2, #1
 418              		.loc 1 205 0
 419 002a C0F20004 		movt	r4, #:upper16:vtlist
 420              		.loc 1 206 0
 421 002e 0097     		str	r7, [sp]
 422 0030 C0F20003 		movt	r3, #:upper16:thread2H
 423 0034 4FF49871 		mov	r1, #304
 424 0038 2868     		ldr	r0, [r5]
 425              		.loc 1 205 0
 426 003a D4F80C80 		ldr	r8, [r4, #12]
 427              	.LVL31:
 428              		.loc 1 206 0
 429 003e FFF7FEFF 		bl	chThdCreateStatic
 430              	.LVL32:
 431              		.loc 1 207 0
 432 0042 F369     		ldr	r3, [r6, #28]
 433 0044 6968     		ldr	r1, [r5, #4]
 434 0046 9A68     		ldr	r2, [r3, #8]
 435              		.loc 1 206 0
 436 0048 40F20004 		movw	r4, #:lower16:threads
 437 004c C0F20004 		movt	r4, #:upper16:threads
 438              		.loc 1 207 0
 439 0050 40F20003 		movw	r3, #:lower16:thread2M
 440              		.loc 1 206 0
 441 0054 2060     		str	r0, [r4]
 442              		.loc 1 207 0
 443 0056 023A     		subs	r2, r2, #2
 444 0058 0846     		mov	r0, r1
 445 005a C0F20003 		movt	r3, #:upper16:thread2M
 446 005e 4FF49871 		mov	r1, #304
 447 0062 0097     		str	r7, [sp]
 448 0064 FFF7FEFF 		bl	chThdCreateStatic
 449              	.LVL33:
 450              		.loc 1 208 0
 451 0068 F369     		ldr	r3, [r6, #28]
 452 006a A968     		ldr	r1, [r5, #8]
 453 006c 9A68     		ldr	r2, [r3, #8]
 454 006e 40F20003 		movw	r3, #:lower16:thread2L
 455              		.loc 1 207 0
 456 0072 6060     		str	r0, [r4, #4]
ARM GAS  /tmp/ccGUJQGS.s 			page 9


 457              		.loc 1 208 0
 458 0074 033A     		subs	r2, r2, #3
 459 0076 0846     		mov	r0, r1
 460 0078 C0F20003 		movt	r3, #:upper16:thread2L
 461 007c 4FF49871 		mov	r1, #304
 462 0080 0097     		str	r7, [sp]
 463 0082 FFF7FEFF 		bl	chThdCreateStatic
 464              	.LVL34:
 465 0086 A060     		str	r0, [r4, #8]
 466              		.loc 1 209 0
 467 0088 FFF7FEFF 		bl	test_wait_threads
 468              	.LVL35:
 469              		.loc 1 210 0
 470 008c 40F20001 		movw	r1, #:lower16:.LC6
 471 0090 C0F20001 		movt	r1, #:upper16:.LC6
 472 0094 0120     		movs	r0, #1
 473 0096 FFF7FEFF 		bl	_test_assert_sequence
 474              	.LVL36:
 475 009a 10B1     		cbz	r0, .L14
 476              		.loc 1 212 0
 477 009c 02B0     		add	sp, sp, #8
 478              		@ sp needed
 479 009e BDE8F081 		pop	{r4, r5, r6, r7, r8, pc}
 480              	.LVL37:
 481              	.L14:
 482              		.loc 1 211 0
 483 00a2 0220     		movs	r0, #2
 484 00a4 08F16401 		add	r1, r8, #100
 485 00a8 08F16902 		add	r2, r8, #105
 486              		.loc 1 212 0
 487 00ac 02B0     		add	sp, sp, #8
 488              		@ sp needed
 489 00ae BDE8F041 		pop	{r4, r5, r6, r7, r8, lr}
 490              	.LVL38:
 491              		.loc 1 211 0
 492 00b2 FFF7FEBF 		b	_test_assert_time_window
 493              	.LVL39:
 494              		.cfi_endproc
 495              	.LFE14:
 496              		.size	mtx2_execute, .-mtx2_execute
 497 00b6 00BFAFF3 		.section	.text.mtx3_execute,"ax",%progbits
 497      0080AFF3 
 497      0080
 498              		.align	2
 499              		.p2align 4,,15
 500              		.thumb
 501              		.thumb_func
 502              		.type	mtx3_execute, %function
 503              	mtx3_execute:
 504              	.LFB21:
 505              		.loc 1 319 0
 506              		.cfi_startproc
 507              		@ args = 0, pretend = 0, frame = 0
 508              		@ frame_needed = 0, uses_anonymous_args = 0
 509 0000 2DE9F041 		push	{r4, r5, r6, r7, r8, lr}
 510              		.cfi_def_cfa_offset 24
 511              		.cfi_offset 4, -24
ARM GAS  /tmp/ccGUJQGS.s 			page 10


 512              		.cfi_offset 5, -20
 513              		.cfi_offset 6, -16
 514              		.cfi_offset 7, -12
 515              		.cfi_offset 8, -8
 516              		.cfi_offset 14, -4
 517              		.loc 1 324 0
 518 0004 40F20006 		movw	r6, #:lower16:rlist
 519              		.loc 1 319 0
 520 0008 82B0     		sub	sp, sp, #8
 521              		.cfi_def_cfa_offset 32
 522              		.loc 1 324 0
 523 000a C0F20006 		movt	r6, #:upper16:rlist
 524              		.loc 1 322 0
 525 000e FFF7FEFF 		bl	test_wait_tick
 526              	.LVL40:
 527              		.loc 1 324 0
 528 0012 F369     		ldr	r3, [r6, #28]
 529 0014 40F20005 		movw	r5, #:lower16:wa
 530 0018 9A68     		ldr	r2, [r3, #8]
 531 001a C0F20005 		movt	r5, #:upper16:wa
 532 001e 0027     		movs	r7, #0
 533              		.loc 1 323 0
 534 0020 40F20004 		movw	r4, #:lower16:vtlist
 535              		.loc 1 324 0
 536 0024 40F20003 		movw	r3, #:lower16:thread3LL
 537 0028 053A     		subs	r2, r2, #5
 538              		.loc 1 323 0
 539 002a C0F20004 		movt	r4, #:upper16:vtlist
 540              		.loc 1 324 0
 541 002e 0097     		str	r7, [sp]
 542 0030 C0F20003 		movt	r3, #:upper16:thread3LL
 543 0034 4FF49871 		mov	r1, #304
 544 0038 2868     		ldr	r0, [r5]
 545              		.loc 1 323 0
 546 003a D4F80C80 		ldr	r8, [r4, #12]
 547              	.LVL41:
 548              		.loc 1 324 0
 549 003e FFF7FEFF 		bl	chThdCreateStatic
 550              	.LVL42:
 551              		.loc 1 325 0
 552 0042 F369     		ldr	r3, [r6, #28]
 553 0044 6968     		ldr	r1, [r5, #4]
 554 0046 9A68     		ldr	r2, [r3, #8]
 555              		.loc 1 324 0
 556 0048 40F20004 		movw	r4, #:lower16:threads
 557 004c C0F20004 		movt	r4, #:upper16:threads
 558              		.loc 1 325 0
 559 0050 40F20003 		movw	r3, #:lower16:thread3L
 560              		.loc 1 324 0
 561 0054 2060     		str	r0, [r4]
 562              		.loc 1 325 0
 563 0056 043A     		subs	r2, r2, #4
 564 0058 0846     		mov	r0, r1
 565 005a C0F20003 		movt	r3, #:upper16:thread3L
 566 005e 4FF49871 		mov	r1, #304
 567 0062 0097     		str	r7, [sp]
 568 0064 FFF7FEFF 		bl	chThdCreateStatic
ARM GAS  /tmp/ccGUJQGS.s 			page 11


 569              	.LVL43:
 570              		.loc 1 326 0
 571 0068 F369     		ldr	r3, [r6, #28]
 572 006a A968     		ldr	r1, [r5, #8]
 573 006c 9A68     		ldr	r2, [r3, #8]
 574 006e 40F20003 		movw	r3, #:lower16:thread3M
 575              		.loc 1 325 0
 576 0072 6060     		str	r0, [r4, #4]
 577              		.loc 1 326 0
 578 0074 033A     		subs	r2, r2, #3
 579 0076 0846     		mov	r0, r1
 580 0078 C0F20003 		movt	r3, #:upper16:thread3M
 581 007c 4FF49871 		mov	r1, #304
 582 0080 0097     		str	r7, [sp]
 583 0082 FFF7FEFF 		bl	chThdCreateStatic
 584              	.LVL44:
 585              		.loc 1 327 0
 586 0086 F369     		ldr	r3, [r6, #28]
 587 0088 E968     		ldr	r1, [r5, #12]
 588 008a 9A68     		ldr	r2, [r3, #8]
 589 008c 40F20003 		movw	r3, #:lower16:thread3H
 590              		.loc 1 326 0
 591 0090 A060     		str	r0, [r4, #8]
 592              		.loc 1 327 0
 593 0092 023A     		subs	r2, r2, #2
 594 0094 0846     		mov	r0, r1
 595 0096 C0F20003 		movt	r3, #:upper16:thread3H
 596 009a 4FF49871 		mov	r1, #304
 597 009e 0097     		str	r7, [sp]
 598 00a0 FFF7FEFF 		bl	chThdCreateStatic
 599              	.LVL45:
 600              		.loc 1 328 0
 601 00a4 F369     		ldr	r3, [r6, #28]
 602 00a6 2969     		ldr	r1, [r5, #16]
 603 00a8 9A68     		ldr	r2, [r3, #8]
 604 00aa 40F20003 		movw	r3, #:lower16:thread3HH
 605              		.loc 1 327 0
 606 00ae E060     		str	r0, [r4, #12]
 607              		.loc 1 328 0
 608 00b0 013A     		subs	r2, r2, #1
 609 00b2 0846     		mov	r0, r1
 610 00b4 C0F20003 		movt	r3, #:upper16:thread3HH
 611 00b8 4FF49871 		mov	r1, #304
 612 00bc 0097     		str	r7, [sp]
 613 00be FFF7FEFF 		bl	chThdCreateStatic
 614              	.LVL46:
 615 00c2 2061     		str	r0, [r4, #16]
 616              		.loc 1 329 0
 617 00c4 FFF7FEFF 		bl	test_wait_threads
 618              	.LVL47:
 619              		.loc 1 330 0
 620 00c8 40F20001 		movw	r1, #:lower16:.LC5
 621 00cc C0F20001 		movt	r1, #:upper16:.LC5
 622 00d0 0120     		movs	r0, #1
 623 00d2 FFF7FEFF 		bl	_test_assert_sequence
 624              	.LVL48:
 625 00d6 10B1     		cbz	r0, .L17
ARM GAS  /tmp/ccGUJQGS.s 			page 12


 626              		.loc 1 332 0
 627 00d8 02B0     		add	sp, sp, #8
 628              		@ sp needed
 629 00da BDE8F081 		pop	{r4, r5, r6, r7, r8, pc}
 630              	.LVL49:
 631              	.L17:
 632              		.loc 1 331 0
 633 00de 0220     		movs	r0, #2
 634 00e0 08F16E01 		add	r1, r8, #110
 635 00e4 08F17302 		add	r2, r8, #115
 636              		.loc 1 332 0
 637 00e8 02B0     		add	sp, sp, #8
 638              		@ sp needed
 639 00ea BDE8F041 		pop	{r4, r5, r6, r7, r8, lr}
 640              	.LVL50:
 641              		.loc 1 331 0
 642 00ee FFF7FEBF 		b	_test_assert_time_window
 643              	.LVL51:
 644              		.cfi_endproc
 645              	.LFE21:
 646              		.size	mtx3_execute, .-mtx3_execute
 647 00f2 00BFAFF3 		.section	.text.thread2L,"ax",%progbits
 647      0080AFF3 
 647      0080AFF3 
 647      0080
 648              		.align	2
 649              		.p2align 4,,15
 650              		.thumb
 651              		.thumb_func
 652              		.type	thread2L, %function
 653              	thread2L:
 654              	.LFB11:
 655              		.loc 1 168 0
 656              		.cfi_startproc
 657              		@ args = 0, pretend = 0, frame = 0
 658              		@ frame_needed = 0, uses_anonymous_args = 0
 659              	.LVL52:
 660 0000 08B5     		push	{r3, lr}
 661              		.cfi_def_cfa_offset 8
 662              		.cfi_offset 3, -8
 663              		.cfi_offset 14, -4
 664              		.loc 1 171 0
 665 0002 40F20000 		movw	r0, #:lower16:.LANCHOR0
 666              	.LVL53:
 667 0006 C0F20000 		movt	r0, #:upper16:.LANCHOR0
 668 000a FFF7FEFF 		bl	chMtxLock
 669              	.LVL54:
 670              		.loc 1 172 0
 671 000e 2820     		movs	r0, #40
 672 0010 FFF7FEFF 		bl	test_cpu_pulse
 673              	.LVL55:
 674              		.loc 1 173 0
 675 0014 FFF7FEFF 		bl	chMtxUnlock
 676              	.LVL56:
 677              		.loc 1 174 0
 678 0018 0A20     		movs	r0, #10
 679 001a FFF7FEFF 		bl	test_cpu_pulse
ARM GAS  /tmp/ccGUJQGS.s 			page 13


 680              	.LVL57:
 681              		.loc 1 175 0
 682 001e 4320     		movs	r0, #67
 683 0020 FFF7FEFF 		bl	test_emit_token
 684              	.LVL58:
 685              		.loc 1 177 0
 686 0024 0020     		movs	r0, #0
 687 0026 08BD     		pop	{r3, pc}
 688              		.cfi_endproc
 689              	.LFE11:
 690              		.size	thread2L, .-thread2L
 691 0028 AFF30080 		.section	.text.thread3LL,"ax",%progbits
 691      AFF30080 
 692              		.align	2
 693              		.p2align 4,,15
 694              		.thumb
 695              		.thumb_func
 696              		.type	thread3LL, %function
 697              	thread3LL:
 698              	.LFB16:
 699              		.loc 1 259 0
 700              		.cfi_startproc
 701              		@ args = 0, pretend = 0, frame = 0
 702              		@ frame_needed = 0, uses_anonymous_args = 0
 703              	.LVL59:
 704 0000 08B5     		push	{r3, lr}
 705              		.cfi_def_cfa_offset 8
 706              		.cfi_offset 3, -8
 707              		.cfi_offset 14, -4
 708              		.loc 1 262 0
 709 0002 40F20000 		movw	r0, #:lower16:.LANCHOR0
 710              	.LVL60:
 711 0006 C0F20000 		movt	r0, #:upper16:.LANCHOR0
 712 000a FFF7FEFF 		bl	chMtxLock
 713              	.LVL61:
 714              		.loc 1 263 0
 715 000e 1E20     		movs	r0, #30
 716 0010 FFF7FEFF 		bl	test_cpu_pulse
 717              	.LVL62:
 718              		.loc 1 264 0
 719 0014 FFF7FEFF 		bl	chMtxUnlock
 720              	.LVL63:
 721              		.loc 1 265 0
 722 0018 4520     		movs	r0, #69
 723 001a FFF7FEFF 		bl	test_emit_token
 724              	.LVL64:
 725              		.loc 1 267 0
 726 001e 0020     		movs	r0, #0
 727 0020 08BD     		pop	{r3, pc}
 728              		.cfi_endproc
 729              	.LFE16:
 730              		.size	thread3LL, .-thread3LL
 731 0022 00BFAFF3 		.section	.text.thread2M,"ax",%progbits
 731      0080AFF3 
 731      0080AFF3 
 731      0080
 732              		.align	2
ARM GAS  /tmp/ccGUJQGS.s 			page 14


 733              		.p2align 4,,15
 734              		.thumb
 735              		.thumb_func
 736              		.type	thread2M, %function
 737              	thread2M:
 738              	.LFB12:
 739              		.loc 1 180 0
 740              		.cfi_startproc
 741              		@ args = 0, pretend = 0, frame = 0
 742              		@ frame_needed = 0, uses_anonymous_args = 0
 743              	.LVL65:
 744 0000 08B5     		push	{r3, lr}
 745              		.cfi_def_cfa_offset 8
 746              		.cfi_offset 3, -8
 747              		.cfi_offset 14, -4
 748              		.loc 1 183 0
 749 0002 1420     		movs	r0, #20
 750              	.LVL66:
 751 0004 FFF7FEFF 		bl	chThdSleep
 752              	.LVL67:
 753              		.loc 1 184 0
 754 0008 2820     		movs	r0, #40
 755 000a FFF7FEFF 		bl	test_cpu_pulse
 756              	.LVL68:
 757              		.loc 1 185 0
 758 000e 4220     		movs	r0, #66
 759 0010 FFF7FEFF 		bl	test_emit_token
 760              	.LVL69:
 761              		.loc 1 187 0
 762 0014 0020     		movs	r0, #0
 763 0016 08BD     		pop	{r3, pc}
 764              		.cfi_endproc
 765              	.LFE12:
 766              		.size	thread2M, .-thread2M
 767 0018 AFF30080 		.section	.text.thread2H,"ax",%progbits
 767      AFF30080 
 768              		.align	2
 769              		.p2align 4,,15
 770              		.thumb
 771              		.thumb_func
 772              		.type	thread2H, %function
 773              	thread2H:
 774              	.LFB13:
 775              		.loc 1 190 0
 776              		.cfi_startproc
 777              		@ args = 0, pretend = 0, frame = 0
 778              		@ frame_needed = 0, uses_anonymous_args = 0
 779              	.LVL70:
 780 0000 08B5     		push	{r3, lr}
 781              		.cfi_def_cfa_offset 8
 782              		.cfi_offset 3, -8
 783              		.cfi_offset 14, -4
 784              		.loc 1 193 0
 785 0002 2820     		movs	r0, #40
 786              	.LVL71:
 787 0004 FFF7FEFF 		bl	chThdSleep
 788              	.LVL72:
ARM GAS  /tmp/ccGUJQGS.s 			page 15


 789              		.loc 1 194 0
 790 0008 40F20000 		movw	r0, #:lower16:.LANCHOR0
 791 000c C0F20000 		movt	r0, #:upper16:.LANCHOR0
 792 0010 FFF7FEFF 		bl	chMtxLock
 793              	.LVL73:
 794              		.loc 1 195 0
 795 0014 0A20     		movs	r0, #10
 796 0016 FFF7FEFF 		bl	test_cpu_pulse
 797              	.LVL74:
 798              		.loc 1 196 0
 799 001a FFF7FEFF 		bl	chMtxUnlock
 800              	.LVL75:
 801              		.loc 1 197 0
 802 001e 4120     		movs	r0, #65
 803 0020 FFF7FEFF 		bl	test_emit_token
 804              	.LVL76:
 805              		.loc 1 199 0
 806 0024 0020     		movs	r0, #0
 807 0026 08BD     		pop	{r3, pc}
 808              		.cfi_endproc
 809              	.LFE13:
 810              		.size	thread2H, .-thread2H
 811 0028 AFF30080 		.section	.text.thread3HH,"ax",%progbits
 811      AFF30080 
 812              		.align	2
 813              		.p2align 4,,15
 814              		.thumb
 815              		.thumb_func
 816              		.type	thread3HH, %function
 817              	thread3HH:
 818              	.LFB20:
 819              		.loc 1 308 0
 820              		.cfi_startproc
 821              		@ args = 0, pretend = 0, frame = 0
 822              		@ frame_needed = 0, uses_anonymous_args = 0
 823              	.LVL77:
 824 0000 08B5     		push	{r3, lr}
 825              		.cfi_def_cfa_offset 8
 826              		.cfi_offset 3, -8
 827              		.cfi_offset 14, -4
 828              		.loc 1 311 0
 829 0002 3220     		movs	r0, #50
 830              	.LVL78:
 831 0004 FFF7FEFF 		bl	chThdSleep
 832              	.LVL79:
 833              		.loc 1 312 0
 834 0008 40F20000 		movw	r0, #:lower16:.LANCHOR1
 835 000c C0F20000 		movt	r0, #:upper16:.LANCHOR1
 836 0010 FFF7FEFF 		bl	chMtxLock
 837              	.LVL80:
 838              		.loc 1 313 0
 839 0014 0A20     		movs	r0, #10
 840 0016 FFF7FEFF 		bl	test_cpu_pulse
 841              	.LVL81:
 842              		.loc 1 314 0
 843 001a FFF7FEFF 		bl	chMtxUnlock
 844              	.LVL82:
ARM GAS  /tmp/ccGUJQGS.s 			page 16


 845              		.loc 1 315 0
 846 001e 4120     		movs	r0, #65
 847 0020 FFF7FEFF 		bl	test_emit_token
 848              	.LVL83:
 849              		.loc 1 317 0
 850 0024 0020     		movs	r0, #0
 851 0026 08BD     		pop	{r3, pc}
 852              		.cfi_endproc
 853              	.LFE20:
 854              		.size	thread3HH, .-thread3HH
 855 0028 AFF30080 		.section	.text.thread3H,"ax",%progbits
 855      AFF30080 
 856              		.align	2
 857              		.p2align 4,,15
 858              		.thumb
 859              		.thumb_func
 860              		.type	thread3H, %function
 861              	thread3H:
 862              	.LFB19:
 863              		.loc 1 298 0
 864              		.cfi_startproc
 865              		@ args = 0, pretend = 0, frame = 0
 866              		@ frame_needed = 0, uses_anonymous_args = 0
 867              	.LVL84:
 868 0000 08B5     		push	{r3, lr}
 869              		.cfi_def_cfa_offset 8
 870              		.cfi_offset 3, -8
 871              		.cfi_offset 14, -4
 872              		.loc 1 301 0
 873 0002 2820     		movs	r0, #40
 874              	.LVL85:
 875 0004 FFF7FEFF 		bl	chThdSleep
 876              	.LVL86:
 877              		.loc 1 302 0
 878 0008 1420     		movs	r0, #20
 879 000a FFF7FEFF 		bl	test_cpu_pulse
 880              	.LVL87:
 881              		.loc 1 303 0
 882 000e 4220     		movs	r0, #66
 883 0010 FFF7FEFF 		bl	test_emit_token
 884              	.LVL88:
 885              		.loc 1 305 0
 886 0014 0020     		movs	r0, #0
 887 0016 08BD     		pop	{r3, pc}
 888              		.cfi_endproc
 889              	.LFE19:
 890              		.size	thread3H, .-thread3H
 891 0018 AFF30080 		.section	.text.thread3M,"ax",%progbits
 891      AFF30080 
 892              		.align	2
 893              		.p2align 4,,15
 894              		.thumb
 895              		.thumb_func
 896              		.type	thread3M, %function
 897              	thread3M:
 898              	.LFB18:
 899              		.loc 1 286 0
ARM GAS  /tmp/ccGUJQGS.s 			page 17


 900              		.cfi_startproc
 901              		@ args = 0, pretend = 0, frame = 0
 902              		@ frame_needed = 0, uses_anonymous_args = 0
 903              	.LVL89:
 904 0000 08B5     		push	{r3, lr}
 905              		.cfi_def_cfa_offset 8
 906              		.cfi_offset 3, -8
 907              		.cfi_offset 14, -4
 908              		.loc 1 289 0
 909 0002 1420     		movs	r0, #20
 910              	.LVL90:
 911 0004 FFF7FEFF 		bl	chThdSleep
 912              	.LVL91:
 913              		.loc 1 290 0
 914 0008 40F20000 		movw	r0, #:lower16:.LANCHOR1
 915 000c C0F20000 		movt	r0, #:upper16:.LANCHOR1
 916 0010 FFF7FEFF 		bl	chMtxLock
 917              	.LVL92:
 918              		.loc 1 291 0
 919 0014 0A20     		movs	r0, #10
 920 0016 FFF7FEFF 		bl	test_cpu_pulse
 921              	.LVL93:
 922              		.loc 1 292 0
 923 001a FFF7FEFF 		bl	chMtxUnlock
 924              	.LVL94:
 925              		.loc 1 293 0
 926 001e 4320     		movs	r0, #67
 927 0020 FFF7FEFF 		bl	test_emit_token
 928              	.LVL95:
 929              		.loc 1 295 0
 930 0024 0020     		movs	r0, #0
 931 0026 08BD     		pop	{r3, pc}
 932              		.cfi_endproc
 933              	.LFE18:
 934              		.size	thread3M, .-thread3M
 935 0028 AFF30080 		.section	.text.thread3L,"ax",%progbits
 935      AFF30080 
 936              		.align	2
 937              		.p2align 4,,15
 938              		.thumb
 939              		.thumb_func
 940              		.type	thread3L, %function
 941              	thread3L:
 942              	.LFB17:
 943              		.loc 1 270 0
 944              		.cfi_startproc
 945              		@ args = 0, pretend = 0, frame = 0
 946              		@ frame_needed = 0, uses_anonymous_args = 0
 947              	.LVL96:
 948 0000 08B5     		push	{r3, lr}
 949              		.cfi_def_cfa_offset 8
 950              		.cfi_offset 3, -8
 951              		.cfi_offset 14, -4
 952              		.loc 1 273 0
 953 0002 0A20     		movs	r0, #10
 954              	.LVL97:
 955 0004 FFF7FEFF 		bl	chThdSleep
ARM GAS  /tmp/ccGUJQGS.s 			page 18


 956              	.LVL98:
 957              		.loc 1 274 0
 958 0008 40F20000 		movw	r0, #:lower16:.LANCHOR1
 959 000c C0F20000 		movt	r0, #:upper16:.LANCHOR1
 960 0010 FFF7FEFF 		bl	chMtxLock
 961              	.LVL99:
 962              		.loc 1 275 0
 963 0014 1420     		movs	r0, #20
 964 0016 FFF7FEFF 		bl	test_cpu_pulse
 965              	.LVL100:
 966              		.loc 1 276 0
 967 001a 40F20000 		movw	r0, #:lower16:.LANCHOR0
 968 001e C0F20000 		movt	r0, #:upper16:.LANCHOR0
 969 0022 FFF7FEFF 		bl	chMtxLock
 970              	.LVL101:
 971              		.loc 1 277 0
 972 0026 0A20     		movs	r0, #10
 973 0028 FFF7FEFF 		bl	test_cpu_pulse
 974              	.LVL102:
 975              		.loc 1 278 0
 976 002c FFF7FEFF 		bl	chMtxUnlock
 977              	.LVL103:
 978              		.loc 1 279 0
 979 0030 0A20     		movs	r0, #10
 980 0032 FFF7FEFF 		bl	test_cpu_pulse
 981              	.LVL104:
 982              		.loc 1 280 0
 983 0036 FFF7FEFF 		bl	chMtxUnlock
 984              	.LVL105:
 985              		.loc 1 281 0
 986 003a 4420     		movs	r0, #68
 987 003c FFF7FEFF 		bl	test_emit_token
 988              	.LVL106:
 989              		.loc 1 283 0
 990 0040 0020     		movs	r0, #0
 991 0042 08BD     		pop	{r3, pc}
 992              		.cfi_endproc
 993              	.LFE17:
 994              		.size	thread3L, .-thread3L
 995 0044 AFF30080 		.section	.text.thread4b,"ax",%progbits
 995      AFF30080 
 995      AFF30080 
 996              		.align	2
 997              		.p2align 4,,15
 998              		.thumb
 999              		.thumb_func
 1000              		.type	thread4b, %function
 1001              	thread4b:
 1002              	.LFB24:
 1003              		.loc 1 367 0
 1004              		.cfi_startproc
 1005              		@ args = 0, pretend = 0, frame = 0
 1006              		@ frame_needed = 0, uses_anonymous_args = 0
 1007              	.LVL107:
 1008 0000 08B5     		push	{r3, lr}
 1009              		.cfi_def_cfa_offset 8
 1010              		.cfi_offset 3, -8
ARM GAS  /tmp/ccGUJQGS.s 			page 19


 1011              		.cfi_offset 14, -4
 1012              		.loc 1 370 0
 1013 0002 9620     		movs	r0, #150
 1014              	.LVL108:
 1015 0004 FFF7FEFF 		bl	chThdSleep
 1016              	.LVL109:
 1017              		.loc 1 371 0
 1018 0008 40F20000 		movw	r0, #:lower16:.LANCHOR0
 1019 000c C0F20000 		movt	r0, #:upper16:.LANCHOR0
 1020 0010 FFF7FEFF 		bl	chMtxLock
 1021              	.LVL110:
 1022              		.loc 1 372 0
 1023 0014 FFF7FEFF 		bl	chMtxUnlock
 1024              	.LVL111:
 1025              		.loc 1 374 0
 1026 0018 0020     		movs	r0, #0
 1027 001a 08BD     		pop	{r3, pc}
 1028              		.cfi_endproc
 1029              	.LFE24:
 1030              		.size	thread4b, .-thread4b
 1031 001c AFF30080 		.section	.text.thread4a,"ax",%progbits
 1032              		.align	2
 1033              		.p2align 4,,15
 1034              		.thumb
 1035              		.thumb_func
 1036              		.type	thread4a, %function
 1037              	thread4a:
 1038              	.LFB23:
 1039              		.loc 1 358 0
 1040              		.cfi_startproc
 1041              		@ args = 0, pretend = 0, frame = 0
 1042              		@ frame_needed = 0, uses_anonymous_args = 0
 1043              	.LVL112:
 1044 0000 08B5     		push	{r3, lr}
 1045              		.cfi_def_cfa_offset 8
 1046              		.cfi_offset 3, -8
 1047              		.cfi_offset 14, -4
 1048              		.loc 1 361 0
 1049 0002 3220     		movs	r0, #50
 1050              	.LVL113:
 1051 0004 FFF7FEFF 		bl	chThdSleep
 1052              	.LVL114:
 1053              		.loc 1 362 0
 1054 0008 40F20000 		movw	r0, #:lower16:.LANCHOR1
 1055 000c C0F20000 		movt	r0, #:upper16:.LANCHOR1
 1056 0010 FFF7FEFF 		bl	chMtxLock
 1057              	.LVL115:
 1058              		.loc 1 363 0
 1059 0014 FFF7FEFF 		bl	chMtxUnlock
 1060              	.LVL116:
 1061              		.loc 1 365 0
 1062 0018 0020     		movs	r0, #0
 1063 001a 08BD     		pop	{r3, pc}
 1064              		.cfi_endproc
 1065              	.LFE23:
 1066              		.size	thread4a, .-thread4a
 1067 001c AFF30080 		.section	.text.mtx4_execute,"ax",%progbits
ARM GAS  /tmp/ccGUJQGS.s 			page 20


 1068              		.align	2
 1069              		.p2align 4,,15
 1070              		.thumb
 1071              		.thumb_func
 1072              		.type	mtx4_execute, %function
 1073              	mtx4_execute:
 1074              	.LFB25:
 1075              		.loc 1 376 0
 1076              		.cfi_startproc
 1077              		@ args = 0, pretend = 0, frame = 8
 1078              		@ frame_needed = 0, uses_anonymous_args = 0
 1079 0000 2DE9F046 		push	{r4, r5, r6, r7, r9, r10, lr}
 1080              		.cfi_def_cfa_offset 28
 1081              		.cfi_offset 4, -28
 1082              		.cfi_offset 5, -24
 1083              		.cfi_offset 6, -20
 1084              		.cfi_offset 7, -16
 1085              		.cfi_offset 9, -12
 1086              		.cfi_offset 10, -8
 1087              		.cfi_offset 14, -4
 1088              		.loc 1 379 0
 1089 0004 40F20004 		movw	r4, #:lower16:rlist
 1090 0008 C0F20004 		movt	r4, #:upper16:rlist
 1091 000c E369     		ldr	r3, [r4, #28]
 1092              		.loc 1 382 0
 1093 000e 40F20006 		movw	r6, #:lower16:wa
 1094 0012 C0F20006 		movt	r6, #:upper16:wa
 1095              		.loc 1 379 0
 1096 0016 9F68     		ldr	r7, [r3, #8]
 1097              	.LVL117:
 1098              		.loc 1 382 0
 1099 0018 3368     		ldr	r3, [r6]
 1100              		.loc 1 376 0
 1101 001a 85B0     		sub	sp, sp, #20
 1102              		.cfi_def_cfa_offset 48
 1103              		.loc 1 382 0
 1104 001c 40F20001 		movw	r1, #:lower16:.LC3
 1105 0020 0393     		str	r3, [sp, #12]
 1106 0022 C0F20001 		movt	r1, #:upper16:.LC3
 1107              		.loc 1 380 0
 1108 0026 07F10109 		add	r9, r7, #1
 1109              	.LVL118:
 1110              		.loc 1 382 0
 1111 002a 40F20003 		movw	r3, #:lower16:thread4a
 1112 002e 4A46     		mov	r2, r9
 1113 0030 0091     		str	r1, [sp]
 1114 0032 C0F20003 		movt	r3, #:upper16:thread4a
 1115 0036 4FF49871 		mov	r1, #304
 1116 003a 0398     		ldr	r0, [sp, #12]
 1117 003c FFF7FEFF 		bl	chThdCreateStatic
 1118              	.LVL119:
 1119 0040 40F20005 		movw	r5, #:lower16:threads
 1120              		.loc 1 383 0
 1121 0044 7668     		ldr	r6, [r6, #4]
 1122 0046 40F20001 		movw	r1, #:lower16:.LC4
 1123              		.loc 1 382 0
 1124 004a C0F20005 		movt	r5, #:upper16:threads
ARM GAS  /tmp/ccGUJQGS.s 			page 21


 1125              		.loc 1 383 0
 1126 004e C0F20001 		movt	r1, #:upper16:.LC4
 1127              		.loc 1 381 0
 1128 0052 07F1020A 		add	r10, r7, #2
 1129              	.LVL120:
 1130              		.loc 1 383 0
 1131 0056 40F20003 		movw	r3, #:lower16:thread4b
 1132              		.loc 1 382 0
 1133 005a 2860     		str	r0, [r5]
 1134              		.loc 1 383 0
 1135 005c C0F20003 		movt	r3, #:upper16:thread4b
 1136 0060 5246     		mov	r2, r10
 1137 0062 0091     		str	r1, [sp]
 1138 0064 3046     		mov	r0, r6
 1139 0066 4FF49871 		mov	r1, #304
 1140 006a FFF7FEFF 		bl	chThdCreateStatic
 1141              	.LVL121:
 1142 006e 6860     		str	r0, [r5, #4]
 1143              		.loc 1 384 0
 1144 0070 40F20000 		movw	r0, #:lower16:.LANCHOR1
 1145 0074 C0F20000 		movt	r0, #:upper16:.LANCHOR1
 1146 0078 FFF7FEFF 		bl	chMtxLock
 1147              	.LVL122:
 1148              		.loc 1 385 0
 1149 007c E369     		ldr	r3, [r4, #28]
 1150 007e 0120     		movs	r0, #1
 1151 0080 9968     		ldr	r1, [r3, #8]
 1152 0082 CB1B     		subs	r3, r1, r7
 1153 0084 5942     		rsbs	r1, r3, #0
 1154 0086 5941     		adcs	r1, r1, r3
 1155 0088 FFF7FEFF 		bl	_test_assert
 1156              	.LVL123:
 1157 008c 10B1     		cbz	r0, .L32
 1158              	.L28:
 1159              		.loc 1 420 0
 1160 008e 05B0     		add	sp, sp, #20
 1161              		@ sp needed
 1162 0090 BDE8F086 		pop	{r4, r5, r6, r7, r9, r10, pc}
 1163              	.LVL124:
 1164              	.L32:
 1165              		.loc 1 386 0
 1166 0094 6420     		movs	r0, #100
 1167 0096 FFF7FEFF 		bl	chThdSleep
 1168              	.LVL125:
 1169              		.loc 1 387 0
 1170 009a E369     		ldr	r3, [r4, #28]
 1171 009c 0220     		movs	r0, #2
 1172 009e 9968     		ldr	r1, [r3, #8]
 1173 00a0 B1EB090C 		subs	ip, r1, r9
 1174 00a4 DCF10001 		rsbs	r1, ip, #0
 1175 00a8 51EB0C01 		adcs	r1, r1, ip
 1176 00ac FFF7FEFF 		bl	_test_assert
 1177              	.LVL126:
 1178 00b0 0028     		cmp	r0, #0
 1179 00b2 ECD1     		bne	.L28
 1180              		.loc 1 388 0
 1181 00b4 40F20000 		movw	r0, #:lower16:.LANCHOR0
ARM GAS  /tmp/ccGUJQGS.s 			page 22


 1182 00b8 C0F20000 		movt	r0, #:upper16:.LANCHOR0
 1183 00bc FFF7FEFF 		bl	chMtxLock
 1184              	.LVL127:
 1185              		.loc 1 389 0
 1186 00c0 E369     		ldr	r3, [r4, #28]
 1187 00c2 0320     		movs	r0, #3
 1188 00c4 9968     		ldr	r1, [r3, #8]
 1189 00c6 B1EB090E 		subs	lr, r1, r9
 1190 00ca DEF10001 		rsbs	r1, lr, #0
 1191 00ce 51EB0E01 		adcs	r1, r1, lr
 1192 00d2 FFF7FEFF 		bl	_test_assert
 1193              	.LVL128:
 1194 00d6 0028     		cmp	r0, #0
 1195 00d8 D9D1     		bne	.L28
 1196              		.loc 1 390 0
 1197 00da 6420     		movs	r0, #100
 1198 00dc FFF7FEFF 		bl	chThdSleep
 1199              	.LVL129:
 1200              		.loc 1 391 0
 1201 00e0 E369     		ldr	r3, [r4, #28]
 1202 00e2 0420     		movs	r0, #4
 1203 00e4 9968     		ldr	r1, [r3, #8]
 1204 00e6 B1EB0A02 		subs	r2, r1, r10
 1205 00ea 5142     		rsbs	r1, r2, #0
 1206 00ec 5141     		adcs	r1, r1, r2
 1207 00ee FFF7FEFF 		bl	_test_assert
 1208              	.LVL130:
 1209 00f2 0028     		cmp	r0, #0
 1210 00f4 CBD1     		bne	.L28
 1211              		.loc 1 392 0
 1212 00f6 FFF7FEFF 		bl	chMtxUnlock
 1213              	.LVL131:
 1214              		.loc 1 393 0
 1215 00fa E369     		ldr	r3, [r4, #28]
 1216 00fc 0520     		movs	r0, #5
 1217 00fe 9968     		ldr	r1, [r3, #8]
 1218 0100 B1EB0903 		subs	r3, r1, r9
 1219 0104 5942     		rsbs	r1, r3, #0
 1220 0106 5941     		adcs	r1, r1, r3
 1221 0108 FFF7FEFF 		bl	_test_assert
 1222              	.LVL132:
 1223 010c 0028     		cmp	r0, #0
 1224 010e BED1     		bne	.L28
 1225              		.loc 1 394 0
 1226 0110 6420     		movs	r0, #100
 1227 0112 FFF7FEFF 		bl	chThdSleep
 1228              	.LVL133:
 1229              		.loc 1 395 0
 1230 0116 E369     		ldr	r3, [r4, #28]
 1231 0118 0620     		movs	r0, #6
 1232 011a 9968     		ldr	r1, [r3, #8]
 1233 011c B1EB090C 		subs	ip, r1, r9
 1234 0120 DCF10001 		rsbs	r1, ip, #0
 1235 0124 51EB0C01 		adcs	r1, r1, ip
 1236 0128 FFF7FEFF 		bl	_test_assert
 1237              	.LVL134:
 1238 012c 0028     		cmp	r0, #0
ARM GAS  /tmp/ccGUJQGS.s 			page 23


 1239 012e AED1     		bne	.L28
 1240              		.loc 1 396 0
 1241 0130 FFF7FEFF 		bl	chMtxUnlockAll
 1242              	.LVL135:
 1243              		.loc 1 397 0
 1244 0134 E369     		ldr	r3, [r4, #28]
 1245 0136 0720     		movs	r0, #7
 1246 0138 9968     		ldr	r1, [r3, #8]
 1247 013a B1EB070E 		subs	lr, r1, r7
 1248 013e DEF10001 		rsbs	r1, lr, #0
 1249 0142 51EB0E01 		adcs	r1, r1, lr
 1250 0146 FFF7FEFF 		bl	_test_assert
 1251              	.LVL136:
 1252 014a 0028     		cmp	r0, #0
 1253 014c 9FD1     		bne	.L28
 1254              		.loc 1 398 0
 1255 014e FFF7FEFF 		bl	test_wait_threads
 1256              	.LVL137:
 1257              		.loc 1 401 0
 1258 0152 40F20002 		movw	r2, #:lower16:.LC1
 1259 0156 C0F20002 		movt	r2, #:upper16:.LC1
 1260 015a 40F20003 		movw	r3, #:lower16:thread4a
 1261 015e 0092     		str	r2, [sp]
 1262 0160 C0F20003 		movt	r3, #:upper16:thread4a
 1263 0164 4FF49871 		mov	r1, #304
 1264 0168 4A46     		mov	r2, r9
 1265 016a 0398     		ldr	r0, [sp, #12]
 1266 016c FFF7FEFF 		bl	chThdCreateStatic
 1267              	.LVL138:
 1268              		.loc 1 402 0
 1269 0170 40F20002 		movw	r2, #:lower16:.LC2
 1270 0174 C0F20002 		movt	r2, #:upper16:.LC2
 1271 0178 40F20003 		movw	r3, #:lower16:thread4b
 1272              		.loc 1 401 0
 1273 017c 2860     		str	r0, [r5]
 1274              		.loc 1 402 0
 1275 017e C0F20003 		movt	r3, #:upper16:thread4b
 1276 0182 4FF49871 		mov	r1, #304
 1277 0186 0092     		str	r2, [sp]
 1278 0188 3046     		mov	r0, r6
 1279 018a 5246     		mov	r2, r10
 1280 018c FFF7FEFF 		bl	chThdCreateStatic
 1281              	.LVL139:
 1282 0190 6860     		str	r0, [r5, #4]
 1283              		.loc 1 403 0
 1284 0192 40F20000 		movw	r0, #:lower16:.LANCHOR1
 1285 0196 C0F20000 		movt	r0, #:upper16:.LANCHOR1
 1286 019a FFF7FEFF 		bl	chMtxLock
 1287              	.LVL140:
 1288              		.loc 1 404 0
 1289 019e E369     		ldr	r3, [r4, #28]
 1290 01a0 0820     		movs	r0, #8
 1291 01a2 9968     		ldr	r1, [r3, #8]
 1292 01a4 CA1B     		subs	r2, r1, r7
 1293 01a6 5142     		rsbs	r1, r2, #0
 1294 01a8 5141     		adcs	r1, r1, r2
 1295 01aa FFF7FEFF 		bl	_test_assert
ARM GAS  /tmp/ccGUJQGS.s 			page 24


 1296              	.LVL141:
 1297 01ae 0028     		cmp	r0, #0
 1298 01b0 7FF46DAF 		bne	.L28
 1299              		.loc 1 405 0
 1300 01b4 6420     		movs	r0, #100
 1301 01b6 FFF7FEFF 		bl	chThdSleep
 1302              	.LVL142:
 1303              		.loc 1 406 0
 1304 01ba E369     		ldr	r3, [r4, #28]
 1305 01bc 0920     		movs	r0, #9
 1306 01be 9968     		ldr	r1, [r3, #8]
 1307 01c0 B1EB0903 		subs	r3, r1, r9
 1308 01c4 5942     		rsbs	r1, r3, #0
 1309 01c6 5941     		adcs	r1, r1, r3
 1310 01c8 FFF7FEFF 		bl	_test_assert
 1311              	.LVL143:
 1312 01cc 0028     		cmp	r0, #0
 1313 01ce 7FF45EAF 		bne	.L28
 1314              		.loc 1 407 0
 1315 01d2 40F20000 		movw	r0, #:lower16:.LANCHOR0
 1316 01d6 C0F20000 		movt	r0, #:upper16:.LANCHOR0
 1317 01da FFF7FEFF 		bl	chMtxLock
 1318              	.LVL144:
 1319              		.loc 1 408 0
 1320 01de E369     		ldr	r3, [r4, #28]
 1321 01e0 0A20     		movs	r0, #10
 1322 01e2 9968     		ldr	r1, [r3, #8]
 1323 01e4 B1EB090C 		subs	ip, r1, r9
 1324 01e8 DCF10001 		rsbs	r1, ip, #0
 1325 01ec 51EB0C01 		adcs	r1, r1, ip
 1326 01f0 FFF7FEFF 		bl	_test_assert
 1327              	.LVL145:
 1328 01f4 0028     		cmp	r0, #0
 1329 01f6 7FF44AAF 		bne	.L28
 1330              		.loc 1 409 0
 1331 01fa 6420     		movs	r0, #100
 1332 01fc FFF7FEFF 		bl	chThdSleep
 1333              	.LVL146:
 1334              		.loc 1 410 0
 1335 0200 E369     		ldr	r3, [r4, #28]
 1336 0202 0B20     		movs	r0, #11
 1337 0204 9968     		ldr	r1, [r3, #8]
 1338 0206 B1EB0A0E 		subs	lr, r1, r10
 1339 020a DEF10001 		rsbs	r1, lr, #0
 1340 020e 51EB0E01 		adcs	r1, r1, lr
 1341 0212 FFF7FEFF 		bl	_test_assert
 1342              	.LVL147:
 1343 0216 0028     		cmp	r0, #0
 1344 0218 7FF439AF 		bne	.L28
 1345              	.LBB2:
 1346              		.loc 1 411 0
 1347 021c 2023     		movs	r3, #32
 1348              	@ 411 "../third_party/ChibiOS/test/testmtx.c" 1
 1349 021e 83F31188 		msr     BASEPRI, r3
 1350              	@ 0 "" 2
 1351              		.thumb
 1352              	.LBE2:
ARM GAS  /tmp/ccGUJQGS.s 			page 25


 1353              		.loc 1 412 0
 1354 0222 FFF7FEFF 		bl	chMtxUnlockS
 1355              	.LVL148:
 1356              	.LBB3:
 1357              		.loc 1 413 0
 1358 0226 0023     		movs	r3, #0
 1359              	@ 413 "../third_party/ChibiOS/test/testmtx.c" 1
 1360 0228 83F31188 		msr     BASEPRI, r3
 1361              	@ 0 "" 2
 1362              		.thumb
 1363              	.LBE3:
 1364              		.loc 1 414 0
 1365 022c E369     		ldr	r3, [r4, #28]
 1366 022e 0C20     		movs	r0, #12
 1367 0230 9968     		ldr	r1, [r3, #8]
 1368 0232 40F20004 		movw	r4, #:lower16:rlist
 1369 0236 B1EB0906 		subs	r6, r1, r9
 1370 023a 7142     		rsbs	r1, r6, #0
 1371 023c 7141     		adcs	r1, r1, r6
 1372 023e C0F20004 		movt	r4, #:upper16:rlist
 1373 0242 FFF7FEFF 		bl	_test_assert
 1374              	.LVL149:
 1375 0246 0028     		cmp	r0, #0
 1376 0248 7FF421AF 		bne	.L28
 1377              		.loc 1 415 0
 1378 024c 6420     		movs	r0, #100
 1379 024e FFF7FEFF 		bl	chThdSleep
 1380              	.LVL150:
 1381              		.loc 1 416 0
 1382 0252 E369     		ldr	r3, [r4, #28]
 1383 0254 0D20     		movs	r0, #13
 1384 0256 9968     		ldr	r1, [r3, #8]
 1385 0258 B1EB0905 		subs	r5, r1, r9
 1386 025c 6942     		rsbs	r1, r5, #0
 1387 025e 6941     		adcs	r1, r1, r5
 1388 0260 FFF7FEFF 		bl	_test_assert
 1389              	.LVL151:
 1390 0264 0028     		cmp	r0, #0
 1391 0266 7FF412AF 		bne	.L28
 1392              		.loc 1 417 0
 1393 026a FFF7FEFF 		bl	chMtxUnlockAll
 1394              	.LVL152:
 1395              		.loc 1 418 0
 1396 026e E369     		ldr	r3, [r4, #28]
 1397 0270 0E20     		movs	r0, #14
 1398 0272 9968     		ldr	r1, [r3, #8]
 1399 0274 CA1B     		subs	r2, r1, r7
 1400 0276 5142     		rsbs	r1, r2, #0
 1401 0278 5141     		adcs	r1, r1, r2
 1402 027a FFF7FEFF 		bl	_test_assert
 1403              	.LVL153:
 1404 027e 0028     		cmp	r0, #0
 1405 0280 7FF405AF 		bne	.L28
 1406              		.loc 1 420 0
 1407 0284 05B0     		add	sp, sp, #20
 1408              		@ sp needed
 1409 0286 BDE8F046 		pop	{r4, r5, r6, r7, r9, r10, lr}
ARM GAS  /tmp/ccGUJQGS.s 			page 26


 1410              	.LVL154:
 1411              		.loc 1 419 0
 1412 028a FFF7FEBF 		b	test_wait_threads
 1413              	.LVL155:
 1414              		.cfi_endproc
 1415              	.LFE25:
 1416              		.size	mtx4_execute, .-mtx4_execute
 1417 028e 00BF     		.section	.text.mtx5_execute,"ax",%progbits
 1418              		.align	2
 1419              		.p2align 4,,15
 1420              		.thumb
 1421              		.thumb_func
 1422              		.type	mtx5_execute, %function
 1423              	mtx5_execute:
 1424              	.LFB27:
 1425              		.loc 1 444 0
 1426              		.cfi_startproc
 1427              		@ args = 0, pretend = 0, frame = 0
 1428              		@ frame_needed = 0, uses_anonymous_args = 0
 1429 0000 F8B5     		push	{r3, r4, r5, r6, r7, lr}
 1430              		.cfi_def_cfa_offset 24
 1431              		.cfi_offset 3, -24
 1432              		.cfi_offset 4, -20
 1433              		.cfi_offset 5, -16
 1434              		.cfi_offset 6, -12
 1435              		.cfi_offset 7, -8
 1436              		.cfi_offset 14, -4
 1437              		.loc 1 448 0
 1438 0002 40F20005 		movw	r5, #:lower16:rlist
 1439 0006 C0F20005 		movt	r5, #:upper16:rlist
 1440              		.loc 1 450 0
 1441 000a 40F20004 		movw	r4, #:lower16:.LANCHOR0
 1442              		.loc 1 448 0
 1443 000e EB69     		ldr	r3, [r5, #28]
 1444              		.loc 1 450 0
 1445 0010 C0F20004 		movt	r4, #:upper16:.LANCHOR0
 1446 0014 2046     		mov	r0, r4
 1447              		.loc 1 448 0
 1448 0016 9E68     		ldr	r6, [r3, #8]
 1449              	.LVL156:
 1450              		.loc 1 450 0
 1451 0018 FFF7FEFF 		bl	chMtxTryLock
 1452              	.LVL157:
 1453              		.loc 1 451 0
 1454 001c 0146     		mov	r1, r0
 1455 001e 0120     		movs	r0, #1
 1456              	.LVL158:
 1457 0020 FFF7FEFF 		bl	_test_assert
 1458              	.LVL159:
 1459 0024 00B1     		cbz	r0, .L37
 1460              	.L33:
 1461 0026 F8BD     		pop	{r3, r4, r5, r6, r7, pc}
 1462              	.LVL160:
 1463              	.L37:
 1464              		.loc 1 453 0
 1465 0028 2046     		mov	r0, r4
 1466 002a FFF7FEFF 		bl	chMtxTryLock
ARM GAS  /tmp/ccGUJQGS.s 			page 27


 1467              	.LVL161:
 1468              		.loc 1 454 0
 1469 002e D0F10101 		rsbs	r1, r0, #1
 1470 0032 38BF     		it	cc
 1471 0034 0021     		movcc	r1, #0
 1472 0036 0220     		movs	r0, #2
 1473              	.LVL162:
 1474 0038 FFF7FEFF 		bl	_test_assert
 1475              	.LVL163:
 1476 003c 0028     		cmp	r0, #0
 1477 003e F2D1     		bne	.L33
 1478              	.LBB4:
 1479              		.loc 1 456 0
 1480 0040 2023     		movs	r3, #32
 1481              	@ 456 "../third_party/ChibiOS/test/testmtx.c" 1
 1482 0042 83F31188 		msr     BASEPRI, r3
 1483              	@ 0 "" 2
 1484              		.thumb
 1485              	.LBE4:
 1486              		.loc 1 457 0
 1487 0046 FFF7FEFF 		bl	chMtxUnlockS
 1488              	.LVL164:
 1489              	.LBB5:
 1490              		.loc 1 458 0
 1491 004a 0023     		movs	r3, #0
 1492              	@ 458 "../third_party/ChibiOS/test/testmtx.c" 1
 1493 004c 83F31188 		msr     BASEPRI, r3
 1494              	@ 0 "" 2
 1495              		.thumb
 1496              	.LBE5:
 1497              		.loc 1 460 0
 1498 0050 2168     		ldr	r1, [r4]
 1499 0052 40F20007 		movw	r7, #:lower16:.LANCHOR0
 1500 0056 B1EB040E 		subs	lr, r1, r4
 1501 005a DEF10001 		rsbs	r1, lr, #0
 1502 005e 51EB0E01 		adcs	r1, r1, lr
 1503 0062 0320     		movs	r0, #3
 1504 0064 C0F20007 		movt	r7, #:upper16:.LANCHOR0
 1505 0068 FFF7FEFF 		bl	_test_assert
 1506              	.LVL165:
 1507 006c 0028     		cmp	r0, #0
 1508 006e DAD1     		bne	.L33
 1509              		.loc 1 461 0
 1510 0070 B968     		ldr	r1, [r7, #8]
 1511 0072 0420     		movs	r0, #4
 1512 0074 D1F10101 		rsbs	r1, r1, #1
 1513 0078 38BF     		it	cc
 1514 007a 0021     		movcc	r1, #0
 1515 007c FFF7FEFF 		bl	_test_assert
 1516              	.LVL166:
 1517 0080 0028     		cmp	r0, #0
 1518 0082 D0D1     		bne	.L33
 1519              		.loc 1 462 0
 1520 0084 EB69     		ldr	r3, [r5, #28]
 1521 0086 0520     		movs	r0, #5
 1522 0088 9968     		ldr	r1, [r3, #8]
 1523 008a 8C1B     		subs	r4, r1, r6
ARM GAS  /tmp/ccGUJQGS.s 			page 28


 1524 008c 6142     		rsbs	r1, r4, #0
 1525 008e 6141     		adcs	r1, r1, r4
 1526 0090 FFF7FEFF 		bl	_test_assert
 1527              	.LVL167:
 1528 0094 0028     		cmp	r0, #0
 1529 0096 C6D1     		bne	.L33
 1530              		.loc 1 464 0
 1531 0098 3846     		mov	r0, r7
 1532 009a FFF7FEFF 		bl	chMtxLock
 1533              	.LVL168:
 1534              		.loc 1 465 0
 1535 009e FFF7FEFF 		bl	chMtxUnlockAll
 1536              	.LVL169:
 1537              		.loc 1 466 0
 1538 00a2 3968     		ldr	r1, [r7]
 1539 00a4 0620     		movs	r0, #6
 1540 00a6 CA1B     		subs	r2, r1, r7
 1541 00a8 5142     		rsbs	r1, r2, #0
 1542 00aa 5141     		adcs	r1, r1, r2
 1543 00ac FFF7FEFF 		bl	_test_assert
 1544              	.LVL170:
 1545 00b0 0028     		cmp	r0, #0
 1546 00b2 B8D1     		bne	.L33
 1547              		.loc 1 467 0
 1548 00b4 B968     		ldr	r1, [r7, #8]
 1549 00b6 0720     		movs	r0, #7
 1550 00b8 D1F10101 		rsbs	r1, r1, #1
 1551 00bc 38BF     		it	cc
 1552 00be 0021     		movcc	r1, #0
 1553              		.loc 1 468 0
 1554 00c0 BDE8F840 		pop	{r3, r4, r5, r6, r7, lr}
 1555              	.LVL171:
 1556              		.loc 1 467 0
 1557 00c4 FFF7FEBF 		b	_test_assert
 1558              	.LVL172:
 1559              		.cfi_endproc
 1560              	.LFE27:
 1561              		.size	mtx5_execute, .-mtx5_execute
 1562 00c8 AFF30080 		.section	.text.mtx6_execute,"ax",%progbits
 1562      AFF30080 
 1563              		.align	2
 1564              		.p2align 4,,15
 1565              		.thumb
 1566              		.thumb_func
 1567              		.type	mtx6_execute, %function
 1568              	mtx6_execute:
 1569              	.LFB30:
 1570              		.loc 1 504 0
 1571              		.cfi_startproc
 1572              		@ args = 0, pretend = 0, frame = 0
 1573              		@ frame_needed = 0, uses_anonymous_args = 0
 1574 0000 F0B5     		push	{r4, r5, r6, r7, lr}
 1575              		.cfi_def_cfa_offset 20
 1576              		.cfi_offset 4, -20
 1577              		.cfi_offset 5, -16
 1578              		.cfi_offset 6, -12
 1579              		.cfi_offset 7, -8
ARM GAS  /tmp/ccGUJQGS.s 			page 29


 1580              		.cfi_offset 14, -4
 1581              		.loc 1 506 0
 1582 0002 40F20003 		movw	r3, #:lower16:rlist
 1583 0006 C0F20003 		movt	r3, #:upper16:rlist
 1584 000a DB69     		ldr	r3, [r3, #28]
 1585              		.loc 1 507 0
 1586 000c 40F20006 		movw	r6, #:lower16:wa
 1587              		.loc 1 506 0
 1588 0010 9F68     		ldr	r7, [r3, #8]
 1589              	.LVL173:
 1590              		.loc 1 507 0
 1591 0012 40F20005 		movw	r5, #:lower16:thread10
 1592 0016 40F20001 		movw	r1, #:lower16:.LC0
 1593              		.loc 1 504 0
 1594 001a 83B0     		sub	sp, sp, #12
 1595              		.cfi_def_cfa_offset 32
 1596              		.loc 1 507 0
 1597 001c C0F20006 		movt	r6, #:upper16:wa
 1598 0020 C0F20005 		movt	r5, #:upper16:thread10
 1599 0024 C0F20001 		movt	r1, #:upper16:.LC0
 1600 0028 7A1C     		adds	r2, r7, #1
 1601 002a 2B46     		mov	r3, r5
 1602 002c 0091     		str	r1, [sp]
 1603 002e 3068     		ldr	r0, [r6]
 1604 0030 4FF49871 		mov	r1, #304
 1605 0034 FFF7FEFF 		bl	chThdCreateStatic
 1606              	.LVL174:
 1607 0038 40F20004 		movw	r4, #:lower16:threads
 1608              		.loc 1 508 0
 1609 003c 7368     		ldr	r3, [r6, #4]
 1610 003e 40F20001 		movw	r1, #:lower16:.LC1
 1611              		.loc 1 507 0
 1612 0042 C0F20004 		movt	r4, #:upper16:threads
 1613              		.loc 1 508 0
 1614 0046 C0F20001 		movt	r1, #:upper16:.LC1
 1615              		.loc 1 507 0
 1616 004a 2060     		str	r0, [r4]
 1617              		.loc 1 508 0
 1618 004c BA1C     		adds	r2, r7, #2
 1619 004e 0091     		str	r1, [sp]
 1620 0050 1846     		mov	r0, r3
 1621 0052 4FF49871 		mov	r1, #304
 1622 0056 2B46     		mov	r3, r5
 1623 0058 FFF7FEFF 		bl	chThdCreateStatic
 1624              	.LVL175:
 1625              		.loc 1 509 0
 1626 005c B368     		ldr	r3, [r6, #8]
 1627 005e 40F20001 		movw	r1, #:lower16:.LC2
 1628 0062 C0F20001 		movt	r1, #:upper16:.LC2
 1629              		.loc 1 508 0
 1630 0066 6060     		str	r0, [r4, #4]
 1631              		.loc 1 509 0
 1632 0068 FA1C     		adds	r2, r7, #3
 1633 006a 0091     		str	r1, [sp]
 1634 006c 1846     		mov	r0, r3
 1635 006e 4FF49871 		mov	r1, #304
 1636 0072 2B46     		mov	r3, r5
ARM GAS  /tmp/ccGUJQGS.s 			page 30


 1637 0074 FFF7FEFF 		bl	chThdCreateStatic
 1638              	.LVL176:
 1639              		.loc 1 510 0
 1640 0078 F368     		ldr	r3, [r6, #12]
 1641 007a 40F20001 		movw	r1, #:lower16:.LC3
 1642 007e C0F20001 		movt	r1, #:upper16:.LC3
 1643              		.loc 1 509 0
 1644 0082 A060     		str	r0, [r4, #8]
 1645              		.loc 1 510 0
 1646 0084 3A1D     		adds	r2, r7, #4
 1647 0086 0091     		str	r1, [sp]
 1648 0088 1846     		mov	r0, r3
 1649 008a 4FF49871 		mov	r1, #304
 1650 008e 2B46     		mov	r3, r5
 1651 0090 FFF7FEFF 		bl	chThdCreateStatic
 1652              	.LVL177:
 1653              		.loc 1 511 0
 1654 0094 3369     		ldr	r3, [r6, #16]
 1655 0096 40F20001 		movw	r1, #:lower16:.LC4
 1656 009a C0F20001 		movt	r1, #:upper16:.LC4
 1657              		.loc 1 510 0
 1658 009e E060     		str	r0, [r4, #12]
 1659              		.loc 1 511 0
 1660 00a0 7A1D     		adds	r2, r7, #5
 1661 00a2 0091     		str	r1, [sp]
 1662 00a4 1846     		mov	r0, r3
 1663 00a6 4FF49871 		mov	r1, #304
 1664 00aa 2B46     		mov	r3, r5
 1665 00ac FFF7FEFF 		bl	chThdCreateStatic
 1666              	.LVL178:
 1667              	.LBB6:
 1668              		.loc 1 512 0
 1669 00b0 2023     		movs	r3, #32
 1670              	.LBE6:
 1671              		.loc 1 511 0
 1672 00b2 2061     		str	r0, [r4, #16]
 1673              	.LBB7:
 1674              		.loc 1 512 0
 1675              	@ 512 "../third_party/ChibiOS/test/testmtx.c" 1
 1676 00b4 83F31188 		msr     BASEPRI, r3
 1677              	@ 0 "" 2
 1678              		.thumb
 1679              	.LBE7:
 1680              		.loc 1 513 0
 1681 00b8 40F20004 		movw	r4, #:lower16:.LANCHOR2
 1682 00bc C0F20004 		movt	r4, #:upper16:.LANCHOR2
 1683 00c0 2046     		mov	r0, r4
 1684 00c2 FFF7FEFF 		bl	chCondSignalI
 1685              	.LVL179:
 1686              		.loc 1 514 0
 1687 00c6 2046     		mov	r0, r4
 1688 00c8 FFF7FEFF 		bl	chCondSignalI
 1689              	.LVL180:
 1690              		.loc 1 515 0
 1691 00cc 2046     		mov	r0, r4
 1692 00ce FFF7FEFF 		bl	chCondSignalI
 1693              	.LVL181:
ARM GAS  /tmp/ccGUJQGS.s 			page 31


 1694              		.loc 1 516 0
 1695 00d2 2046     		mov	r0, r4
 1696 00d4 FFF7FEFF 		bl	chCondSignalI
 1697              	.LVL182:
 1698              		.loc 1 517 0
 1699 00d8 2046     		mov	r0, r4
 1700 00da FFF7FEFF 		bl	chCondSignalI
 1701              	.LVL183:
 1702              		.loc 1 518 0
 1703 00de FFF7FEFF 		bl	chSchRescheduleS
 1704              	.LVL184:
 1705              	.LBB8:
 1706              		.loc 1 519 0
 1707 00e2 0023     		movs	r3, #0
 1708              	@ 519 "../third_party/ChibiOS/test/testmtx.c" 1
 1709 00e4 83F31188 		msr     BASEPRI, r3
 1710              	@ 0 "" 2
 1711              		.thumb
 1712              	.LBE8:
 1713              		.loc 1 520 0
 1714 00e8 FFF7FEFF 		bl	test_wait_threads
 1715              	.LVL185:
 1716              		.loc 1 521 0
 1717 00ec 40F20001 		movw	r1, #:lower16:.LC5
 1718 00f0 C0F20001 		movt	r1, #:upper16:.LC5
 1719 00f4 0120     		movs	r0, #1
 1720              		.loc 1 522 0
 1721 00f6 03B0     		add	sp, sp, #12
 1722              		@ sp needed
 1723 00f8 BDE8F040 		pop	{r4, r5, r6, r7, lr}
 1724              	.LVL186:
 1725              		.loc 1 521 0
 1726 00fc FFF7FEBF 		b	_test_assert_sequence
 1727              	.LVL187:
 1728              		.cfi_endproc
 1729              	.LFE30:
 1730              		.size	mtx6_execute, .-mtx6_execute
 1731              		.section	.text.thread10,"ax",%progbits
 1732              		.align	2
 1733              		.p2align 4,,15
 1734              		.thumb
 1735              		.thumb_func
 1736              		.type	thread10, %function
 1737              	thread10:
 1738              	.LFB29:
 1739              		.loc 1 495 0
 1740              		.cfi_startproc
 1741              		@ args = 0, pretend = 0, frame = 0
 1742              		@ frame_needed = 0, uses_anonymous_args = 0
 1743              	.LVL188:
 1744 0000 10B5     		push	{r4, lr}
 1745              		.cfi_def_cfa_offset 8
 1746              		.cfi_offset 4, -8
 1747              		.cfi_offset 14, -4
 1748              		.loc 1 495 0
 1749 0002 0446     		mov	r4, r0
 1750              		.loc 1 497 0
ARM GAS  /tmp/ccGUJQGS.s 			page 32


 1751 0004 40F20000 		movw	r0, #:lower16:.LANCHOR0
 1752              	.LVL189:
 1753 0008 C0F20000 		movt	r0, #:upper16:.LANCHOR0
 1754 000c FFF7FEFF 		bl	chMtxLock
 1755              	.LVL190:
 1756              		.loc 1 498 0
 1757 0010 40F20000 		movw	r0, #:lower16:.LANCHOR2
 1758 0014 C0F20000 		movt	r0, #:upper16:.LANCHOR2
 1759 0018 FFF7FEFF 		bl	chCondWait
 1760              	.LVL191:
 1761              		.loc 1 499 0
 1762 001c 2078     		ldrb	r0, [r4]	@ zero_extendqisi2
 1763 001e FFF7FEFF 		bl	test_emit_token
 1764              	.LVL192:
 1765              		.loc 1 500 0
 1766 0022 FFF7FEFF 		bl	chMtxUnlock
 1767              	.LVL193:
 1768              		.loc 1 502 0
 1769 0026 0020     		movs	r0, #0
 1770 0028 10BD     		pop	{r4, pc}
 1771              		.cfi_endproc
 1772              	.LFE29:
 1773              		.size	thread10, .-thread10
 1774 002a 00BFAFF3 		.section	.text.mtx6_setup,"ax",%progbits
 1774      0080
 1775              		.align	2
 1776              		.p2align 4,,15
 1777              		.thumb
 1778              		.thumb_func
 1779              		.type	mtx6_setup, %function
 1780              	mtx6_setup:
 1781              	.LFB28:
 1782              		.loc 1 489 0
 1783              		.cfi_startproc
 1784              		@ args = 0, pretend = 0, frame = 0
 1785              		@ frame_needed = 0, uses_anonymous_args = 0
 1786 0000 08B5     		push	{r3, lr}
 1787              		.cfi_def_cfa_offset 8
 1788              		.cfi_offset 3, -8
 1789              		.cfi_offset 14, -4
 1790              		.loc 1 491 0
 1791 0002 40F20000 		movw	r0, #:lower16:.LANCHOR2
 1792 0006 C0F20000 		movt	r0, #:upper16:.LANCHOR2
 1793 000a FFF7FEFF 		bl	chCondInit
 1794              	.LVL194:
 1795              		.loc 1 493 0
 1796 000e BDE80840 		pop	{r3, lr}
 1797              		.loc 1 492 0
 1798 0012 40F20000 		movw	r0, #:lower16:.LANCHOR0
 1799 0016 C0F20000 		movt	r0, #:upper16:.LANCHOR0
 1800 001a FFF7FEBF 		b	chMtxInit
 1801              	.LVL195:
 1802              		.cfi_endproc
 1803              	.LFE28:
 1804              		.size	mtx6_setup, .-mtx6_setup
 1805 001e 00BF     		.section	.text.mtx7_setup,"ax",%progbits
 1806              		.align	2
ARM GAS  /tmp/ccGUJQGS.s 			page 33


 1807              		.p2align 4,,15
 1808              		.thumb
 1809              		.thumb_func
 1810              		.type	mtx7_setup, %function
 1811              	mtx7_setup:
 1812              	.LFB31:
 1813              		.loc 1 541 0
 1814              		.cfi_startproc
 1815              		@ args = 0, pretend = 0, frame = 0
 1816              		@ frame_needed = 0, uses_anonymous_args = 0
 1817 0000 08B5     		push	{r3, lr}
 1818              		.cfi_def_cfa_offset 8
 1819              		.cfi_offset 3, -8
 1820              		.cfi_offset 14, -4
 1821              		.loc 1 543 0
 1822 0002 40F20000 		movw	r0, #:lower16:.LANCHOR2
 1823 0006 C0F20000 		movt	r0, #:upper16:.LANCHOR2
 1824 000a FFF7FEFF 		bl	chCondInit
 1825              	.LVL196:
 1826              		.loc 1 545 0
 1827 000e BDE80840 		pop	{r3, lr}
 1828              		.loc 1 544 0
 1829 0012 40F20000 		movw	r0, #:lower16:.LANCHOR0
 1830 0016 C0F20000 		movt	r0, #:upper16:.LANCHOR0
 1831 001a FFF7FEBF 		b	chMtxInit
 1832              	.LVL197:
 1833              		.cfi_endproc
 1834              	.LFE31:
 1835              		.size	mtx7_setup, .-mtx7_setup
 1836 001e 00BF     		.section	.text.mtx8_setup,"ax",%progbits
 1837              		.align	2
 1838              		.p2align 4,,15
 1839              		.thumb
 1840              		.thumb_func
 1841              		.type	mtx8_setup, %function
 1842              	mtx8_setup:
 1843              	.LFB33:
 1844              		.loc 1 576 0
 1845              		.cfi_startproc
 1846              		@ args = 0, pretend = 0, frame = 0
 1847              		@ frame_needed = 0, uses_anonymous_args = 0
 1848 0000 08B5     		push	{r3, lr}
 1849              		.cfi_def_cfa_offset 8
 1850              		.cfi_offset 3, -8
 1851              		.cfi_offset 14, -4
 1852              		.loc 1 578 0
 1853 0002 40F20000 		movw	r0, #:lower16:.LANCHOR2
 1854 0006 C0F20000 		movt	r0, #:upper16:.LANCHOR2
 1855 000a FFF7FEFF 		bl	chCondInit
 1856              	.LVL198:
 1857              		.loc 1 579 0
 1858 000e 40F20000 		movw	r0, #:lower16:.LANCHOR0
 1859 0012 C0F20000 		movt	r0, #:upper16:.LANCHOR0
 1860 0016 FFF7FEFF 		bl	chMtxInit
 1861              	.LVL199:
 1862              		.loc 1 581 0
 1863 001a BDE80840 		pop	{r3, lr}
ARM GAS  /tmp/ccGUJQGS.s 			page 34


 1864              		.loc 1 580 0
 1865 001e 40F20000 		movw	r0, #:lower16:.LANCHOR1
 1866 0022 C0F20000 		movt	r0, #:upper16:.LANCHOR1
 1867 0026 FFF7FEBF 		b	chMtxInit
 1868              	.LVL200:
 1869              		.cfi_endproc
 1870              	.LFE33:
 1871              		.size	mtx8_setup, .-mtx8_setup
 1872 002a 00BFAFF3 		.section	.text.mtx7_execute,"ax",%progbits
 1872      0080
 1873              		.align	2
 1874              		.p2align 4,,15
 1875              		.thumb
 1876              		.thumb_func
 1877              		.type	mtx7_execute, %function
 1878              	mtx7_execute:
 1879              	.LFB32:
 1880              		.loc 1 547 0
 1881              		.cfi_startproc
 1882              		@ args = 0, pretend = 0, frame = 0
 1883              		@ frame_needed = 0, uses_anonymous_args = 0
 1884 0000 F0B5     		push	{r4, r5, r6, r7, lr}
 1885              		.cfi_def_cfa_offset 20
 1886              		.cfi_offset 4, -20
 1887              		.cfi_offset 5, -16
 1888              		.cfi_offset 6, -12
 1889              		.cfi_offset 7, -8
 1890              		.cfi_offset 14, -4
 1891              		.loc 1 549 0
 1892 0002 40F20003 		movw	r3, #:lower16:rlist
 1893 0006 C0F20003 		movt	r3, #:upper16:rlist
 1894 000a DB69     		ldr	r3, [r3, #28]
 1895              		.loc 1 550 0
 1896 000c 40F20006 		movw	r6, #:lower16:wa
 1897              		.loc 1 549 0
 1898 0010 9F68     		ldr	r7, [r3, #8]
 1899              	.LVL201:
 1900              		.loc 1 550 0
 1901 0012 40F20005 		movw	r5, #:lower16:thread10
 1902 0016 40F20001 		movw	r1, #:lower16:.LC0
 1903              		.loc 1 547 0
 1904 001a 83B0     		sub	sp, sp, #12
 1905              		.cfi_def_cfa_offset 32
 1906              		.loc 1 550 0
 1907 001c C0F20006 		movt	r6, #:upper16:wa
 1908 0020 C0F20005 		movt	r5, #:upper16:thread10
 1909 0024 C0F20001 		movt	r1, #:upper16:.LC0
 1910 0028 7A1C     		adds	r2, r7, #1
 1911 002a 2B46     		mov	r3, r5
 1912 002c 0091     		str	r1, [sp]
 1913 002e 3068     		ldr	r0, [r6]
 1914 0030 4FF49871 		mov	r1, #304
 1915 0034 FFF7FEFF 		bl	chThdCreateStatic
 1916              	.LVL202:
 1917 0038 40F20004 		movw	r4, #:lower16:threads
 1918              		.loc 1 551 0
 1919 003c 7368     		ldr	r3, [r6, #4]
ARM GAS  /tmp/ccGUJQGS.s 			page 35


 1920 003e 40F20001 		movw	r1, #:lower16:.LC1
 1921              		.loc 1 550 0
 1922 0042 C0F20004 		movt	r4, #:upper16:threads
 1923              		.loc 1 551 0
 1924 0046 C0F20001 		movt	r1, #:upper16:.LC1
 1925              		.loc 1 550 0
 1926 004a 2060     		str	r0, [r4]
 1927              		.loc 1 551 0
 1928 004c BA1C     		adds	r2, r7, #2
 1929 004e 0091     		str	r1, [sp]
 1930 0050 1846     		mov	r0, r3
 1931 0052 4FF49871 		mov	r1, #304
 1932 0056 2B46     		mov	r3, r5
 1933 0058 FFF7FEFF 		bl	chThdCreateStatic
 1934              	.LVL203:
 1935              		.loc 1 552 0
 1936 005c B368     		ldr	r3, [r6, #8]
 1937 005e 40F20001 		movw	r1, #:lower16:.LC2
 1938 0062 C0F20001 		movt	r1, #:upper16:.LC2
 1939              		.loc 1 551 0
 1940 0066 6060     		str	r0, [r4, #4]
 1941              		.loc 1 552 0
 1942 0068 FA1C     		adds	r2, r7, #3
 1943 006a 0091     		str	r1, [sp]
 1944 006c 1846     		mov	r0, r3
 1945 006e 4FF49871 		mov	r1, #304
 1946 0072 2B46     		mov	r3, r5
 1947 0074 FFF7FEFF 		bl	chThdCreateStatic
 1948              	.LVL204:
 1949              		.loc 1 553 0
 1950 0078 F368     		ldr	r3, [r6, #12]
 1951 007a 40F20001 		movw	r1, #:lower16:.LC3
 1952 007e C0F20001 		movt	r1, #:upper16:.LC3
 1953              		.loc 1 552 0
 1954 0082 A060     		str	r0, [r4, #8]
 1955              		.loc 1 553 0
 1956 0084 3A1D     		adds	r2, r7, #4
 1957 0086 0091     		str	r1, [sp]
 1958 0088 1846     		mov	r0, r3
 1959 008a 4FF49871 		mov	r1, #304
 1960 008e 2B46     		mov	r3, r5
 1961 0090 FFF7FEFF 		bl	chThdCreateStatic
 1962              	.LVL205:
 1963              		.loc 1 554 0
 1964 0094 3369     		ldr	r3, [r6, #16]
 1965 0096 40F20001 		movw	r1, #:lower16:.LC4
 1966 009a C0F20001 		movt	r1, #:upper16:.LC4
 1967 009e 7A1D     		adds	r2, r7, #5
 1968              		.loc 1 553 0
 1969 00a0 E060     		str	r0, [r4, #12]
 1970              		.loc 1 554 0
 1971 00a2 0091     		str	r1, [sp]
 1972 00a4 1846     		mov	r0, r3
 1973 00a6 4FF49871 		mov	r1, #304
 1974 00aa 2B46     		mov	r3, r5
 1975 00ac FFF7FEFF 		bl	chThdCreateStatic
 1976              	.LVL206:
ARM GAS  /tmp/ccGUJQGS.s 			page 36


 1977 00b0 2061     		str	r0, [r4, #16]
 1978              		.loc 1 555 0
 1979 00b2 40F20000 		movw	r0, #:lower16:.LANCHOR2
 1980 00b6 C0F20000 		movt	r0, #:upper16:.LANCHOR2
 1981 00ba FFF7FEFF 		bl	chCondBroadcast
 1982              	.LVL207:
 1983              		.loc 1 556 0
 1984 00be FFF7FEFF 		bl	test_wait_threads
 1985              	.LVL208:
 1986              		.loc 1 557 0
 1987 00c2 40F20001 		movw	r1, #:lower16:.LC5
 1988 00c6 C0F20001 		movt	r1, #:upper16:.LC5
 1989 00ca 0120     		movs	r0, #1
 1990              		.loc 1 558 0
 1991 00cc 03B0     		add	sp, sp, #12
 1992              		@ sp needed
 1993 00ce BDE8F040 		pop	{r4, r5, r6, r7, lr}
 1994              	.LVL209:
 1995              		.loc 1 557 0
 1996 00d2 FFF7FEBF 		b	_test_assert_sequence
 1997              	.LVL210:
 1998              		.cfi_endproc
 1999              	.LFE32:
 2000              		.size	mtx7_execute, .-mtx7_execute
 2001 00d6 00BFAFF3 		.section	.text.mtx8_execute,"ax",%progbits
 2001      0080AFF3 
 2001      0080
 2002              		.align	2
 2003              		.p2align 4,,15
 2004              		.thumb
 2005              		.thumb_func
 2006              		.type	mtx8_execute, %function
 2007              	mtx8_execute:
 2008              	.LFB36:
 2009              		.loc 1 606 0
 2010              		.cfi_startproc
 2011              		@ args = 0, pretend = 0, frame = 0
 2012              		@ frame_needed = 0, uses_anonymous_args = 0
 2013 0000 F0B5     		push	{r4, r5, r6, r7, lr}
 2014              		.cfi_def_cfa_offset 20
 2015              		.cfi_offset 4, -20
 2016              		.cfi_offset 5, -16
 2017              		.cfi_offset 6, -12
 2018              		.cfi_offset 7, -8
 2019              		.cfi_offset 14, -4
 2020              		.loc 1 608 0
 2021 0002 40F20003 		movw	r3, #:lower16:rlist
 2022 0006 C0F20003 		movt	r3, #:upper16:rlist
 2023 000a DB69     		ldr	r3, [r3, #28]
 2024              		.loc 1 609 0
 2025 000c 40F20005 		movw	r5, #:lower16:wa
 2026              		.loc 1 608 0
 2027 0010 9E68     		ldr	r6, [r3, #8]
 2028              	.LVL211:
 2029              		.loc 1 609 0
 2030 0012 40F20001 		movw	r1, #:lower16:.LC4
 2031              		.loc 1 606 0
ARM GAS  /tmp/ccGUJQGS.s 			page 37


 2032 0016 83B0     		sub	sp, sp, #12
 2033              		.cfi_def_cfa_offset 32
 2034              		.loc 1 609 0
 2035 0018 C0F20005 		movt	r5, #:upper16:wa
 2036 001c C0F20001 		movt	r1, #:upper16:.LC4
 2037 0020 40F20003 		movw	r3, #:lower16:thread11
 2038 0024 721C     		adds	r2, r6, #1
 2039 0026 0091     		str	r1, [sp]
 2040 0028 2868     		ldr	r0, [r5]
 2041 002a C0F20003 		movt	r3, #:upper16:thread11
 2042 002e 4FF49871 		mov	r1, #304
 2043 0032 FFF7FEFF 		bl	chThdCreateStatic
 2044              	.LVL212:
 2045 0036 40F20004 		movw	r4, #:lower16:threads
 2046              		.loc 1 610 0
 2047 003a 6F68     		ldr	r7, [r5, #4]
 2048 003c 40F20001 		movw	r1, #:lower16:.LC2
 2049              		.loc 1 609 0
 2050 0040 C0F20004 		movt	r4, #:upper16:threads
 2051              		.loc 1 610 0
 2052 0044 C0F20001 		movt	r1, #:upper16:.LC2
 2053 0048 40F20003 		movw	r3, #:lower16:thread10
 2054              		.loc 1 609 0
 2055 004c 2060     		str	r0, [r4]
 2056              		.loc 1 610 0
 2057 004e B21C     		adds	r2, r6, #2
 2058 0050 0091     		str	r1, [sp]
 2059 0052 3846     		mov	r0, r7
 2060 0054 C0F20003 		movt	r3, #:upper16:thread10
 2061 0058 4FF49871 		mov	r1, #304
 2062 005c FFF7FEFF 		bl	chThdCreateStatic
 2063              	.LVL213:
 2064              		.loc 1 611 0
 2065 0060 AD68     		ldr	r5, [r5, #8]
 2066 0062 40F20001 		movw	r1, #:lower16:.LC3
 2067 0066 C0F20001 		movt	r1, #:upper16:.LC3
 2068 006a 40F20003 		movw	r3, #:lower16:thread12
 2069 006e F21C     		adds	r2, r6, #3
 2070 0070 C0F20003 		movt	r3, #:upper16:thread12
 2071              		.loc 1 610 0
 2072 0074 6060     		str	r0, [r4, #4]
 2073              		.loc 1 611 0
 2074 0076 0091     		str	r1, [sp]
 2075 0078 2846     		mov	r0, r5
 2076 007a 4FF49871 		mov	r1, #304
 2077 007e FFF7FEFF 		bl	chThdCreateStatic
 2078              	.LVL214:
 2079              		.loc 1 612 0
 2080 0082 40F20005 		movw	r5, #:lower16:.LANCHOR2
 2081 0086 C0F20005 		movt	r5, #:upper16:.LANCHOR2
 2082              		.loc 1 611 0
 2083 008a A060     		str	r0, [r4, #8]
 2084              		.loc 1 612 0
 2085 008c 2846     		mov	r0, r5
 2086 008e FFF7FEFF 		bl	chCondSignal
 2087              	.LVL215:
 2088              		.loc 1 613 0
ARM GAS  /tmp/ccGUJQGS.s 			page 38


 2089 0092 2846     		mov	r0, r5
 2090 0094 FFF7FEFF 		bl	chCondSignal
 2091              	.LVL216:
 2092              		.loc 1 614 0
 2093 0098 FFF7FEFF 		bl	test_wait_threads
 2094              	.LVL217:
 2095              		.loc 1 615 0
 2096 009c 40F20001 		movw	r1, #:lower16:.LC6
 2097 00a0 C0F20001 		movt	r1, #:upper16:.LC6
 2098 00a4 0120     		movs	r0, #1
 2099              		.loc 1 616 0
 2100 00a6 03B0     		add	sp, sp, #12
 2101              		@ sp needed
 2102 00a8 BDE8F040 		pop	{r4, r5, r6, r7, lr}
 2103              	.LVL218:
 2104              		.loc 1 615 0
 2105 00ac FFF7FEBF 		b	_test_assert_sequence
 2106              	.LVL219:
 2107              		.cfi_endproc
 2108              	.LFE36:
 2109              		.size	mtx8_execute, .-mtx8_execute
 2110              		.section	.text.thread11,"ax",%progbits
 2111              		.align	2
 2112              		.p2align 4,,15
 2113              		.thumb
 2114              		.thumb_func
 2115              		.type	thread11, %function
 2116              	thread11:
 2117              	.LFB34:
 2118              		.loc 1 583 0
 2119              		.cfi_startproc
 2120              		@ args = 0, pretend = 0, frame = 0
 2121              		@ frame_needed = 0, uses_anonymous_args = 0
 2122              	.LVL220:
 2123 0000 10B5     		push	{r4, lr}
 2124              		.cfi_def_cfa_offset 8
 2125              		.cfi_offset 4, -8
 2126              		.cfi_offset 14, -4
 2127              		.loc 1 583 0
 2128 0002 0446     		mov	r4, r0
 2129              		.loc 1 585 0
 2130 0004 40F20000 		movw	r0, #:lower16:.LANCHOR1
 2131              	.LVL221:
 2132 0008 C0F20000 		movt	r0, #:upper16:.LANCHOR1
 2133 000c FFF7FEFF 		bl	chMtxLock
 2134              	.LVL222:
 2135              		.loc 1 586 0
 2136 0010 40F20000 		movw	r0, #:lower16:.LANCHOR0
 2137 0014 C0F20000 		movt	r0, #:upper16:.LANCHOR0
 2138 0018 FFF7FEFF 		bl	chMtxLock
 2139              	.LVL223:
 2140              		.loc 1 588 0
 2141 001c 40F20000 		movw	r0, #:lower16:.LANCHOR2
 2142 0020 4FF0FF31 		mov	r1, #-1
 2143 0024 C0F20000 		movt	r0, #:upper16:.LANCHOR2
 2144 0028 FFF7FEFF 		bl	chCondWaitTimeout
 2145              	.LVL224:
ARM GAS  /tmp/ccGUJQGS.s 			page 39


 2146              		.loc 1 592 0
 2147 002c 2078     		ldrb	r0, [r4]	@ zero_extendqisi2
 2148 002e FFF7FEFF 		bl	test_emit_token
 2149              	.LVL225:
 2150              		.loc 1 593 0
 2151 0032 FFF7FEFF 		bl	chMtxUnlock
 2152              	.LVL226:
 2153              		.loc 1 594 0
 2154 0036 FFF7FEFF 		bl	chMtxUnlock
 2155              	.LVL227:
 2156              		.loc 1 596 0
 2157 003a 0020     		movs	r0, #0
 2158 003c 10BD     		pop	{r4, pc}
 2159              		.cfi_endproc
 2160              	.LFE34:
 2161              		.size	thread11, .-thread11
 2162              		.global	patternmtx
 2163              		.global	testmtx8
 2164              		.global	testmtx7
 2165              		.global	testmtx6
 2166              		.global	testmtx5
 2167              		.global	testmtx4
 2168              		.global	testmtx3
 2169              		.global	testmtx2
 2170              		.global	testmtx1
 2171 003e 00BF     		.section	.rodata.testmtx5,"a",%progbits
 2172              		.align	2
 2173              		.type	testmtx5, %object
 2174              		.size	testmtx5, 16
 2175              	testmtx5:
 2176 0000 64000000 		.word	.LC10
 2177 0004 00000000 		.word	mtx5_setup
 2178 0008 00000000 		.word	0
 2179 000c 00000000 		.word	mtx5_execute
 2180              		.section	.rodata.testmtx6,"a",%progbits
 2181              		.align	2
 2182              		.type	testmtx6, %object
 2183              		.size	testmtx6, 16
 2184              	testmtx6:
 2185 0000 4C000000 		.word	.LC9
 2186 0004 00000000 		.word	mtx6_setup
 2187 0008 00000000 		.word	0
 2188 000c 00000000 		.word	mtx6_execute
 2189              		.section	.rodata.testmtx7,"a",%progbits
 2190              		.align	2
 2191              		.type	testmtx7, %object
 2192              		.size	testmtx7, 16
 2193              	testmtx7:
 2194 0000 34000000 		.word	.LC8
 2195 0004 00000000 		.word	mtx7_setup
 2196 0008 00000000 		.word	0
 2197 000c 00000000 		.word	mtx7_execute
 2198              		.section	.rodata.testmtx8,"a",%progbits
 2199              		.align	2
 2200              		.type	testmtx8, %object
 2201              		.size	testmtx8, 16
 2202              	testmtx8:
ARM GAS  /tmp/ccGUJQGS.s 			page 40


 2203 0000 20000000 		.word	.LC7
 2204 0004 00000000 		.word	mtx8_setup
 2205 0008 00000000 		.word	0
 2206 000c 00000000 		.word	mtx8_execute
 2207              		.section	.data.m1,"aw",%progbits
 2208              		.align	2
 2209              		.set	.LANCHOR0,. + 0
 2210              		.type	m1, %object
 2211              		.size	m1, 16
 2212              	m1:
 2213 0000 00000000 		.word	m1
 2214 0004 00000000 		.word	m1
 2215 0008 00000000 		.word	0
 2216 000c 00000000 		.word	0
 2217              		.section	.data.m2,"aw",%progbits
 2218              		.align	2
 2219              		.set	.LANCHOR1,. + 0
 2220              		.type	m2, %object
 2221              		.size	m2, 16
 2222              	m2:
 2223 0000 00000000 		.word	m2
 2224 0004 00000000 		.word	m2
 2225 0008 00000000 		.word	0
 2226 000c 00000000 		.word	0
 2227              		.section	.rodata.str1.4,"aMS",%progbits,1
 2228              		.align	2
 2229              	.LC0:
 2230 0000 4500     		.ascii	"E\000"
 2231 0002 0000     		.space	2
 2232              	.LC1:
 2233 0004 4400     		.ascii	"D\000"
 2234 0006 0000     		.space	2
 2235              	.LC2:
 2236 0008 4300     		.ascii	"C\000"
 2237 000a 0000     		.space	2
 2238              	.LC3:
 2239 000c 4200     		.ascii	"B\000"
 2240 000e 0000     		.space	2
 2241              	.LC4:
 2242 0010 4100     		.ascii	"A\000"
 2243 0012 0000     		.space	2
 2244              	.LC5:
 2245 0014 41424344 		.ascii	"ABCDE\000"
 2245      4500
 2246 001a 0000     		.space	2
 2247              	.LC6:
 2248 001c 41424300 		.ascii	"ABC\000"
 2249              	.LC7:
 2250 0020 436F6E64 		.ascii	"CondVar, boost test\000"
 2250      5661722C 
 2250      20626F6F 
 2250      73742074 
 2250      65737400 
 2251              	.LC8:
 2252 0034 436F6E64 		.ascii	"CondVar, broadcast test\000"
 2252      5661722C 
 2252      2062726F 
ARM GAS  /tmp/ccGUJQGS.s 			page 41


 2252      61646361 
 2252      73742074 
 2253              	.LC9:
 2254 004c 436F6E64 		.ascii	"CondVar, signal test\000"
 2254      5661722C 
 2254      20736967 
 2254      6E616C20 
 2254      74657374 
 2255 0061 000000   		.space	3
 2256              	.LC10:
 2257 0064 4D757465 		.ascii	"Mutexes, status\000"
 2257      7865732C 
 2257      20737461 
 2257      74757300 
 2258              	.LC11:
 2259 0074 4D757465 		.ascii	"Mutexes, priority return\000"
 2259      7865732C 
 2259      20707269 
 2259      6F726974 
 2259      79207265 
 2260 008d 000000   		.space	3
 2261              	.LC12:
 2262 0090 4D757465 		.ascii	"Mutexes, priority inheritance, complex case\000"
 2262      7865732C 
 2262      20707269 
 2262      6F726974 
 2262      7920696E 
 2263              	.LC13:
 2264 00bc 4D757465 		.ascii	"Mutexes, priority inheritance, simple case\000"
 2264      7865732C 
 2264      20707269 
 2264      6F726974 
 2264      7920696E 
 2265 00e7 00       		.space	1
 2266              	.LC14:
 2267 00e8 4D757465 		.ascii	"Mutexes, priority enqueuing test\000"
 2267      7865732C 
 2267      20707269 
 2267      6F726974 
 2267      7920656E 
 2268 0109 000000   		.section	.rodata.patternmtx,"a",%progbits
 2269              		.align	2
 2270              		.type	patternmtx, %object
 2271              		.size	patternmtx, 36
 2272              	patternmtx:
 2273 0000 00000000 		.word	testmtx1
 2274 0004 00000000 		.word	testmtx2
 2275 0008 00000000 		.word	testmtx3
 2276 000c 00000000 		.word	testmtx4
 2277 0010 00000000 		.word	testmtx5
 2278 0014 00000000 		.word	testmtx6
 2279 0018 00000000 		.word	testmtx7
 2280 001c 00000000 		.word	testmtx8
 2281 0020 00000000 		.word	0
 2282              		.section	.data.c1,"aw",%progbits
 2283              		.align	2
 2284              		.set	.LANCHOR2,. + 0
ARM GAS  /tmp/ccGUJQGS.s 			page 42


 2285              		.type	c1, %object
 2286              		.size	c1, 8
 2287              	c1:
 2288 0000 00000000 		.word	c1
 2289 0004 00000000 		.word	c1
 2290              		.section	.rodata.testmtx1,"a",%progbits
 2291              		.align	2
 2292              		.type	testmtx1, %object
 2293              		.size	testmtx1, 16
 2294              	testmtx1:
 2295 0000 E8000000 		.word	.LC14
 2296 0004 00000000 		.word	mtx1_setup
 2297 0008 00000000 		.word	0
 2298 000c 00000000 		.word	mtx1_execute
 2299              		.section	.rodata.testmtx2,"a",%progbits
 2300              		.align	2
 2301              		.type	testmtx2, %object
 2302              		.size	testmtx2, 16
 2303              	testmtx2:
 2304 0000 BC000000 		.word	.LC13
 2305 0004 00000000 		.word	mtx2_setup
 2306 0008 00000000 		.word	0
 2307 000c 00000000 		.word	mtx2_execute
 2308              		.section	.rodata.testmtx3,"a",%progbits
 2309              		.align	2
 2310              		.type	testmtx3, %object
 2311              		.size	testmtx3, 16
 2312              	testmtx3:
 2313 0000 90000000 		.word	.LC12
 2314 0004 00000000 		.word	mtx3_setup
 2315 0008 00000000 		.word	0
 2316 000c 00000000 		.word	mtx3_execute
 2317              		.section	.rodata.testmtx4,"a",%progbits
 2318              		.align	2
 2319              		.type	testmtx4, %object
 2320              		.size	testmtx4, 16
 2321              	testmtx4:
 2322 0000 74000000 		.word	.LC11
 2323 0004 00000000 		.word	mtx4_setup
 2324 0008 00000000 		.word	0
 2325 000c 00000000 		.word	mtx4_execute
 2326              		.text
 2327              	.Letext0:
 2328              		.file 2 "/home/santi/arm-2013.11/lib/gcc/arm-none-eabi/4.8.1/include/stddef.h"
 2329              		.file 3 "/home/santi/arm-2013.11/arm-none-eabi/include/stdint.h"
 2330              		.file 4 "../third_party/ChibiOS/os/ports/GCC/ARMCMx/chtypes.h"
 2331              		.file 5 "../third_party/ChibiOS/os/kernel/include/chlists.h"
 2332              		.file 6 "../third_party/ChibiOS/os/kernel/include/chthreads.h"
 2333              		.file 7 "../third_party/ChibiOS/os/ports/GCC/ARMCMx/chcore_v7m.h"
 2334              		.file 8 "../third_party/ChibiOS/os/kernel/include/chvt.h"
 2335              		.file 9 "../third_party/ChibiOS/os/kernel/include/chschd.h"
 2336              		.file 10 "../third_party/ChibiOS/os/kernel/include/chmtx.h"
 2337              		.file 11 "../third_party/ChibiOS/os/kernel/include/chcond.h"
 2338              		.file 12 "../third_party/ChibiOS/test/test.h"