ARM GAS  /tmp/cc8AVhBh.s 			page 1


   1              		.syntax unified
   2              		.cpu cortex-m3
   3              		.fpu softvfp
   4              		.eabi_attribute 20, 1
   5              		.eabi_attribute 21, 1
   6              		.eabi_attribute 23, 3
   7              		.eabi_attribute 24, 1
   8              		.eabi_attribute 25, 1
   9              		.eabi_attribute 26, 1
  10              		.eabi_attribute 30, 2
  11              		.eabi_attribute 34, 1
  12              		.eabi_attribute 18, 4
  13              		.thumb
  14              		.file	"testpools.c"
  15              		.text
  16              	.Ltext0:
  17              		.cfi_sections	.debug_frame
  18              		.section	.text.null_provider,"ax",%progbits
  19              		.align	2
  20              		.p2align 4,,15
  21              		.thumb
  22              		.thumb_func
  23              		.type	null_provider, %function
  24              	null_provider:
  25              	.LFB7:
  26              		.file 1 "../third_party/ChibiOS/test/testpools.c"
  27              		.loc 1 71 0
  28              		.cfi_startproc
  29              		@ args = 0, pretend = 0, frame = 0
  30              		@ frame_needed = 0, uses_anonymous_args = 0
  31              		@ link register save eliminated.
  32              	.LVL0:
  33              		.loc 1 75 0
  34 0000 0020     		movs	r0, #0
  35              	.LVL1:
  36 0002 7047     		bx	lr
  37              		.cfi_endproc
  38              	.LFE7:
  39              		.size	null_provider, .-null_provider
  40 0004 AFF30080 		.section	.text.pools1_setup,"ax",%progbits
  40      AFF30080 
  40      AFF30080 
  41              		.align	2
  42              		.p2align 4,,15
  43              		.thumb
  44              		.thumb_func
  45              		.type	pools1_setup, %function
  46              	pools1_setup:
  47              	.LFB8:
  48              		.loc 1 77 0
  49              		.cfi_startproc
  50              		@ args = 0, pretend = 0, frame = 0
  51              		@ frame_needed = 0, uses_anonymous_args = 0
  52              		@ link register save eliminated.
  53              		.loc 1 79 0
  54 0000 40F20000 		movw	r0, #:lower16:.LANCHOR0
  55 0004 C0F20000 		movt	r0, #:upper16:.LANCHOR0
ARM GAS  /tmp/cc8AVhBh.s 			page 2


  56 0008 4FF49871 		mov	r1, #304
  57 000c 0022     		movs	r2, #0
  58 000e FFF7FEBF 		b	chPoolInit
  59              	.LVL2:
  60              		.cfi_endproc
  61              	.LFE8:
  62              		.size	pools1_setup, .-pools1_setup
  63 0012 00BFAFF3 		.section	.text.pools1_execute,"ax",%progbits
  63      0080AFF3 
  63      0080AFF3 
  63      0080
  64              		.align	2
  65              		.p2align 4,,15
  66              		.thumb
  67              		.thumb_func
  68              		.type	pools1_execute, %function
  69              	pools1_execute:
  70              	.LFB9:
  71              		.loc 1 82 0
  72              		.cfi_startproc
  73              		@ args = 0, pretend = 0, frame = 0
  74              		@ frame_needed = 0, uses_anonymous_args = 0
  75              	.LVL3:
  76 0000 38B5     		push	{r3, r4, r5, lr}
  77              		.cfi_def_cfa_offset 16
  78              		.cfi_offset 3, -16
  79              		.cfi_offset 4, -12
  80              		.cfi_offset 5, -8
  81              		.cfi_offset 14, -4
  82 0002 234C     		ldr	r4, .L13
  83 0004 04F11405 		add	r5, r4, #20
  84              	.LVL4:
  85              	.L5:
  86              		.loc 1 87 0 discriminator 2
  87 0008 54F8041F 		ldr	r1, [r4, #4]!
  88 000c 40F20000 		movw	r0, #:lower16:.LANCHOR0
  89 0010 C0F20000 		movt	r0, #:upper16:.LANCHOR0
  90 0014 FFF7FEFF 		bl	chPoolFree
  91              	.LVL5:
  92              		.loc 1 86 0 discriminator 2
  93 0018 AC42     		cmp	r4, r5
  94 001a F5D1     		bne	.L5
  95              		.loc 1 86 0 is_stmt 0
  96 001c 0524     		movs	r4, #5
  97              	.L9:
  98              	.LVL6:
  99              		.loc 1 91 0 is_stmt 1
 100 001e 40F20000 		movw	r0, #:lower16:.LANCHOR0
 101 0022 C0F20000 		movt	r0, #:upper16:.LANCHOR0
 102 0026 FFF7FEFF 		bl	chPoolAlloc
 103              	.LVL7:
 104 002a 011C     		adds	r1, r0, #0
 105 002c 18BF     		it	ne
 106 002e 0121     		movne	r1, #1
 107 0030 0120     		movs	r0, #1
 108 0032 FFF7FEFF 		bl	_test_assert
 109              	.LVL8:
ARM GAS  /tmp/cc8AVhBh.s 			page 3


 110 0036 78B9     		cbnz	r0, .L3
 111              		.loc 1 90 0
 112 0038 013C     		subs	r4, r4, #1
 113              	.LVL9:
 114 003a F0D1     		bne	.L9
 115              		.loc 1 94 0
 116 003c 40F20000 		movw	r0, #:lower16:.LANCHOR0
 117 0040 C0F20000 		movt	r0, #:upper16:.LANCHOR0
 118 0044 FFF7FEFF 		bl	chPoolAlloc
 119              	.LVL10:
 120 0048 D0F10101 		rsbs	r1, r0, #1
 121 004c 38BF     		it	cc
 122 004e 0021     		movcc	r1, #0
 123 0050 0220     		movs	r0, #2
 124 0052 FFF7FEFF 		bl	_test_assert
 125              	.LVL11:
 126 0056 00B1     		cbz	r0, .L12
 127              	.LVL12:
 128              	.L3:
 129 0058 38BD     		pop	{r3, r4, r5, pc}
 130              	.LVL13:
 131              	.L12:
 132              	.LBB4:
 133              	.LBB5:
 134              		.loc 1 97 0
 135 005a 40F20000 		movw	r0, #:lower16:.LANCHOR0
 136 005e 40F20002 		movw	r2, #:lower16:null_provider
 137 0062 1021     		movs	r1, #16
 138 0064 C0F20000 		movt	r0, #:upper16:.LANCHOR0
 139 0068 C0F20002 		movt	r2, #:upper16:null_provider
 140 006c FFF7FEFF 		bl	chPoolInit
 141              	.LVL14:
 142              		.loc 1 98 0
 143 0070 40F20000 		movw	r0, #:lower16:.LANCHOR0
 144 0074 C0F20000 		movt	r0, #:upper16:.LANCHOR0
 145 0078 FFF7FEFF 		bl	chPoolAlloc
 146              	.LVL15:
 147              	.LBE5:
 148              	.LBE4:
 149              		.loc 1 99 0
 150 007c BDE83840 		pop	{r3, r4, r5, lr}
 151              	.LVL16:
 152              	.LBB7:
 153              	.LBB6:
 154              		.loc 1 98 0
 155 0080 D0F10101 		rsbs	r1, r0, #1
 156 0084 38BF     		it	cc
 157 0086 0021     		movcc	r1, #0
 158 0088 0320     		movs	r0, #3
 159 008a FFF7FEBF 		b	_test_assert
 160              	.LVL17:
 161              	.L14:
 162 008e 00BF     		.align	2
 163              	.L13:
 164 0090 FCFFFFFF 		.word	wa-4
 165              	.LBE6:
 166              	.LBE7:
ARM GAS  /tmp/cc8AVhBh.s 			page 4


 167              		.cfi_endproc
 168              	.LFE9:
 169              		.size	pools1_execute, .-pools1_execute
 170              		.global	patternpools
 171              		.global	testpools1
 172 0094 AFF30080 		.section	.rodata.str1.4,"aMS",%progbits,1
 172      AFF30080 
 172      AFF30080 
 173              		.align	2
 174              	.LC0:
 175 0000 4D656D6F 		.ascii	"Memory Pools, queue/dequeue\000"
 175      72792050 
 175      6F6F6C73 
 175      2C207175 
 175      6575652F 
 176              		.section	.rodata.patternpools,"a",%progbits
 177              		.align	2
 178              		.type	patternpools, %object
 179              		.size	patternpools, 8
 180              	patternpools:
 181 0000 00000000 		.word	testpools1
 182 0004 00000000 		.word	0
 183              		.section	.data.mp1,"aw",%progbits
 184              		.align	2
 185              		.set	.LANCHOR0,. + 0
 186              		.type	mp1, %object
 187              		.size	mp1, 12
 188              	mp1:
 189 0000 00000000 		.word	0
 190 0004 30010000 		.word	304
 191 0008 00000000 		.word	0
 192              		.section	.rodata.testpools1,"a",%progbits
 193              		.align	2
 194              		.type	testpools1, %object
 195              		.size	testpools1, 16
 196              	testpools1:
 197 0000 00000000 		.word	.LC0
 198 0004 00000000 		.word	pools1_setup
 199 0008 00000000 		.word	0
 200 000c 00000000 		.word	pools1_execute
 201              		.text
 202              	.Letext0:
 203              		.file 2 "/home/santi/arm-2013.11/lib/gcc/arm-none-eabi/4.8.1/include/stddef.h"
 204              		.file 3 "/home/santi/arm-2013.11/arm-none-eabi/include/stdint.h"
 205              		.file 4 "../third_party/ChibiOS/os/ports/GCC/ARMCMx/chtypes.h"
 206              		.file 5 "../third_party/ChibiOS/os/kernel/include/chmemcore.h"
 207              		.file 6 "../third_party/ChibiOS/os/kernel/include/chmempools.h"
 208              		.file 7 "../third_party/ChibiOS/test/test.h"