ARM GAS  /tmp/ccqpt6IQ.s 			page 1


   1              		.syntax unified
   2              		.cpu cortex-m3
   3              		.fpu softvfp
   4              		.eabi_attribute 20, 1
   5              		.eabi_attribute 21, 1
   6              		.eabi_attribute 23, 3
   7              		.eabi_attribute 24, 1
   8              		.eabi_attribute 25, 1
   9              		.eabi_attribute 26, 1
  10              		.eabi_attribute 30, 2
  11              		.eabi_attribute 34, 1
  12              		.eabi_attribute 18, 4
  13              		.thumb
  14              		.file	"testqueues.c"
  15              		.text
  16              	.Ltext0:
  17              		.cfi_sections	.debug_frame
  18              		.section	.text.notify,"ax",%progbits
  19              		.align	2
  20              		.p2align 4,,15
  21              		.thumb
  22              		.thumb_func
  23              		.type	notify, %function
  24              	notify:
  25              	.LFB7:
  26              		.file 1 "../third_party/ChibiOS/test/testqueues.c"
  27              		.loc 1 68 0
  28              		.cfi_startproc
  29              		@ args = 0, pretend = 0, frame = 0
  30              		@ frame_needed = 0, uses_anonymous_args = 0
  31              		@ link register save eliminated.
  32              	.LVL0:
  33 0000 7047     		bx	lr
  34              		.cfi_endproc
  35              	.LFE7:
  36              		.size	notify, .-notify
  37 0002 00BFAFF3 		.section	.text.thread1,"ax",%progbits
  37      0080AFF3 
  37      0080AFF3 
  37      0080
  38              		.align	2
  39              		.p2align 4,,15
  40              		.thumb
  41              		.thumb_func
  42              		.type	thread1, %function
  43              	thread1:
  44              	.LFB9:
  45              		.loc 1 94 0
  46              		.cfi_startproc
  47              		@ args = 0, pretend = 0, frame = 0
  48              		@ frame_needed = 0, uses_anonymous_args = 0
  49              	.LVL1:
  50              		.loc 1 94 0
  51 0000 08B5     		push	{r3, lr}
  52              		.cfi_def_cfa_offset 8
  53              		.cfi_offset 3, -8
  54              		.cfi_offset 14, -4
ARM GAS  /tmp/ccqpt6IQ.s 			page 2


  55              		.loc 1 97 0
  56 0002 40F20000 		movw	r0, #:lower16:.LANCHOR0
  57              	.LVL2:
  58 0006 C821     		movs	r1, #200
  59 0008 C0F20000 		movt	r0, #:upper16:.LANCHOR0
  60 000c FFF7FEFF 		bl	chIQGetTimeout
  61              	.LVL3:
  62              		.loc 1 99 0
  63 0010 0020     		movs	r0, #0
  64 0012 08BD     		pop	{r3, pc}
  65              		.cfi_endproc
  66              	.LFE9:
  67              		.size	thread1, .-thread1
  68 0014 AFF30080 		.section	.text.queues1_setup,"ax",%progbits
  68      AFF30080 
  68      AFF30080 
  69              		.align	2
  70              		.p2align 4,,15
  71              		.thumb
  72              		.thumb_func
  73              		.type	queues1_setup, %function
  74              	queues1_setup:
  75              	.LFB8:
  76              		.loc 1 89 0
  77              		.cfi_startproc
  78              		@ args = 0, pretend = 0, frame = 0
  79              		@ frame_needed = 0, uses_anonymous_args = 0
  80              		@ link register save eliminated.
  81              		.loc 1 91 0
  82 0000 40F20002 		movw	r2, #:lower16:wa
  83 0004 C0F20002 		movt	r2, #:upper16:wa
  84 0008 40F20000 		movw	r0, #:lower16:.LANCHOR0
  85 000c 40F20003 		movw	r3, #:lower16:notify
  86 0010 1168     		ldr	r1, [r2]
  87 0012 C0F20000 		movt	r0, #:upper16:.LANCHOR0
  88 0016 C0F20003 		movt	r3, #:upper16:notify
  89 001a 0422     		movs	r2, #4
  90 001c FFF7FEBF 		b	chIQInit
  91              	.LVL4:
  92              		.cfi_endproc
  93              	.LFE8:
  94              		.size	queues1_setup, .-queues1_setup
  95              		.section	.text.thread2,"ax",%progbits
  96              		.align	2
  97              		.p2align 4,,15
  98              		.thumb
  99              		.thumb_func
 100              		.type	thread2, %function
 101              	thread2:
 102              	.LFB12:
 103              		.loc 1 181 0
 104              		.cfi_startproc
 105              		@ args = 0, pretend = 0, frame = 0
 106              		@ frame_needed = 0, uses_anonymous_args = 0
 107              	.LVL5:
 108 0000 08B5     		push	{r3, lr}
 109              		.cfi_def_cfa_offset 8
ARM GAS  /tmp/ccqpt6IQ.s 			page 3


 110              		.cfi_offset 3, -8
 111              		.cfi_offset 14, -4
 112              		.loc 1 184 0
 113 0002 40F20000 		movw	r0, #:lower16:.LANCHOR1
 114              	.LVL6:
 115 0006 0021     		movs	r1, #0
 116 0008 C822     		movs	r2, #200
 117 000a C0F20000 		movt	r0, #:upper16:.LANCHOR1
 118 000e FFF7FEFF 		bl	chOQPutTimeout
 119              	.LVL7:
 120              		.loc 1 186 0
 121 0012 0020     		movs	r0, #0
 122 0014 08BD     		pop	{r3, pc}
 123              		.cfi_endproc
 124              	.LFE12:
 125              		.size	thread2, .-thread2
 126 0016 00BFAFF3 		.section	.text.queues2_setup,"ax",%progbits
 126      0080AFF3 
 126      0080
 127              		.align	2
 128              		.p2align 4,,15
 129              		.thumb
 130              		.thumb_func
 131              		.type	queues2_setup, %function
 132              	queues2_setup:
 133              	.LFB11:
 134              		.loc 1 176 0
 135              		.cfi_startproc
 136              		@ args = 0, pretend = 0, frame = 0
 137              		@ frame_needed = 0, uses_anonymous_args = 0
 138              		@ link register save eliminated.
 139              		.loc 1 178 0
 140 0000 40F20002 		movw	r2, #:lower16:wa
 141 0004 C0F20002 		movt	r2, #:upper16:wa
 142 0008 40F20000 		movw	r0, #:lower16:.LANCHOR1
 143 000c 40F20003 		movw	r3, #:lower16:notify
 144 0010 1168     		ldr	r1, [r2]
 145 0012 C0F20000 		movt	r0, #:upper16:.LANCHOR1
 146 0016 C0F20003 		movt	r3, #:upper16:notify
 147 001a 0422     		movs	r2, #4
 148 001c FFF7FEBF 		b	chOQInit
 149              	.LVL8:
 150              		.cfi_endproc
 151              	.LFE11:
 152              		.size	queues2_setup, .-queues2_setup
 153              		.section	.text.queues1_execute,"ax",%progbits
 154              		.align	2
 155              		.p2align 4,,15
 156              		.thumb
 157              		.thumb_func
 158              		.type	queues1_execute, %function
 159              	queues1_execute:
 160              	.LFB10:
 161              		.loc 1 101 0
 162              		.cfi_startproc
 163              		@ args = 0, pretend = 0, frame = 0
 164              		@ frame_needed = 0, uses_anonymous_args = 0
ARM GAS  /tmp/ccqpt6IQ.s 			page 4


 165 0000 70B5     		push	{r4, r5, r6, lr}
 166              		.cfi_def_cfa_offset 16
 167              		.cfi_offset 4, -16
 168              		.cfi_offset 5, -12
 169              		.cfi_offset 6, -8
 170              		.cfi_offset 14, -4
 171              	.LBB99:
 172              		.loc 1 106 0
 173 0002 2023     		movs	r3, #32
 174              	.LBE99:
 175              		.loc 1 101 0
 176 0004 82B0     		sub	sp, sp, #8
 177              		.cfi_def_cfa_offset 24
 178              	.LBB100:
 179              		.loc 1 106 0
 180              	@ 106 "../third_party/ChibiOS/test/testqueues.c" 1
 181 0006 83F31188 		msr     BASEPRI, r3
 182              	@ 0 "" 2
 183              		.thumb
 184              	.LBE100:
 185 000a 40F20005 		movw	r5, #:lower16:.LANCHOR0
 186 000e C0F20005 		movt	r5, #:upper16:.LANCHOR0
 187 0012 A968     		ldr	r1, [r5, #8]
 188 0014 0120     		movs	r0, #1
 189 0016 D1F10101 		rsbs	r1, r1, #1
 190 001a 38BF     		it	cc
 191 001c 0021     		movcc	r1, #0
 192 001e FFF7FEFF 		bl	_test_assert
 193              	.LVL9:
 194 0022 30BB     		cbnz	r0, .L28
 195              	.LBB101:
 196              	.LBB102:
 197              	.LBB103:
 198 0024 0346     		mov	r3, r0
 199              	@ 106 "../third_party/ChibiOS/test/testqueues.c" 1
 200 0026 83F31188 		msr     BASEPRI, r3
 201              	@ 0 "" 2
 202              		.thumb
 203              	.LBE103:
 204              	.LBB104:
 205              		.loc 1 109 0
 206 002a 2023     		movs	r3, #32
 207              	@ 109 "../third_party/ChibiOS/test/testqueues.c" 1
 208 002c 83F31188 		msr     BASEPRI, r3
 209              	@ 0 "" 2
 210              	.LVL10:
 211              		.thumb
 212 0030 4124     		movs	r4, #65
 213              	.LVL11:
 214              	.L10:
 215              	.LBE104:
 216              		.loc 1 111 0
 217 0032 2146     		mov	r1, r4
 218 0034 40F20000 		movw	r0, #:lower16:.LANCHOR0
 219 0038 0134     		adds	r4, r4, #1
 220 003a C0F20000 		movt	r0, #:upper16:.LANCHOR0
 221 003e E4B2     		uxtb	r4, r4
ARM GAS  /tmp/ccqpt6IQ.s 			page 5


 222 0040 FFF7FEFF 		bl	chIQPutI
 223              	.LVL12:
 224              		.loc 1 110 0
 225 0044 452C     		cmp	r4, #69
 226 0046 F4D1     		bne	.L10
 227              	.LBB105:
 228              		.loc 1 112 0
 229 0048 0023     		movs	r3, #0
 230              	@ 112 "../third_party/ChibiOS/test/testqueues.c" 1
 231 004a 83F31188 		msr     BASEPRI, r3
 232              	@ 0 "" 2
 233              		.thumb
 234              	.LBE105:
 235              	.LBB106:
 236              		.loc 1 113 0
 237 004e 2023     		movs	r3, #32
 238              	@ 113 "../third_party/ChibiOS/test/testqueues.c" 1
 239 0050 83F31188 		msr     BASEPRI, r3
 240              	@ 0 "" 2
 241              		.thumb
 242              	.LBE106:
 243 0054 6969     		ldr	r1, [r5, #20]
 244 0056 AA69     		ldr	r2, [r5, #24]
 245 0058 40F20003 		movw	r3, #:lower16:.LANCHOR0
 246 005c 9142     		cmp	r1, r2
 247 005e C0F20003 		movt	r3, #:upper16:.LANCHOR0
 248 0062 18BF     		it	ne
 249 0064 0021     		movne	r1, #0
 250 0066 00F02581 		beq	.L30
 251              	.L11:
 252 006a 0220     		movs	r0, #2
 253 006c FFF7FEFF 		bl	_test_assert
 254              	.LVL13:
 255 0070 20B1     		cbz	r0, .L12
 256              	.L28:
 257              	.LBB107:
 258              		.loc 1 153 0
 259 0072 0023     		movs	r3, #0
 260              	@ 153 "../third_party/ChibiOS/test/testqueues.c" 1
 261 0074 83F31188 		msr     BASEPRI, r3
 262              	@ 0 "" 2
 263              		.thumb
 264              	.L6:
 265              	.LBE107:
 266              	.LBE102:
 267              	.LBE101:
 268              		.loc 1 158 0
 269 0078 02B0     		add	sp, sp, #8
 270              		@ sp needed
 271 007a 70BD     		pop	{r4, r5, r6, pc}
 272              	.L12:
 273              	.LBB129:
 274              	.LBB127:
 275              	.LBB108:
 276              		.loc 1 113 0
 277 007c 0346     		mov	r3, r0
 278              	@ 113 "../third_party/ChibiOS/test/testqueues.c" 1
ARM GAS  /tmp/ccqpt6IQ.s 			page 6


 279 007e 83F31188 		msr     BASEPRI, r3
 280              	@ 0 "" 2
 281              		.thumb
 282              	.LBE108:
 283              	.LBB109:
 284              		.loc 1 114 0
 285 0082 2023     		movs	r3, #32
 286              	@ 114 "../third_party/ChibiOS/test/testqueues.c" 1
 287 0084 83F31188 		msr     BASEPRI, r3
 288              	@ 0 "" 2
 289              		.thumb
 290              	.LBE109:
 291 0088 40F20000 		movw	r0, #:lower16:.LANCHOR0
 292 008c 0021     		movs	r1, #0
 293 008e C0F20000 		movt	r0, #:upper16:.LANCHOR0
 294 0092 FFF7FEFF 		bl	chIQPutI
 295              	.LVL14:
 296 0096 0430     		adds	r0, r0, #4
 297 0098 14BF     		ite	ne
 298 009a 0021     		movne	r1, #0
 299 009c 0121     		moveq	r1, #1
 300 009e 0320     		movs	r0, #3
 301 00a0 FFF7FEFF 		bl	_test_assert
 302              	.LVL15:
 303 00a4 0028     		cmp	r0, #0
 304 00a6 E4D1     		bne	.L28
 305              	.LBB110:
 306 00a8 0346     		mov	r3, r0
 307              	@ 114 "../third_party/ChibiOS/test/testqueues.c" 1
 308 00aa 83F31188 		msr     BASEPRI, r3
 309              	@ 0 "" 2
 310              	.LVL16:
 311              		.thumb
 312 00ae 0424     		movs	r4, #4
 313              	.LVL17:
 314              	.L15:
 315              	.LBE110:
 316              		.loc 1 118 0
 317 00b0 40F20000 		movw	r0, #:lower16:.LANCHOR0
 318 00b4 4FF0FF31 		mov	r1, #-1
 319 00b8 C0F20000 		movt	r0, #:upper16:.LANCHOR0
 320 00bc FFF7FEFF 		bl	chIQGetTimeout
 321              	.LVL18:
 322 00c0 C0B2     		uxtb	r0, r0
 323 00c2 FFF7FEFF 		bl	test_emit_token
 324              	.LVL19:
 325              		.loc 1 117 0
 326 00c6 013C     		subs	r4, r4, #1
 327              	.LVL20:
 328 00c8 F2D1     		bne	.L15
 329              	.LBB111:
 330              		.loc 1 119 0
 331 00ca 2023     		movs	r3, #32
 332              	@ 119 "../third_party/ChibiOS/test/testqueues.c" 1
 333 00cc 83F31188 		msr     BASEPRI, r3
 334              	@ 0 "" 2
 335              		.thumb
ARM GAS  /tmp/ccqpt6IQ.s 			page 7


 336              	.LBE111:
 337 00d0 A968     		ldr	r1, [r5, #8]
 338 00d2 0420     		movs	r0, #4
 339 00d4 D1F10101 		rsbs	r1, r1, #1
 340 00d8 38BF     		it	cc
 341 00da 0021     		movcc	r1, #0
 342 00dc FFF7FEFF 		bl	_test_assert
 343              	.LVL21:
 344 00e0 0028     		cmp	r0, #0
 345 00e2 C6D1     		bne	.L28
 346              	.LBB112:
 347 00e4 0346     		mov	r3, r0
 348              	@ 119 "../third_party/ChibiOS/test/testqueues.c" 1
 349 00e6 83F31188 		msr     BASEPRI, r3
 350              	@ 0 "" 2
 351              		.thumb
 352              	.LBE112:
 353              		.loc 1 120 0
 354 00ea 40F20001 		movw	r1, #:lower16:.LC0
 355 00ee C0F20001 		movt	r1, #:upper16:.LC0
 356 00f2 0520     		movs	r0, #5
 357 00f4 FFF7FEFF 		bl	_test_assert_sequence
 358              	.LVL22:
 359 00f8 0028     		cmp	r0, #0
 360 00fa BDD1     		bne	.L6
 361              	.LBB113:
 362              		.loc 1 123 0
 363 00fc 2023     		movs	r3, #32
 364              	@ 123 "../third_party/ChibiOS/test/testqueues.c" 1
 365 00fe 83F31188 		msr     BASEPRI, r3
 366              	@ 0 "" 2
 367              	.LVL23:
 368              		.thumb
 369 0102 4124     		movs	r4, #65
 370              	.LVL24:
 371              	.L19:
 372              	.LBE113:
 373              		.loc 1 125 0
 374 0104 2146     		mov	r1, r4
 375 0106 40F20000 		movw	r0, #:lower16:.LANCHOR0
 376 010a 0134     		adds	r4, r4, #1
 377 010c C0F20000 		movt	r0, #:upper16:.LANCHOR0
 378 0110 E4B2     		uxtb	r4, r4
 379 0112 FFF7FEFF 		bl	chIQPutI
 380              	.LVL25:
 381              		.loc 1 124 0
 382 0116 452C     		cmp	r4, #69
 383 0118 F4D1     		bne	.L19
 384              	.LBB114:
 385              		.loc 1 126 0
 386 011a 0023     		movs	r3, #0
 387              	@ 126 "../third_party/ChibiOS/test/testqueues.c" 1
 388 011c 83F31188 		msr     BASEPRI, r3
 389              	@ 0 "" 2
 390              		.thumb
 391              	.LBE114:
 392              		.loc 1 129 0
ARM GAS  /tmp/ccqpt6IQ.s 			page 8


 393 0120 40F20004 		movw	r4, #:lower16:wa
 394 0124 C0F20004 		movt	r4, #:upper16:wa
 395 0128 40F20000 		movw	r0, #:lower16:.LANCHOR0
 396 012c 6168     		ldr	r1, [r4, #4]
 397 012e C0F20000 		movt	r0, #:upper16:.LANCHOR0
 398 0132 0822     		movs	r2, #8
 399 0134 FFF7FEFF 		bl	chIQReadTimeout
 400              	.LVL26:
 401              		.loc 1 130 0
 402 0138 061F     		subs	r6, r0, #4
 403 013a 7142     		rsbs	r1, r6, #0
 404 013c 7141     		adcs	r1, r1, r6
 405 013e 0620     		movs	r0, #6
 406              	.LVL27:
 407 0140 FFF7FEFF 		bl	_test_assert
 408              	.LVL28:
 409 0144 0028     		cmp	r0, #0
 410 0146 97D1     		bne	.L6
 411              	.LBB115:
 412              		.loc 1 131 0
 413 0148 2023     		movs	r3, #32
 414              	@ 131 "../third_party/ChibiOS/test/testqueues.c" 1
 415 014a 83F31188 		msr     BASEPRI, r3
 416              	@ 0 "" 2
 417              		.thumb
 418              	.LBE115:
 419 014e A968     		ldr	r1, [r5, #8]
 420 0150 0720     		movs	r0, #7
 421 0152 D1F10101 		rsbs	r1, r1, #1
 422 0156 38BF     		it	cc
 423 0158 0021     		movcc	r1, #0
 424 015a FFF7FEFF 		bl	_test_assert
 425              	.LVL29:
 426 015e 0028     		cmp	r0, #0
 427 0160 87D1     		bne	.L28
 428              	.LBB116:
 429 0162 0346     		mov	r3, r0
 430              	@ 131 "../third_party/ChibiOS/test/testqueues.c" 1
 431 0164 83F31188 		msr     BASEPRI, r3
 432              	@ 0 "" 2
 433              		.thumb
 434              	.LBE116:
 435              	.LBB117:
 436              		.loc 1 134 0
 437 0168 2023     		movs	r3, #32
 438              	@ 134 "../third_party/ChibiOS/test/testqueues.c" 1
 439 016a 83F31188 		msr     BASEPRI, r3
 440              	@ 0 "" 2
 441              	.LVL30:
 442              		.thumb
 443 016e 4126     		movs	r6, #65
 444              	.LVL31:
 445              	.L23:
 446              	.LBE117:
 447              		.loc 1 136 0
 448 0170 3146     		mov	r1, r6
 449 0172 40F20000 		movw	r0, #:lower16:.LANCHOR0
ARM GAS  /tmp/ccqpt6IQ.s 			page 9


 450 0176 0136     		adds	r6, r6, #1
 451 0178 C0F20000 		movt	r0, #:upper16:.LANCHOR0
 452 017c F6B2     		uxtb	r6, r6
 453 017e FFF7FEFF 		bl	chIQPutI
 454              	.LVL32:
 455              		.loc 1 135 0
 456 0182 452E     		cmp	r6, #69
 457 0184 F4D1     		bne	.L23
 458              	.LBB118:
 459              		.loc 1 137 0
 460 0186 0023     		movs	r3, #0
 461              	@ 137 "../third_party/ChibiOS/test/testqueues.c" 1
 462 0188 83F31188 		msr     BASEPRI, r3
 463              	@ 0 "" 2
 464              		.thumb
 465              	.LBE118:
 466              		.loc 1 140 0
 467 018c 6668     		ldr	r6, [r4, #4]
 468 018e 40F20000 		movw	r0, #:lower16:.LANCHOR0
 469 0192 3146     		mov	r1, r6
 470 0194 0222     		movs	r2, #2
 471 0196 C0F20000 		movt	r0, #:upper16:.LANCHOR0
 472 019a FFF7FEFF 		bl	chIQReadTimeout
 473              	.LVL33:
 474              		.loc 1 141 0
 475 019e 0238     		subs	r0, r0, #2
 476              	.LVL34:
 477 01a0 4142     		rsbs	r1, r0, #0
 478 01a2 4141     		adcs	r1, r1, r0
 479 01a4 0820     		movs	r0, #8
 480              	.LVL35:
 481 01a6 FFF7FEFF 		bl	_test_assert
 482              	.LVL36:
 483 01aa 0346     		mov	r3, r0
 484 01ac 0028     		cmp	r0, #0
 485 01ae 7FF463AF 		bne	.L6
 486              		.loc 1 142 0
 487 01b2 40F20000 		movw	r0, #:lower16:.LANCHOR0
 488 01b6 3146     		mov	r1, r6
 489 01b8 0222     		movs	r2, #2
 490 01ba C0F20000 		movt	r0, #:upper16:.LANCHOR0
 491 01be FFF7FEFF 		bl	chIQReadTimeout
 492              	.LVL37:
 493              		.loc 1 143 0
 494 01c2 821E     		subs	r2, r0, #2
 495 01c4 5142     		rsbs	r1, r2, #0
 496 01c6 5141     		adcs	r1, r1, r2
 497 01c8 0920     		movs	r0, #9
 498              	.LVL38:
 499 01ca FFF7FEFF 		bl	_test_assert
 500              	.LVL39:
 501 01ce 0028     		cmp	r0, #0
 502 01d0 7FF452AF 		bne	.L6
 503              	.LBB119:
 504              		.loc 1 144 0
 505 01d4 2023     		movs	r3, #32
 506              	@ 144 "../third_party/ChibiOS/test/testqueues.c" 1
ARM GAS  /tmp/ccqpt6IQ.s 			page 10


 507 01d6 83F31188 		msr     BASEPRI, r3
 508              	@ 0 "" 2
 509              		.thumb
 510              	.LBE119:
 511 01da A968     		ldr	r1, [r5, #8]
 512 01dc 0A20     		movs	r0, #10
 513 01de D1F10101 		rsbs	r1, r1, #1
 514 01e2 38BF     		it	cc
 515 01e4 0021     		movcc	r1, #0
 516 01e6 FFF7FEFF 		bl	_test_assert
 517              	.LVL40:
 518 01ea 0346     		mov	r3, r0
 519 01ec 0028     		cmp	r0, #0
 520 01ee 7FF440AF 		bne	.L28
 521              	.LBB120:
 522              	@ 144 "../third_party/ChibiOS/test/testqueues.c" 1
 523 01f2 83F31188 		msr     BASEPRI, r3
 524              	@ 0 "" 2
 525              		.thumb
 526              	.LBE120:
 527              	.LBB121:
 528              		.loc 1 147 0
 529 01f6 2023     		movs	r3, #32
 530              	@ 147 "../third_party/ChibiOS/test/testqueues.c" 1
 531 01f8 83F31188 		msr     BASEPRI, r3
 532              	@ 0 "" 2
 533              		.thumb
 534              	.LBE121:
 535              		.loc 1 148 0
 536 01fc 40F20000 		movw	r0, #:lower16:.LANCHOR0
 537 0200 0021     		movs	r1, #0
 538 0202 C0F20000 		movt	r0, #:upper16:.LANCHOR0
 539 0206 FFF7FEFF 		bl	chIQPutI
 540              	.LVL41:
 541              		.loc 1 149 0
 542 020a 40F20000 		movw	r0, #:lower16:.LANCHOR0
 543 020e C0F20000 		movt	r0, #:upper16:.LANCHOR0
 544 0212 FFF7FEFF 		bl	chIQResetI
 545              	.LVL42:
 546              	.LBB122:
 547              		.loc 1 150 0
 548 0216 0023     		movs	r3, #0
 549              	@ 150 "../third_party/ChibiOS/test/testqueues.c" 1
 550 0218 83F31188 		msr     BASEPRI, r3
 551              	@ 0 "" 2
 552              		.thumb
 553              	.LBE122:
 554              	.LBB123:
 555              		.loc 1 151 0
 556 021c 2023     		movs	r3, #32
 557              	@ 151 "../third_party/ChibiOS/test/testqueues.c" 1
 558 021e 83F31188 		msr     BASEPRI, r3
 559              	@ 0 "" 2
 560              		.thumb
 561              	.LBE123:
 562 0222 A968     		ldr	r1, [r5, #8]
 563 0224 0B20     		movs	r0, #11
ARM GAS  /tmp/ccqpt6IQ.s 			page 11


 564 0226 D1F10101 		rsbs	r1, r1, #1
 565 022a 38BF     		it	cc
 566 022c 0021     		movcc	r1, #0
 567 022e FFF7FEFF 		bl	_test_assert
 568              	.LVL43:
 569 0232 0346     		mov	r3, r0
 570 0234 0028     		cmp	r0, #0
 571 0236 7FF41CAF 		bne	.L28
 572              	.LBB124:
 573              	@ 151 "../third_party/ChibiOS/test/testqueues.c" 1
 574 023a 83F31188 		msr     BASEPRI, r3
 575              	@ 0 "" 2
 576              		.thumb
 577              	.LBE124:
 578              		.loc 1 152 0
 579 023e 40F20003 		movw	r3, #:lower16:rlist
 580 0242 C0F20003 		movt	r3, #:upper16:rlist
 581 0246 DB69     		ldr	r3, [r3, #28]
 582 0248 0021     		movs	r1, #0
 583 024a 9A68     		ldr	r2, [r3, #8]
 584 024c 40F20003 		movw	r3, #:lower16:thread1
 585 0250 0091     		str	r1, [sp]
 586 0252 2068     		ldr	r0, [r4]
 587 0254 0132     		adds	r2, r2, #1
 588 0256 C0F20003 		movt	r3, #:upper16:thread1
 589 025a 4FF49871 		mov	r1, #304
 590 025e FFF7FEFF 		bl	chThdCreateStatic
 591              	.LVL44:
 592 0262 40F20003 		movw	r3, #:lower16:threads
 593 0266 C0F20003 		movt	r3, #:upper16:threads
 594 026a 1860     		str	r0, [r3]
 595              	.LBB125:
 596              		.loc 1 153 0
 597 026c 2023     		movs	r3, #32
 598              	@ 153 "../third_party/ChibiOS/test/testqueues.c" 1
 599 026e 83F31188 		msr     BASEPRI, r3
 600              	@ 0 "" 2
 601              		.thumb
 602              	.LBE125:
 603 0272 A968     		ldr	r1, [r5, #8]
 604 0274 0C20     		movs	r0, #12
 605 0276 D1F10101 		rsbs	r1, r1, #1
 606 027a 38BF     		it	cc
 607 027c 0021     		movcc	r1, #0
 608 027e FFF7FEFF 		bl	_test_assert
 609              	.LVL45:
 610 0282 0346     		mov	r3, r0
 611 0284 0028     		cmp	r0, #0
 612 0286 7FF4F4AE 		bne	.L28
 613              	.LBB126:
 614              	@ 153 "../third_party/ChibiOS/test/testqueues.c" 1
 615 028a 83F31188 		msr     BASEPRI, r3
 616              	@ 0 "" 2
 617              		.thumb
 618              	.LBE126:
 619              		.loc 1 154 0
 620 028e FFF7FEFF 		bl	test_wait_threads
ARM GAS  /tmp/ccqpt6IQ.s 			page 12


 621              	.LVL46:
 622              		.loc 1 157 0
 623 0292 40F20000 		movw	r0, #:lower16:.LANCHOR0
 624 0296 0A21     		movs	r1, #10
 625 0298 C0F20000 		movt	r0, #:upper16:.LANCHOR0
 626 029c FFF7FEFF 		bl	chIQGetTimeout
 627              	.LVL47:
 628 02a0 B0F1FF33 		subs	r3, r0, #-1
 629 02a4 5942     		rsbs	r1, r3, #0
 630 02a6 5941     		adcs	r1, r1, r3
 631 02a8 0D20     		movs	r0, #13
 632              	.LBE127:
 633              	.LBE129:
 634              		.loc 1 158 0
 635 02aa 02B0     		add	sp, sp, #8
 636              		@ sp needed
 637 02ac BDE87040 		pop	{r4, r5, r6, lr}
 638              	.LBB130:
 639              	.LBB128:
 640              		.loc 1 157 0
 641 02b0 FFF7FEBF 		b	_test_assert
 642              	.LVL48:
 643              	.L30:
 644              		.loc 1 113 0
 645 02b4 9968     		ldr	r1, [r3, #8]
 646 02b6 0031     		adds	r1, r1, #0
 647 02b8 18BF     		it	ne
 648 02ba 0121     		movne	r1, #1
 649 02bc D5E6     		b	.L11
 650              	.LBE128:
 651              	.LBE130:
 652              		.cfi_endproc
 653              	.LFE10:
 654              		.size	queues1_execute, .-queues1_execute
 655 02be 00BF     		.section	.text.queues2_execute,"ax",%progbits
 656              		.align	2
 657              		.p2align 4,,15
 658              		.thumb
 659              		.thumb_func
 660              		.type	queues2_execute, %function
 661              	queues2_execute:
 662              	.LFB13:
 663              		.loc 1 188 0
 664              		.cfi_startproc
 665              		@ args = 0, pretend = 0, frame = 0
 666              		@ frame_needed = 0, uses_anonymous_args = 0
 667 0000 30B5     		push	{r4, r5, lr}
 668              		.cfi_def_cfa_offset 12
 669              		.cfi_offset 4, -12
 670              		.cfi_offset 5, -8
 671              		.cfi_offset 14, -4
 672              	.LBB164:
 673              		.loc 1 193 0
 674 0002 2023     		movs	r3, #32
 675              	.LBE164:
 676              		.loc 1 188 0
 677 0004 83B0     		sub	sp, sp, #12
ARM GAS  /tmp/ccqpt6IQ.s 			page 13


 678              		.cfi_def_cfa_offset 24
 679              	.LBB165:
 680              		.loc 1 193 0
 681              	@ 193 "../third_party/ChibiOS/test/testqueues.c" 1
 682 0006 83F31188 		msr     BASEPRI, r3
 683              	@ 0 "" 2
 684              		.thumb
 685              	.LBE165:
 686 000a 40F20005 		movw	r5, #:lower16:.LANCHOR1
 687 000e C0F20005 		movt	r5, #:upper16:.LANCHOR1
 688 0012 6A69     		ldr	r2, [r5, #20]
 689 0014 AB69     		ldr	r3, [r5, #24]
 690 0016 9A42     		cmp	r2, r3
 691 0018 18BF     		it	ne
 692 001a 0021     		movne	r1, #0
 693 001c 00F01A81 		beq	.L52
 694              	.L32:
 695              		.loc 1 193 0 is_stmt 0 discriminator 3
 696 0020 0120     		movs	r0, #1
 697 0022 FFF7FEFF 		bl	_test_assert
 698              	.LVL49:
 699 0026 0028     		cmp	r0, #0
 700 0028 43D1     		bne	.L51
 701              	.LBB166:
 702              	.LBB167:
 703              	.LBB168:
 704              		.loc 1 193 0
 705 002a 0346     		mov	r3, r0
 706              	@ 193 "../third_party/ChibiOS/test/testqueues.c" 1
 707 002c 83F31188 		msr     BASEPRI, r3
 708              	@ 0 "" 2
 709              	.LVL50:
 710              		.thumb
 711 0030 4124     		movs	r4, #65
 712              	.LVL51:
 713              	.L36:
 714              	.LBE168:
 715              		.loc 1 197 0 is_stmt 1
 716 0032 2146     		mov	r1, r4
 717 0034 40F20000 		movw	r0, #:lower16:.LANCHOR1
 718 0038 0134     		adds	r4, r4, #1
 719 003a C0F20000 		movt	r0, #:upper16:.LANCHOR1
 720 003e 4FF0FF32 		mov	r2, #-1
 721 0042 E4B2     		uxtb	r4, r4
 722 0044 FFF7FEFF 		bl	chOQPutTimeout
 723              	.LVL52:
 724              		.loc 1 196 0
 725 0048 452C     		cmp	r4, #69
 726 004a F2D1     		bne	.L36
 727              	.LBB169:
 728              		.loc 1 198 0
 729 004c 2023     		movs	r3, #32
 730              	@ 198 "../third_party/ChibiOS/test/testqueues.c" 1
 731 004e 83F31188 		msr     BASEPRI, r3
 732              	@ 0 "" 2
 733              		.thumb
 734              	.LBE169:
ARM GAS  /tmp/ccqpt6IQ.s 			page 14


 735 0052 A968     		ldr	r1, [r5, #8]
 736 0054 0220     		movs	r0, #2
 737 0056 D1F10101 		rsbs	r1, r1, #1
 738 005a 38BF     		it	cc
 739 005c 0021     		movcc	r1, #0
 740 005e FFF7FEFF 		bl	_test_assert
 741              	.LVL53:
 742 0062 30BB     		cbnz	r0, .L51
 743              	.LBB170:
 744 0064 0346     		mov	r3, r0
 745              	@ 198 "../third_party/ChibiOS/test/testqueues.c" 1
 746 0066 83F31188 		msr     BASEPRI, r3
 747              	@ 0 "" 2
 748              	.LVL54:
 749              		.thumb
 750 006a 0424     		movs	r4, #4
 751              	.LVL55:
 752              	.L39:
 753              	.LBE170:
 754              	.LBB171:
 755              	.LBB172:
 756              		.loc 1 204 0
 757 006c 2023     		movs	r3, #32
 758              	@ 204 "../third_party/ChibiOS/test/testqueues.c" 1
 759 006e 83F31188 		msr     BASEPRI, r3
 760              	@ 0 "" 2
 761              		.thumb
 762              	.LBE172:
 763              		.loc 1 205 0
 764 0072 40F20000 		movw	r0, #:lower16:.LANCHOR1
 765 0076 C0F20000 		movt	r0, #:upper16:.LANCHOR1
 766 007a FFF7FEFF 		bl	chOQGetI
 767              	.LVL56:
 768              	.LBB173:
 769              		.loc 1 206 0
 770 007e 0023     		movs	r3, #0
 771              	@ 206 "../third_party/ChibiOS/test/testqueues.c" 1
 772 0080 83F31188 		msr     BASEPRI, r3
 773              	@ 0 "" 2
 774              		.thumb
 775              	.LBE173:
 776              		.loc 1 207 0
 777 0084 C0B2     		uxtb	r0, r0
 778              	.LVL57:
 779 0086 FFF7FEFF 		bl	test_emit_token
 780              	.LVL58:
 781              	.LBE171:
 782              		.loc 1 201 0
 783 008a 013C     		subs	r4, r4, #1
 784              	.LVL59:
 785 008c EED1     		bne	.L39
 786              	.LBB174:
 787              		.loc 1 209 0
 788 008e 2023     		movs	r3, #32
 789              	@ 209 "../third_party/ChibiOS/test/testqueues.c" 1
 790 0090 83F31188 		msr     BASEPRI, r3
 791              	@ 0 "" 2
ARM GAS  /tmp/ccqpt6IQ.s 			page 15


 792              		.thumb
 793              	.LBE174:
 794 0094 6969     		ldr	r1, [r5, #20]
 795 0096 AA69     		ldr	r2, [r5, #24]
 796 0098 40F20003 		movw	r3, #:lower16:.LANCHOR1
 797 009c 9142     		cmp	r1, r2
 798 009e C0F20003 		movt	r3, #:upper16:.LANCHOR1
 799 00a2 18BF     		it	ne
 800 00a4 0021     		movne	r1, #0
 801 00a6 00F0DA80 		beq	.L53
 802              	.L40:
 803 00aa 0320     		movs	r0, #3
 804 00ac FFF7FEFF 		bl	_test_assert
 805              	.LVL60:
 806 00b0 20B1     		cbz	r0, .L41
 807              	.LVL61:
 808              	.L51:
 809              	.LBB175:
 810              		.loc 1 225 0
 811 00b2 0023     		movs	r3, #0
 812              	@ 225 "../third_party/ChibiOS/test/testqueues.c" 1
 813 00b4 83F31188 		msr     BASEPRI, r3
 814              	@ 0 "" 2
 815              		.thumb
 816              	.L31:
 817              	.LBE175:
 818              	.LBE167:
 819              	.LBE166:
 820              		.loc 1 236 0
 821 00b8 03B0     		add	sp, sp, #12
 822              		@ sp needed
 823 00ba 30BD     		pop	{r4, r5, pc}
 824              	.LVL62:
 825              	.L41:
 826              	.LBB194:
 827              	.LBB191:
 828              	.LBB176:
 829              		.loc 1 209 0
 830 00bc 0346     		mov	r3, r0
 831              	@ 209 "../third_party/ChibiOS/test/testqueues.c" 1
 832 00be 83F31188 		msr     BASEPRI, r3
 833              	@ 0 "" 2
 834              		.thumb
 835              	.LBE176:
 836              		.loc 1 210 0
 837 00c2 40F20001 		movw	r1, #:lower16:.LC0
 838 00c6 C0F20001 		movt	r1, #:upper16:.LC0
 839 00ca 0420     		movs	r0, #4
 840 00cc FFF7FEFF 		bl	_test_assert_sequence
 841              	.LVL63:
 842 00d0 0028     		cmp	r0, #0
 843 00d2 F1D1     		bne	.L31
 844              	.LBB177:
 845              		.loc 1 211 0
 846 00d4 2023     		movs	r3, #32
 847              	@ 211 "../third_party/ChibiOS/test/testqueues.c" 1
 848 00d6 83F31188 		msr     BASEPRI, r3
ARM GAS  /tmp/ccqpt6IQ.s 			page 16


 849              	@ 0 "" 2
 850              		.thumb
 851              	.LBE177:
 852 00da 40F20000 		movw	r0, #:lower16:.LANCHOR1
 853 00de C0F20000 		movt	r0, #:upper16:.LANCHOR1
 854 00e2 FFF7FEFF 		bl	chOQGetI
 855              	.LVL64:
 856 00e6 0330     		adds	r0, r0, #3
 857 00e8 14BF     		ite	ne
 858 00ea 0021     		movne	r1, #0
 859 00ec 0121     		moveq	r1, #1
 860 00ee 0520     		movs	r0, #5
 861 00f0 FFF7FEFF 		bl	_test_assert
 862              	.LVL65:
 863 00f4 0028     		cmp	r0, #0
 864 00f6 DCD1     		bne	.L51
 865              	.LBB178:
 866 00f8 0346     		mov	r3, r0
 867              	@ 211 "../third_party/ChibiOS/test/testqueues.c" 1
 868 00fa 83F31188 		msr     BASEPRI, r3
 869              	@ 0 "" 2
 870              		.thumb
 871              	.LBE178:
 872              		.loc 1 214 0
 873 00fe 40F20004 		movw	r4, #:lower16:wa
 874              	.LVL66:
 875 0102 C0F20004 		movt	r4, #:upper16:wa
 876 0106 40F20000 		movw	r0, #:lower16:.LANCHOR1
 877 010a 6168     		ldr	r1, [r4, #4]
 878 010c C0F20000 		movt	r0, #:upper16:.LANCHOR1
 879 0110 0822     		movs	r2, #8
 880 0112 0023     		movs	r3, #0
 881 0114 FFF7FEFF 		bl	chOQWriteTimeout
 882              	.LVL67:
 883              		.loc 1 215 0
 884 0118 B0F1040E 		subs	lr, r0, #4
 885 011c DEF10001 		rsbs	r1, lr, #0
 886 0120 51EB0E01 		adcs	r1, r1, lr
 887 0124 0620     		movs	r0, #6
 888              	.LVL68:
 889 0126 FFF7FEFF 		bl	_test_assert
 890              	.LVL69:
 891 012a 0028     		cmp	r0, #0
 892 012c C4D1     		bne	.L31
 893              	.LBB179:
 894              		.loc 1 216 0
 895 012e 2023     		movs	r3, #32
 896              	@ 216 "../third_party/ChibiOS/test/testqueues.c" 1
 897 0130 83F31188 		msr     BASEPRI, r3
 898              	@ 0 "" 2
 899              		.thumb
 900              	.LBE179:
 901 0134 A968     		ldr	r1, [r5, #8]
 902 0136 0720     		movs	r0, #7
 903 0138 D1F10101 		rsbs	r1, r1, #1
 904 013c 38BF     		it	cc
 905 013e 0021     		movcc	r1, #0
ARM GAS  /tmp/ccqpt6IQ.s 			page 17


 906 0140 FFF7FEFF 		bl	_test_assert
 907              	.LVL70:
 908 0144 0028     		cmp	r0, #0
 909 0146 B4D1     		bne	.L51
 910              	.LBB180:
 911 0148 0346     		mov	r3, r0
 912              	@ 216 "../third_party/ChibiOS/test/testqueues.c" 1
 913 014a 83F31188 		msr     BASEPRI, r3
 914              	@ 0 "" 2
 915              		.thumb
 916              	.LBE180:
 917              		.loc 1 217 0
 918 014e 40F20003 		movw	r3, #:lower16:rlist
 919 0152 C0F20003 		movt	r3, #:upper16:rlist
 920 0156 DB69     		ldr	r3, [r3, #28]
 921 0158 0021     		movs	r1, #0
 922 015a 9A68     		ldr	r2, [r3, #8]
 923 015c 40F20003 		movw	r3, #:lower16:thread2
 924 0160 0091     		str	r1, [sp]
 925 0162 2068     		ldr	r0, [r4]
 926 0164 0132     		adds	r2, r2, #1
 927 0166 C0F20003 		movt	r3, #:upper16:thread2
 928 016a 4FF49871 		mov	r1, #304
 929 016e FFF7FEFF 		bl	chThdCreateStatic
 930              	.LVL71:
 931 0172 40F20003 		movw	r3, #:lower16:threads
 932 0176 C0F20003 		movt	r3, #:upper16:threads
 933 017a 1860     		str	r0, [r3]
 934              	.LBB181:
 935              		.loc 1 218 0
 936 017c 2023     		movs	r3, #32
 937              	@ 218 "../third_party/ChibiOS/test/testqueues.c" 1
 938 017e 83F31188 		msr     BASEPRI, r3
 939              	@ 0 "" 2
 940              		.thumb
 941              	.LBE181:
 942 0182 2969     		ldr	r1, [r5, #16]
 943 0184 EA68     		ldr	r2, [r5, #12]
 944 0186 AB68     		ldr	r3, [r5, #8]
 945 0188 8A1A     		subs	r2, r1, r2
 946 018a D11A     		subs	r1, r2, r3
 947 018c 081F     		subs	r0, r1, #4
 948 018e 4142     		rsbs	r1, r0, #0
 949 0190 4141     		adcs	r1, r1, r0
 950 0192 0820     		movs	r0, #8
 951 0194 FFF7FEFF 		bl	_test_assert
 952              	.LVL72:
 953 0198 0346     		mov	r3, r0
 954 019a 0028     		cmp	r0, #0
 955 019c 89D1     		bne	.L51
 956              	.LBB182:
 957              	@ 218 "../third_party/ChibiOS/test/testqueues.c" 1
 958 019e 83F31188 		msr     BASEPRI, r3
 959              	@ 0 "" 2
 960              		.thumb
 961              	.LBE182:
 962              		.loc 1 219 0
ARM GAS  /tmp/ccqpt6IQ.s 			page 18


 963 01a2 FFF7FEFF 		bl	test_wait_threads
 964              	.LVL73:
 965              	.LBB183:
 966              		.loc 1 222 0
 967 01a6 2023     		movs	r3, #32
 968              	@ 222 "../third_party/ChibiOS/test/testqueues.c" 1
 969 01a8 83F31188 		msr     BASEPRI, r3
 970              	@ 0 "" 2
 971              		.thumb
 972              	.LBE183:
 973              		.loc 1 223 0
 974 01ac 40F20000 		movw	r0, #:lower16:.LANCHOR1
 975 01b0 C0F20000 		movt	r0, #:upper16:.LANCHOR1
 976 01b4 FFF7FEFF 		bl	chOQResetI
 977              	.LVL74:
 978              	.LBB184:
 979              		.loc 1 224 0
 980 01b8 0023     		movs	r3, #0
 981              	@ 224 "../third_party/ChibiOS/test/testqueues.c" 1
 982 01ba 83F31188 		msr     BASEPRI, r3
 983              	@ 0 "" 2
 984              		.thumb
 985              	.LBE184:
 986              	.LBB185:
 987              		.loc 1 225 0
 988 01be 2023     		movs	r3, #32
 989              	@ 225 "../third_party/ChibiOS/test/testqueues.c" 1
 990 01c0 83F31188 		msr     BASEPRI, r3
 991              	@ 0 "" 2
 992              		.thumb
 993              	.LBE185:
 994 01c4 EA68     		ldr	r2, [r5, #12]
 995 01c6 2969     		ldr	r1, [r5, #16]
 996 01c8 AB68     		ldr	r3, [r5, #8]
 997 01ca 891A     		subs	r1, r1, r2
 998 01cc CA1A     		subs	r2, r1, r3
 999 01ce 5142     		rsbs	r1, r2, #0
 1000 01d0 5141     		adcs	r1, r1, r2
 1001 01d2 0920     		movs	r0, #9
 1002 01d4 FFF7FEFF 		bl	_test_assert
 1003              	.LVL75:
 1004 01d8 0346     		mov	r3, r0
 1005 01da 0028     		cmp	r0, #0
 1006 01dc 7FF469AF 		bne	.L51
 1007              	.LBB186:
 1008              	@ 225 "../third_party/ChibiOS/test/testqueues.c" 1
 1009 01e0 83F31188 		msr     BASEPRI, r3
 1010              	@ 0 "" 2
 1011              		.thumb
 1012              	.LBE186:
 1013              		.loc 1 228 0
 1014 01e4 6468     		ldr	r4, [r4, #4]
 1015 01e6 40F20000 		movw	r0, #:lower16:.LANCHOR1
 1016 01ea 2146     		mov	r1, r4
 1017 01ec 0222     		movs	r2, #2
 1018 01ee 0023     		movs	r3, #0
 1019 01f0 C0F20000 		movt	r0, #:upper16:.LANCHOR1
ARM GAS  /tmp/ccqpt6IQ.s 			page 19


 1020 01f4 FFF7FEFF 		bl	chOQWriteTimeout
 1021              	.LVL76:
 1022              		.loc 1 229 0
 1023 01f8 831E     		subs	r3, r0, #2
 1024 01fa 5942     		rsbs	r1, r3, #0
 1025 01fc 5941     		adcs	r1, r1, r3
 1026 01fe 0A20     		movs	r0, #10
 1027              	.LVL77:
 1028 0200 FFF7FEFF 		bl	_test_assert
 1029              	.LVL78:
 1030 0204 0346     		mov	r3, r0
 1031 0206 0028     		cmp	r0, #0
 1032 0208 7FF456AF 		bne	.L31
 1033              		.loc 1 230 0
 1034 020c 40F20000 		movw	r0, #:lower16:.LANCHOR1
 1035 0210 2146     		mov	r1, r4
 1036 0212 C0F20000 		movt	r0, #:upper16:.LANCHOR1
 1037 0216 0222     		movs	r2, #2
 1038 0218 FFF7FEFF 		bl	chOQWriteTimeout
 1039              	.LVL79:
 1040              		.loc 1 231 0
 1041 021c B0F1020C 		subs	ip, r0, #2
 1042 0220 DCF10001 		rsbs	r1, ip, #0
 1043 0224 51EB0C01 		adcs	r1, r1, ip
 1044 0228 0B20     		movs	r0, #11
 1045              	.LVL80:
 1046 022a FFF7FEFF 		bl	_test_assert
 1047              	.LVL81:
 1048 022e 0028     		cmp	r0, #0
 1049 0230 7FF442AF 		bne	.L31
 1050              	.LBB187:
 1051              		.loc 1 232 0
 1052 0234 2023     		movs	r3, #32
 1053              	@ 232 "../third_party/ChibiOS/test/testqueues.c" 1
 1054 0236 83F31188 		msr     BASEPRI, r3
 1055              	@ 0 "" 2
 1056              		.thumb
 1057              	.LBE187:
 1058 023a A968     		ldr	r1, [r5, #8]
 1059 023c 0C20     		movs	r0, #12
 1060 023e D1F10101 		rsbs	r1, r1, #1
 1061 0242 38BF     		it	cc
 1062 0244 0021     		movcc	r1, #0
 1063 0246 FFF7FEFF 		bl	_test_assert
 1064              	.LVL82:
 1065              	.LBB188:
 1066 024a 0023     		movs	r3, #0
 1067              	.LBE188:
 1068 024c 60B1     		cbz	r0, .L48
 1069              	.LBB189:
 1070              	@ 232 "../third_party/ChibiOS/test/testqueues.c" 1
 1071 024e 83F31188 		msr     BASEPRI, r3
 1072              	@ 0 "" 2
 1073              		.thumb
 1074 0252 31E7     		b	.L31
 1075              	.L52:
 1076              	.LBE189:
ARM GAS  /tmp/ccqpt6IQ.s 			page 20


 1077              	.LBE191:
 1078              	.LBE194:
 1079              		.loc 1 193 0 discriminator 1
 1080 0254 A968     		ldr	r1, [r5, #8]
 1081 0256 0031     		adds	r1, r1, #0
 1082 0258 18BF     		it	ne
 1083 025a 0121     		movne	r1, #1
 1084 025c E0E6     		b	.L32
 1085              	.LVL83:
 1086              	.L53:
 1087              	.LBB195:
 1088              	.LBB192:
 1089              		.loc 1 209 0
 1090 025e 9968     		ldr	r1, [r3, #8]
 1091 0260 0031     		adds	r1, r1, #0
 1092 0262 18BF     		it	ne
 1093 0264 0121     		movne	r1, #1
 1094 0266 20E7     		b	.L40
 1095              	.LVL84:
 1096              	.L48:
 1097              	.LBB190:
 1098              		.loc 1 232 0
 1099              	@ 232 "../third_party/ChibiOS/test/testqueues.c" 1
 1100 0268 83F31188 		msr     BASEPRI, r3
 1101              	@ 0 "" 2
 1102              		.thumb
 1103              	.LBE190:
 1104              		.loc 1 235 0
 1105 026c 40F20000 		movw	r0, #:lower16:.LANCHOR1
 1106 0270 0021     		movs	r1, #0
 1107 0272 0A22     		movs	r2, #10
 1108 0274 C0F20000 		movt	r0, #:upper16:.LANCHOR1
 1109 0278 FFF7FEFF 		bl	chOQPutTimeout
 1110              	.LVL85:
 1111 027c B0F1FF3E 		subs	lr, r0, #-1
 1112 0280 DEF10001 		rsbs	r1, lr, #0
 1113 0284 51EB0E01 		adcs	r1, r1, lr
 1114 0288 0D20     		movs	r0, #13
 1115              	.LBE192:
 1116              	.LBE195:
 1117              		.loc 1 236 0
 1118 028a 03B0     		add	sp, sp, #12
 1119              		@ sp needed
 1120 028c BDE83040 		pop	{r4, r5, lr}
 1121              	.LBB196:
 1122              	.LBB193:
 1123              		.loc 1 235 0
 1124 0290 FFF7FEBF 		b	_test_assert
 1125              	.LVL86:
 1126              	.LBE193:
 1127              	.LBE196:
 1128              		.cfi_endproc
 1129              	.LFE13:
 1130              		.size	queues2_execute, .-queues2_execute
 1131              		.global	patternqueues
 1132              		.global	testqueues2
 1133              		.global	testqueues1
ARM GAS  /tmp/ccqpt6IQ.s 			page 21


 1134 0294 AFF30080 		.section	.rodata.testqueues1,"a",%progbits
 1134      AFF30080 
 1134      AFF30080 
 1135              		.align	2
 1136              		.type	testqueues1, %object
 1137              		.size	testqueues1, 16
 1138              	testqueues1:
 1139 0000 20000000 		.word	.LC2
 1140 0004 00000000 		.word	queues1_setup
 1141 0008 00000000 		.word	0
 1142 000c 00000000 		.word	queues1_execute
 1143              		.section	.rodata.testqueues2,"a",%progbits
 1144              		.align	2
 1145              		.type	testqueues2, %object
 1146              		.size	testqueues2, 16
 1147              	testqueues2:
 1148 0000 08000000 		.word	.LC1
 1149 0004 00000000 		.word	queues2_setup
 1150 0008 00000000 		.word	0
 1151 000c 00000000 		.word	queues2_execute
 1152              		.section	.rodata.str1.4,"aMS",%progbits,1
 1153              		.align	2
 1154              	.LC0:
 1155 0000 41424344 		.ascii	"ABCD\000"
 1155      00
 1156 0005 000000   		.space	3
 1157              	.LC1:
 1158 0008 51756575 		.ascii	"Queues, output queues\000"
 1158      65732C20 
 1158      6F757470 
 1158      75742071 
 1158      75657565 
 1159 001e 0000     		.space	2
 1160              	.LC2:
 1161 0020 51756575 		.ascii	"Queues, input queues\000"
 1161      65732C20 
 1161      696E7075 
 1161      74207175 
 1161      65756573 
 1162 0035 000000   		.section	.rodata.patternqueues,"a",%progbits
 1163              		.align	2
 1164              		.type	patternqueues, %object
 1165              		.size	patternqueues, 12
 1166              	patternqueues:
 1167 0000 00000000 		.word	testqueues1
 1168 0004 00000000 		.word	testqueues2
 1169 0008 00000000 		.word	0
 1170              		.section	.data.oq,"aw",%progbits
 1171              		.align	2
 1172              		.set	.LANCHOR1,. + 0
 1173              		.type	oq, %object
 1174              		.size	oq, 32
 1175              	oq:
 1176 0000 00000000 		.word	oq
 1177 0004 00000000 		.word	oq
 1178 0008 04000000 		.word	4
 1179 000c 30010000 		.word	test+304
ARM GAS  /tmp/ccqpt6IQ.s 			page 22


 1180 0010 34010000 		.word	test+308
 1181 0014 30010000 		.word	test+304
 1182 0018 30010000 		.word	test+304
 1183 001c 00000000 		.word	notify
 1184              		.section	.data.iq,"aw",%progbits
 1185              		.align	2
 1186              		.set	.LANCHOR0,. + 0
 1187              		.type	iq, %object
 1188              		.size	iq, 32
 1189              	iq:
 1190 0000 00000000 		.word	iq
 1191 0004 00000000 		.word	iq
 1192 0008 00000000 		.word	0
 1193 000c 00000000 		.word	test
 1194 0010 04000000 		.word	test+4
 1195 0014 00000000 		.word	test
 1196 0018 00000000 		.word	test
 1197 001c 00000000 		.word	notify
 1198              		.text
 1199              	.Letext0:
 1200              		.file 2 "/home/santi/arm-2013.11/lib/gcc/arm-none-eabi/4.8.1/include/stddef.h"
 1201              		.file 3 "/home/santi/arm-2013.11/arm-none-eabi/include/stdint.h"
 1202              		.file 4 "../third_party/ChibiOS/os/ports/GCC/ARMCMx/chtypes.h"
 1203              		.file 5 "../third_party/ChibiOS/os/kernel/include/chlists.h"
 1204              		.file 6 "../third_party/ChibiOS/os/kernel/include/chthreads.h"
 1205              		.file 7 "../third_party/ChibiOS/os/ports/GCC/ARMCMx/chcore_v7m.h"
 1206              		.file 8 "../third_party/ChibiOS/os/kernel/include/chschd.h"
 1207              		.file 9 "../third_party/ChibiOS/os/kernel/include/chmtx.h"
 1208              		.file 10 "../third_party/ChibiOS/os/kernel/include/chqueues.h"
 1209              		.file 11 "../third_party/ChibiOS/test/test.h"