ARM GAS  /tmp/cc2qSXYA.s 			page 1


   1              		.syntax unified
   2              		.cpu cortex-m3
   3              		.fpu softvfp
   4              		.eabi_attribute 20, 1
   5              		.eabi_attribute 21, 1
   6              		.eabi_attribute 23, 3
   7              		.eabi_attribute 24, 1
   8              		.eabi_attribute 25, 1
   9              		.eabi_attribute 26, 1
  10              		.eabi_attribute 30, 2
  11              		.eabi_attribute 34, 1
  12              		.eabi_attribute 18, 4
  13              		.thumb
  14              		.file	"testevt.c"
  15              		.text
  16              	.Ltext0:
  17              		.cfi_sections	.debug_frame
  18              		.section	.text.evt1_execute,"ax",%progbits
  19              		.align	2
  20              		.p2align 4,,15
  21              		.thumb
  22              		.thumb_func
  23              		.type	evt1_execute, %function
  24              	evt1_execute:
  25              	.LFB11:
  26              		.file 1 "../third_party/ChibiOS/test/testevt.c"
  27              		.loc 1 96 0
  28              		.cfi_startproc
  29              		@ args = 0, pretend = 0, frame = 24
  30              		@ frame_needed = 0, uses_anonymous_args = 0
  31 0000 10B5     		push	{r4, lr}
  32              		.cfi_def_cfa_offset 8
  33              		.cfi_offset 4, -8
  34              		.cfi_offset 14, -4
  35              		.loc 1 102 0
  36 0002 40F20004 		movw	r4, #:lower16:.LANCHOR0
  37              		.loc 1 96 0
  38 0006 86B0     		sub	sp, sp, #24
  39              		.cfi_def_cfa_offset 32
  40              		.loc 1 102 0
  41 0008 C0F20004 		movt	r4, #:upper16:.LANCHOR0
  42              		.loc 1 103 0
  43 000c 2046     		mov	r0, r4
  44 000e 6946     		mov	r1, sp
  45 0010 0122     		movs	r2, #1
  46              		.loc 1 102 0
  47 0012 2460     		str	r4, [r4]
  48              		.loc 1 103 0
  49 0014 FFF7FEFF 		bl	chEvtRegisterMask
  50              	.LVL0:
  51              		.loc 1 104 0
  52 0018 2046     		mov	r0, r4
  53 001a 03A9     		add	r1, sp, #12
  54 001c 0222     		movs	r2, #2
  55 001e FFF7FEFF 		bl	chEvtRegisterMask
  56              	.LVL1:
  57              		.loc 1 105 0
ARM GAS  /tmp/cc2qSXYA.s 			page 2


  58 0022 2168     		ldr	r1, [r4]
  59 0024 0120     		movs	r0, #1
  60 0026 091B     		subs	r1, r1, r4
  61 0028 18BF     		it	ne
  62 002a 0121     		movne	r1, #1
  63 002c FFF7FEFF 		bl	_test_assert
  64              	.LVL2:
  65 0030 08B1     		cbz	r0, .L5
  66              	.L1:
  67              		.loc 1 116 0
  68 0032 06B0     		add	sp, sp, #24
  69              		@ sp needed
  70 0034 10BD     		pop	{r4, pc}
  71              	.L5:
  72              		.loc 1 106 0
  73 0036 6946     		mov	r1, sp
  74 0038 2046     		mov	r0, r4
  75 003a FFF7FEFF 		bl	chEvtUnregister
  76              	.LVL3:
  77              		.loc 1 107 0
  78 003e 2168     		ldr	r1, [r4]
  79 0040 0220     		movs	r0, #2
  80 0042 091B     		subs	r1, r1, r4
  81 0044 18BF     		it	ne
  82 0046 0121     		movne	r1, #1
  83 0048 FFF7FEFF 		bl	_test_assert
  84              	.LVL4:
  85 004c 0028     		cmp	r0, #0
  86 004e F0D1     		bne	.L1
  87              		.loc 1 108 0
  88 0050 03A9     		add	r1, sp, #12
  89 0052 2046     		mov	r0, r4
  90 0054 FFF7FEFF 		bl	chEvtUnregister
  91              	.LVL5:
  92              		.loc 1 109 0
  93 0058 2168     		ldr	r1, [r4]
  94 005a 0320     		movs	r0, #3
  95 005c 0B1B     		subs	r3, r1, r4
  96 005e 5942     		rsbs	r1, r3, #0
  97 0060 5941     		adcs	r1, r1, r3
  98 0062 FFF7FEFF 		bl	_test_assert
  99              	.LVL6:
 100 0066 0028     		cmp	r0, #0
 101 0068 E3D1     		bne	.L1
 102              		.loc 1 114 0
 103 006a 40F20000 		movw	r0, #:lower16:.LANCHOR1
 104 006e C0F20000 		movt	r0, #:upper16:.LANCHOR1
 105 0072 0721     		movs	r1, #7
 106 0074 FFF7FEFF 		bl	chEvtDispatch
 107              	.LVL7:
 108              		.loc 1 115 0
 109 0078 40F20001 		movw	r1, #:lower16:.LC0
 110 007c C0F20001 		movt	r1, #:upper16:.LC0
 111 0080 0420     		movs	r0, #4
 112 0082 FFF7FEFF 		bl	_test_assert_sequence
 113              	.LVL8:
 114 0086 D4E7     		b	.L1
ARM GAS  /tmp/cc2qSXYA.s 			page 3


 115              		.cfi_endproc
 116              	.LFE11:
 117              		.size	evt1_execute, .-evt1_execute
 118 0088 AFF30080 		.section	.text.h3,"ax",%progbits
 118      AFF30080 
 119              		.align	2
 120              		.p2align 4,,15
 121              		.thumb
 122              		.thumb_func
 123              		.type	h3, %function
 124              	h3:
 125              	.LFB10:
 126              		.loc 1 93 0
 127              		.cfi_startproc
 128              		@ args = 0, pretend = 0, frame = 0
 129              		@ frame_needed = 0, uses_anonymous_args = 0
 130              		@ link register save eliminated.
 131              	.LVL9:
 132              		.loc 1 93 0
 133 0000 4320     		movs	r0, #67
 134              	.LVL10:
 135 0002 FFF7FEBF 		b	test_emit_token
 136              	.LVL11:
 137              		.cfi_endproc
 138              	.LFE10:
 139              		.size	h3, .-h3
 140 0006 00BFAFF3 		.section	.text.h2,"ax",%progbits
 140      0080AFF3 
 140      0080
 141              		.align	2
 142              		.p2align 4,,15
 143              		.thumb
 144              		.thumb_func
 145              		.type	h2, %function
 146              	h2:
 147              	.LFB9:
 148              		.loc 1 92 0
 149              		.cfi_startproc
 150              		@ args = 0, pretend = 0, frame = 0
 151              		@ frame_needed = 0, uses_anonymous_args = 0
 152              		@ link register save eliminated.
 153              	.LVL12:
 154              		.loc 1 92 0
 155 0000 4220     		movs	r0, #66
 156              	.LVL13:
 157 0002 FFF7FEBF 		b	test_emit_token
 158              	.LVL14:
 159              		.cfi_endproc
 160              	.LFE9:
 161              		.size	h2, .-h2
 162 0006 00BFAFF3 		.section	.text.h1,"ax",%progbits
 162      0080AFF3 
 162      0080
 163              		.align	2
 164              		.p2align 4,,15
 165              		.thumb
 166              		.thumb_func
ARM GAS  /tmp/cc2qSXYA.s 			page 4


 167              		.type	h1, %function
 168              	h1:
 169              	.LFB8:
 170              		.loc 1 91 0
 171              		.cfi_startproc
 172              		@ args = 0, pretend = 0, frame = 0
 173              		@ frame_needed = 0, uses_anonymous_args = 0
 174              		@ link register save eliminated.
 175              	.LVL15:
 176              		.loc 1 91 0
 177 0000 4120     		movs	r0, #65
 178              	.LVL16:
 179 0002 FFF7FEBF 		b	test_emit_token
 180              	.LVL17:
 181              		.cfi_endproc
 182              	.LFE8:
 183              		.size	h1, .-h1
 184 0006 00BFAFF3 		.section	.text.evt1_setup,"ax",%progbits
 184      0080AFF3 
 184      0080
 185              		.align	2
 186              		.p2align 4,,15
 187              		.thumb
 188              		.thumb_func
 189              		.type	evt1_setup, %function
 190              	evt1_setup:
 191              	.LFB7:
 192              		.loc 1 86 0
 193              		.cfi_startproc
 194              		@ args = 0, pretend = 0, frame = 0
 195              		@ frame_needed = 0, uses_anonymous_args = 0
 196              		@ link register save eliminated.
 197              		.loc 1 88 0
 198 0000 4FF0FF30 		mov	r0, #-1
 199 0004 FFF7FEBF 		b	chEvtClearFlags
 200              	.LVL18:
 201              		.cfi_endproc
 202              	.LFE7:
 203              		.size	evt1_setup, .-evt1_setup
 204 0008 AFF30080 		.section	.text.evt2_setup,"ax",%progbits
 204      AFF30080 
 205              		.align	2
 206              		.p2align 4,,15
 207              		.thumb
 208              		.thumb_func
 209              		.type	evt2_setup, %function
 210              	evt2_setup:
 211              	.LFB12:
 212              		.loc 1 139 0
 213              		.cfi_startproc
 214              		@ args = 0, pretend = 0, frame = 0
 215              		@ frame_needed = 0, uses_anonymous_args = 0
 216              		@ link register save eliminated.
 217              		.loc 1 141 0
 218 0000 4FF0FF30 		mov	r0, #-1
 219 0004 FFF7FEBF 		b	chEvtClearFlags
 220              	.LVL19:
ARM GAS  /tmp/cc2qSXYA.s 			page 5


 221              		.cfi_endproc
 222              	.LFE12:
 223              		.size	evt2_setup, .-evt2_setup
 224 0008 AFF30080 		.section	.text.evt3_setup,"ax",%progbits
 224      AFF30080 
 225              		.align	2
 226              		.p2align 4,,15
 227              		.thumb
 228              		.thumb_func
 229              		.type	evt3_setup, %function
 230              	evt3_setup:
 231              	.LFB16:
 232              		.loc 1 258 0
 233              		.cfi_startproc
 234              		@ args = 0, pretend = 0, frame = 0
 235              		@ frame_needed = 0, uses_anonymous_args = 0
 236              		@ link register save eliminated.
 237              		.loc 1 260 0
 238 0000 4FF0FF30 		mov	r0, #-1
 239 0004 FFF7FEBF 		b	chEvtClearFlags
 240              	.LVL20:
 241              		.cfi_endproc
 242              	.LFE16:
 243              		.size	evt3_setup, .-evt3_setup
 244 0008 AFF30080 		.section	.text.evt2_execute,"ax",%progbits
 244      AFF30080 
 245              		.align	2
 246              		.p2align 4,,15
 247              		.thumb
 248              		.thumb_func
 249              		.type	evt2_execute, %function
 250              	evt2_execute:
 251              	.LFB15:
 252              		.loc 1 160 0
 253              		.cfi_startproc
 254              		@ args = 0, pretend = 0, frame = 32
 255              		@ frame_needed = 0, uses_anonymous_args = 0
 256 0000 2DE9F043 		push	{r4, r5, r6, r7, r8, r9, lr}
 257              		.cfi_def_cfa_offset 28
 258              		.cfi_offset 4, -28
 259              		.cfi_offset 5, -24
 260              		.cfi_offset 6, -20
 261              		.cfi_offset 7, -16
 262              		.cfi_offset 8, -12
 263              		.cfi_offset 9, -8
 264              		.cfi_offset 14, -4
 265              		.loc 1 168 0
 266 0004 0520     		movs	r0, #5
 267              		.loc 1 160 0
 268 0006 8BB0     		sub	sp, sp, #44
 269              		.cfi_def_cfa_offset 72
 270              		.loc 1 168 0
 271 0008 FFF7FEFF 		bl	chEvtAddFlags
 272              	.LVL21:
 273              		.loc 1 169 0
 274 000c 4FF0FF30 		mov	r0, #-1
 275 0010 FFF7FEFF 		bl	chEvtWaitOne
ARM GAS  /tmp/cc2qSXYA.s 			page 6


 276              	.LVL22:
 277              		.loc 1 170 0
 278 0014 B0F10109 		subs	r9, r0, #1
 279 0018 D9F10001 		rsbs	r1, r9, #0
 280 001c 51EB0901 		adcs	r1, r1, r9
 281 0020 0120     		movs	r0, #1
 282              	.LVL23:
 283 0022 FFF7FEFF 		bl	_test_assert
 284              	.LVL24:
 285 0026 10B1     		cbz	r0, .L15
 286              	.LVL25:
 287              	.L12:
 288              		.loc 1 233 0
 289 0028 0BB0     		add	sp, sp, #44
 290              		@ sp needed
 291 002a BDE8F083 		pop	{r4, r5, r6, r7, r8, r9, pc}
 292              	.LVL26:
 293              	.L15:
 294              		.loc 1 171 0
 295 002e 4FF0FF30 		mov	r0, #-1
 296 0032 FFF7FEFF 		bl	chEvtWaitOne
 297              	.LVL27:
 298              		.loc 1 172 0
 299 0036 B0F10408 		subs	r8, r0, #4
 300 003a D8F10001 		rsbs	r1, r8, #0
 301 003e 51EB0801 		adcs	r1, r1, r8
 302 0042 0220     		movs	r0, #2
 303              	.LVL28:
 304 0044 FFF7FEFF 		bl	_test_assert
 305              	.LVL29:
 306 0048 0028     		cmp	r0, #0
 307 004a EDD1     		bne	.L12
 308              		.loc 1 173 0
 309 004c 4FF0FF30 		mov	r0, #-1
 310 0050 FFF7FEFF 		bl	chEvtClearFlags
 311              	.LVL30:
 312              		.loc 1 174 0
 313 0054 D0F10101 		rsbs	r1, r0, #1
 314 0058 38BF     		it	cc
 315 005a 0021     		movcc	r1, #0
 316 005c 0320     		movs	r0, #3
 317              	.LVL31:
 318 005e FFF7FEFF 		bl	_test_assert
 319              	.LVL32:
 320 0062 0028     		cmp	r0, #0
 321 0064 E0D1     		bne	.L12
 322              		.loc 1 181 0
 323 0066 40F20004 		movw	r4, #:lower16:rlist
 324              		.loc 1 179 0
 325 006a FFF7FEFF 		bl	test_wait_tick
 326              	.LVL33:
 327              		.loc 1 181 0
 328 006e C0F20004 		movt	r4, #:upper16:rlist
 329 0072 40F20003 		movw	r3, #:lower16:wa
 330 0076 E169     		ldr	r1, [r4, #28]
 331 0078 C0F20003 		movt	r3, #:upper16:wa
 332 007c 1B68     		ldr	r3, [r3]
ARM GAS  /tmp/cc2qSXYA.s 			page 7


 333 007e 8A68     		ldr	r2, [r1, #8]
 334 0080 0393     		str	r3, [sp, #12]
 335              		.loc 1 180 0
 336 0082 40F20006 		movw	r6, #:lower16:vtlist
 337              		.loc 1 181 0
 338 0086 40F20003 		movw	r3, #:lower16:thread1
 339 008a 013A     		subs	r2, r2, #1
 340 008c 0091     		str	r1, [sp]
 341 008e C0F20003 		movt	r3, #:upper16:thread1
 342 0092 4FF49871 		mov	r1, #304
 343 0096 0398     		ldr	r0, [sp, #12]
 344              		.loc 1 180 0
 345 0098 C0F20006 		movt	r6, #:upper16:vtlist
 346 009c F768     		ldr	r7, [r6, #12]
 347              	.LVL34:
 348              		.loc 1 181 0
 349 009e FFF7FEFF 		bl	chThdCreateStatic
 350              	.LVL35:
 351 00a2 40F20005 		movw	r5, #:lower16:threads
 352 00a6 C0F20005 		movt	r5, #:upper16:threads
 353 00aa 2860     		str	r0, [r5]
 354              		.loc 1 183 0
 355 00ac 4FF0FF30 		mov	r0, #-1
 356 00b0 FFF7FEFF 		bl	chEvtWaitOne
 357              	.LVL36:
 358              		.loc 1 184 0
 359 00b4 07F13201 		add	r1, r7, #50
 360              	.LVL37:
 361              		.loc 1 183 0
 362 00b8 8146     		mov	r9, r0
 363              	.LVL38:
 364              		.loc 1 184 0
 365 00ba 07F13702 		add	r2, r7, #55
 366 00be 0420     		movs	r0, #4
 367              	.LVL39:
 368 00c0 FFF7FEFF 		bl	_test_assert_time_window
 369              	.LVL40:
 370 00c4 0028     		cmp	r0, #0
 371 00c6 AFD1     		bne	.L12
 372              		.loc 1 185 0
 373 00c8 B9F1010C 		subs	ip, r9, #1
 374 00cc DCF10001 		rsbs	r1, ip, #0
 375 00d0 51EB0C01 		adcs	r1, r1, ip
 376 00d4 0520     		movs	r0, #5
 377 00d6 FFF7FEFF 		bl	_test_assert
 378              	.LVL41:
 379 00da 0028     		cmp	r0, #0
 380 00dc A4D1     		bne	.L12
 381              		.loc 1 186 0
 382 00de 4FF0FF30 		mov	r0, #-1
 383 00e2 FFF7FEFF 		bl	chEvtClearFlags
 384              	.LVL42:
 385              		.loc 1 187 0
 386 00e6 D0F10101 		rsbs	r1, r0, #1
 387 00ea 38BF     		it	cc
 388 00ec 0021     		movcc	r1, #0
 389 00ee 0620     		movs	r0, #6
ARM GAS  /tmp/cc2qSXYA.s 			page 8


 390              	.LVL43:
 391 00f0 FFF7FEFF 		bl	_test_assert
 392              	.LVL44:
 393 00f4 0028     		cmp	r0, #0
 394 00f6 97D1     		bne	.L12
 395              		.loc 1 188 0
 396 00f8 FFF7FEFF 		bl	test_wait_threads
 397              	.LVL45:
 398              		.loc 1 193 0
 399 00fc 0520     		movs	r0, #5
 400 00fe FFF7FEFF 		bl	chEvtAddFlags
 401              	.LVL46:
 402              		.loc 1 194 0
 403 0102 4FF0FF30 		mov	r0, #-1
 404 0106 FFF7FEFF 		bl	chEvtWaitAny
 405              	.LVL47:
 406              		.loc 1 195 0
 407 010a B0F1050E 		subs	lr, r0, #5
 408 010e DEF10001 		rsbs	r1, lr, #0
 409 0112 51EB0E01 		adcs	r1, r1, lr
 410 0116 0720     		movs	r0, #7
 411              	.LVL48:
 412 0118 FFF7FEFF 		bl	_test_assert
 413              	.LVL49:
 414 011c 0028     		cmp	r0, #0
 415 011e 83D1     		bne	.L12
 416              		.loc 1 196 0
 417 0120 4FF0FF30 		mov	r0, #-1
 418 0124 FFF7FEFF 		bl	chEvtClearFlags
 419              	.LVL50:
 420              		.loc 1 197 0
 421 0128 D0F10101 		rsbs	r1, r0, #1
 422 012c 38BF     		it	cc
 423 012e 0021     		movcc	r1, #0
 424 0130 0820     		movs	r0, #8
 425              	.LVL51:
 426 0132 FFF7FEFF 		bl	_test_assert
 427              	.LVL52:
 428 0136 0028     		cmp	r0, #0
 429 0138 7FF476AF 		bne	.L12
 430              		.loc 1 202 0
 431 013c FFF7FEFF 		bl	test_wait_tick
 432              	.LVL53:
 433              		.loc 1 204 0
 434 0140 E169     		ldr	r1, [r4, #28]
 435 0142 40F20003 		movw	r3, #:lower16:thread1
 436 0146 8A68     		ldr	r2, [r1, #8]
 437 0148 C0F20003 		movt	r3, #:upper16:thread1
 438 014c 013A     		subs	r2, r2, #1
 439 014e 0091     		str	r1, [sp]
 440 0150 0398     		ldr	r0, [sp, #12]
 441 0152 4FF49871 		mov	r1, #304
 442              		.loc 1 203 0
 443 0156 D6F80C80 		ldr	r8, [r6, #12]
 444              	.LVL54:
 445              		.loc 1 204 0
 446 015a FFF7FEFF 		bl	chThdCreateStatic
ARM GAS  /tmp/cc2qSXYA.s 			page 9


 447              	.LVL55:
 448 015e 2860     		str	r0, [r5]
 449              		.loc 1 206 0
 450 0160 4FF0FF30 		mov	r0, #-1
 451 0164 FFF7FEFF 		bl	chEvtWaitAny
 452              	.LVL56:
 453              		.loc 1 207 0
 454 0168 08F13201 		add	r1, r8, #50
 455              	.LVL57:
 456              		.loc 1 206 0
 457 016c 8146     		mov	r9, r0
 458              	.LVL58:
 459              		.loc 1 207 0
 460 016e 08F13702 		add	r2, r8, #55
 461 0172 0920     		movs	r0, #9
 462              	.LVL59:
 463 0174 FFF7FEFF 		bl	_test_assert_time_window
 464              	.LVL60:
 465 0178 0028     		cmp	r0, #0
 466 017a 7FF455AF 		bne	.L12
 467              		.loc 1 208 0
 468 017e B9F10107 		subs	r7, r9, #1
 469 0182 7942     		rsbs	r1, r7, #0
 470 0184 7941     		adcs	r1, r1, r7
 471 0186 0A20     		movs	r0, #10
 472 0188 FFF7FEFF 		bl	_test_assert
 473              	.LVL61:
 474 018c 0028     		cmp	r0, #0
 475 018e 7FF44BAF 		bne	.L12
 476              		.loc 1 209 0
 477 0192 4FF0FF30 		mov	r0, #-1
 478 0196 FFF7FEFF 		bl	chEvtClearFlags
 479              	.LVL62:
 480              		.loc 1 210 0
 481 019a D0F10101 		rsbs	r1, r0, #1
 482 019e 38BF     		it	cc
 483 01a0 0021     		movcc	r1, #0
 484 01a2 0B20     		movs	r0, #11
 485              	.LVL63:
 486 01a4 FFF7FEFF 		bl	_test_assert
 487              	.LVL64:
 488 01a8 0028     		cmp	r0, #0
 489 01aa 7FF43DAF 		bne	.L12
 490              		.loc 1 216 0
 491 01ae 40F20009 		movw	r9, #:lower16:.LANCHOR0
 492 01b2 C0F20009 		movt	r9, #:upper16:.LANCHOR0
 493              		.loc 1 217 0
 494 01b6 40F20008 		movw	r8, #:lower16:.LANCHOR2
 495              	.LVL65:
 496              		.loc 1 211 0
 497 01ba FFF7FEFF 		bl	test_wait_threads
 498              	.LVL66:
 499              		.loc 1 217 0
 500 01be C0F20008 		movt	r8, #:upper16:.LANCHOR2
 501              		.loc 1 218 0
 502 01c2 4846     		mov	r0, r9
 503 01c4 04A9     		add	r1, sp, #16
ARM GAS  /tmp/cc2qSXYA.s 			page 10


 504 01c6 0122     		movs	r2, #1
 505              		.loc 1 216 0
 506 01c8 C9F80090 		str	r9, [r9]
 507              		.loc 1 217 0
 508 01cc C8F80080 		str	r8, [r8]
 509              		.loc 1 218 0
 510 01d0 FFF7FEFF 		bl	chEvtRegisterMask
 511              	.LVL67:
 512              		.loc 1 219 0
 513 01d4 07A9     		add	r1, sp, #28
 514 01d6 0422     		movs	r2, #4
 515 01d8 4046     		mov	r0, r8
 516 01da FFF7FEFF 		bl	chEvtRegisterMask
 517              	.LVL68:
 518              		.loc 1 220 0
 519 01de FFF7FEFF 		bl	test_wait_tick
 520              	.LVL69:
 521              		.loc 1 222 0
 522 01e2 E369     		ldr	r3, [r4, #28]
 523 01e4 40F20001 		movw	r1, #:lower16:.LC1
 524 01e8 9A68     		ldr	r2, [r3, #8]
 525 01ea C0F20001 		movt	r1, #:upper16:.LC1
 526 01ee 40F20003 		movw	r3, #:lower16:thread2
 527 01f2 013A     		subs	r2, r2, #1
 528 01f4 0091     		str	r1, [sp]
 529 01f6 C0F20003 		movt	r3, #:upper16:thread2
 530 01fa 4FF49871 		mov	r1, #304
 531 01fe 0398     		ldr	r0, [sp, #12]
 532              		.loc 1 221 0
 533 0200 F468     		ldr	r4, [r6, #12]
 534              	.LVL70:
 535              		.loc 1 222 0
 536 0202 FFF7FEFF 		bl	chThdCreateStatic
 537              	.LVL71:
 538 0206 2860     		str	r0, [r5]
 539              		.loc 1 224 0
 540 0208 0520     		movs	r0, #5
 541 020a FFF7FEFF 		bl	chEvtWaitAll
 542              	.LVL72:
 543              		.loc 1 225 0
 544 020e 04F13201 		add	r1, r4, #50
 545              	.LVL73:
 546 0212 04F13702 		add	r2, r4, #55
 547 0216 0C20     		movs	r0, #12
 548 0218 FFF7FEFF 		bl	_test_assert_time_window
 549              	.LVL74:
 550 021c 0028     		cmp	r0, #0
 551 021e 7FF403AF 		bne	.L12
 552              		.loc 1 226 0
 553 0222 4FF0FF30 		mov	r0, #-1
 554 0226 FFF7FEFF 		bl	chEvtClearFlags
 555              	.LVL75:
 556              		.loc 1 227 0
 557 022a D0F10101 		rsbs	r1, r0, #1
 558 022e 38BF     		it	cc
 559 0230 0021     		movcc	r1, #0
 560 0232 0D20     		movs	r0, #13
ARM GAS  /tmp/cc2qSXYA.s 			page 11


 561              	.LVL76:
 562 0234 FFF7FEFF 		bl	_test_assert
 563              	.LVL77:
 564 0238 0028     		cmp	r0, #0
 565 023a 7FF4F5AE 		bne	.L12
 566              		.loc 1 228 0
 567 023e FFF7FEFF 		bl	test_wait_threads
 568              	.LVL78:
 569              		.loc 1 229 0
 570 0242 4846     		mov	r0, r9
 571 0244 04A9     		add	r1, sp, #16
 572 0246 FFF7FEFF 		bl	chEvtUnregister
 573              	.LVL79:
 574              		.loc 1 230 0
 575 024a 4046     		mov	r0, r8
 576 024c 07A9     		add	r1, sp, #28
 577 024e FFF7FEFF 		bl	chEvtUnregister
 578              	.LVL80:
 579              		.loc 1 231 0
 580 0252 D9F80010 		ldr	r1, [r9]
 581 0256 0E20     		movs	r0, #14
 582 0258 B1EB0904 		subs	r4, r1, r9
 583              	.LVL81:
 584 025c 6142     		rsbs	r1, r4, #0
 585 025e 6141     		adcs	r1, r1, r4
 586 0260 FFF7FEFF 		bl	_test_assert
 587              	.LVL82:
 588 0264 0028     		cmp	r0, #0
 589 0266 7FF4DFAE 		bne	.L12
 590              		.loc 1 232 0
 591 026a D8F80010 		ldr	r1, [r8]
 592 026e 0F20     		movs	r0, #15
 593 0270 B1EB0802 		subs	r2, r1, r8
 594 0274 5142     		rsbs	r1, r2, #0
 595 0276 5141     		adcs	r1, r1, r2
 596 0278 FFF7FEFF 		bl	_test_assert
 597              	.LVL83:
 598 027c D4E6     		b	.L12
 599              		.cfi_endproc
 600              	.LFE15:
 601              		.size	evt2_execute, .-evt2_execute
 602 027e 00BF     		.section	.text.thread2,"ax",%progbits
 603              		.align	2
 604              		.p2align 4,,15
 605              		.thumb
 606              		.thumb_func
 607              		.type	thread2, %function
 608              	thread2:
 609              	.LFB14:
 610              		.loc 1 151 0
 611              		.cfi_startproc
 612              		@ args = 0, pretend = 0, frame = 0
 613              		@ frame_needed = 0, uses_anonymous_args = 0
 614              	.LVL84:
 615 0000 08B5     		push	{r3, lr}
 616              		.cfi_def_cfa_offset 8
 617              		.cfi_offset 3, -8
ARM GAS  /tmp/cc2qSXYA.s 			page 12


 618              		.cfi_offset 14, -4
 619              		.loc 1 154 0
 620 0002 40F20000 		movw	r0, #:lower16:.LANCHOR0
 621              	.LVL85:
 622 0006 0021     		movs	r1, #0
 623 0008 C0F20000 		movt	r0, #:upper16:.LANCHOR0
 624 000c FFF7FEFF 		bl	chEvtBroadcastFlags
 625              	.LVL86:
 626              		.loc 1 155 0
 627 0010 3220     		movs	r0, #50
 628 0012 FFF7FEFF 		bl	chThdSleep
 629              	.LVL87:
 630              		.loc 1 156 0
 631 0016 40F20000 		movw	r0, #:lower16:.LANCHOR2
 632 001a C0F20000 		movt	r0, #:upper16:.LANCHOR2
 633 001e 0021     		movs	r1, #0
 634 0020 FFF7FEFF 		bl	chEvtBroadcastFlags
 635              	.LVL88:
 636              		.loc 1 158 0
 637 0024 0020     		movs	r0, #0
 638 0026 08BD     		pop	{r3, pc}
 639              		.cfi_endproc
 640              	.LFE14:
 641              		.size	thread2, .-thread2
 642 0028 AFF30080 		.section	.text.thread1,"ax",%progbits
 642      AFF30080 
 643              		.align	2
 644              		.p2align 4,,15
 645              		.thumb
 646              		.thumb_func
 647              		.type	thread1, %function
 648              	thread1:
 649              	.LFB13:
 650              		.loc 1 144 0
 651              		.cfi_startproc
 652              		@ args = 0, pretend = 0, frame = 0
 653              		@ frame_needed = 0, uses_anonymous_args = 0
 654              	.LVL89:
 655 0000 10B5     		push	{r4, lr}
 656              		.cfi_def_cfa_offset 8
 657              		.cfi_offset 4, -8
 658              		.cfi_offset 14, -4
 659              		.loc 1 144 0
 660 0002 0446     		mov	r4, r0
 661              		.loc 1 146 0
 662 0004 3220     		movs	r0, #50
 663              	.LVL90:
 664 0006 FFF7FEFF 		bl	chThdSleep
 665              	.LVL91:
 666              		.loc 1 147 0
 667 000a 2046     		mov	r0, r4
 668 000c 0121     		movs	r1, #1
 669 000e FFF7FEFF 		bl	chEvtSignalFlags
 670              	.LVL92:
 671              		.loc 1 149 0
 672 0012 0020     		movs	r0, #0
 673 0014 10BD     		pop	{r4, pc}
ARM GAS  /tmp/cc2qSXYA.s 			page 13


 674              		.cfi_endproc
 675              	.LFE13:
 676              		.size	thread1, .-thread1
 677 0016 00BFAFF3 		.section	.text.evt3_execute,"ax",%progbits
 677      0080AFF3 
 677      0080
 678              		.align	2
 679              		.p2align 4,,15
 680              		.thumb
 681              		.thumb_func
 682              		.type	evt3_execute, %function
 683              	evt3_execute:
 684              	.LFB17:
 685              		.loc 1 263 0
 686              		.cfi_startproc
 687              		@ args = 0, pretend = 0, frame = 0
 688              		@ frame_needed = 0, uses_anonymous_args = 0
 689 0000 08B5     		push	{r3, lr}
 690              		.cfi_def_cfa_offset 8
 691              		.cfi_offset 3, -8
 692              		.cfi_offset 14, -4
 693              		.loc 1 269 0
 694 0002 0021     		movs	r1, #0
 695 0004 4FF0FF30 		mov	r0, #-1
 696 0008 FFF7FEFF 		bl	chEvtWaitOneTimeout
 697              	.LVL93:
 698              		.loc 1 270 0
 699 000c D0F10101 		rsbs	r1, r0, #1
 700 0010 38BF     		it	cc
 701 0012 0021     		movcc	r1, #0
 702 0014 0120     		movs	r0, #1
 703              	.LVL94:
 704 0016 FFF7FEFF 		bl	_test_assert
 705              	.LVL95:
 706 001a 00B1     		cbz	r0, .L22
 707              	.L18:
 708 001c 08BD     		pop	{r3, pc}
 709              	.L22:
 710              		.loc 1 271 0
 711 001e 0146     		mov	r1, r0
 712 0020 4FF0FF30 		mov	r0, #-1
 713 0024 FFF7FEFF 		bl	chEvtWaitAnyTimeout
 714              	.LVL96:
 715              		.loc 1 272 0
 716 0028 D0F10101 		rsbs	r1, r0, #1
 717 002c 38BF     		it	cc
 718 002e 0021     		movcc	r1, #0
 719 0030 0220     		movs	r0, #2
 720              	.LVL97:
 721 0032 FFF7FEFF 		bl	_test_assert
 722              	.LVL98:
 723 0036 0028     		cmp	r0, #0
 724 0038 F0D1     		bne	.L18
 725              		.loc 1 273 0
 726 003a 0146     		mov	r1, r0
 727 003c 4FF0FF30 		mov	r0, #-1
 728 0040 FFF7FEFF 		bl	chEvtWaitAllTimeout
ARM GAS  /tmp/cc2qSXYA.s 			page 14


 729              	.LVL99:
 730              		.loc 1 274 0
 731 0044 D0F10101 		rsbs	r1, r0, #1
 732 0048 38BF     		it	cc
 733 004a 0021     		movcc	r1, #0
 734 004c 0320     		movs	r0, #3
 735              	.LVL100:
 736 004e FFF7FEFF 		bl	_test_assert
 737              	.LVL101:
 738 0052 0028     		cmp	r0, #0
 739 0054 E2D1     		bne	.L18
 740              	.LBB4:
 741              	.LBB5:
 742              		.loc 1 275 0
 743 0056 0A21     		movs	r1, #10
 744 0058 4FF0FF30 		mov	r0, #-1
 745 005c FFF7FEFF 		bl	chEvtWaitOneTimeout
 746              	.LVL102:
 747              		.loc 1 276 0
 748 0060 D0F10101 		rsbs	r1, r0, #1
 749 0064 38BF     		it	cc
 750 0066 0021     		movcc	r1, #0
 751 0068 0420     		movs	r0, #4
 752              	.LVL103:
 753 006a FFF7FEFF 		bl	_test_assert
 754              	.LVL104:
 755 006e 0028     		cmp	r0, #0
 756 0070 D4D1     		bne	.L18
 757              		.loc 1 277 0
 758 0072 0A21     		movs	r1, #10
 759 0074 4FF0FF30 		mov	r0, #-1
 760 0078 FFF7FEFF 		bl	chEvtWaitAnyTimeout
 761              	.LVL105:
 762              		.loc 1 278 0
 763 007c D0F10101 		rsbs	r1, r0, #1
 764 0080 38BF     		it	cc
 765 0082 0021     		movcc	r1, #0
 766 0084 0520     		movs	r0, #5
 767              	.LVL106:
 768 0086 FFF7FEFF 		bl	_test_assert
 769              	.LVL107:
 770 008a 0028     		cmp	r0, #0
 771 008c C6D1     		bne	.L18
 772              		.loc 1 279 0
 773 008e 0A21     		movs	r1, #10
 774 0090 4FF0FF30 		mov	r0, #-1
 775 0094 FFF7FEFF 		bl	chEvtWaitAllTimeout
 776              	.LVL108:
 777              	.LBE5:
 778              	.LBE4:
 779              		.loc 1 281 0
 780 0098 BDE80840 		pop	{r3, lr}
 781              	.LBB7:
 782              	.LBB6:
 783              		.loc 1 280 0
 784 009c D0F10101 		rsbs	r1, r0, #1
 785 00a0 38BF     		it	cc
ARM GAS  /tmp/cc2qSXYA.s 			page 15


 786 00a2 0021     		movcc	r1, #0
 787 00a4 0620     		movs	r0, #6
 788              	.LVL109:
 789 00a6 FFF7FEBF 		b	_test_assert
 790              	.LVL110:
 791              	.LBE6:
 792              	.LBE7:
 793              		.cfi_endproc
 794              	.LFE17:
 795              		.size	evt3_execute, .-evt3_execute
 796              		.global	patternevt
 797              		.global	testevt3
 798              		.global	testevt2
 799              		.global	testevt1
 800 00aa 00BFAFF3 		.section	.rodata.patternevt,"a",%progbits
 800      0080
 801              		.align	2
 802              		.type	patternevt, %object
 803              		.size	patternevt, 16
 804              	patternevt:
 805 0000 00000000 		.word	testevt1
 806 0004 00000000 		.word	testevt2
 807 0008 00000000 		.word	testevt3
 808 000c 00000000 		.word	0
 809              		.section	.rodata.testevt2,"a",%progbits
 810              		.align	2
 811              		.type	testevt2, %object
 812              		.size	testevt2, 16
 813              	testevt2:
 814 0000 1C000000 		.word	.LC3
 815 0004 00000000 		.word	evt2_setup
 816 0008 00000000 		.word	0
 817 000c 00000000 		.word	evt2_execute
 818              		.section	.rodata.str1.4,"aMS",%progbits,1
 819              		.align	2
 820              	.LC0:
 821 0000 41424300 		.ascii	"ABC\000"
 822              	.LC1:
 823 0004 4100     		.ascii	"A\000"
 824 0006 0000     		.space	2
 825              	.LC2:
 826 0008 4576656E 		.ascii	"Events, timeouts\000"
 826      74732C20 
 826      74696D65 
 826      6F757473 
 826      00
 827 0019 000000   		.space	3
 828              	.LC3:
 829 001c 4576656E 		.ascii	"Events, wait and broadcast\000"
 829      74732C20 
 829      77616974 
 829      20616E64 
 829      2062726F 
 830 0037 00       		.space	1
 831              	.LC4:
 832 0038 4576656E 		.ascii	"Events, registration and dispatch\000"
 832      74732C20 
ARM GAS  /tmp/cc2qSXYA.s 			page 16


 832      72656769 
 832      73747261 
 832      74696F6E 
 833 005a 0000     		.section	.rodata.testevt1,"a",%progbits
 834              		.align	2
 835              		.type	testevt1, %object
 836              		.size	testevt1, 16
 837              	testevt1:
 838 0000 38000000 		.word	.LC4
 839 0004 00000000 		.word	evt1_setup
 840 0008 00000000 		.word	0
 841 000c 00000000 		.word	evt1_execute
 842              		.section	.rodata.evhndl,"a",%progbits
 843              		.align	2
 844              		.set	.LANCHOR1,. + 0
 845              		.type	evhndl, %object
 846              		.size	evhndl, 12
 847              	evhndl:
 848 0000 00000000 		.word	h1
 849 0004 00000000 		.word	h2
 850 0008 00000000 		.word	h3
 851              		.section	.rodata.testevt3,"a",%progbits
 852              		.align	2
 853              		.type	testevt3, %object
 854              		.size	testevt3, 16
 855              	testevt3:
 856 0000 08000000 		.word	.LC2
 857 0004 00000000 		.word	evt3_setup
 858 0008 00000000 		.word	0
 859 000c 00000000 		.word	evt3_execute
 860              		.section	.data.es1,"aw",%progbits
 861              		.align	2
 862              		.set	.LANCHOR0,. + 0
 863              		.type	es1, %object
 864              		.size	es1, 4
 865              	es1:
 866 0000 00000000 		.word	es1
 867              		.section	.data.es2,"aw",%progbits
 868              		.align	2
 869              		.set	.LANCHOR2,. + 0
 870              		.type	es2, %object
 871              		.size	es2, 4
 872              	es2:
 873 0000 00000000 		.word	es2
 874              		.text
 875              	.Letext0:
 876              		.file 2 "/home/santi/arm-2013.11/lib/gcc/arm-none-eabi/4.8.1/include/stddef.h"
 877              		.file 3 "/home/santi/arm-2013.11/arm-none-eabi/include/stdint.h"
 878              		.file 4 "../third_party/ChibiOS/os/ports/GCC/ARMCMx/chtypes.h"
 879              		.file 5 "../third_party/ChibiOS/os/kernel/include/chlists.h"
 880              		.file 6 "../third_party/ChibiOS/os/kernel/include/chthreads.h"
 881              		.file 7 "../third_party/ChibiOS/os/ports/GCC/ARMCMx/chcore_v7m.h"
 882              		.file 8 "../third_party/ChibiOS/os/kernel/include/chvt.h"
 883              		.file 9 "../third_party/ChibiOS/os/kernel/include/chschd.h"
 884              		.file 10 "../third_party/ChibiOS/os/kernel/include/chmtx.h"
 885              		.file 11 "../third_party/ChibiOS/os/kernel/include/chevents.h"
 886              		.file 12 "../third_party/ChibiOS/test/test.h"
ARM GAS  /tmp/cc2qSXYA.s 			page 17


 887              		.section	.debug_info,"",%progbits
 888              	.Ldebug_info0:
 889 0000 6C100000 		.4byte	0x106c
 890 0004 0400     		.2byte	0x4
 891 0006 00000000 		.4byte	.Ldebug_abbrev0
 892 000a 04       		.byte	0x4
 893 000b 01       		.uleb128 0x1
 894 000c 5B000000 		.4byte	.LASF122
 895 0010 01       		.byte	0x1
 896 0011 20000000 		.4byte	.LASF123
 897 0015 A2030000 		.4byte	.LASF124
 898 0019 18000000 		.4byte	.Ldebug_ranges0+0x18
 899 001d 00000000 		.4byte	0
 900 0021 00000000 		.4byte	.Ldebug_line0
 901 0025 02       		.uleb128 0x2
 902 0026 04       		.byte	0x4
 903 0027 05       		.byte	0x5
 904 0028 696E7400 		.ascii	"int\000"
 905 002c 03       		.uleb128 0x3
 906 002d 46000000 		.4byte	.LASF2
 907 0031 02       		.byte	0x2
 908 0032 D4       		.byte	0xd4
 909 0033 37000000 		.4byte	0x37
 910 0037 04       		.uleb128 0x4
 911 0038 04       		.byte	0x4
 912 0039 07       		.byte	0x7
 913 003a 72020000 		.4byte	.LASF0
 914 003e 04       		.uleb128 0x4
 915 003f 01       		.byte	0x1
 916 0040 06       		.byte	0x6
 917 0041 59010000 		.4byte	.LASF1
 918 0045 03       		.uleb128 0x3
 919 0046 7B050000 		.4byte	.LASF3
 920 004a 03       		.byte	0x3
 921 004b 2A       		.byte	0x2a
 922 004c 50000000 		.4byte	0x50
 923 0050 04       		.uleb128 0x4
 924 0051 01       		.byte	0x1
 925 0052 08       		.byte	0x8
 926 0053 51040000 		.4byte	.LASF4
 927 0057 04       		.uleb128 0x4
 928 0058 02       		.byte	0x2
 929 0059 05       		.byte	0x5
 930 005a 8F040000 		.4byte	.LASF5
 931 005e 04       		.uleb128 0x4
 932 005f 02       		.byte	0x2
 933 0060 07       		.byte	0x7
 934 0061 BA020000 		.4byte	.LASF6
 935 0065 03       		.uleb128 0x3
 936 0066 49040000 		.4byte	.LASF7
 937 006a 03       		.byte	0x3
 938 006b 4F       		.byte	0x4f
 939 006c 70000000 		.4byte	0x70
 940 0070 04       		.uleb128 0x4
 941 0071 04       		.byte	0x4
 942 0072 05       		.byte	0x5
 943 0073 AE010000 		.4byte	.LASF8
ARM GAS  /tmp/cc2qSXYA.s 			page 18


 944 0077 03       		.uleb128 0x3
 945 0078 F1040000 		.4byte	.LASF9
 946 007c 03       		.byte	0x3
 947 007d 50       		.byte	0x50
 948 007e 82000000 		.4byte	0x82
 949 0082 04       		.uleb128 0x4
 950 0083 04       		.byte	0x4
 951 0084 07       		.byte	0x7
 952 0085 87020000 		.4byte	.LASF10
 953 0089 04       		.uleb128 0x4
 954 008a 08       		.byte	0x8
 955 008b 05       		.byte	0x5
 956 008c 4B010000 		.4byte	.LASF11
 957 0090 04       		.uleb128 0x4
 958 0091 08       		.byte	0x8
 959 0092 07       		.byte	0x7
 960 0093 03010000 		.4byte	.LASF12
 961 0097 03       		.uleb128 0x3
 962 0098 81010000 		.4byte	.LASF13
 963 009c 04       		.byte	0x4
 964 009d 2E       		.byte	0x2e
 965 009e 65000000 		.4byte	0x65
 966 00a2 03       		.uleb128 0x3
 967 00a3 FD020000 		.4byte	.LASF14
 968 00a7 04       		.byte	0x4
 969 00a8 2F       		.byte	0x2f
 970 00a9 45000000 		.4byte	0x45
 971 00ad 03       		.uleb128 0x3
 972 00ae C3010000 		.4byte	.LASF15
 973 00b2 04       		.byte	0x4
 974 00b3 30       		.byte	0x30
 975 00b4 45000000 		.4byte	0x45
 976 00b8 03       		.uleb128 0x3
 977 00b9 1A040000 		.4byte	.LASF16
 978 00bd 04       		.byte	0x4
 979 00be 31       		.byte	0x31
 980 00bf 45000000 		.4byte	0x45
 981 00c3 03       		.uleb128 0x3
 982 00c4 31040000 		.4byte	.LASF17
 983 00c8 04       		.byte	0x4
 984 00c9 32       		.byte	0x32
 985 00ca 77000000 		.4byte	0x77
 986 00ce 03       		.uleb128 0x3
 987 00cf DF020000 		.4byte	.LASF18
 988 00d3 04       		.byte	0x4
 989 00d4 33       		.byte	0x33
 990 00d5 65000000 		.4byte	0x65
 991 00d9 03       		.uleb128 0x3
 992 00da 39020000 		.4byte	.LASF19
 993 00de 04       		.byte	0x4
 994 00df 34       		.byte	0x34
 995 00e0 65000000 		.4byte	0x65
 996 00e4 03       		.uleb128 0x3
 997 00e5 11030000 		.4byte	.LASF20
 998 00e9 04       		.byte	0x4
 999 00ea 35       		.byte	0x35
 1000 00eb 77000000 		.4byte	0x77
ARM GAS  /tmp/cc2qSXYA.s 			page 19


 1001 00ef 03       		.uleb128 0x3
 1002 00f0 1B050000 		.4byte	.LASF21
 1003 00f4 04       		.byte	0x4
 1004 00f5 36       		.byte	0x36
 1005 00f6 77000000 		.4byte	0x77
 1006 00fa 03       		.uleb128 0x3
 1007 00fb 5B020000 		.4byte	.LASF22
 1008 00ff 04       		.byte	0x4
 1009 0100 37       		.byte	0x37
 1010 0101 65000000 		.4byte	0x65
 1011 0105 03       		.uleb128 0x3
 1012 0106 C6040000 		.4byte	.LASF23
 1013 010a 05       		.byte	0x5
 1014 010b 2A       		.byte	0x2a
 1015 010c 10010000 		.4byte	0x110
 1016 0110 05       		.uleb128 0x5
 1017 0111 C6040000 		.4byte	.LASF23
 1018 0115 48       		.byte	0x48
 1019 0116 06       		.byte	0x6
 1020 0117 5E       		.byte	0x5e
 1021 0118 01020000 		.4byte	0x201
 1022 011c 06       		.uleb128 0x6
 1023 011d B7040000 		.4byte	.LASF24
 1024 0121 06       		.byte	0x6
 1025 0122 5F       		.byte	0x5f
 1026 0123 22020000 		.4byte	0x222
 1027 0127 00       		.byte	0
 1028 0128 06       		.uleb128 0x6
 1029 0129 22040000 		.4byte	.LASF25
 1030 012d 06       		.byte	0x6
 1031 012e 61       		.byte	0x61
 1032 012f 22020000 		.4byte	0x222
 1033 0133 04       		.byte	0x4
 1034 0134 06       		.uleb128 0x6
 1035 0135 37010000 		.4byte	.LASF26
 1036 0139 06       		.byte	0x6
 1037 013a 63       		.byte	0x63
 1038 013b C3000000 		.4byte	0xc3
 1039 013f 08       		.byte	0x8
 1040 0140 06       		.uleb128 0x6
 1041 0141 0E060000 		.4byte	.LASF27
 1042 0145 06       		.byte	0x6
 1043 0146 64       		.byte	0x64
 1044 0147 DB020000 		.4byte	0x2db
 1045 014b 0C       		.byte	0xc
 1046 014c 06       		.uleb128 0x6
 1047 014d 04020000 		.4byte	.LASF28
 1048 0151 06       		.byte	0x6
 1049 0152 66       		.byte	0x66
 1050 0153 22020000 		.4byte	0x222
 1051 0157 10       		.byte	0x10
 1052 0158 06       		.uleb128 0x6
 1053 0159 84030000 		.4byte	.LASF29
 1054 015d 06       		.byte	0x6
 1055 015e 67       		.byte	0x67
 1056 015f 22020000 		.4byte	0x222
 1057 0163 14       		.byte	0x14
ARM GAS  /tmp/cc2qSXYA.s 			page 20


 1058 0164 06       		.uleb128 0x6
 1059 0165 AC050000 		.4byte	.LASF30
 1060 0169 06       		.byte	0x6
 1061 016a 6E       		.byte	0x6e
 1062 016b 23050000 		.4byte	0x523
 1063 016f 18       		.byte	0x18
 1064 0170 06       		.uleb128 0x6
 1065 0171 99040000 		.4byte	.LASF31
 1066 0175 06       		.byte	0x6
 1067 0176 79       		.byte	0x79
 1068 0177 AD000000 		.4byte	0xad
 1069 017b 1C       		.byte	0x1c
 1070 017c 06       		.uleb128 0x6
 1071 017d BE040000 		.4byte	.LASF32
 1072 0181 06       		.byte	0x6
 1073 0182 7D       		.byte	0x7d
 1074 0183 A2000000 		.4byte	0xa2
 1075 0187 1D       		.byte	0x1d
 1076 0188 06       		.uleb128 0x6
 1077 0189 64050000 		.4byte	.LASF33
 1078 018d 06       		.byte	0x6
 1079 018e 82       		.byte	0x82
 1080 018f B8000000 		.4byte	0xb8
 1081 0193 1E       		.byte	0x1e
 1082 0194 06       		.uleb128 0x6
 1083 0195 39050000 		.4byte	.LASF34
 1084 0199 06       		.byte	0x6
 1085 019a 89       		.byte	0x89
 1086 019b B2030000 		.4byte	0x3b2
 1087 019f 20       		.byte	0x20
 1088 01a0 07       		.uleb128 0x7
 1089 01a1 705F7500 		.ascii	"p_u\000"
 1090 01a5 06       		.byte	0x6
 1091 01a6 AE       		.byte	0xae
 1092 01a7 EE040000 		.4byte	0x4ee
 1093 01ab 24       		.byte	0x24
 1094 01ac 06       		.uleb128 0x6
 1095 01ad 14060000 		.4byte	.LASF35
 1096 01b1 06       		.byte	0x6
 1097 01b2 B3       		.byte	0xb3
 1098 01b3 48020000 		.4byte	0x248
 1099 01b7 28       		.byte	0x28
 1100 01b8 06       		.uleb128 0x6
 1101 01b9 47050000 		.4byte	.LASF36
 1102 01bd 06       		.byte	0x6
 1103 01be B9       		.byte	0xb9
 1104 01bf 28020000 		.4byte	0x228
 1105 01c3 2C       		.byte	0x2c
 1106 01c4 06       		.uleb128 0x6
 1107 01c5 D3050000 		.4byte	.LASF37
 1108 01c9 06       		.byte	0x6
 1109 01ca BD       		.byte	0xbd
 1110 01cb CE000000 		.4byte	0xce
 1111 01cf 34       		.byte	0x34
 1112 01d0 06       		.uleb128 0x6
 1113 01d1 D6040000 		.4byte	.LASF38
 1114 01d5 06       		.byte	0x6
ARM GAS  /tmp/cc2qSXYA.s 			page 21


 1115 01d6 C3       		.byte	0xc3
 1116 01d7 E4000000 		.4byte	0xe4
 1117 01db 38       		.byte	0x38
 1118 01dc 06       		.uleb128 0x6
 1119 01dd 85040000 		.4byte	.LASF39
 1120 01e1 06       		.byte	0x6
 1121 01e2 CA       		.byte	0xca
 1122 01e3 35050000 		.4byte	0x535
 1123 01e7 3C       		.byte	0x3c
 1124 01e8 06       		.uleb128 0x6
 1125 01e9 25050000 		.4byte	.LASF40
 1126 01ed 06       		.byte	0x6
 1127 01ee CE       		.byte	0xce
 1128 01ef C3000000 		.4byte	0xc3
 1129 01f3 40       		.byte	0x40
 1130 01f4 06       		.uleb128 0x6
 1131 01f5 79010000 		.4byte	.LASF41
 1132 01f9 06       		.byte	0x6
 1133 01fa D4       		.byte	0xd4
 1134 01fb 5E020000 		.4byte	0x25e
 1135 01ff 44       		.byte	0x44
 1136 0200 00       		.byte	0
 1137 0201 08       		.uleb128 0x8
 1138 0202 08       		.byte	0x8
 1139 0203 05       		.byte	0x5
 1140 0204 61       		.byte	0x61
 1141 0205 22020000 		.4byte	0x222
 1142 0209 06       		.uleb128 0x6
 1143 020a B7040000 		.4byte	.LASF24
 1144 020e 05       		.byte	0x5
 1145 020f 62       		.byte	0x62
 1146 0210 22020000 		.4byte	0x222
 1147 0214 00       		.byte	0
 1148 0215 06       		.uleb128 0x6
 1149 0216 22040000 		.4byte	.LASF25
 1150 021a 05       		.byte	0x5
 1151 021b 64       		.byte	0x64
 1152 021c 22020000 		.4byte	0x222
 1153 0220 04       		.byte	0x4
 1154 0221 00       		.byte	0
 1155 0222 09       		.uleb128 0x9
 1156 0223 04       		.byte	0x4
 1157 0224 05010000 		.4byte	0x105
 1158 0228 03       		.uleb128 0x3
 1159 0229 13000000 		.4byte	.LASF42
 1160 022d 05       		.byte	0x5
 1161 022e 66       		.byte	0x66
 1162 022f 01020000 		.4byte	0x201
 1163 0233 08       		.uleb128 0x8
 1164 0234 04       		.byte	0x4
 1165 0235 05       		.byte	0x5
 1166 0236 6B       		.byte	0x6b
 1167 0237 48020000 		.4byte	0x248
 1168 023b 06       		.uleb128 0x6
 1169 023c B7040000 		.4byte	.LASF24
 1170 0240 05       		.byte	0x5
 1171 0241 6D       		.byte	0x6d
ARM GAS  /tmp/cc2qSXYA.s 			page 22


 1172 0242 22020000 		.4byte	0x222
 1173 0246 00       		.byte	0
 1174 0247 00       		.byte	0
 1175 0248 03       		.uleb128 0x3
 1176 0249 05030000 		.4byte	.LASF43
 1177 024d 05       		.byte	0x5
 1178 024e 70       		.byte	0x70
 1179 024f 33020000 		.4byte	0x233
 1180 0253 03       		.uleb128 0x3
 1181 0254 14020000 		.4byte	.LASF44
 1182 0258 07       		.byte	0x7
 1183 0259 D7       		.byte	0xd7
 1184 025a 5E020000 		.4byte	0x25e
 1185 025e 0A       		.uleb128 0xa
 1186 025f 04       		.byte	0x4
 1187 0260 05       		.uleb128 0x5
 1188 0261 40050000 		.4byte	.LASF45
 1189 0265 24       		.byte	0x24
 1190 0266 07       		.byte	0x7
 1191 0267 FE       		.byte	0xfe
 1192 0268 DB020000 		.4byte	0x2db
 1193 026c 0B       		.uleb128 0xb
 1194 026d 723400   		.ascii	"r4\000"
 1195 0270 07       		.byte	0x7
 1196 0271 1101     		.2byte	0x111
 1197 0273 53020000 		.4byte	0x253
 1198 0277 00       		.byte	0
 1199 0278 0B       		.uleb128 0xb
 1200 0279 723500   		.ascii	"r5\000"
 1201 027c 07       		.byte	0x7
 1202 027d 1201     		.2byte	0x112
 1203 027f 53020000 		.4byte	0x253
 1204 0283 04       		.byte	0x4
 1205 0284 0B       		.uleb128 0xb
 1206 0285 723600   		.ascii	"r6\000"
 1207 0288 07       		.byte	0x7
 1208 0289 1301     		.2byte	0x113
 1209 028b 53020000 		.4byte	0x253
 1210 028f 08       		.byte	0x8
 1211 0290 0B       		.uleb128 0xb
 1212 0291 723700   		.ascii	"r7\000"
 1213 0294 07       		.byte	0x7
 1214 0295 1401     		.2byte	0x114
 1215 0297 53020000 		.4byte	0x253
 1216 029b 0C       		.byte	0xc
 1217 029c 0B       		.uleb128 0xb
 1218 029d 723800   		.ascii	"r8\000"
 1219 02a0 07       		.byte	0x7
 1220 02a1 1501     		.2byte	0x115
 1221 02a3 53020000 		.4byte	0x253
 1222 02a7 10       		.byte	0x10
 1223 02a8 0B       		.uleb128 0xb
 1224 02a9 723900   		.ascii	"r9\000"
 1225 02ac 07       		.byte	0x7
 1226 02ad 1601     		.2byte	0x116
 1227 02af 53020000 		.4byte	0x253
 1228 02b3 14       		.byte	0x14
ARM GAS  /tmp/cc2qSXYA.s 			page 23


 1229 02b4 0B       		.uleb128 0xb
 1230 02b5 72313000 		.ascii	"r10\000"
 1231 02b9 07       		.byte	0x7
 1232 02ba 1701     		.2byte	0x117
 1233 02bc 53020000 		.4byte	0x253
 1234 02c0 18       		.byte	0x18
 1235 02c1 0B       		.uleb128 0xb
 1236 02c2 72313100 		.ascii	"r11\000"
 1237 02c6 07       		.byte	0x7
 1238 02c7 1801     		.2byte	0x118
 1239 02c9 53020000 		.4byte	0x253
 1240 02cd 1C       		.byte	0x1c
 1241 02ce 0B       		.uleb128 0xb
 1242 02cf 6C7200   		.ascii	"lr\000"
 1243 02d2 07       		.byte	0x7
 1244 02d3 1901     		.2byte	0x119
 1245 02d5 53020000 		.4byte	0x253
 1246 02d9 20       		.byte	0x20
 1247 02da 00       		.byte	0
 1248 02db 0C       		.uleb128 0xc
 1249 02dc B2020000 		.4byte	.LASF46
 1250 02e0 04       		.byte	0x4
 1251 02e1 07       		.byte	0x7
 1252 02e2 2301     		.2byte	0x123
 1253 02e4 F6020000 		.4byte	0x2f6
 1254 02e8 0B       		.uleb128 0xb
 1255 02e9 72313300 		.ascii	"r13\000"
 1256 02ed 07       		.byte	0x7
 1257 02ee 2401     		.2byte	0x124
 1258 02f0 F6020000 		.4byte	0x2f6
 1259 02f4 00       		.byte	0
 1260 02f5 00       		.byte	0
 1261 02f6 09       		.uleb128 0x9
 1262 02f7 04       		.byte	0x4
 1263 02f8 60020000 		.4byte	0x260
 1264 02fc 04       		.uleb128 0x4
 1265 02fd 04       		.byte	0x4
 1266 02fe 07       		.byte	0x7
 1267 02ff 48030000 		.4byte	.LASF47
 1268 0303 03       		.uleb128 0x3
 1269 0304 30050000 		.4byte	.LASF48
 1270 0308 08       		.byte	0x8
 1271 0309 53       		.byte	0x53
 1272 030a 0E030000 		.4byte	0x30e
 1273 030e 09       		.uleb128 0x9
 1274 030f 04       		.byte	0x4
 1275 0310 14030000 		.4byte	0x314
 1276 0314 0D       		.uleb128 0xd
 1277 0315 1F030000 		.4byte	0x31f
 1278 0319 0E       		.uleb128 0xe
 1279 031a 5E020000 		.4byte	0x25e
 1280 031e 00       		.byte	0
 1281 031f 03       		.uleb128 0x3
 1282 0320 02050000 		.4byte	.LASF49
 1283 0324 08       		.byte	0x8
 1284 0325 58       		.byte	0x58
 1285 0326 2A030000 		.4byte	0x32a
ARM GAS  /tmp/cc2qSXYA.s 			page 24


 1286 032a 05       		.uleb128 0x5
 1287 032b 02050000 		.4byte	.LASF49
 1288 032f 14       		.byte	0x14
 1289 0330 08       		.byte	0x8
 1290 0331 5F       		.byte	0x5f
 1291 0332 73030000 		.4byte	0x373
 1292 0336 06       		.uleb128 0x6
 1293 0337 7F020000 		.4byte	.LASF50
 1294 033b 08       		.byte	0x8
 1295 033c 60       		.byte	0x60
 1296 033d 73030000 		.4byte	0x373
 1297 0341 00       		.byte	0
 1298 0342 06       		.uleb128 0x6
 1299 0343 1D020000 		.4byte	.LASF51
 1300 0347 08       		.byte	0x8
 1301 0348 62       		.byte	0x62
 1302 0349 73030000 		.4byte	0x373
 1303 034d 04       		.byte	0x4
 1304 034e 06       		.uleb128 0x6
 1305 034f 35030000 		.4byte	.LASF52
 1306 0353 08       		.byte	0x8
 1307 0354 64       		.byte	0x64
 1308 0355 EF000000 		.4byte	0xef
 1309 0359 08       		.byte	0x8
 1310 035a 06       		.uleb128 0x6
 1311 035b 51030000 		.4byte	.LASF53
 1312 035f 08       		.byte	0x8
 1313 0360 65       		.byte	0x65
 1314 0361 03030000 		.4byte	0x303
 1315 0365 0C       		.byte	0xc
 1316 0366 06       		.uleb128 0x6
 1317 0367 52050000 		.4byte	.LASF54
 1318 036b 08       		.byte	0x8
 1319 036c 67       		.byte	0x67
 1320 036d 5E020000 		.4byte	0x25e
 1321 0371 10       		.byte	0x10
 1322 0372 00       		.byte	0
 1323 0373 09       		.uleb128 0x9
 1324 0374 04       		.byte	0x4
 1325 0375 1F030000 		.4byte	0x31f
 1326 0379 08       		.uleb128 0x8
 1327 037a 10       		.byte	0x10
 1328 037b 08       		.byte	0x8
 1329 037c 71       		.byte	0x71
 1330 037d B2030000 		.4byte	0x3b2
 1331 0381 06       		.uleb128 0x6
 1332 0382 7F020000 		.4byte	.LASF50
 1333 0386 08       		.byte	0x8
 1334 0387 72       		.byte	0x72
 1335 0388 73030000 		.4byte	0x373
 1336 038c 00       		.byte	0
 1337 038d 06       		.uleb128 0x6
 1338 038e 1D020000 		.4byte	.LASF51
 1339 0392 08       		.byte	0x8
 1340 0393 74       		.byte	0x74
 1341 0394 73030000 		.4byte	0x373
 1342 0398 04       		.byte	0x4
ARM GAS  /tmp/cc2qSXYA.s 			page 25


 1343 0399 06       		.uleb128 0x6
 1344 039a 35030000 		.4byte	.LASF52
 1345 039e 08       		.byte	0x8
 1346 039f 76       		.byte	0x76
 1347 03a0 EF000000 		.4byte	0xef
 1348 03a4 08       		.byte	0x8
 1349 03a5 06       		.uleb128 0x6
 1350 03a6 C0050000 		.4byte	.LASF55
 1351 03aa 08       		.byte	0x8
 1352 03ab 77       		.byte	0x77
 1353 03ac B2030000 		.4byte	0x3b2
 1354 03b0 0C       		.byte	0xc
 1355 03b1 00       		.byte	0
 1356 03b2 0F       		.uleb128 0xf
 1357 03b3 EF000000 		.4byte	0xef
 1358 03b7 03       		.uleb128 0x3
 1359 03b8 D9050000 		.4byte	.LASF56
 1360 03bc 08       		.byte	0x8
 1361 03bd 78       		.byte	0x78
 1362 03be 79030000 		.4byte	0x379
 1363 03c2 08       		.uleb128 0x8
 1364 03c3 20       		.byte	0x20
 1365 03c4 09       		.byte	0x9
 1366 03c5 5E       		.byte	0x5e
 1367 03c6 1F040000 		.4byte	0x41f
 1368 03ca 06       		.uleb128 0x6
 1369 03cb FA040000 		.4byte	.LASF57
 1370 03cf 09       		.byte	0x9
 1371 03d0 5F       		.byte	0x5f
 1372 03d1 28020000 		.4byte	0x228
 1373 03d5 00       		.byte	0
 1374 03d6 06       		.uleb128 0x6
 1375 03d7 A9040000 		.4byte	.LASF58
 1376 03db 09       		.byte	0x9
 1377 03dc 60       		.byte	0x60
 1378 03dd C3000000 		.4byte	0xc3
 1379 03e1 08       		.byte	0x8
 1380 03e2 06       		.uleb128 0x6
 1381 03e3 9C030000 		.4byte	.LASF59
 1382 03e7 09       		.byte	0x9
 1383 03e8 62       		.byte	0x62
 1384 03e9 DB020000 		.4byte	0x2db
 1385 03ed 0C       		.byte	0xc
 1386 03ee 06       		.uleb128 0x6
 1387 03ef 0C020000 		.4byte	.LASF60
 1388 03f3 09       		.byte	0x9
 1389 03f4 65       		.byte	0x65
 1390 03f5 22020000 		.4byte	0x222
 1391 03f9 10       		.byte	0x10
 1392 03fa 06       		.uleb128 0x6
 1393 03fb 0A040000 		.4byte	.LASF61
 1394 03ff 09       		.byte	0x9
 1395 0400 66       		.byte	0x66
 1396 0401 22020000 		.4byte	0x222
 1397 0405 14       		.byte	0x14
 1398 0406 06       		.uleb128 0x6
 1399 0407 E0050000 		.4byte	.LASF62
ARM GAS  /tmp/cc2qSXYA.s 			page 26


 1400 040b 09       		.byte	0x9
 1401 040c 6A       		.byte	0x6a
 1402 040d FA000000 		.4byte	0xfa
 1403 0411 18       		.byte	0x18
 1404 0412 06       		.uleb128 0x6
 1405 0413 00040000 		.4byte	.LASF63
 1406 0417 09       		.byte	0x9
 1407 0418 6C       		.byte	0x6c
 1408 0419 22020000 		.4byte	0x222
 1409 041d 1C       		.byte	0x1c
 1410 041e 00       		.byte	0
 1411 041f 03       		.uleb128 0x3
 1412 0420 6B050000 		.4byte	.LASF64
 1413 0424 09       		.byte	0x9
 1414 0425 6E       		.byte	0x6e
 1415 0426 C2030000 		.4byte	0x3c2
 1416 042a 05       		.uleb128 0x5
 1417 042b 1D030000 		.4byte	.LASF65
 1418 042f 10       		.byte	0x10
 1419 0430 0A       		.byte	0xa
 1420 0431 2C       		.byte	0x2c
 1421 0432 5B040000 		.4byte	0x45b
 1422 0436 06       		.uleb128 0x6
 1423 0437 88010000 		.4byte	.LASF66
 1424 043b 0A       		.byte	0xa
 1425 043c 2D       		.byte	0x2d
 1426 043d 28020000 		.4byte	0x228
 1427 0441 00       		.byte	0
 1428 0442 06       		.uleb128 0x6
 1429 0443 EA050000 		.4byte	.LASF67
 1430 0447 0A       		.byte	0xa
 1431 0448 2F       		.byte	0x2f
 1432 0449 22020000 		.4byte	0x222
 1433 044d 08       		.byte	0x8
 1434 044e 06       		.uleb128 0x6
 1435 044f 14050000 		.4byte	.LASF68
 1436 0453 0A       		.byte	0xa
 1437 0454 31       		.byte	0x31
 1438 0455 5B040000 		.4byte	0x45b
 1439 0459 0C       		.byte	0xc
 1440 045a 00       		.byte	0
 1441 045b 09       		.uleb128 0x9
 1442 045c 04       		.byte	0x4
 1443 045d 2A040000 		.4byte	0x42a
 1444 0461 03       		.uleb128 0x3
 1445 0462 1D030000 		.4byte	.LASF65
 1446 0466 0A       		.byte	0xa
 1447 0467 33       		.byte	0x33
 1448 0468 2A040000 		.4byte	0x42a
 1449 046c 03       		.uleb128 0x3
 1450 046d 83050000 		.4byte	.LASF69
 1451 0471 0B       		.byte	0xb
 1452 0472 29       		.byte	0x29
 1453 0473 77040000 		.4byte	0x477
 1454 0477 05       		.uleb128 0x5
 1455 0478 83050000 		.4byte	.LASF69
 1456 047c 0C       		.byte	0xc
ARM GAS  /tmp/cc2qSXYA.s 			page 27


 1457 047d 0B       		.byte	0xb
 1458 047e 2E       		.byte	0x2e
 1459 047f A8040000 		.4byte	0x4a8
 1460 0483 06       		.uleb128 0x6
 1461 0484 E5020000 		.4byte	.LASF70
 1462 0488 0B       		.byte	0xb
 1463 0489 2F       		.byte	0x2f
 1464 048a A8040000 		.4byte	0x4a8
 1465 048e 00       		.byte	0
 1466 048f 06       		.uleb128 0x6
 1467 0490 6C040000 		.4byte	.LASF71
 1468 0494 0B       		.byte	0xb
 1469 0495 32       		.byte	0x32
 1470 0496 22020000 		.4byte	0x222
 1471 049a 04       		.byte	0x4
 1472 049b 06       		.uleb128 0x6
 1473 049c 12040000 		.4byte	.LASF72
 1474 04a0 0B       		.byte	0xb
 1475 04a1 34       		.byte	0x34
 1476 04a2 E4000000 		.4byte	0xe4
 1477 04a6 08       		.byte	0x8
 1478 04a7 00       		.byte	0
 1479 04a8 09       		.uleb128 0x9
 1480 04a9 04       		.byte	0x4
 1481 04aa 6C040000 		.4byte	0x46c
 1482 04ae 05       		.uleb128 0x5
 1483 04af 43020000 		.4byte	.LASF73
 1484 04b3 04       		.byte	0x4
 1485 04b4 0B       		.byte	0xb
 1486 04b5 3C       		.byte	0x3c
 1487 04b6 C7040000 		.4byte	0x4c7
 1488 04ba 06       		.uleb128 0x6
 1489 04bb CB050000 		.4byte	.LASF74
 1490 04bf 0B       		.byte	0xb
 1491 04c0 3D       		.byte	0x3d
 1492 04c1 A8040000 		.4byte	0x4a8
 1493 04c5 00       		.byte	0
 1494 04c6 00       		.byte	0
 1495 04c7 03       		.uleb128 0x3
 1496 04c8 43020000 		.4byte	.LASF73
 1497 04cc 0B       		.byte	0xb
 1498 04cd 40       		.byte	0x40
 1499 04ce AE040000 		.4byte	0x4ae
 1500 04d2 03       		.uleb128 0x3
 1501 04d3 4F020000 		.4byte	.LASF75
 1502 04d7 0B       		.byte	0xb
 1503 04d8 45       		.byte	0x45
 1504 04d9 DD040000 		.4byte	0x4dd
 1505 04dd 09       		.uleb128 0x9
 1506 04de 04       		.byte	0x4
 1507 04df E3040000 		.4byte	0x4e3
 1508 04e3 0D       		.uleb128 0xd
 1509 04e4 EE040000 		.4byte	0x4ee
 1510 04e8 0E       		.uleb128 0xe
 1511 04e9 D9000000 		.4byte	0xd9
 1512 04ed 00       		.byte	0
 1513 04ee 10       		.uleb128 0x10
ARM GAS  /tmp/cc2qSXYA.s 			page 28


 1514 04ef 04       		.byte	0x4
 1515 04f0 06       		.byte	0x6
 1516 04f1 90       		.byte	0x90
 1517 04f2 23050000 		.4byte	0x523
 1518 04f6 11       		.uleb128 0x11
 1519 04f7 4D000000 		.4byte	.LASF76
 1520 04fb 06       		.byte	0x6
 1521 04fc 97       		.byte	0x97
 1522 04fd CE000000 		.4byte	0xce
 1523 0501 11       		.uleb128 0x11
 1524 0502 1A010000 		.4byte	.LASF77
 1525 0506 06       		.byte	0x6
 1526 0507 9E       		.byte	0x9e
 1527 0508 CE000000 		.4byte	0xce
 1528 050c 11       		.uleb128 0x11
 1529 050d A5050000 		.4byte	.LASF78
 1530 0511 06       		.byte	0x6
 1531 0512 A5       		.byte	0xa5
 1532 0513 5E020000 		.4byte	0x25e
 1533 0517 11       		.uleb128 0x11
 1534 0518 B0040000 		.4byte	.LASF79
 1535 051c 06       		.byte	0x6
 1536 051d AC       		.byte	0xac
 1537 051e E4000000 		.4byte	0xe4
 1538 0522 00       		.byte	0
 1539 0523 09       		.uleb128 0x9
 1540 0524 04       		.byte	0x4
 1541 0525 29050000 		.4byte	0x529
 1542 0529 12       		.uleb128 0x12
 1543 052a 2E050000 		.4byte	0x52e
 1544 052e 04       		.uleb128 0x4
 1545 052f 01       		.byte	0x1
 1546 0530 08       		.byte	0x8
 1547 0531 0F050000 		.4byte	.LASF80
 1548 0535 09       		.uleb128 0x9
 1549 0536 04       		.byte	0x4
 1550 0537 61040000 		.4byte	0x461
 1551 053b 03       		.uleb128 0x3
 1552 053c 00000000 		.4byte	.LASF81
 1553 0540 06       		.byte	0x6
 1554 0541 DF       		.byte	0xdf
 1555 0542 46050000 		.4byte	0x546
 1556 0546 09       		.uleb128 0x9
 1557 0547 04       		.byte	0x4
 1558 0548 4C050000 		.4byte	0x54c
 1559 054c 13       		.uleb128 0x13
 1560 054d CE000000 		.4byte	0xce
 1561 0551 5B050000 		.4byte	0x55b
 1562 0555 0E       		.uleb128 0xe
 1563 0556 5E020000 		.4byte	0x25e
 1564 055a 00       		.byte	0
 1565 055b 05       		.uleb128 0x5
 1566 055c CD040000 		.4byte	.LASF82
 1567 0560 10       		.byte	0x10
 1568 0561 0C       		.byte	0xc
 1569 0562 46       		.byte	0x46
 1570 0563 98050000 		.4byte	0x598
ARM GAS  /tmp/cc2qSXYA.s 			page 29


 1571 0567 06       		.uleb128 0x6
 1572 0568 AD020000 		.4byte	.LASF83
 1573 056c 0C       		.byte	0xc
 1574 056d 47       		.byte	0x47
 1575 056e 23050000 		.4byte	0x523
 1576 0572 00       		.byte	0
 1577 0573 06       		.uleb128 0x6
 1578 0574 D7030000 		.4byte	.LASF84
 1579 0578 0C       		.byte	0xc
 1580 0579 48       		.byte	0x48
 1581 057a 99050000 		.4byte	0x599
 1582 057e 04       		.byte	0x4
 1583 057f 06       		.uleb128 0x6
 1584 0580 99020000 		.4byte	.LASF85
 1585 0584 0C       		.byte	0xc
 1586 0585 49       		.byte	0x49
 1587 0586 99050000 		.4byte	0x599
 1588 058a 08       		.byte	0x8
 1589 058b 06       		.uleb128 0x6
 1590 058c 29040000 		.4byte	.LASF86
 1591 0590 0C       		.byte	0xc
 1592 0591 4A       		.byte	0x4a
 1593 0592 99050000 		.4byte	0x599
 1594 0596 0C       		.byte	0xc
 1595 0597 00       		.byte	0
 1596 0598 14       		.uleb128 0x14
 1597 0599 09       		.uleb128 0x9
 1598 059a 04       		.byte	0x4
 1599 059b 98050000 		.4byte	0x598
 1600 059f 15       		.uleb128 0x15
 1601 05a0 78040000 		.4byte	.LASF125
 1602 05a4 01       		.byte	0x1
 1603 05a5 0701     		.2byte	0x107
 1604 05a7 01       		.byte	0x1
 1605 05a8 B7050000 		.4byte	0x5b7
 1606 05ac 16       		.uleb128 0x16
 1607 05ad 6D00     		.ascii	"m\000"
 1608 05af 01       		.byte	0x1
 1609 05b0 0801     		.2byte	0x108
 1610 05b2 E4000000 		.4byte	0xe4
 1611 05b6 00       		.byte	0
 1612 05b7 17       		.uleb128 0x17
 1613 05b8 01060000 		.4byte	.LASF87
 1614 05bc 01       		.byte	0x1
 1615 05bd 60       		.byte	0x60
 1616 05be 00000000 		.4byte	.LFB11
 1617 05c2 88000000 		.4byte	.LFE11-.LFB11
 1618 05c6 01       		.uleb128 0x1
 1619 05c7 9C       		.byte	0x9c
 1620 05c8 C8060000 		.4byte	0x6c8
 1621 05cc 18       		.uleb128 0x18
 1622 05cd 656C3100 		.ascii	"el1\000"
 1623 05d1 01       		.byte	0x1
 1624 05d2 61       		.byte	0x61
 1625 05d3 6C040000 		.4byte	0x46c
 1626 05d7 02       		.uleb128 0x2
 1627 05d8 91       		.byte	0x91
ARM GAS  /tmp/cc2qSXYA.s 			page 30


 1628 05d9 60       		.sleb128 -32
 1629 05da 18       		.uleb128 0x18
 1630 05db 656C3200 		.ascii	"el2\000"
 1631 05df 01       		.byte	0x1
 1632 05e0 61       		.byte	0x61
 1633 05e1 6C040000 		.4byte	0x46c
 1634 05e5 02       		.uleb128 0x2
 1635 05e6 91       		.byte	0x91
 1636 05e7 6C       		.sleb128 -20
 1637 05e8 19       		.uleb128 0x19
 1638 05e9 18000000 		.4byte	.LVL0
 1639 05ed 800E0000 		.4byte	0xe80
 1640 05f1 07060000 		.4byte	0x607
 1641 05f5 1A       		.uleb128 0x1a
 1642 05f6 01       		.uleb128 0x1
 1643 05f7 52       		.byte	0x52
 1644 05f8 01       		.uleb128 0x1
 1645 05f9 31       		.byte	0x31
 1646 05fa 1A       		.uleb128 0x1a
 1647 05fb 01       		.uleb128 0x1
 1648 05fc 51       		.byte	0x51
 1649 05fd 02       		.uleb128 0x2
 1650 05fe 7D       		.byte	0x7d
 1651 05ff 00       		.sleb128 0
 1652 0600 1A       		.uleb128 0x1a
 1653 0601 01       		.uleb128 0x1
 1654 0602 50       		.byte	0x50
 1655 0603 02       		.uleb128 0x2
 1656 0604 74       		.byte	0x74
 1657 0605 00       		.sleb128 0
 1658 0606 00       		.byte	0
 1659 0607 19       		.uleb128 0x19
 1660 0608 22000000 		.4byte	.LVL1
 1661 060c 800E0000 		.4byte	0xe80
 1662 0610 26060000 		.4byte	0x626
 1663 0614 1A       		.uleb128 0x1a
 1664 0615 01       		.uleb128 0x1
 1665 0616 52       		.byte	0x52
 1666 0617 01       		.uleb128 0x1
 1667 0618 32       		.byte	0x32
 1668 0619 1A       		.uleb128 0x1a
 1669 061a 01       		.uleb128 0x1
 1670 061b 51       		.byte	0x51
 1671 061c 02       		.uleb128 0x2
 1672 061d 91       		.byte	0x91
 1673 061e 6C       		.sleb128 -20
 1674 061f 1A       		.uleb128 0x1a
 1675 0620 01       		.uleb128 0x1
 1676 0621 50       		.byte	0x50
 1677 0622 02       		.uleb128 0x2
 1678 0623 74       		.byte	0x74
 1679 0624 00       		.sleb128 0
 1680 0625 00       		.byte	0
 1681 0626 19       		.uleb128 0x19
 1682 0627 30000000 		.4byte	.LVL2
 1683 062b A10E0000 		.4byte	0xea1
 1684 062f 39060000 		.4byte	0x639
ARM GAS  /tmp/cc2qSXYA.s 			page 31


 1685 0633 1A       		.uleb128 0x1a
 1686 0634 01       		.uleb128 0x1
 1687 0635 50       		.byte	0x50
 1688 0636 01       		.uleb128 0x1
 1689 0637 31       		.byte	0x31
 1690 0638 00       		.byte	0
 1691 0639 19       		.uleb128 0x19
 1692 063a 3E000000 		.4byte	.LVL3
 1693 063e BB0E0000 		.4byte	0xebb
 1694 0642 53060000 		.4byte	0x653
 1695 0646 1A       		.uleb128 0x1a
 1696 0647 01       		.uleb128 0x1
 1697 0648 51       		.byte	0x51
 1698 0649 02       		.uleb128 0x2
 1699 064a 7D       		.byte	0x7d
 1700 064b 00       		.sleb128 0
 1701 064c 1A       		.uleb128 0x1a
 1702 064d 01       		.uleb128 0x1
 1703 064e 50       		.byte	0x50
 1704 064f 02       		.uleb128 0x2
 1705 0650 74       		.byte	0x74
 1706 0651 00       		.sleb128 0
 1707 0652 00       		.byte	0
 1708 0653 19       		.uleb128 0x19
 1709 0654 4C000000 		.4byte	.LVL4
 1710 0658 A10E0000 		.4byte	0xea1
 1711 065c 66060000 		.4byte	0x666
 1712 0660 1A       		.uleb128 0x1a
 1713 0661 01       		.uleb128 0x1
 1714 0662 50       		.byte	0x50
 1715 0663 01       		.uleb128 0x1
 1716 0664 32       		.byte	0x32
 1717 0665 00       		.byte	0
 1718 0666 19       		.uleb128 0x19
 1719 0667 58000000 		.4byte	.LVL5
 1720 066b BB0E0000 		.4byte	0xebb
 1721 066f 80060000 		.4byte	0x680
 1722 0673 1A       		.uleb128 0x1a
 1723 0674 01       		.uleb128 0x1
 1724 0675 51       		.byte	0x51
 1725 0676 02       		.uleb128 0x2
 1726 0677 91       		.byte	0x91
 1727 0678 6C       		.sleb128 -20
 1728 0679 1A       		.uleb128 0x1a
 1729 067a 01       		.uleb128 0x1
 1730 067b 50       		.byte	0x50
 1731 067c 02       		.uleb128 0x2
 1732 067d 74       		.byte	0x74
 1733 067e 00       		.sleb128 0
 1734 067f 00       		.byte	0
 1735 0680 19       		.uleb128 0x19
 1736 0681 66000000 		.4byte	.LVL6
 1737 0685 A10E0000 		.4byte	0xea1
 1738 0689 93060000 		.4byte	0x693
 1739 068d 1A       		.uleb128 0x1a
 1740 068e 01       		.uleb128 0x1
 1741 068f 50       		.byte	0x50
ARM GAS  /tmp/cc2qSXYA.s 			page 32


 1742 0690 01       		.uleb128 0x1
 1743 0691 33       		.byte	0x33
 1744 0692 00       		.byte	0
 1745 0693 19       		.uleb128 0x19
 1746 0694 78000000 		.4byte	.LVL7
 1747 0698 D10E0000 		.4byte	0xed1
 1748 069c AF060000 		.4byte	0x6af
 1749 06a0 1A       		.uleb128 0x1a
 1750 06a1 01       		.uleb128 0x1
 1751 06a2 51       		.byte	0x51
 1752 06a3 01       		.uleb128 0x1
 1753 06a4 37       		.byte	0x37
 1754 06a5 1A       		.uleb128 0x1a
 1755 06a6 01       		.uleb128 0x1
 1756 06a7 50       		.byte	0x50
 1757 06a8 05       		.uleb128 0x5
 1758 06a9 03       		.byte	0x3
 1759 06aa 00000000 		.4byte	.LANCHOR1
 1760 06ae 00       		.byte	0
 1761 06af 1B       		.uleb128 0x1b
 1762 06b0 86000000 		.4byte	.LVL8
 1763 06b4 F20E0000 		.4byte	0xef2
 1764 06b8 1A       		.uleb128 0x1a
 1765 06b9 01       		.uleb128 0x1
 1766 06ba 51       		.byte	0x51
 1767 06bb 05       		.uleb128 0x5
 1768 06bc 03       		.byte	0x3
 1769 06bd 00000000 		.4byte	.LC0
 1770 06c1 1A       		.uleb128 0x1a
 1771 06c2 01       		.uleb128 0x1
 1772 06c3 50       		.byte	0x50
 1773 06c4 01       		.uleb128 0x1
 1774 06c5 34       		.byte	0x34
 1775 06c6 00       		.byte	0
 1776 06c7 00       		.byte	0
 1777 06c8 1C       		.uleb128 0x1c
 1778 06c9 683300   		.ascii	"h3\000"
 1779 06cc 01       		.byte	0x1
 1780 06cd 5D       		.byte	0x5d
 1781 06ce 00000000 		.4byte	.LFB10
 1782 06d2 06000000 		.4byte	.LFE10-.LFB10
 1783 06d6 01       		.uleb128 0x1
 1784 06d7 9C       		.byte	0x9c
 1785 06d8 FB060000 		.4byte	0x6fb
 1786 06dc 1D       		.uleb128 0x1d
 1787 06dd 696400   		.ascii	"id\000"
 1788 06e0 01       		.byte	0x1
 1789 06e1 5D       		.byte	0x5d
 1790 06e2 D9000000 		.4byte	0xd9
 1791 06e6 00000000 		.4byte	.LLST0
 1792 06ea 1E       		.uleb128 0x1e
 1793 06eb 06000000 		.4byte	.LVL11
 1794 06ef 120F0000 		.4byte	0xf12
 1795 06f3 1A       		.uleb128 0x1a
 1796 06f4 01       		.uleb128 0x1
 1797 06f5 50       		.byte	0x50
 1798 06f6 02       		.uleb128 0x2
ARM GAS  /tmp/cc2qSXYA.s 			page 33


 1799 06f7 08       		.byte	0x8
 1800 06f8 43       		.byte	0x43
 1801 06f9 00       		.byte	0
 1802 06fa 00       		.byte	0
 1803 06fb 1C       		.uleb128 0x1c
 1804 06fc 683200   		.ascii	"h2\000"
 1805 06ff 01       		.byte	0x1
 1806 0700 5C       		.byte	0x5c
 1807 0701 00000000 		.4byte	.LFB9
 1808 0705 06000000 		.4byte	.LFE9-.LFB9
 1809 0709 01       		.uleb128 0x1
 1810 070a 9C       		.byte	0x9c
 1811 070b 2E070000 		.4byte	0x72e
 1812 070f 1D       		.uleb128 0x1d
 1813 0710 696400   		.ascii	"id\000"
 1814 0713 01       		.byte	0x1
 1815 0714 5C       		.byte	0x5c
 1816 0715 D9000000 		.4byte	0xd9
 1817 0719 21000000 		.4byte	.LLST1
 1818 071d 1E       		.uleb128 0x1e
 1819 071e 06000000 		.4byte	.LVL14
 1820 0722 120F0000 		.4byte	0xf12
 1821 0726 1A       		.uleb128 0x1a
 1822 0727 01       		.uleb128 0x1
 1823 0728 50       		.byte	0x50
 1824 0729 02       		.uleb128 0x2
 1825 072a 08       		.byte	0x8
 1826 072b 42       		.byte	0x42
 1827 072c 00       		.byte	0
 1828 072d 00       		.byte	0
 1829 072e 1C       		.uleb128 0x1c
 1830 072f 683100   		.ascii	"h1\000"
 1831 0732 01       		.byte	0x1
 1832 0733 5B       		.byte	0x5b
 1833 0734 00000000 		.4byte	.LFB8
 1834 0738 06000000 		.4byte	.LFE8-.LFB8
 1835 073c 01       		.uleb128 0x1
 1836 073d 9C       		.byte	0x9c
 1837 073e 61070000 		.4byte	0x761
 1838 0742 1D       		.uleb128 0x1d
 1839 0743 696400   		.ascii	"id\000"
 1840 0746 01       		.byte	0x1
 1841 0747 5B       		.byte	0x5b
 1842 0748 D9000000 		.4byte	0xd9
 1843 074c 42000000 		.4byte	.LLST2
 1844 0750 1E       		.uleb128 0x1e
 1845 0751 06000000 		.4byte	.LVL17
 1846 0755 120F0000 		.4byte	0xf12
 1847 0759 1A       		.uleb128 0x1a
 1848 075a 01       		.uleb128 0x1
 1849 075b 50       		.byte	0x50
 1850 075c 02       		.uleb128 0x2
 1851 075d 08       		.byte	0x8
 1852 075e 41       		.byte	0x41
 1853 075f 00       		.byte	0
 1854 0760 00       		.byte	0
 1855 0761 17       		.uleb128 0x17
ARM GAS  /tmp/cc2qSXYA.s 			page 34


 1856 0762 3D030000 		.4byte	.LASF88
 1857 0766 01       		.byte	0x1
 1858 0767 56       		.byte	0x56
 1859 0768 00000000 		.4byte	.LFB7
 1860 076c 08000000 		.4byte	.LFE7-.LFB7
 1861 0770 01       		.uleb128 0x1
 1862 0771 9C       		.byte	0x9c
 1863 0772 87070000 		.4byte	0x787
 1864 0776 1E       		.uleb128 0x1e
 1865 0777 08000000 		.4byte	.LVL18
 1866 077b 230F0000 		.4byte	0xf23
 1867 077f 1A       		.uleb128 0x1a
 1868 0780 01       		.uleb128 0x1
 1869 0781 50       		.byte	0x50
 1870 0782 02       		.uleb128 0x2
 1871 0783 09       		.byte	0x9
 1872 0784 FF       		.byte	0xff
 1873 0785 00       		.byte	0
 1874 0786 00       		.byte	0
 1875 0787 17       		.uleb128 0x17
 1876 0788 08000000 		.4byte	.LASF89
 1877 078c 01       		.byte	0x1
 1878 078d 8B       		.byte	0x8b
 1879 078e 00000000 		.4byte	.LFB12
 1880 0792 08000000 		.4byte	.LFE12-.LFB12
 1881 0796 01       		.uleb128 0x1
 1882 0797 9C       		.byte	0x9c
 1883 0798 AD070000 		.4byte	0x7ad
 1884 079c 1E       		.uleb128 0x1e
 1885 079d 08000000 		.4byte	.LVL19
 1886 07a1 230F0000 		.4byte	0xf23
 1887 07a5 1A       		.uleb128 0x1a
 1888 07a6 01       		.uleb128 0x1
 1889 07a7 50       		.byte	0x50
 1890 07a8 02       		.uleb128 0x2
 1891 07a9 09       		.byte	0x9
 1892 07aa FF       		.byte	0xff
 1893 07ab 00       		.byte	0
 1894 07ac 00       		.byte	0
 1895 07ad 1F       		.uleb128 0x1f
 1896 07ae 67030000 		.4byte	.LASF90
 1897 07b2 01       		.byte	0x1
 1898 07b3 0201     		.2byte	0x102
 1899 07b5 00000000 		.4byte	.LFB16
 1900 07b9 08000000 		.4byte	.LFE16-.LFB16
 1901 07bd 01       		.uleb128 0x1
 1902 07be 9C       		.byte	0x9c
 1903 07bf D4070000 		.4byte	0x7d4
 1904 07c3 1E       		.uleb128 0x1e
 1905 07c4 08000000 		.4byte	.LVL20
 1906 07c8 230F0000 		.4byte	0xf23
 1907 07cc 1A       		.uleb128 0x1a
 1908 07cd 01       		.uleb128 0x1
 1909 07ce 50       		.byte	0x50
 1910 07cf 02       		.uleb128 0x2
 1911 07d0 09       		.byte	0x9
 1912 07d1 FF       		.byte	0xff
ARM GAS  /tmp/cc2qSXYA.s 			page 35


 1913 07d2 00       		.byte	0
 1914 07d3 00       		.byte	0
 1915 07d4 17       		.uleb128 0x17
 1916 07d5 3E010000 		.4byte	.LASF91
 1917 07d9 01       		.byte	0x1
 1918 07da A0       		.byte	0xa0
 1919 07db 00000000 		.4byte	.LFB15
 1920 07df 7E020000 		.4byte	.LFE15-.LFB15
 1921 07e3 01       		.uleb128 0x1
 1922 07e4 9C       		.byte	0x9c
 1923 07e5 A20B0000 		.4byte	0xba2
 1924 07e9 20       		.uleb128 0x20
 1925 07ea 6D00     		.ascii	"m\000"
 1926 07ec 01       		.byte	0x1
 1927 07ed A1       		.byte	0xa1
 1928 07ee E4000000 		.4byte	0xe4
 1929 07f2 63000000 		.4byte	.LLST3
 1930 07f6 18       		.uleb128 0x18
 1931 07f7 656C3100 		.ascii	"el1\000"
 1932 07fb 01       		.byte	0x1
 1933 07fc A2       		.byte	0xa2
 1934 07fd 6C040000 		.4byte	0x46c
 1935 0801 02       		.uleb128 0x2
 1936 0802 91       		.byte	0x91
 1937 0803 48       		.sleb128 -56
 1938 0804 18       		.uleb128 0x18
 1939 0805 656C3200 		.ascii	"el2\000"
 1940 0809 01       		.byte	0x1
 1941 080a A2       		.byte	0xa2
 1942 080b 6C040000 		.4byte	0x46c
 1943 080f 02       		.uleb128 0x2
 1944 0810 91       		.byte	0x91
 1945 0811 54       		.sleb128 -44
 1946 0812 21       		.uleb128 0x21
 1947 0813 B7010000 		.4byte	.LASF92
 1948 0817 01       		.byte	0x1
 1949 0818 A3       		.byte	0xa3
 1950 0819 EF000000 		.4byte	0xef
 1951 081d 23010000 		.4byte	.LLST4
 1952 0821 19       		.uleb128 0x19
 1953 0822 0C000000 		.4byte	.LVL21
 1954 0826 380F0000 		.4byte	0xf38
 1955 082a 34080000 		.4byte	0x834
 1956 082e 1A       		.uleb128 0x1a
 1957 082f 01       		.uleb128 0x1
 1958 0830 50       		.byte	0x50
 1959 0831 01       		.uleb128 0x1
 1960 0832 35       		.byte	0x35
 1961 0833 00       		.byte	0
 1962 0834 19       		.uleb128 0x19
 1963 0835 14000000 		.4byte	.LVL22
 1964 0839 4D0F0000 		.4byte	0xf4d
 1965 083d 48080000 		.4byte	0x848
 1966 0841 1A       		.uleb128 0x1a
 1967 0842 01       		.uleb128 0x1
 1968 0843 50       		.byte	0x50
 1969 0844 02       		.uleb128 0x2
ARM GAS  /tmp/cc2qSXYA.s 			page 36


 1970 0845 09       		.byte	0x9
 1971 0846 FF       		.byte	0xff
 1972 0847 00       		.byte	0
 1973 0848 19       		.uleb128 0x19
 1974 0849 26000000 		.4byte	.LVL24
 1975 084d A10E0000 		.4byte	0xea1
 1976 0851 63080000 		.4byte	0x863
 1977 0855 1A       		.uleb128 0x1a
 1978 0856 01       		.uleb128 0x1
 1979 0857 51       		.byte	0x51
 1980 0858 04       		.uleb128 0x4
 1981 0859 79       		.byte	0x79
 1982 085a 00       		.sleb128 0
 1983 085b 30       		.byte	0x30
 1984 085c 29       		.byte	0x29
 1985 085d 1A       		.uleb128 0x1a
 1986 085e 01       		.uleb128 0x1
 1987 085f 50       		.byte	0x50
 1988 0860 01       		.uleb128 0x1
 1989 0861 31       		.byte	0x31
 1990 0862 00       		.byte	0
 1991 0863 19       		.uleb128 0x19
 1992 0864 36000000 		.4byte	.LVL27
 1993 0868 4D0F0000 		.4byte	0xf4d
 1994 086c 77080000 		.4byte	0x877
 1995 0870 1A       		.uleb128 0x1a
 1996 0871 01       		.uleb128 0x1
 1997 0872 50       		.byte	0x50
 1998 0873 02       		.uleb128 0x2
 1999 0874 09       		.byte	0x9
 2000 0875 FF       		.byte	0xff
 2001 0876 00       		.byte	0
 2002 0877 19       		.uleb128 0x19
 2003 0878 48000000 		.4byte	.LVL29
 2004 087c A10E0000 		.4byte	0xea1
 2005 0880 92080000 		.4byte	0x892
 2006 0884 1A       		.uleb128 0x1a
 2007 0885 01       		.uleb128 0x1
 2008 0886 51       		.byte	0x51
 2009 0887 04       		.uleb128 0x4
 2010 0888 78       		.byte	0x78
 2011 0889 00       		.sleb128 0
 2012 088a 30       		.byte	0x30
 2013 088b 29       		.byte	0x29
 2014 088c 1A       		.uleb128 0x1a
 2015 088d 01       		.uleb128 0x1
 2016 088e 50       		.byte	0x50
 2017 088f 01       		.uleb128 0x1
 2018 0890 32       		.byte	0x32
 2019 0891 00       		.byte	0
 2020 0892 19       		.uleb128 0x19
 2021 0893 54000000 		.4byte	.LVL30
 2022 0897 230F0000 		.4byte	0xf23
 2023 089b A6080000 		.4byte	0x8a6
 2024 089f 1A       		.uleb128 0x1a
 2025 08a0 01       		.uleb128 0x1
 2026 08a1 50       		.byte	0x50
ARM GAS  /tmp/cc2qSXYA.s 			page 37


 2027 08a2 02       		.uleb128 0x2
 2028 08a3 09       		.byte	0x9
 2029 08a4 FF       		.byte	0xff
 2030 08a5 00       		.byte	0
 2031 08a6 19       		.uleb128 0x19
 2032 08a7 62000000 		.4byte	.LVL32
 2033 08ab A10E0000 		.4byte	0xea1
 2034 08af B9080000 		.4byte	0x8b9
 2035 08b3 1A       		.uleb128 0x1a
 2036 08b4 01       		.uleb128 0x1
 2037 08b5 50       		.byte	0x50
 2038 08b6 01       		.uleb128 0x1
 2039 08b7 33       		.byte	0x33
 2040 08b8 00       		.byte	0
 2041 08b9 22       		.uleb128 0x22
 2042 08ba 6E000000 		.4byte	.LVL33
 2043 08be 620F0000 		.4byte	0xf62
 2044 08c2 19       		.uleb128 0x19
 2045 08c3 A2000000 		.4byte	.LVL35
 2046 08c7 6D0F0000 		.4byte	0xf6d
 2047 08cb E0080000 		.4byte	0x8e0
 2048 08cf 1A       		.uleb128 0x1a
 2049 08d0 01       		.uleb128 0x1
 2050 08d1 53       		.byte	0x53
 2051 08d2 05       		.uleb128 0x5
 2052 08d3 03       		.byte	0x3
 2053 08d4 00000000 		.4byte	thread1
 2054 08d8 1A       		.uleb128 0x1a
 2055 08d9 01       		.uleb128 0x1
 2056 08da 51       		.byte	0x51
 2057 08db 03       		.uleb128 0x3
 2058 08dc 0A       		.byte	0xa
 2059 08dd 3001     		.2byte	0x130
 2060 08df 00       		.byte	0
 2061 08e0 19       		.uleb128 0x19
 2062 08e1 B4000000 		.4byte	.LVL36
 2063 08e5 4D0F0000 		.4byte	0xf4d
 2064 08e9 F4080000 		.4byte	0x8f4
 2065 08ed 1A       		.uleb128 0x1a
 2066 08ee 01       		.uleb128 0x1
 2067 08ef 50       		.byte	0x50
 2068 08f0 02       		.uleb128 0x2
 2069 08f1 09       		.byte	0x9
 2070 08f2 FF       		.byte	0xff
 2071 08f3 00       		.byte	0
 2072 08f4 19       		.uleb128 0x19
 2073 08f5 C4000000 		.4byte	.LVL40
 2074 08f9 970F0000 		.4byte	0xf97
 2075 08fd 13090000 		.4byte	0x913
 2076 0901 1A       		.uleb128 0x1a
 2077 0902 01       		.uleb128 0x1
 2078 0903 52       		.byte	0x52
 2079 0904 02       		.uleb128 0x2
 2080 0905 77       		.byte	0x77
 2081 0906 37       		.sleb128 55
 2082 0907 1A       		.uleb128 0x1a
 2083 0908 01       		.uleb128 0x1
ARM GAS  /tmp/cc2qSXYA.s 			page 38


 2084 0909 51       		.byte	0x51
 2085 090a 02       		.uleb128 0x2
 2086 090b 77       		.byte	0x77
 2087 090c 32       		.sleb128 50
 2088 090d 1A       		.uleb128 0x1a
 2089 090e 01       		.uleb128 0x1
 2090 090f 50       		.byte	0x50
 2091 0910 01       		.uleb128 0x1
 2092 0911 34       		.byte	0x34
 2093 0912 00       		.byte	0
 2094 0913 19       		.uleb128 0x19
 2095 0914 DA000000 		.4byte	.LVL41
 2096 0918 A10E0000 		.4byte	0xea1
 2097 091c 2E090000 		.4byte	0x92e
 2098 0920 1A       		.uleb128 0x1a
 2099 0921 01       		.uleb128 0x1
 2100 0922 51       		.byte	0x51
 2101 0923 04       		.uleb128 0x4
 2102 0924 79       		.byte	0x79
 2103 0925 00       		.sleb128 0
 2104 0926 31       		.byte	0x31
 2105 0927 29       		.byte	0x29
 2106 0928 1A       		.uleb128 0x1a
 2107 0929 01       		.uleb128 0x1
 2108 092a 50       		.byte	0x50
 2109 092b 01       		.uleb128 0x1
 2110 092c 35       		.byte	0x35
 2111 092d 00       		.byte	0
 2112 092e 19       		.uleb128 0x19
 2113 092f E6000000 		.4byte	.LVL42
 2114 0933 230F0000 		.4byte	0xf23
 2115 0937 42090000 		.4byte	0x942
 2116 093b 1A       		.uleb128 0x1a
 2117 093c 01       		.uleb128 0x1
 2118 093d 50       		.byte	0x50
 2119 093e 02       		.uleb128 0x2
 2120 093f 09       		.byte	0x9
 2121 0940 FF       		.byte	0xff
 2122 0941 00       		.byte	0
 2123 0942 19       		.uleb128 0x19
 2124 0943 F4000000 		.4byte	.LVL44
 2125 0947 A10E0000 		.4byte	0xea1
 2126 094b 55090000 		.4byte	0x955
 2127 094f 1A       		.uleb128 0x1a
 2128 0950 01       		.uleb128 0x1
 2129 0951 50       		.byte	0x50
 2130 0952 01       		.uleb128 0x1
 2131 0953 36       		.byte	0x36
 2132 0954 00       		.byte	0
 2133 0955 22       		.uleb128 0x22
 2134 0956 FC000000 		.4byte	.LVL45
 2135 095a B60F0000 		.4byte	0xfb6
 2136 095e 19       		.uleb128 0x19
 2137 095f 02010000 		.4byte	.LVL46
 2138 0963 380F0000 		.4byte	0xf38
 2139 0967 71090000 		.4byte	0x971
 2140 096b 1A       		.uleb128 0x1a
ARM GAS  /tmp/cc2qSXYA.s 			page 39


 2141 096c 01       		.uleb128 0x1
 2142 096d 50       		.byte	0x50
 2143 096e 01       		.uleb128 0x1
 2144 096f 35       		.byte	0x35
 2145 0970 00       		.byte	0
 2146 0971 19       		.uleb128 0x19
 2147 0972 0A010000 		.4byte	.LVL47
 2148 0976 BD0F0000 		.4byte	0xfbd
 2149 097a 85090000 		.4byte	0x985
 2150 097e 1A       		.uleb128 0x1a
 2151 097f 01       		.uleb128 0x1
 2152 0980 50       		.byte	0x50
 2153 0981 02       		.uleb128 0x2
 2154 0982 09       		.byte	0x9
 2155 0983 FF       		.byte	0xff
 2156 0984 00       		.byte	0
 2157 0985 19       		.uleb128 0x19
 2158 0986 1C010000 		.4byte	.LVL49
 2159 098a A10E0000 		.4byte	0xea1
 2160 098e 98090000 		.4byte	0x998
 2161 0992 1A       		.uleb128 0x1a
 2162 0993 01       		.uleb128 0x1
 2163 0994 50       		.byte	0x50
 2164 0995 01       		.uleb128 0x1
 2165 0996 37       		.byte	0x37
 2166 0997 00       		.byte	0
 2167 0998 19       		.uleb128 0x19
 2168 0999 28010000 		.4byte	.LVL50
 2169 099d 230F0000 		.4byte	0xf23
 2170 09a1 AC090000 		.4byte	0x9ac
 2171 09a5 1A       		.uleb128 0x1a
 2172 09a6 01       		.uleb128 0x1
 2173 09a7 50       		.byte	0x50
 2174 09a8 02       		.uleb128 0x2
 2175 09a9 09       		.byte	0x9
 2176 09aa FF       		.byte	0xff
 2177 09ab 00       		.byte	0
 2178 09ac 19       		.uleb128 0x19
 2179 09ad 36010000 		.4byte	.LVL52
 2180 09b1 A10E0000 		.4byte	0xea1
 2181 09b5 BF090000 		.4byte	0x9bf
 2182 09b9 1A       		.uleb128 0x1a
 2183 09ba 01       		.uleb128 0x1
 2184 09bb 50       		.byte	0x50
 2185 09bc 01       		.uleb128 0x1
 2186 09bd 38       		.byte	0x38
 2187 09be 00       		.byte	0
 2188 09bf 22       		.uleb128 0x22
 2189 09c0 40010000 		.4byte	.LVL53
 2190 09c4 620F0000 		.4byte	0xf62
 2191 09c8 19       		.uleb128 0x19
 2192 09c9 5E010000 		.4byte	.LVL55
 2193 09cd 6D0F0000 		.4byte	0xf6d
 2194 09d1 ED090000 		.4byte	0x9ed
 2195 09d5 1A       		.uleb128 0x1a
 2196 09d6 01       		.uleb128 0x1
 2197 09d7 53       		.byte	0x53
ARM GAS  /tmp/cc2qSXYA.s 			page 40


 2198 09d8 05       		.uleb128 0x5
 2199 09d9 03       		.byte	0x3
 2200 09da 00000000 		.4byte	thread1
 2201 09de 1A       		.uleb128 0x1a
 2202 09df 01       		.uleb128 0x1
 2203 09e0 51       		.byte	0x51
 2204 09e1 03       		.uleb128 0x3
 2205 09e2 0A       		.byte	0xa
 2206 09e3 3001     		.2byte	0x130
 2207 09e5 1A       		.uleb128 0x1a
 2208 09e6 01       		.uleb128 0x1
 2209 09e7 50       		.byte	0x50
 2210 09e8 03       		.uleb128 0x3
 2211 09e9 91       		.byte	0x91
 2212 09ea 44       		.sleb128 -60
 2213 09eb 06       		.byte	0x6
 2214 09ec 00       		.byte	0
 2215 09ed 19       		.uleb128 0x19
 2216 09ee 68010000 		.4byte	.LVL56
 2217 09f2 BD0F0000 		.4byte	0xfbd
 2218 09f6 010A0000 		.4byte	0xa01
 2219 09fa 1A       		.uleb128 0x1a
 2220 09fb 01       		.uleb128 0x1
 2221 09fc 50       		.byte	0x50
 2222 09fd 02       		.uleb128 0x2
 2223 09fe 09       		.byte	0x9
 2224 09ff FF       		.byte	0xff
 2225 0a00 00       		.byte	0
 2226 0a01 19       		.uleb128 0x19
 2227 0a02 78010000 		.4byte	.LVL60
 2228 0a06 970F0000 		.4byte	0xf97
 2229 0a0a 200A0000 		.4byte	0xa20
 2230 0a0e 1A       		.uleb128 0x1a
 2231 0a0f 01       		.uleb128 0x1
 2232 0a10 52       		.byte	0x52
 2233 0a11 02       		.uleb128 0x2
 2234 0a12 78       		.byte	0x78
 2235 0a13 37       		.sleb128 55
 2236 0a14 1A       		.uleb128 0x1a
 2237 0a15 01       		.uleb128 0x1
 2238 0a16 51       		.byte	0x51
 2239 0a17 02       		.uleb128 0x2
 2240 0a18 78       		.byte	0x78
 2241 0a19 32       		.sleb128 50
 2242 0a1a 1A       		.uleb128 0x1a
 2243 0a1b 01       		.uleb128 0x1
 2244 0a1c 50       		.byte	0x50
 2245 0a1d 01       		.uleb128 0x1
 2246 0a1e 39       		.byte	0x39
 2247 0a1f 00       		.byte	0
 2248 0a20 19       		.uleb128 0x19
 2249 0a21 8C010000 		.4byte	.LVL61
 2250 0a25 A10E0000 		.4byte	0xea1
 2251 0a29 3B0A0000 		.4byte	0xa3b
 2252 0a2d 1A       		.uleb128 0x1a
 2253 0a2e 01       		.uleb128 0x1
 2254 0a2f 51       		.byte	0x51
ARM GAS  /tmp/cc2qSXYA.s 			page 41


 2255 0a30 04       		.uleb128 0x4
 2256 0a31 77       		.byte	0x77
 2257 0a32 00       		.sleb128 0
 2258 0a33 30       		.byte	0x30
 2259 0a34 29       		.byte	0x29
 2260 0a35 1A       		.uleb128 0x1a
 2261 0a36 01       		.uleb128 0x1
 2262 0a37 50       		.byte	0x50
 2263 0a38 01       		.uleb128 0x1
 2264 0a39 3A       		.byte	0x3a
 2265 0a3a 00       		.byte	0
 2266 0a3b 19       		.uleb128 0x19
 2267 0a3c 9A010000 		.4byte	.LVL62
 2268 0a40 230F0000 		.4byte	0xf23
 2269 0a44 4F0A0000 		.4byte	0xa4f
 2270 0a48 1A       		.uleb128 0x1a
 2271 0a49 01       		.uleb128 0x1
 2272 0a4a 50       		.byte	0x50
 2273 0a4b 02       		.uleb128 0x2
 2274 0a4c 09       		.byte	0x9
 2275 0a4d FF       		.byte	0xff
 2276 0a4e 00       		.byte	0
 2277 0a4f 19       		.uleb128 0x19
 2278 0a50 A8010000 		.4byte	.LVL64
 2279 0a54 A10E0000 		.4byte	0xea1
 2280 0a58 620A0000 		.4byte	0xa62
 2281 0a5c 1A       		.uleb128 0x1a
 2282 0a5d 01       		.uleb128 0x1
 2283 0a5e 50       		.byte	0x50
 2284 0a5f 01       		.uleb128 0x1
 2285 0a60 3B       		.byte	0x3b
 2286 0a61 00       		.byte	0
 2287 0a62 22       		.uleb128 0x22
 2288 0a63 BE010000 		.4byte	.LVL66
 2289 0a67 B60F0000 		.4byte	0xfb6
 2290 0a6b 19       		.uleb128 0x19
 2291 0a6c D4010000 		.4byte	.LVL67
 2292 0a70 800E0000 		.4byte	0xe80
 2293 0a74 8A0A0000 		.4byte	0xa8a
 2294 0a78 1A       		.uleb128 0x1a
 2295 0a79 01       		.uleb128 0x1
 2296 0a7a 52       		.byte	0x52
 2297 0a7b 01       		.uleb128 0x1
 2298 0a7c 31       		.byte	0x31
 2299 0a7d 1A       		.uleb128 0x1a
 2300 0a7e 01       		.uleb128 0x1
 2301 0a7f 51       		.byte	0x51
 2302 0a80 02       		.uleb128 0x2
 2303 0a81 91       		.byte	0x91
 2304 0a82 48       		.sleb128 -56
 2305 0a83 1A       		.uleb128 0x1a
 2306 0a84 01       		.uleb128 0x1
 2307 0a85 50       		.byte	0x50
 2308 0a86 02       		.uleb128 0x2
 2309 0a87 79       		.byte	0x79
 2310 0a88 00       		.sleb128 0
 2311 0a89 00       		.byte	0
ARM GAS  /tmp/cc2qSXYA.s 			page 42


 2312 0a8a 19       		.uleb128 0x19
 2313 0a8b DE010000 		.4byte	.LVL68
 2314 0a8f 800E0000 		.4byte	0xe80
 2315 0a93 A90A0000 		.4byte	0xaa9
 2316 0a97 1A       		.uleb128 0x1a
 2317 0a98 01       		.uleb128 0x1
 2318 0a99 52       		.byte	0x52
 2319 0a9a 01       		.uleb128 0x1
 2320 0a9b 34       		.byte	0x34
 2321 0a9c 1A       		.uleb128 0x1a
 2322 0a9d 01       		.uleb128 0x1
 2323 0a9e 51       		.byte	0x51
 2324 0a9f 02       		.uleb128 0x2
 2325 0aa0 91       		.byte	0x91
 2326 0aa1 54       		.sleb128 -44
 2327 0aa2 1A       		.uleb128 0x1a
 2328 0aa3 01       		.uleb128 0x1
 2329 0aa4 50       		.byte	0x50
 2330 0aa5 02       		.uleb128 0x2
 2331 0aa6 78       		.byte	0x78
 2332 0aa7 00       		.sleb128 0
 2333 0aa8 00       		.byte	0
 2334 0aa9 22       		.uleb128 0x22
 2335 0aaa E2010000 		.4byte	.LVL69
 2336 0aae 620F0000 		.4byte	0xf62
 2337 0ab2 19       		.uleb128 0x19
 2338 0ab3 06020000 		.4byte	.LVL71
 2339 0ab7 6D0F0000 		.4byte	0xf6d
 2340 0abb E10A0000 		.4byte	0xae1
 2341 0abf 1A       		.uleb128 0x1a
 2342 0ac0 01       		.uleb128 0x1
 2343 0ac1 53       		.byte	0x53
 2344 0ac2 05       		.uleb128 0x5
 2345 0ac3 03       		.byte	0x3
 2346 0ac4 00000000 		.4byte	thread2
 2347 0ac8 1A       		.uleb128 0x1a
 2348 0ac9 01       		.uleb128 0x1
 2349 0aca 51       		.byte	0x51
 2350 0acb 03       		.uleb128 0x3
 2351 0acc 0A       		.byte	0xa
 2352 0acd 3001     		.2byte	0x130
 2353 0acf 1A       		.uleb128 0x1a
 2354 0ad0 01       		.uleb128 0x1
 2355 0ad1 50       		.byte	0x50
 2356 0ad2 03       		.uleb128 0x3
 2357 0ad3 91       		.byte	0x91
 2358 0ad4 44       		.sleb128 -60
 2359 0ad5 06       		.byte	0x6
 2360 0ad6 1A       		.uleb128 0x1a
 2361 0ad7 02       		.uleb128 0x2
 2362 0ad8 7D       		.byte	0x7d
 2363 0ad9 00       		.sleb128 0
 2364 0ada 05       		.uleb128 0x5
 2365 0adb 03       		.byte	0x3
 2366 0adc 04000000 		.4byte	.LC1
 2367 0ae0 00       		.byte	0
 2368 0ae1 19       		.uleb128 0x19
ARM GAS  /tmp/cc2qSXYA.s 			page 43


 2369 0ae2 0E020000 		.4byte	.LVL72
 2370 0ae6 D20F0000 		.4byte	0xfd2
 2371 0aea F40A0000 		.4byte	0xaf4
 2372 0aee 1A       		.uleb128 0x1a
 2373 0aef 01       		.uleb128 0x1
 2374 0af0 50       		.byte	0x50
 2375 0af1 01       		.uleb128 0x1
 2376 0af2 35       		.byte	0x35
 2377 0af3 00       		.byte	0
 2378 0af4 19       		.uleb128 0x19
 2379 0af5 1C020000 		.4byte	.LVL74
 2380 0af9 970F0000 		.4byte	0xf97
 2381 0afd 130B0000 		.4byte	0xb13
 2382 0b01 1A       		.uleb128 0x1a
 2383 0b02 01       		.uleb128 0x1
 2384 0b03 52       		.byte	0x52
 2385 0b04 02       		.uleb128 0x2
 2386 0b05 74       		.byte	0x74
 2387 0b06 37       		.sleb128 55
 2388 0b07 1A       		.uleb128 0x1a
 2389 0b08 01       		.uleb128 0x1
 2390 0b09 51       		.byte	0x51
 2391 0b0a 02       		.uleb128 0x2
 2392 0b0b 74       		.byte	0x74
 2393 0b0c 32       		.sleb128 50
 2394 0b0d 1A       		.uleb128 0x1a
 2395 0b0e 01       		.uleb128 0x1
 2396 0b0f 50       		.byte	0x50
 2397 0b10 01       		.uleb128 0x1
 2398 0b11 3C       		.byte	0x3c
 2399 0b12 00       		.byte	0
 2400 0b13 19       		.uleb128 0x19
 2401 0b14 2A020000 		.4byte	.LVL75
 2402 0b18 230F0000 		.4byte	0xf23
 2403 0b1c 270B0000 		.4byte	0xb27
 2404 0b20 1A       		.uleb128 0x1a
 2405 0b21 01       		.uleb128 0x1
 2406 0b22 50       		.byte	0x50
 2407 0b23 02       		.uleb128 0x2
 2408 0b24 09       		.byte	0x9
 2409 0b25 FF       		.byte	0xff
 2410 0b26 00       		.byte	0
 2411 0b27 19       		.uleb128 0x19
 2412 0b28 38020000 		.4byte	.LVL77
 2413 0b2c A10E0000 		.4byte	0xea1
 2414 0b30 3A0B0000 		.4byte	0xb3a
 2415 0b34 1A       		.uleb128 0x1a
 2416 0b35 01       		.uleb128 0x1
 2417 0b36 50       		.byte	0x50
 2418 0b37 01       		.uleb128 0x1
 2419 0b38 3D       		.byte	0x3d
 2420 0b39 00       		.byte	0
 2421 0b3a 22       		.uleb128 0x22
 2422 0b3b 42020000 		.4byte	.LVL78
 2423 0b3f B60F0000 		.4byte	0xfb6
 2424 0b43 19       		.uleb128 0x19
 2425 0b44 4A020000 		.4byte	.LVL79
ARM GAS  /tmp/cc2qSXYA.s 			page 44


 2426 0b48 BB0E0000 		.4byte	0xebb
 2427 0b4c 5D0B0000 		.4byte	0xb5d
 2428 0b50 1A       		.uleb128 0x1a
 2429 0b51 01       		.uleb128 0x1
 2430 0b52 51       		.byte	0x51
 2431 0b53 02       		.uleb128 0x2
 2432 0b54 91       		.byte	0x91
 2433 0b55 48       		.sleb128 -56
 2434 0b56 1A       		.uleb128 0x1a
 2435 0b57 01       		.uleb128 0x1
 2436 0b58 50       		.byte	0x50
 2437 0b59 02       		.uleb128 0x2
 2438 0b5a 79       		.byte	0x79
 2439 0b5b 00       		.sleb128 0
 2440 0b5c 00       		.byte	0
 2441 0b5d 19       		.uleb128 0x19
 2442 0b5e 52020000 		.4byte	.LVL80
 2443 0b62 BB0E0000 		.4byte	0xebb
 2444 0b66 770B0000 		.4byte	0xb77
 2445 0b6a 1A       		.uleb128 0x1a
 2446 0b6b 01       		.uleb128 0x1
 2447 0b6c 51       		.byte	0x51
 2448 0b6d 02       		.uleb128 0x2
 2449 0b6e 91       		.byte	0x91
 2450 0b6f 54       		.sleb128 -44
 2451 0b70 1A       		.uleb128 0x1a
 2452 0b71 01       		.uleb128 0x1
 2453 0b72 50       		.byte	0x50
 2454 0b73 02       		.uleb128 0x2
 2455 0b74 78       		.byte	0x78
 2456 0b75 00       		.sleb128 0
 2457 0b76 00       		.byte	0
 2458 0b77 19       		.uleb128 0x19
 2459 0b78 64020000 		.4byte	.LVL82
 2460 0b7c A10E0000 		.4byte	0xea1
 2461 0b80 920B0000 		.4byte	0xb92
 2462 0b84 1A       		.uleb128 0x1a
 2463 0b85 01       		.uleb128 0x1
 2464 0b86 51       		.byte	0x51
 2465 0b87 04       		.uleb128 0x4
 2466 0b88 74       		.byte	0x74
 2467 0b89 00       		.sleb128 0
 2468 0b8a 30       		.byte	0x30
 2469 0b8b 29       		.byte	0x29
 2470 0b8c 1A       		.uleb128 0x1a
 2471 0b8d 01       		.uleb128 0x1
 2472 0b8e 50       		.byte	0x50
 2473 0b8f 01       		.uleb128 0x1
 2474 0b90 3E       		.byte	0x3e
 2475 0b91 00       		.byte	0
 2476 0b92 1B       		.uleb128 0x1b
 2477 0b93 7C020000 		.4byte	.LVL83
 2478 0b97 A10E0000 		.4byte	0xea1
 2479 0b9b 1A       		.uleb128 0x1a
 2480 0b9c 01       		.uleb128 0x1
 2481 0b9d 50       		.byte	0x50
 2482 0b9e 01       		.uleb128 0x1
ARM GAS  /tmp/cc2qSXYA.s 			page 45


 2483 0b9f 3F       		.byte	0x3f
 2484 0ba0 00       		.byte	0
 2485 0ba1 00       		.byte	0
 2486 0ba2 23       		.uleb128 0x23
 2487 0ba3 94030000 		.4byte	.LASF93
 2488 0ba7 01       		.byte	0x1
 2489 0ba8 97       		.byte	0x97
 2490 0ba9 CE000000 		.4byte	0xce
 2491 0bad 00000000 		.4byte	.LFB14
 2492 0bb1 28000000 		.4byte	.LFE14-.LFB14
 2493 0bb5 01       		.uleb128 0x1
 2494 0bb6 9C       		.byte	0x9c
 2495 0bb7 110C0000 		.4byte	0xc11
 2496 0bbb 1D       		.uleb128 0x1d
 2497 0bbc 7000     		.ascii	"p\000"
 2498 0bbe 01       		.byte	0x1
 2499 0bbf 97       		.byte	0x97
 2500 0bc0 5E020000 		.4byte	0x25e
 2501 0bc4 9A010000 		.4byte	.LLST5
 2502 0bc8 19       		.uleb128 0x19
 2503 0bc9 10000000 		.4byte	.LVL86
 2504 0bcd E70F0000 		.4byte	0xfe7
 2505 0bd1 E40B0000 		.4byte	0xbe4
 2506 0bd5 1A       		.uleb128 0x1a
 2507 0bd6 01       		.uleb128 0x1
 2508 0bd7 51       		.byte	0x51
 2509 0bd8 01       		.uleb128 0x1
 2510 0bd9 30       		.byte	0x30
 2511 0bda 1A       		.uleb128 0x1a
 2512 0bdb 01       		.uleb128 0x1
 2513 0bdc 50       		.byte	0x50
 2514 0bdd 05       		.uleb128 0x5
 2515 0bde 03       		.byte	0x3
 2516 0bdf 00000000 		.4byte	.LANCHOR0
 2517 0be3 00       		.byte	0
 2518 0be4 19       		.uleb128 0x19
 2519 0be5 16000000 		.4byte	.LVL87
 2520 0be9 FD0F0000 		.4byte	0xffd
 2521 0bed F80B0000 		.4byte	0xbf8
 2522 0bf1 1A       		.uleb128 0x1a
 2523 0bf2 01       		.uleb128 0x1
 2524 0bf3 50       		.byte	0x50
 2525 0bf4 02       		.uleb128 0x2
 2526 0bf5 08       		.byte	0x8
 2527 0bf6 32       		.byte	0x32
 2528 0bf7 00       		.byte	0
 2529 0bf8 1B       		.uleb128 0x1b
 2530 0bf9 24000000 		.4byte	.LVL88
 2531 0bfd E70F0000 		.4byte	0xfe7
 2532 0c01 1A       		.uleb128 0x1a
 2533 0c02 01       		.uleb128 0x1
 2534 0c03 51       		.byte	0x51
 2535 0c04 01       		.uleb128 0x1
 2536 0c05 30       		.byte	0x30
 2537 0c06 1A       		.uleb128 0x1a
 2538 0c07 01       		.uleb128 0x1
 2539 0c08 50       		.byte	0x50
ARM GAS  /tmp/cc2qSXYA.s 			page 46


 2540 0c09 05       		.uleb128 0x5
 2541 0c0a 03       		.byte	0x3
 2542 0c0b 00000000 		.4byte	.LANCHOR2
 2543 0c0f 00       		.byte	0
 2544 0c10 00       		.byte	0
 2545 0c11 23       		.uleb128 0x23
 2546 0c12 8C030000 		.4byte	.LASF94
 2547 0c16 01       		.byte	0x1
 2548 0c17 90       		.byte	0x90
 2549 0c18 CE000000 		.4byte	0xce
 2550 0c1c 00000000 		.4byte	.LFB13
 2551 0c20 16000000 		.4byte	.LFE13-.LFB13
 2552 0c24 01       		.uleb128 0x1
 2553 0c25 9C       		.byte	0x9c
 2554 0c26 610C0000 		.4byte	0xc61
 2555 0c2a 1D       		.uleb128 0x1d
 2556 0c2b 7000     		.ascii	"p\000"
 2557 0c2d 01       		.byte	0x1
 2558 0c2e 90       		.byte	0x90
 2559 0c2f 5E020000 		.4byte	0x25e
 2560 0c33 BB010000 		.4byte	.LLST6
 2561 0c37 19       		.uleb128 0x19
 2562 0c38 0A000000 		.4byte	.LVL91
 2563 0c3c FD0F0000 		.4byte	0xffd
 2564 0c40 4B0C0000 		.4byte	0xc4b
 2565 0c44 1A       		.uleb128 0x1a
 2566 0c45 01       		.uleb128 0x1
 2567 0c46 50       		.byte	0x50
 2568 0c47 02       		.uleb128 0x2
 2569 0c48 08       		.byte	0x8
 2570 0c49 32       		.byte	0x32
 2571 0c4a 00       		.byte	0
 2572 0c4b 1B       		.uleb128 0x1b
 2573 0c4c 12000000 		.4byte	.LVL92
 2574 0c50 0F100000 		.4byte	0x100f
 2575 0c54 1A       		.uleb128 0x1a
 2576 0c55 01       		.uleb128 0x1
 2577 0c56 51       		.byte	0x51
 2578 0c57 01       		.uleb128 0x1
 2579 0c58 31       		.byte	0x31
 2580 0c59 1A       		.uleb128 0x1a
 2581 0c5a 01       		.uleb128 0x1
 2582 0c5b 50       		.byte	0x50
 2583 0c5c 02       		.uleb128 0x2
 2584 0c5d 74       		.byte	0x74
 2585 0c5e 00       		.sleb128 0
 2586 0c5f 00       		.byte	0
 2587 0c60 00       		.byte	0
 2588 0c61 24       		.uleb128 0x24
 2589 0c62 9F050000 		.4byte	0x59f
 2590 0c66 00000000 		.4byte	.LFB17
 2591 0c6a AA000000 		.4byte	.LFE17-.LFB17
 2592 0c6e 01       		.uleb128 0x1
 2593 0c6f 9C       		.byte	0x9c
 2594 0c70 870D0000 		.4byte	0xd87
 2595 0c74 25       		.uleb128 0x25
 2596 0c75 AC050000 		.4byte	0x5ac
ARM GAS  /tmp/cc2qSXYA.s 			page 47


 2597 0c79 D9010000 		.4byte	.LLST7
 2598 0c7d 26       		.uleb128 0x26
 2599 0c7e 00000000 		.4byte	.Ldebug_ranges0+0
 2600 0c82 100D0000 		.4byte	0xd10
 2601 0c86 25       		.uleb128 0x25
 2602 0c87 AC050000 		.4byte	0x5ac
 2603 0c8b 02020000 		.4byte	.LLST8
 2604 0c8f 19       		.uleb128 0x19
 2605 0c90 60000000 		.4byte	.LVL102
 2606 0c94 25100000 		.4byte	0x1025
 2607 0c98 A80C0000 		.4byte	0xca8
 2608 0c9c 1A       		.uleb128 0x1a
 2609 0c9d 01       		.uleb128 0x1
 2610 0c9e 51       		.byte	0x51
 2611 0c9f 01       		.uleb128 0x1
 2612 0ca0 3A       		.byte	0x3a
 2613 0ca1 1A       		.uleb128 0x1a
 2614 0ca2 01       		.uleb128 0x1
 2615 0ca3 50       		.byte	0x50
 2616 0ca4 02       		.uleb128 0x2
 2617 0ca5 09       		.byte	0x9
 2618 0ca6 FF       		.byte	0xff
 2619 0ca7 00       		.byte	0
 2620 0ca8 19       		.uleb128 0x19
 2621 0ca9 6E000000 		.4byte	.LVL104
 2622 0cad A10E0000 		.4byte	0xea1
 2623 0cb1 BB0C0000 		.4byte	0xcbb
 2624 0cb5 1A       		.uleb128 0x1a
 2625 0cb6 01       		.uleb128 0x1
 2626 0cb7 50       		.byte	0x50
 2627 0cb8 01       		.uleb128 0x1
 2628 0cb9 34       		.byte	0x34
 2629 0cba 00       		.byte	0
 2630 0cbb 19       		.uleb128 0x19
 2631 0cbc 7C000000 		.4byte	.LVL105
 2632 0cc0 3F100000 		.4byte	0x103f
 2633 0cc4 D40C0000 		.4byte	0xcd4
 2634 0cc8 1A       		.uleb128 0x1a
 2635 0cc9 01       		.uleb128 0x1
 2636 0cca 51       		.byte	0x51
 2637 0ccb 01       		.uleb128 0x1
 2638 0ccc 3A       		.byte	0x3a
 2639 0ccd 1A       		.uleb128 0x1a
 2640 0cce 01       		.uleb128 0x1
 2641 0ccf 50       		.byte	0x50
 2642 0cd0 02       		.uleb128 0x2
 2643 0cd1 09       		.byte	0x9
 2644 0cd2 FF       		.byte	0xff
 2645 0cd3 00       		.byte	0
 2646 0cd4 19       		.uleb128 0x19
 2647 0cd5 8A000000 		.4byte	.LVL107
 2648 0cd9 A10E0000 		.4byte	0xea1
 2649 0cdd E70C0000 		.4byte	0xce7
 2650 0ce1 1A       		.uleb128 0x1a
 2651 0ce2 01       		.uleb128 0x1
 2652 0ce3 50       		.byte	0x50
 2653 0ce4 01       		.uleb128 0x1
ARM GAS  /tmp/cc2qSXYA.s 			page 48


 2654 0ce5 35       		.byte	0x35
 2655 0ce6 00       		.byte	0
 2656 0ce7 19       		.uleb128 0x19
 2657 0ce8 98000000 		.4byte	.LVL108
 2658 0cec 59100000 		.4byte	0x1059
 2659 0cf0 000D0000 		.4byte	0xd00
 2660 0cf4 1A       		.uleb128 0x1a
 2661 0cf5 01       		.uleb128 0x1
 2662 0cf6 51       		.byte	0x51
 2663 0cf7 01       		.uleb128 0x1
 2664 0cf8 3A       		.byte	0x3a
 2665 0cf9 1A       		.uleb128 0x1a
 2666 0cfa 01       		.uleb128 0x1
 2667 0cfb 50       		.byte	0x50
 2668 0cfc 02       		.uleb128 0x2
 2669 0cfd 09       		.byte	0x9
 2670 0cfe FF       		.byte	0xff
 2671 0cff 00       		.byte	0
 2672 0d00 1E       		.uleb128 0x1e
 2673 0d01 AA000000 		.4byte	.LVL110
 2674 0d05 A10E0000 		.4byte	0xea1
 2675 0d09 1A       		.uleb128 0x1a
 2676 0d0a 01       		.uleb128 0x1
 2677 0d0b 50       		.byte	0x50
 2678 0d0c 01       		.uleb128 0x1
 2679 0d0d 36       		.byte	0x36
 2680 0d0e 00       		.byte	0
 2681 0d0f 00       		.byte	0
 2682 0d10 19       		.uleb128 0x19
 2683 0d11 0C000000 		.4byte	.LVL93
 2684 0d15 25100000 		.4byte	0x1025
 2685 0d19 290D0000 		.4byte	0xd29
 2686 0d1d 1A       		.uleb128 0x1a
 2687 0d1e 01       		.uleb128 0x1
 2688 0d1f 51       		.byte	0x51
 2689 0d20 01       		.uleb128 0x1
 2690 0d21 30       		.byte	0x30
 2691 0d22 1A       		.uleb128 0x1a
 2692 0d23 01       		.uleb128 0x1
 2693 0d24 50       		.byte	0x50
 2694 0d25 02       		.uleb128 0x2
 2695 0d26 09       		.byte	0x9
 2696 0d27 FF       		.byte	0xff
 2697 0d28 00       		.byte	0
 2698 0d29 19       		.uleb128 0x19
 2699 0d2a 1A000000 		.4byte	.LVL95
 2700 0d2e A10E0000 		.4byte	0xea1
 2701 0d32 3C0D0000 		.4byte	0xd3c
 2702 0d36 1A       		.uleb128 0x1a
 2703 0d37 01       		.uleb128 0x1
 2704 0d38 50       		.byte	0x50
 2705 0d39 01       		.uleb128 0x1
 2706 0d3a 31       		.byte	0x31
 2707 0d3b 00       		.byte	0
 2708 0d3c 19       		.uleb128 0x19
 2709 0d3d 28000000 		.4byte	.LVL96
 2710 0d41 3F100000 		.4byte	0x103f
ARM GAS  /tmp/cc2qSXYA.s 			page 49


 2711 0d45 500D0000 		.4byte	0xd50
 2712 0d49 1A       		.uleb128 0x1a
 2713 0d4a 01       		.uleb128 0x1
 2714 0d4b 50       		.byte	0x50
 2715 0d4c 02       		.uleb128 0x2
 2716 0d4d 09       		.byte	0x9
 2717 0d4e FF       		.byte	0xff
 2718 0d4f 00       		.byte	0
 2719 0d50 19       		.uleb128 0x19
 2720 0d51 36000000 		.4byte	.LVL98
 2721 0d55 A10E0000 		.4byte	0xea1
 2722 0d59 630D0000 		.4byte	0xd63
 2723 0d5d 1A       		.uleb128 0x1a
 2724 0d5e 01       		.uleb128 0x1
 2725 0d5f 50       		.byte	0x50
 2726 0d60 01       		.uleb128 0x1
 2727 0d61 32       		.byte	0x32
 2728 0d62 00       		.byte	0
 2729 0d63 19       		.uleb128 0x19
 2730 0d64 44000000 		.4byte	.LVL99
 2731 0d68 59100000 		.4byte	0x1059
 2732 0d6c 770D0000 		.4byte	0xd77
 2733 0d70 1A       		.uleb128 0x1a
 2734 0d71 01       		.uleb128 0x1
 2735 0d72 50       		.byte	0x50
 2736 0d73 02       		.uleb128 0x2
 2737 0d74 09       		.byte	0x9
 2738 0d75 FF       		.byte	0xff
 2739 0d76 00       		.byte	0
 2740 0d77 1B       		.uleb128 0x1b
 2741 0d78 52000000 		.4byte	.LVL101
 2742 0d7c A10E0000 		.4byte	0xea1
 2743 0d80 1A       		.uleb128 0x1a
 2744 0d81 01       		.uleb128 0x1
 2745 0d82 50       		.byte	0x50
 2746 0d83 01       		.uleb128 0x1
 2747 0d84 33       		.byte	0x33
 2748 0d85 00       		.byte	0
 2749 0d86 00       		.byte	0
 2750 0d87 18       		.uleb128 0x18
 2751 0d88 65733100 		.ascii	"es1\000"
 2752 0d8c 01       		.byte	0x1
 2753 0d8d 46       		.byte	0x46
 2754 0d8e C7040000 		.4byte	0x4c7
 2755 0d92 05       		.uleb128 0x5
 2756 0d93 03       		.byte	0x3
 2757 0d94 00000000 		.4byte	es1
 2758 0d98 18       		.uleb128 0x18
 2759 0d99 65733200 		.ascii	"es2\000"
 2760 0d9d 01       		.byte	0x1
 2761 0d9e 47       		.byte	0x47
 2762 0d9f C7040000 		.4byte	0x4c7
 2763 0da3 05       		.uleb128 0x5
 2764 0da4 03       		.byte	0x3
 2765 0da5 00000000 		.4byte	es2
 2766 0da9 27       		.uleb128 0x27
 2767 0daa D2040000 		.4byte	0x4d2
ARM GAS  /tmp/cc2qSXYA.s 			page 50


 2768 0dae B90D0000 		.4byte	0xdb9
 2769 0db2 28       		.uleb128 0x28
 2770 0db3 FC020000 		.4byte	0x2fc
 2771 0db7 02       		.byte	0x2
 2772 0db8 00       		.byte	0
 2773 0db9 29       		.uleb128 0x29
 2774 0dba EA040000 		.4byte	.LASF95
 2775 0dbe 01       		.byte	0x1
 2776 0dbf 5E       		.byte	0x5e
 2777 0dc0 CA0D0000 		.4byte	0xdca
 2778 0dc4 05       		.uleb128 0x5
 2779 0dc5 03       		.byte	0x3
 2780 0dc6 00000000 		.4byte	evhndl
 2781 0dca 12       		.uleb128 0x12
 2782 0dcb A90D0000 		.4byte	0xda9
 2783 0dcf 2A       		.uleb128 0x2a
 2784 0dd0 54000000 		.4byte	.LASF96
 2785 0dd4 08       		.byte	0x8
 2786 0dd5 7A       		.byte	0x7a
 2787 0dd6 B7030000 		.4byte	0x3b7
 2788 0dda 2A       		.uleb128 0x2a
 2789 0ddb 75050000 		.4byte	.LASF97
 2790 0ddf 09       		.byte	0x9
 2791 0de0 72       		.byte	0x72
 2792 0de1 1F040000 		.4byte	0x41f
 2793 0de5 27       		.uleb128 0x27
 2794 0de6 22020000 		.4byte	0x222
 2795 0dea F50D0000 		.4byte	0xdf5
 2796 0dee 28       		.uleb128 0x28
 2797 0def FC020000 		.4byte	0x2fc
 2798 0df3 04       		.byte	0x4
 2799 0df4 00       		.byte	0
 2800 0df5 2A       		.uleb128 0x2a
 2801 0df6 A1040000 		.4byte	.LASF98
 2802 0dfa 0C       		.byte	0xc
 2803 0dfb B0       		.byte	0xb0
 2804 0dfc E50D0000 		.4byte	0xde5
 2805 0e00 27       		.uleb128 0x27
 2806 0e01 5E020000 		.4byte	0x25e
 2807 0e05 0B0E0000 		.4byte	0xe0b
 2808 0e09 2B       		.uleb128 0x2b
 2809 0e0a 00       		.byte	0
 2810 0e0b 2C       		.uleb128 0x2c
 2811 0e0c 776100   		.ascii	"wa\000"
 2812 0e0f 0C       		.byte	0xc
 2813 0e10 B2       		.byte	0xb2
 2814 0e11 150E0000 		.4byte	0xe15
 2815 0e15 12       		.uleb128 0x12
 2816 0e16 000E0000 		.4byte	0xe00
 2817 0e1a 2D       		.uleb128 0x2d
 2818 0e1b E1040000 		.4byte	.LASF99
 2819 0e1f 01       		.byte	0x1
 2820 0e20 76       		.byte	0x76
 2821 0e21 2B0E0000 		.4byte	0xe2b
 2822 0e25 05       		.uleb128 0x5
 2823 0e26 03       		.byte	0x3
 2824 0e27 00000000 		.4byte	testevt1
ARM GAS  /tmp/cc2qSXYA.s 			page 51


 2825 0e2b 12       		.uleb128 0x12
 2826 0e2c 5B050000 		.4byte	0x55b
 2827 0e30 2D       		.uleb128 0x2d
 2828 0e31 E5010000 		.4byte	.LASF100
 2829 0e35 01       		.byte	0x1
 2830 0e36 EB       		.byte	0xeb
 2831 0e37 2B0E0000 		.4byte	0xe2b
 2832 0e3b 05       		.uleb128 0x5
 2833 0e3c 03       		.byte	0x3
 2834 0e3d 00000000 		.4byte	testevt2
 2835 0e41 2E       		.uleb128 0x2e
 2836 0e42 FB010000 		.4byte	.LASF101
 2837 0e46 01       		.byte	0x1
 2838 0e47 1B01     		.2byte	0x11b
 2839 0e49 2B0E0000 		.4byte	0xe2b
 2840 0e4d 05       		.uleb128 0x5
 2841 0e4e 03       		.byte	0x3
 2842 0e4f 00000000 		.4byte	testevt3
 2843 0e53 27       		.uleb128 0x27
 2844 0e54 630E0000 		.4byte	0xe63
 2845 0e58 630E0000 		.4byte	0xe63
 2846 0e5c 28       		.uleb128 0x28
 2847 0e5d FC020000 		.4byte	0x2fc
 2848 0e61 03       		.byte	0x3
 2849 0e62 00       		.byte	0
 2850 0e63 09       		.uleb128 0x9
 2851 0e64 04       		.byte	0x4
 2852 0e65 2B0E0000 		.4byte	0xe2b
 2853 0e69 2E       		.uleb128 0x2e
 2854 0e6a A2020000 		.4byte	.LASF102
 2855 0e6e 01       		.byte	0x1
 2856 0e6f 2601     		.2byte	0x126
 2857 0e71 7B0E0000 		.4byte	0xe7b
 2858 0e75 05       		.uleb128 0x5
 2859 0e76 03       		.byte	0x3
 2860 0e77 00000000 		.4byte	patternevt
 2861 0e7b 12       		.uleb128 0x12
 2862 0e7c 530E0000 		.4byte	0xe53
 2863 0e80 2F       		.uleb128 0x2f
 2864 0e81 CD020000 		.4byte	.LASF103
 2865 0e85 0B       		.byte	0xb
 2866 0e86 AA       		.byte	0xaa
 2867 0e87 9B0E0000 		.4byte	0xe9b
 2868 0e8b 0E       		.uleb128 0xe
 2869 0e8c 9B0E0000 		.4byte	0xe9b
 2870 0e90 0E       		.uleb128 0xe
 2871 0e91 A8040000 		.4byte	0x4a8
 2872 0e95 0E       		.uleb128 0xe
 2873 0e96 E4000000 		.4byte	0xe4
 2874 0e9a 00       		.byte	0
 2875 0e9b 09       		.uleb128 0x9
 2876 0e9c 04       		.byte	0x4
 2877 0e9d C7040000 		.4byte	0x4c7
 2878 0ea1 30       		.uleb128 0x30
 2879 0ea2 B3050000 		.4byte	.LASF106
 2880 0ea6 0C       		.byte	0xc
 2881 0ea7 63       		.byte	0x63
ARM GAS  /tmp/cc2qSXYA.s 			page 52


 2882 0ea8 97000000 		.4byte	0x97
 2883 0eac BB0E0000 		.4byte	0xebb
 2884 0eb0 0E       		.uleb128 0xe
 2885 0eb1 37000000 		.4byte	0x37
 2886 0eb5 0E       		.uleb128 0xe
 2887 0eb6 97000000 		.4byte	0x97
 2888 0eba 00       		.byte	0
 2889 0ebb 2F       		.uleb128 0x2f
 2890 0ebc ED020000 		.4byte	.LASF104
 2891 0ec0 0B       		.byte	0xb
 2892 0ec1 AD       		.byte	0xad
 2893 0ec2 D10E0000 		.4byte	0xed1
 2894 0ec6 0E       		.uleb128 0xe
 2895 0ec7 9B0E0000 		.4byte	0xe9b
 2896 0ecb 0E       		.uleb128 0xe
 2897 0ecc A8040000 		.4byte	0x4a8
 2898 0ed0 00       		.byte	0
 2899 0ed1 2F       		.uleb128 0x2f
 2900 0ed2 59030000 		.4byte	.LASF105
 2901 0ed6 0B       		.byte	0xb
 2902 0ed7 B4       		.byte	0xb4
 2903 0ed8 E70E0000 		.4byte	0xee7
 2904 0edc 0E       		.uleb128 0xe
 2905 0edd E70E0000 		.4byte	0xee7
 2906 0ee1 0E       		.uleb128 0xe
 2907 0ee2 E4000000 		.4byte	0xe4
 2908 0ee6 00       		.byte	0
 2909 0ee7 09       		.uleb128 0x9
 2910 0ee8 04       		.byte	0x4
 2911 0ee9 ED0E0000 		.4byte	0xeed
 2912 0eed 12       		.uleb128 0x12
 2913 0eee D2040000 		.4byte	0x4d2
 2914 0ef2 30       		.uleb128 0x30
 2915 0ef3 DD030000 		.4byte	.LASF107
 2916 0ef7 0C       		.byte	0xc
 2917 0ef8 64       		.byte	0x64
 2918 0ef9 97000000 		.4byte	0x97
 2919 0efd 0C0F0000 		.4byte	0xf0c
 2920 0f01 0E       		.uleb128 0xe
 2921 0f02 37000000 		.4byte	0x37
 2922 0f06 0E       		.uleb128 0xe
 2923 0f07 0C0F0000 		.4byte	0xf0c
 2924 0f0b 00       		.byte	0
 2925 0f0c 09       		.uleb128 0x9
 2926 0f0d 04       		.byte	0x4
 2927 0f0e 2E050000 		.4byte	0x52e
 2928 0f12 2F       		.uleb128 0x2f
 2929 0f13 90010000 		.4byte	.LASF108
 2930 0f17 0C       		.byte	0xc
 2931 0f18 61       		.byte	0x61
 2932 0f19 230F0000 		.4byte	0xf23
 2933 0f1d 0E       		.uleb128 0xe
 2934 0f1e 2E050000 		.4byte	0x52e
 2935 0f22 00       		.byte	0
 2936 0f23 30       		.uleb128 0x30
 2937 0f24 39040000 		.4byte	.LASF109
 2938 0f28 0B       		.byte	0xb
ARM GAS  /tmp/cc2qSXYA.s 			page 53


 2939 0f29 AE       		.byte	0xae
 2940 0f2a E4000000 		.4byte	0xe4
 2941 0f2e 380F0000 		.4byte	0xf38
 2942 0f32 0E       		.uleb128 0xe
 2943 0f33 E4000000 		.4byte	0xe4
 2944 0f37 00       		.byte	0
 2945 0f38 30       		.uleb128 0x30
 2946 0f39 A0010000 		.4byte	.LASF110
 2947 0f3d 0B       		.byte	0xb
 2948 0f3e AF       		.byte	0xaf
 2949 0f3f E4000000 		.4byte	0xe4
 2950 0f43 4D0F0000 		.4byte	0xf4d
 2951 0f47 0E       		.uleb128 0xe
 2952 0f48 E4000000 		.4byte	0xe4
 2953 0f4c 00       		.byte	0
 2954 0f4d 30       		.uleb128 0x30
 2955 0f4e 5F040000 		.4byte	.LASF111
 2956 0f52 0B       		.byte	0xb
 2957 0f53 B6       		.byte	0xb6
 2958 0f54 E4000000 		.4byte	0xe4
 2959 0f58 620F0000 		.4byte	0xf62
 2960 0f5c 0E       		.uleb128 0xe
 2961 0f5d E4000000 		.4byte	0xe4
 2962 0f61 00       		.byte	0
 2963 0f62 31       		.uleb128 0x31
 2964 0f63 F2050000 		.4byte	.LASF126
 2965 0f67 0C       		.byte	0xc
 2966 0f68 68       		.byte	0x68
 2967 0f69 EF000000 		.4byte	0xef
 2968 0f6d 32       		.uleb128 0x32
 2969 0f6e 23030000 		.4byte	.LASF112
 2970 0f72 06       		.byte	0x6
 2971 0f73 6401     		.2byte	0x164
 2972 0f75 22020000 		.4byte	0x222
 2973 0f79 970F0000 		.4byte	0xf97
 2974 0f7d 0E       		.uleb128 0xe
 2975 0f7e 5E020000 		.4byte	0x25e
 2976 0f82 0E       		.uleb128 0xe
 2977 0f83 2C000000 		.4byte	0x2c
 2978 0f87 0E       		.uleb128 0xe
 2979 0f88 C3000000 		.4byte	0xc3
 2980 0f8c 0E       		.uleb128 0xe
 2981 0f8d 3B050000 		.4byte	0x53b
 2982 0f91 0E       		.uleb128 0xe
 2983 0f92 5E020000 		.4byte	0x25e
 2984 0f96 00       		.byte	0
 2985 0f97 30       		.uleb128 0x30
 2986 0f98 CC010000 		.4byte	.LASF113
 2987 0f9c 0C       		.byte	0xc
 2988 0f9d 65       		.byte	0x65
 2989 0f9e 97000000 		.4byte	0x97
 2990 0fa2 B60F0000 		.4byte	0xfb6
 2991 0fa6 0E       		.uleb128 0xe
 2992 0fa7 37000000 		.4byte	0x37
 2993 0fab 0E       		.uleb128 0xe
 2994 0fac EF000000 		.4byte	0xef
 2995 0fb0 0E       		.uleb128 0xe
ARM GAS  /tmp/cc2qSXYA.s 			page 54


 2996 0fb1 EF000000 		.4byte	0xef
 2997 0fb5 00       		.byte	0
 2998 0fb6 33       		.uleb128 0x33
 2999 0fb7 72030000 		.4byte	.LASF127
 3000 0fbb 0C       		.byte	0xc
 3001 0fbc 67       		.byte	0x67
 3002 0fbd 30       		.uleb128 0x30
 3003 0fbe EE010000 		.4byte	.LASF114
 3004 0fc2 0B       		.byte	0xb
 3005 0fc3 B7       		.byte	0xb7
 3006 0fc4 E4000000 		.4byte	0xe4
 3007 0fc8 D20F0000 		.4byte	0xfd2
 3008 0fcc 0E       		.uleb128 0xe
 3009 0fcd E4000000 		.4byte	0xe4
 3010 0fd1 00       		.byte	0
 3011 0fd2 30       		.uleb128 0x30
 3012 0fd3 F3030000 		.4byte	.LASF115
 3013 0fd7 0B       		.byte	0xb
 3014 0fd8 B8       		.byte	0xb8
 3015 0fd9 E4000000 		.4byte	0xe4
 3016 0fdd E70F0000 		.4byte	0xfe7
 3017 0fe1 0E       		.uleb128 0xe
 3018 0fe2 E4000000 		.4byte	0xe4
 3019 0fe6 00       		.byte	0
 3020 0fe7 2F       		.uleb128 0x2f
 3021 0fe8 25020000 		.4byte	.LASF116
 3022 0fec 0B       		.byte	0xb
 3023 0fed B2       		.byte	0xb2
 3024 0fee FD0F0000 		.4byte	0xffd
 3025 0ff2 0E       		.uleb128 0xe
 3026 0ff3 9B0E0000 		.4byte	0xe9b
 3027 0ff7 0E       		.uleb128 0xe
 3028 0ff8 E4000000 		.4byte	0xe4
 3029 0ffc 00       		.byte	0
 3030 0ffd 34       		.uleb128 0x34
 3031 0ffe 59050000 		.4byte	.LASF117
 3032 1002 06       		.byte	0x6
 3033 1003 6901     		.2byte	0x169
 3034 1005 0F100000 		.4byte	0x100f
 3035 1009 0E       		.uleb128 0xe
 3036 100a EF000000 		.4byte	0xef
 3037 100e 00       		.byte	0
 3038 100f 2F       		.uleb128 0x2f
 3039 1010 61020000 		.4byte	.LASF118
 3040 1014 0B       		.byte	0xb
 3041 1015 B0       		.byte	0xb0
 3042 1016 25100000 		.4byte	0x1025
 3043 101a 0E       		.uleb128 0xe
 3044 101b 22020000 		.4byte	0x222
 3045 101f 0E       		.uleb128 0xe
 3046 1020 E4000000 		.4byte	0xe4
 3047 1024 00       		.byte	0
 3048 1025 30       		.uleb128 0x30
 3049 1026 91050000 		.4byte	.LASF119
 3050 102a 0B       		.byte	0xb
 3051 102b BB       		.byte	0xbb
 3052 102c E4000000 		.4byte	0xe4
ARM GAS  /tmp/cc2qSXYA.s 			page 55


 3053 1030 3F100000 		.4byte	0x103f
 3054 1034 0E       		.uleb128 0xe
 3055 1035 E4000000 		.4byte	0xe4
 3056 1039 0E       		.uleb128 0xe
 3057 103a EF000000 		.4byte	0xef
 3058 103e 00       		.byte	0
 3059 103f 30       		.uleb128 0x30
 3060 1040 23010000 		.4byte	.LASF120
 3061 1044 0B       		.byte	0xb
 3062 1045 BC       		.byte	0xbc
 3063 1046 E4000000 		.4byte	0xe4
 3064 104a 59100000 		.4byte	0x1059
 3065 104e 0E       		.uleb128 0xe
 3066 104f E4000000 		.4byte	0xe4
 3067 1053 0E       		.uleb128 0xe
 3068 1054 EF000000 		.4byte	0xef
 3069 1058 00       		.byte	0
 3070 1059 35       		.uleb128 0x35
 3071 105a 65010000 		.4byte	.LASF121
 3072 105e 0B       		.byte	0xb
 3073 105f BD       		.byte	0xbd
 3074 1060 E4000000 		.4byte	0xe4
 3075 1064 0E       		.uleb128 0xe
 3076 1065 E4000000 		.4byte	0xe4
 3077 1069 0E       		.uleb128 0xe
 3078 106a EF000000 		.4byte	0xef
 3079 106e 00       		.byte	0
 3080 106f 00       		.byte	0
 3081              		.section	.debug_abbrev,"",%progbits
 3082              	.Ldebug_abbrev0:
 3083 0000 01       		.uleb128 0x1
 3084 0001 11       		.uleb128 0x11
 3085 0002 01       		.byte	0x1
 3086 0003 25       		.uleb128 0x25
 3087 0004 0E       		.uleb128 0xe
 3088 0005 13       		.uleb128 0x13
 3089 0006 0B       		.uleb128 0xb
 3090 0007 03       		.uleb128 0x3
 3091 0008 0E       		.uleb128 0xe
 3092 0009 1B       		.uleb128 0x1b
 3093 000a 0E       		.uleb128 0xe
 3094 000b 55       		.uleb128 0x55
 3095 000c 17       		.uleb128 0x17
 3096 000d 11       		.uleb128 0x11
 3097 000e 01       		.uleb128 0x1
 3098 000f 10       		.uleb128 0x10
 3099 0010 17       		.uleb128 0x17
 3100 0011 00       		.byte	0
 3101 0012 00       		.byte	0
 3102 0013 02       		.uleb128 0x2
 3103 0014 24       		.uleb128 0x24
 3104 0015 00       		.byte	0
 3105 0016 0B       		.uleb128 0xb
 3106 0017 0B       		.uleb128 0xb
 3107 0018 3E       		.uleb128 0x3e
 3108 0019 0B       		.uleb128 0xb
 3109 001a 03       		.uleb128 0x3
ARM GAS  /tmp/cc2qSXYA.s 			page 56


 3110 001b 08       		.uleb128 0x8
 3111 001c 00       		.byte	0
 3112 001d 00       		.byte	0
 3113 001e 03       		.uleb128 0x3
 3114 001f 16       		.uleb128 0x16
 3115 0020 00       		.byte	0
 3116 0021 03       		.uleb128 0x3
 3117 0022 0E       		.uleb128 0xe
 3118 0023 3A       		.uleb128 0x3a
 3119 0024 0B       		.uleb128 0xb
 3120 0025 3B       		.uleb128 0x3b
 3121 0026 0B       		.uleb128 0xb
 3122 0027 49       		.uleb128 0x49
 3123 0028 13       		.uleb128 0x13
 3124 0029 00       		.byte	0
 3125 002a 00       		.byte	0
 3126 002b 04       		.uleb128 0x4
 3127 002c 24       		.uleb128 0x24
 3128 002d 00       		.byte	0
 3129 002e 0B       		.uleb128 0xb
 3130 002f 0B       		.uleb128 0xb
 3131 0030 3E       		.uleb128 0x3e
 3132 0031 0B       		.uleb128 0xb
 3133 0032 03       		.uleb128 0x3
 3134 0033 0E       		.uleb128 0xe
 3135 0034 00       		.byte	0
 3136 0035 00       		.byte	0
 3137 0036 05       		.uleb128 0x5
 3138 0037 13       		.uleb128 0x13
 3139 0038 01       		.byte	0x1
 3140 0039 03       		.uleb128 0x3
 3141 003a 0E       		.uleb128 0xe
 3142 003b 0B       		.uleb128 0xb
 3143 003c 0B       		.uleb128 0xb
 3144 003d 3A       		.uleb128 0x3a
 3145 003e 0B       		.uleb128 0xb
 3146 003f 3B       		.uleb128 0x3b
 3147 0040 0B       		.uleb128 0xb
 3148 0041 01       		.uleb128 0x1
 3149 0042 13       		.uleb128 0x13
 3150 0043 00       		.byte	0
 3151 0044 00       		.byte	0
 3152 0045 06       		.uleb128 0x6
 3153 0046 0D       		.uleb128 0xd
 3154 0047 00       		.byte	0
 3155 0048 03       		.uleb128 0x3
 3156 0049 0E       		.uleb128 0xe
 3157 004a 3A       		.uleb128 0x3a
 3158 004b 0B       		.uleb128 0xb
 3159 004c 3B       		.uleb128 0x3b
 3160 004d 0B       		.uleb128 0xb
 3161 004e 49       		.uleb128 0x49
 3162 004f 13       		.uleb128 0x13
 3163 0050 38       		.uleb128 0x38
 3164 0051 0B       		.uleb128 0xb
 3165 0052 00       		.byte	0
 3166 0053 00       		.byte	0
ARM GAS  /tmp/cc2qSXYA.s 			page 57


 3167 0054 07       		.uleb128 0x7
 3168 0055 0D       		.uleb128 0xd
 3169 0056 00       		.byte	0
 3170 0057 03       		.uleb128 0x3
 3171 0058 08       		.uleb128 0x8
 3172 0059 3A       		.uleb128 0x3a
 3173 005a 0B       		.uleb128 0xb
 3174 005b 3B       		.uleb128 0x3b
 3175 005c 0B       		.uleb128 0xb
 3176 005d 49       		.uleb128 0x49
 3177 005e 13       		.uleb128 0x13
 3178 005f 38       		.uleb128 0x38
 3179 0060 0B       		.uleb128 0xb
 3180 0061 00       		.byte	0
 3181 0062 00       		.byte	0
 3182 0063 08       		.uleb128 0x8
 3183 0064 13       		.uleb128 0x13
 3184 0065 01       		.byte	0x1
 3185 0066 0B       		.uleb128 0xb
 3186 0067 0B       		.uleb128 0xb
 3187 0068 3A       		.uleb128 0x3a
 3188 0069 0B       		.uleb128 0xb
 3189 006a 3B       		.uleb128 0x3b
 3190 006b 0B       		.uleb128 0xb
 3191 006c 01       		.uleb128 0x1
 3192 006d 13       		.uleb128 0x13
 3193 006e 00       		.byte	0
 3194 006f 00       		.byte	0
 3195 0070 09       		.uleb128 0x9
 3196 0071 0F       		.uleb128 0xf
 3197 0072 00       		.byte	0
 3198 0073 0B       		.uleb128 0xb
 3199 0074 0B       		.uleb128 0xb
 3200 0075 49       		.uleb128 0x49
 3201 0076 13       		.uleb128 0x13
 3202 0077 00       		.byte	0
 3203 0078 00       		.byte	0
 3204 0079 0A       		.uleb128 0xa
 3205 007a 0F       		.uleb128 0xf
 3206 007b 00       		.byte	0
 3207 007c 0B       		.uleb128 0xb
 3208 007d 0B       		.uleb128 0xb
 3209 007e 00       		.byte	0
 3210 007f 00       		.byte	0
 3211 0080 0B       		.uleb128 0xb
 3212 0081 0D       		.uleb128 0xd
 3213 0082 00       		.byte	0
 3214 0083 03       		.uleb128 0x3
 3215 0084 08       		.uleb128 0x8
 3216 0085 3A       		.uleb128 0x3a
 3217 0086 0B       		.uleb128 0xb
 3218 0087 3B       		.uleb128 0x3b
 3219 0088 05       		.uleb128 0x5
 3220 0089 49       		.uleb128 0x49
 3221 008a 13       		.uleb128 0x13
 3222 008b 38       		.uleb128 0x38
 3223 008c 0B       		.uleb128 0xb
ARM GAS  /tmp/cc2qSXYA.s 			page 58


 3224 008d 00       		.byte	0
 3225 008e 00       		.byte	0
 3226 008f 0C       		.uleb128 0xc
 3227 0090 13       		.uleb128 0x13
 3228 0091 01       		.byte	0x1
 3229 0092 03       		.uleb128 0x3
 3230 0093 0E       		.uleb128 0xe
 3231 0094 0B       		.uleb128 0xb
 3232 0095 0B       		.uleb128 0xb
 3233 0096 3A       		.uleb128 0x3a
 3234 0097 0B       		.uleb128 0xb
 3235 0098 3B       		.uleb128 0x3b
 3236 0099 05       		.uleb128 0x5
 3237 009a 01       		.uleb128 0x1
 3238 009b 13       		.uleb128 0x13
 3239 009c 00       		.byte	0
 3240 009d 00       		.byte	0
 3241 009e 0D       		.uleb128 0xd
 3242 009f 15       		.uleb128 0x15
 3243 00a0 01       		.byte	0x1
 3244 00a1 27       		.uleb128 0x27
 3245 00a2 19       		.uleb128 0x19
 3246 00a3 01       		.uleb128 0x1
 3247 00a4 13       		.uleb128 0x13
 3248 00a5 00       		.byte	0
 3249 00a6 00       		.byte	0
 3250 00a7 0E       		.uleb128 0xe
 3251 00a8 05       		.uleb128 0x5
 3252 00a9 00       		.byte	0
 3253 00aa 49       		.uleb128 0x49
 3254 00ab 13       		.uleb128 0x13
 3255 00ac 00       		.byte	0
 3256 00ad 00       		.byte	0
 3257 00ae 0F       		.uleb128 0xf
 3258 00af 35       		.uleb128 0x35
 3259 00b0 00       		.byte	0
 3260 00b1 49       		.uleb128 0x49
 3261 00b2 13       		.uleb128 0x13
 3262 00b3 00       		.byte	0
 3263 00b4 00       		.byte	0
 3264 00b5 10       		.uleb128 0x10
 3265 00b6 17       		.uleb128 0x17
 3266 00b7 01       		.byte	0x1
 3267 00b8 0B       		.uleb128 0xb
 3268 00b9 0B       		.uleb128 0xb
 3269 00ba 3A       		.uleb128 0x3a
 3270 00bb 0B       		.uleb128 0xb
 3271 00bc 3B       		.uleb128 0x3b
 3272 00bd 0B       		.uleb128 0xb
 3273 00be 01       		.uleb128 0x1
 3274 00bf 13       		.uleb128 0x13
 3275 00c0 00       		.byte	0
 3276 00c1 00       		.byte	0
 3277 00c2 11       		.uleb128 0x11
 3278 00c3 0D       		.uleb128 0xd
 3279 00c4 00       		.byte	0
 3280 00c5 03       		.uleb128 0x3
ARM GAS  /tmp/cc2qSXYA.s 			page 59


 3281 00c6 0E       		.uleb128 0xe
 3282 00c7 3A       		.uleb128 0x3a
 3283 00c8 0B       		.uleb128 0xb
 3284 00c9 3B       		.uleb128 0x3b
 3285 00ca 0B       		.uleb128 0xb
 3286 00cb 49       		.uleb128 0x49
 3287 00cc 13       		.uleb128 0x13
 3288 00cd 00       		.byte	0
 3289 00ce 00       		.byte	0
 3290 00cf 12       		.uleb128 0x12
 3291 00d0 26       		.uleb128 0x26
 3292 00d1 00       		.byte	0
 3293 00d2 49       		.uleb128 0x49
 3294 00d3 13       		.uleb128 0x13
 3295 00d4 00       		.byte	0
 3296 00d5 00       		.byte	0
 3297 00d6 13       		.uleb128 0x13
 3298 00d7 15       		.uleb128 0x15
 3299 00d8 01       		.byte	0x1
 3300 00d9 27       		.uleb128 0x27
 3301 00da 19       		.uleb128 0x19
 3302 00db 49       		.uleb128 0x49
 3303 00dc 13       		.uleb128 0x13
 3304 00dd 01       		.uleb128 0x1
 3305 00de 13       		.uleb128 0x13
 3306 00df 00       		.byte	0
 3307 00e0 00       		.byte	0
 3308 00e1 14       		.uleb128 0x14
 3309 00e2 15       		.uleb128 0x15
 3310 00e3 00       		.byte	0
 3311 00e4 27       		.uleb128 0x27
 3312 00e5 19       		.uleb128 0x19
 3313 00e6 00       		.byte	0
 3314 00e7 00       		.byte	0
 3315 00e8 15       		.uleb128 0x15
 3316 00e9 2E       		.uleb128 0x2e
 3317 00ea 01       		.byte	0x1
 3318 00eb 03       		.uleb128 0x3
 3319 00ec 0E       		.uleb128 0xe
 3320 00ed 3A       		.uleb128 0x3a
 3321 00ee 0B       		.uleb128 0xb
 3322 00ef 3B       		.uleb128 0x3b
 3323 00f0 05       		.uleb128 0x5
 3324 00f1 27       		.uleb128 0x27
 3325 00f2 19       		.uleb128 0x19
 3326 00f3 20       		.uleb128 0x20
 3327 00f4 0B       		.uleb128 0xb
 3328 00f5 01       		.uleb128 0x1
 3329 00f6 13       		.uleb128 0x13
 3330 00f7 00       		.byte	0
 3331 00f8 00       		.byte	0
 3332 00f9 16       		.uleb128 0x16
 3333 00fa 34       		.uleb128 0x34
 3334 00fb 00       		.byte	0
 3335 00fc 03       		.uleb128 0x3
 3336 00fd 08       		.uleb128 0x8
 3337 00fe 3A       		.uleb128 0x3a
ARM GAS  /tmp/cc2qSXYA.s 			page 60


 3338 00ff 0B       		.uleb128 0xb
 3339 0100 3B       		.uleb128 0x3b
 3340 0101 05       		.uleb128 0x5
 3341 0102 49       		.uleb128 0x49
 3342 0103 13       		.uleb128 0x13
 3343 0104 00       		.byte	0
 3344 0105 00       		.byte	0
 3345 0106 17       		.uleb128 0x17
 3346 0107 2E       		.uleb128 0x2e
 3347 0108 01       		.byte	0x1
 3348 0109 03       		.uleb128 0x3
 3349 010a 0E       		.uleb128 0xe
 3350 010b 3A       		.uleb128 0x3a
 3351 010c 0B       		.uleb128 0xb
 3352 010d 3B       		.uleb128 0x3b
 3353 010e 0B       		.uleb128 0xb
 3354 010f 27       		.uleb128 0x27
 3355 0110 19       		.uleb128 0x19
 3356 0111 11       		.uleb128 0x11
 3357 0112 01       		.uleb128 0x1
 3358 0113 12       		.uleb128 0x12
 3359 0114 06       		.uleb128 0x6
 3360 0115 40       		.uleb128 0x40
 3361 0116 18       		.uleb128 0x18
 3362 0117 9742     		.uleb128 0x2117
 3363 0119 19       		.uleb128 0x19
 3364 011a 01       		.uleb128 0x1
 3365 011b 13       		.uleb128 0x13
 3366 011c 00       		.byte	0
 3367 011d 00       		.byte	0
 3368 011e 18       		.uleb128 0x18
 3369 011f 34       		.uleb128 0x34
 3370 0120 00       		.byte	0
 3371 0121 03       		.uleb128 0x3
 3372 0122 08       		.uleb128 0x8
 3373 0123 3A       		.uleb128 0x3a
 3374 0124 0B       		.uleb128 0xb
 3375 0125 3B       		.uleb128 0x3b
 3376 0126 0B       		.uleb128 0xb
 3377 0127 49       		.uleb128 0x49
 3378 0128 13       		.uleb128 0x13
 3379 0129 02       		.uleb128 0x2
 3380 012a 18       		.uleb128 0x18
 3381 012b 00       		.byte	0
 3382 012c 00       		.byte	0
 3383 012d 19       		.uleb128 0x19
 3384 012e 898201   		.uleb128 0x4109
 3385 0131 01       		.byte	0x1
 3386 0132 11       		.uleb128 0x11
 3387 0133 01       		.uleb128 0x1
 3388 0134 31       		.uleb128 0x31
 3389 0135 13       		.uleb128 0x13
 3390 0136 01       		.uleb128 0x1
 3391 0137 13       		.uleb128 0x13
 3392 0138 00       		.byte	0
 3393 0139 00       		.byte	0
 3394 013a 1A       		.uleb128 0x1a
ARM GAS  /tmp/cc2qSXYA.s 			page 61


 3395 013b 8A8201   		.uleb128 0x410a
 3396 013e 00       		.byte	0
 3397 013f 02       		.uleb128 0x2
 3398 0140 18       		.uleb128 0x18
 3399 0141 9142     		.uleb128 0x2111
 3400 0143 18       		.uleb128 0x18
 3401 0144 00       		.byte	0
 3402 0145 00       		.byte	0
 3403 0146 1B       		.uleb128 0x1b
 3404 0147 898201   		.uleb128 0x4109
 3405 014a 01       		.byte	0x1
 3406 014b 11       		.uleb128 0x11
 3407 014c 01       		.uleb128 0x1
 3408 014d 31       		.uleb128 0x31
 3409 014e 13       		.uleb128 0x13
 3410 014f 00       		.byte	0
 3411 0150 00       		.byte	0
 3412 0151 1C       		.uleb128 0x1c
 3413 0152 2E       		.uleb128 0x2e
 3414 0153 01       		.byte	0x1
 3415 0154 03       		.uleb128 0x3
 3416 0155 08       		.uleb128 0x8
 3417 0156 3A       		.uleb128 0x3a
 3418 0157 0B       		.uleb128 0xb
 3419 0158 3B       		.uleb128 0x3b
 3420 0159 0B       		.uleb128 0xb
 3421 015a 27       		.uleb128 0x27
 3422 015b 19       		.uleb128 0x19
 3423 015c 11       		.uleb128 0x11
 3424 015d 01       		.uleb128 0x1
 3425 015e 12       		.uleb128 0x12
 3426 015f 06       		.uleb128 0x6
 3427 0160 40       		.uleb128 0x40
 3428 0161 18       		.uleb128 0x18
 3429 0162 9742     		.uleb128 0x2117
 3430 0164 19       		.uleb128 0x19
 3431 0165 01       		.uleb128 0x1
 3432 0166 13       		.uleb128 0x13
 3433 0167 00       		.byte	0
 3434 0168 00       		.byte	0
 3435 0169 1D       		.uleb128 0x1d
 3436 016a 05       		.uleb128 0x5
 3437 016b 00       		.byte	0
 3438 016c 03       		.uleb128 0x3
 3439 016d 08       		.uleb128 0x8
 3440 016e 3A       		.uleb128 0x3a
 3441 016f 0B       		.uleb128 0xb
 3442 0170 3B       		.uleb128 0x3b
 3443 0171 0B       		.uleb128 0xb
 3444 0172 49       		.uleb128 0x49
 3445 0173 13       		.uleb128 0x13
 3446 0174 02       		.uleb128 0x2
 3447 0175 17       		.uleb128 0x17
 3448 0176 00       		.byte	0
 3449 0177 00       		.byte	0
 3450 0178 1E       		.uleb128 0x1e
 3451 0179 898201   		.uleb128 0x4109
ARM GAS  /tmp/cc2qSXYA.s 			page 62


 3452 017c 01       		.byte	0x1
 3453 017d 11       		.uleb128 0x11
 3454 017e 01       		.uleb128 0x1
 3455 017f 9542     		.uleb128 0x2115
 3456 0181 19       		.uleb128 0x19
 3457 0182 31       		.uleb128 0x31
 3458 0183 13       		.uleb128 0x13
 3459 0184 00       		.byte	0
 3460 0185 00       		.byte	0
 3461 0186 1F       		.uleb128 0x1f
 3462 0187 2E       		.uleb128 0x2e
 3463 0188 01       		.byte	0x1
 3464 0189 03       		.uleb128 0x3
 3465 018a 0E       		.uleb128 0xe
 3466 018b 3A       		.uleb128 0x3a
 3467 018c 0B       		.uleb128 0xb
 3468 018d 3B       		.uleb128 0x3b
 3469 018e 05       		.uleb128 0x5
 3470 018f 27       		.uleb128 0x27
 3471 0190 19       		.uleb128 0x19
 3472 0191 11       		.uleb128 0x11
 3473 0192 01       		.uleb128 0x1
 3474 0193 12       		.uleb128 0x12
 3475 0194 06       		.uleb128 0x6
 3476 0195 40       		.uleb128 0x40
 3477 0196 18       		.uleb128 0x18
 3478 0197 9742     		.uleb128 0x2117
 3479 0199 19       		.uleb128 0x19
 3480 019a 01       		.uleb128 0x1
 3481 019b 13       		.uleb128 0x13
 3482 019c 00       		.byte	0
 3483 019d 00       		.byte	0
 3484 019e 20       		.uleb128 0x20
 3485 019f 34       		.uleb128 0x34
 3486 01a0 00       		.byte	0
 3487 01a1 03       		.uleb128 0x3
 3488 01a2 08       		.uleb128 0x8
 3489 01a3 3A       		.uleb128 0x3a
 3490 01a4 0B       		.uleb128 0xb
 3491 01a5 3B       		.uleb128 0x3b
 3492 01a6 0B       		.uleb128 0xb
 3493 01a7 49       		.uleb128 0x49
 3494 01a8 13       		.uleb128 0x13
 3495 01a9 02       		.uleb128 0x2
 3496 01aa 17       		.uleb128 0x17
 3497 01ab 00       		.byte	0
 3498 01ac 00       		.byte	0
 3499 01ad 21       		.uleb128 0x21
 3500 01ae 34       		.uleb128 0x34
 3501 01af 00       		.byte	0
 3502 01b0 03       		.uleb128 0x3
 3503 01b1 0E       		.uleb128 0xe
 3504 01b2 3A       		.uleb128 0x3a
 3505 01b3 0B       		.uleb128 0xb
 3506 01b4 3B       		.uleb128 0x3b
 3507 01b5 0B       		.uleb128 0xb
 3508 01b6 49       		.uleb128 0x49
ARM GAS  /tmp/cc2qSXYA.s 			page 63


 3509 01b7 13       		.uleb128 0x13
 3510 01b8 02       		.uleb128 0x2
 3511 01b9 17       		.uleb128 0x17
 3512 01ba 00       		.byte	0
 3513 01bb 00       		.byte	0
 3514 01bc 22       		.uleb128 0x22
 3515 01bd 898201   		.uleb128 0x4109
 3516 01c0 00       		.byte	0
 3517 01c1 11       		.uleb128 0x11
 3518 01c2 01       		.uleb128 0x1
 3519 01c3 31       		.uleb128 0x31
 3520 01c4 13       		.uleb128 0x13
 3521 01c5 00       		.byte	0
 3522 01c6 00       		.byte	0
 3523 01c7 23       		.uleb128 0x23
 3524 01c8 2E       		.uleb128 0x2e
 3525 01c9 01       		.byte	0x1
 3526 01ca 03       		.uleb128 0x3
 3527 01cb 0E       		.uleb128 0xe
 3528 01cc 3A       		.uleb128 0x3a
 3529 01cd 0B       		.uleb128 0xb
 3530 01ce 3B       		.uleb128 0x3b
 3531 01cf 0B       		.uleb128 0xb
 3532 01d0 27       		.uleb128 0x27
 3533 01d1 19       		.uleb128 0x19
 3534 01d2 49       		.uleb128 0x49
 3535 01d3 13       		.uleb128 0x13
 3536 01d4 11       		.uleb128 0x11
 3537 01d5 01       		.uleb128 0x1
 3538 01d6 12       		.uleb128 0x12
 3539 01d7 06       		.uleb128 0x6
 3540 01d8 40       		.uleb128 0x40
 3541 01d9 18       		.uleb128 0x18
 3542 01da 9742     		.uleb128 0x2117
 3543 01dc 19       		.uleb128 0x19
 3544 01dd 01       		.uleb128 0x1
 3545 01de 13       		.uleb128 0x13
 3546 01df 00       		.byte	0
 3547 01e0 00       		.byte	0
 3548 01e1 24       		.uleb128 0x24
 3549 01e2 2E       		.uleb128 0x2e
 3550 01e3 01       		.byte	0x1
 3551 01e4 31       		.uleb128 0x31
 3552 01e5 13       		.uleb128 0x13
 3553 01e6 11       		.uleb128 0x11
 3554 01e7 01       		.uleb128 0x1
 3555 01e8 12       		.uleb128 0x12
 3556 01e9 06       		.uleb128 0x6
 3557 01ea 40       		.uleb128 0x40
 3558 01eb 18       		.uleb128 0x18
 3559 01ec 9742     		.uleb128 0x2117
 3560 01ee 19       		.uleb128 0x19
 3561 01ef 01       		.uleb128 0x1
 3562 01f0 13       		.uleb128 0x13
 3563 01f1 00       		.byte	0
 3564 01f2 00       		.byte	0
 3565 01f3 25       		.uleb128 0x25
ARM GAS  /tmp/cc2qSXYA.s 			page 64


 3566 01f4 34       		.uleb128 0x34
 3567 01f5 00       		.byte	0
 3568 01f6 31       		.uleb128 0x31
 3569 01f7 13       		.uleb128 0x13
 3570 01f8 02       		.uleb128 0x2
 3571 01f9 17       		.uleb128 0x17
 3572 01fa 00       		.byte	0
 3573 01fb 00       		.byte	0
 3574 01fc 26       		.uleb128 0x26
 3575 01fd 0B       		.uleb128 0xb
 3576 01fe 01       		.byte	0x1
 3577 01ff 55       		.uleb128 0x55
 3578 0200 17       		.uleb128 0x17
 3579 0201 01       		.uleb128 0x1
 3580 0202 13       		.uleb128 0x13
 3581 0203 00       		.byte	0
 3582 0204 00       		.byte	0
 3583 0205 27       		.uleb128 0x27
 3584 0206 01       		.uleb128 0x1
 3585 0207 01       		.byte	0x1
 3586 0208 49       		.uleb128 0x49
 3587 0209 13       		.uleb128 0x13
 3588 020a 01       		.uleb128 0x1
 3589 020b 13       		.uleb128 0x13
 3590 020c 00       		.byte	0
 3591 020d 00       		.byte	0
 3592 020e 28       		.uleb128 0x28
 3593 020f 21       		.uleb128 0x21
 3594 0210 00       		.byte	0
 3595 0211 49       		.uleb128 0x49
 3596 0212 13       		.uleb128 0x13
 3597 0213 2F       		.uleb128 0x2f
 3598 0214 0B       		.uleb128 0xb
 3599 0215 00       		.byte	0
 3600 0216 00       		.byte	0
 3601 0217 29       		.uleb128 0x29
 3602 0218 34       		.uleb128 0x34
 3603 0219 00       		.byte	0
 3604 021a 03       		.uleb128 0x3
 3605 021b 0E       		.uleb128 0xe
 3606 021c 3A       		.uleb128 0x3a
 3607 021d 0B       		.uleb128 0xb
 3608 021e 3B       		.uleb128 0x3b
 3609 021f 0B       		.uleb128 0xb
 3610 0220 49       		.uleb128 0x49
 3611 0221 13       		.uleb128 0x13
 3612 0222 02       		.uleb128 0x2
 3613 0223 18       		.uleb128 0x18
 3614 0224 00       		.byte	0
 3615 0225 00       		.byte	0
 3616 0226 2A       		.uleb128 0x2a
 3617 0227 34       		.uleb128 0x34
 3618 0228 00       		.byte	0
 3619 0229 03       		.uleb128 0x3
 3620 022a 0E       		.uleb128 0xe
 3621 022b 3A       		.uleb128 0x3a
 3622 022c 0B       		.uleb128 0xb
ARM GAS  /tmp/cc2qSXYA.s 			page 65


 3623 022d 3B       		.uleb128 0x3b
 3624 022e 0B       		.uleb128 0xb
 3625 022f 49       		.uleb128 0x49
 3626 0230 13       		.uleb128 0x13
 3627 0231 3F       		.uleb128 0x3f
 3628 0232 19       		.uleb128 0x19
 3629 0233 3C       		.uleb128 0x3c
 3630 0234 19       		.uleb128 0x19
 3631 0235 00       		.byte	0
 3632 0236 00       		.byte	0
 3633 0237 2B       		.uleb128 0x2b
 3634 0238 21       		.uleb128 0x21
 3635 0239 00       		.byte	0
 3636 023a 00       		.byte	0
 3637 023b 00       		.byte	0
 3638 023c 2C       		.uleb128 0x2c
 3639 023d 34       		.uleb128 0x34
 3640 023e 00       		.byte	0
 3641 023f 03       		.uleb128 0x3
 3642 0240 08       		.uleb128 0x8
 3643 0241 3A       		.uleb128 0x3a
 3644 0242 0B       		.uleb128 0xb
 3645 0243 3B       		.uleb128 0x3b
 3646 0244 0B       		.uleb128 0xb
 3647 0245 49       		.uleb128 0x49
 3648 0246 13       		.uleb128 0x13
 3649 0247 3F       		.uleb128 0x3f
 3650 0248 19       		.uleb128 0x19
 3651 0249 3C       		.uleb128 0x3c
 3652 024a 19       		.uleb128 0x19
 3653 024b 00       		.byte	0
 3654 024c 00       		.byte	0
 3655 024d 2D       		.uleb128 0x2d
 3656 024e 34       		.uleb128 0x34
 3657 024f 00       		.byte	0
 3658 0250 03       		.uleb128 0x3
 3659 0251 0E       		.uleb128 0xe
 3660 0252 3A       		.uleb128 0x3a
 3661 0253 0B       		.uleb128 0xb
 3662 0254 3B       		.uleb128 0x3b
 3663 0255 0B       		.uleb128 0xb
 3664 0256 49       		.uleb128 0x49
 3665 0257 13       		.uleb128 0x13
 3666 0258 3F       		.uleb128 0x3f
 3667 0259 19       		.uleb128 0x19
 3668 025a 02       		.uleb128 0x2
 3669 025b 18       		.uleb128 0x18
 3670 025c 00       		.byte	0
 3671 025d 00       		.byte	0
 3672 025e 2E       		.uleb128 0x2e
 3673 025f 34       		.uleb128 0x34
 3674 0260 00       		.byte	0
 3675 0261 03       		.uleb128 0x3
 3676 0262 0E       		.uleb128 0xe
 3677 0263 3A       		.uleb128 0x3a
 3678 0264 0B       		.uleb128 0xb
 3679 0265 3B       		.uleb128 0x3b
ARM GAS  /tmp/cc2qSXYA.s 			page 66


 3680 0266 05       		.uleb128 0x5
 3681 0267 49       		.uleb128 0x49
 3682 0268 13       		.uleb128 0x13
 3683 0269 3F       		.uleb128 0x3f
 3684 026a 19       		.uleb128 0x19
 3685 026b 02       		.uleb128 0x2
 3686 026c 18       		.uleb128 0x18
 3687 026d 00       		.byte	0
 3688 026e 00       		.byte	0
 3689 026f 2F       		.uleb128 0x2f
 3690 0270 2E       		.uleb128 0x2e
 3691 0271 01       		.byte	0x1
 3692 0272 3F       		.uleb128 0x3f
 3693 0273 19       		.uleb128 0x19
 3694 0274 03       		.uleb128 0x3
 3695 0275 0E       		.uleb128 0xe
 3696 0276 3A       		.uleb128 0x3a
 3697 0277 0B       		.uleb128 0xb
 3698 0278 3B       		.uleb128 0x3b
 3699 0279 0B       		.uleb128 0xb
 3700 027a 27       		.uleb128 0x27
 3701 027b 19       		.uleb128 0x19
 3702 027c 3C       		.uleb128 0x3c
 3703 027d 19       		.uleb128 0x19
 3704 027e 01       		.uleb128 0x1
 3705 027f 13       		.uleb128 0x13
 3706 0280 00       		.byte	0
 3707 0281 00       		.byte	0
 3708 0282 30       		.uleb128 0x30
 3709 0283 2E       		.uleb128 0x2e
 3710 0284 01       		.byte	0x1
 3711 0285 3F       		.uleb128 0x3f
 3712 0286 19       		.uleb128 0x19
 3713 0287 03       		.uleb128 0x3
 3714 0288 0E       		.uleb128 0xe
 3715 0289 3A       		.uleb128 0x3a
 3716 028a 0B       		.uleb128 0xb
 3717 028b 3B       		.uleb128 0x3b
 3718 028c 0B       		.uleb128 0xb
 3719 028d 27       		.uleb128 0x27
 3720 028e 19       		.uleb128 0x19
 3721 028f 49       		.uleb128 0x49
 3722 0290 13       		.uleb128 0x13
 3723 0291 3C       		.uleb128 0x3c
 3724 0292 19       		.uleb128 0x19
 3725 0293 01       		.uleb128 0x1
 3726 0294 13       		.uleb128 0x13
 3727 0295 00       		.byte	0
 3728 0296 00       		.byte	0
 3729 0297 31       		.uleb128 0x31
 3730 0298 2E       		.uleb128 0x2e
 3731 0299 00       		.byte	0
 3732 029a 3F       		.uleb128 0x3f
 3733 029b 19       		.uleb128 0x19
 3734 029c 03       		.uleb128 0x3
 3735 029d 0E       		.uleb128 0xe
 3736 029e 3A       		.uleb128 0x3a
ARM GAS  /tmp/cc2qSXYA.s 			page 67


 3737 029f 0B       		.uleb128 0xb
 3738 02a0 3B       		.uleb128 0x3b
 3739 02a1 0B       		.uleb128 0xb
 3740 02a2 27       		.uleb128 0x27
 3741 02a3 19       		.uleb128 0x19
 3742 02a4 49       		.uleb128 0x49
 3743 02a5 13       		.uleb128 0x13
 3744 02a6 3C       		.uleb128 0x3c
 3745 02a7 19       		.uleb128 0x19
 3746 02a8 00       		.byte	0
 3747 02a9 00       		.byte	0
 3748 02aa 32       		.uleb128 0x32
 3749 02ab 2E       		.uleb128 0x2e
 3750 02ac 01       		.byte	0x1
 3751 02ad 3F       		.uleb128 0x3f
 3752 02ae 19       		.uleb128 0x19
 3753 02af 03       		.uleb128 0x3
 3754 02b0 0E       		.uleb128 0xe
 3755 02b1 3A       		.uleb128 0x3a
 3756 02b2 0B       		.uleb128 0xb
 3757 02b3 3B       		.uleb128 0x3b
 3758 02b4 05       		.uleb128 0x5
 3759 02b5 27       		.uleb128 0x27
 3760 02b6 19       		.uleb128 0x19
 3761 02b7 49       		.uleb128 0x49
 3762 02b8 13       		.uleb128 0x13
 3763 02b9 3C       		.uleb128 0x3c
 3764 02ba 19       		.uleb128 0x19
 3765 02bb 01       		.uleb128 0x1
 3766 02bc 13       		.uleb128 0x13
 3767 02bd 00       		.byte	0
 3768 02be 00       		.byte	0
 3769 02bf 33       		.uleb128 0x33
 3770 02c0 2E       		.uleb128 0x2e
 3771 02c1 00       		.byte	0
 3772 02c2 3F       		.uleb128 0x3f
 3773 02c3 19       		.uleb128 0x19
 3774 02c4 03       		.uleb128 0x3
 3775 02c5 0E       		.uleb128 0xe
 3776 02c6 3A       		.uleb128 0x3a
 3777 02c7 0B       		.uleb128 0xb
 3778 02c8 3B       		.uleb128 0x3b
 3779 02c9 0B       		.uleb128 0xb
 3780 02ca 27       		.uleb128 0x27
 3781 02cb 19       		.uleb128 0x19
 3782 02cc 3C       		.uleb128 0x3c
 3783 02cd 19       		.uleb128 0x19
 3784 02ce 00       		.byte	0
 3785 02cf 00       		.byte	0
 3786 02d0 34       		.uleb128 0x34
 3787 02d1 2E       		.uleb128 0x2e
 3788 02d2 01       		.byte	0x1
 3789 02d3 3F       		.uleb128 0x3f
 3790 02d4 19       		.uleb128 0x19
 3791 02d5 03       		.uleb128 0x3
 3792 02d6 0E       		.uleb128 0xe
 3793 02d7 3A       		.uleb128 0x3a
ARM GAS  /tmp/cc2qSXYA.s 			page 68


 3794 02d8 0B       		.uleb128 0xb
 3795 02d9 3B       		.uleb128 0x3b
 3796 02da 05       		.uleb128 0x5
 3797 02db 27       		.uleb128 0x27
 3798 02dc 19       		.uleb128 0x19
 3799 02dd 3C       		.uleb128 0x3c
 3800 02de 19       		.uleb128 0x19
 3801 02df 01       		.uleb128 0x1
 3802 02e0 13       		.uleb128 0x13
 3803 02e1 00       		.byte	0
 3804 02e2 00       		.byte	0
 3805 02e3 35       		.uleb128 0x35
 3806 02e4 2E       		.uleb128 0x2e
 3807 02e5 01       		.byte	0x1
 3808 02e6 3F       		.uleb128 0x3f
 3809 02e7 19       		.uleb128 0x19
 3810 02e8 03       		.uleb128 0x3
 3811 02e9 0E       		.uleb128 0xe
 3812 02ea 3A       		.uleb128 0x3a
 3813 02eb 0B       		.uleb128 0xb
 3814 02ec 3B       		.uleb128 0x3b
 3815 02ed 0B       		.uleb128 0xb
 3816 02ee 27       		.uleb128 0x27
 3817 02ef 19       		.uleb128 0x19
 3818 02f0 49       		.uleb128 0x49
 3819 02f1 13       		.uleb128 0x13
 3820 02f2 3C       		.uleb128 0x3c
 3821 02f3 19       		.uleb128 0x19
 3822 02f4 00       		.byte	0
 3823 02f5 00       		.byte	0
 3824 02f6 00       		.byte	0
 3825              		.section	.debug_loc,"",%progbits
 3826              	.Ldebug_loc0:
 3827              	.LLST0:
 3828 0000 00000000 		.4byte	.LVL9
 3829 0004 02000000 		.4byte	.LVL10
 3830 0008 0100     		.2byte	0x1
 3831 000a 50       		.byte	0x50
 3832 000b 02000000 		.4byte	.LVL10
 3833 000f 06000000 		.4byte	.LFE10
 3834 0013 0400     		.2byte	0x4
 3835 0015 F3       		.byte	0xf3
 3836 0016 01       		.uleb128 0x1
 3837 0017 50       		.byte	0x50
 3838 0018 9F       		.byte	0x9f
 3839 0019 00000000 		.4byte	0
 3840 001d 00000000 		.4byte	0
 3841              	.LLST1:
 3842 0021 00000000 		.4byte	.LVL12
 3843 0025 02000000 		.4byte	.LVL13
 3844 0029 0100     		.2byte	0x1
 3845 002b 50       		.byte	0x50
 3846 002c 02000000 		.4byte	.LVL13
 3847 0030 06000000 		.4byte	.LFE9
 3848 0034 0400     		.2byte	0x4
 3849 0036 F3       		.byte	0xf3
 3850 0037 01       		.uleb128 0x1
ARM GAS  /tmp/cc2qSXYA.s 			page 69


 3851 0038 50       		.byte	0x50
 3852 0039 9F       		.byte	0x9f
 3853 003a 00000000 		.4byte	0
 3854 003e 00000000 		.4byte	0
 3855              	.LLST2:
 3856 0042 00000000 		.4byte	.LVL15
 3857 0046 02000000 		.4byte	.LVL16
 3858 004a 0100     		.2byte	0x1
 3859 004c 50       		.byte	0x50
 3860 004d 02000000 		.4byte	.LVL16
 3861 0051 06000000 		.4byte	.LFE8
 3862 0055 0400     		.2byte	0x4
 3863 0057 F3       		.byte	0xf3
 3864 0058 01       		.uleb128 0x1
 3865 0059 50       		.byte	0x50
 3866 005a 9F       		.byte	0x9f
 3867 005b 00000000 		.4byte	0
 3868 005f 00000000 		.4byte	0
 3869              	.LLST3:
 3870 0063 14000000 		.4byte	.LVL22
 3871 0067 22000000 		.4byte	.LVL23
 3872 006b 0100     		.2byte	0x1
 3873 006d 50       		.byte	0x50
 3874 006e 22000000 		.4byte	.LVL23
 3875 0072 28000000 		.4byte	.LVL25
 3876 0076 0300     		.2byte	0x3
 3877 0078 79       		.byte	0x79
 3878 0079 01       		.sleb128 1
 3879 007a 9F       		.byte	0x9f
 3880 007b 2E000000 		.4byte	.LVL26
 3881 007f 36000000 		.4byte	.LVL27
 3882 0083 0300     		.2byte	0x3
 3883 0085 79       		.byte	0x79
 3884 0086 01       		.sleb128 1
 3885 0087 9F       		.byte	0x9f
 3886 0088 36000000 		.4byte	.LVL27
 3887 008c 44000000 		.4byte	.LVL28
 3888 0090 0100     		.2byte	0x1
 3889 0092 50       		.byte	0x50
 3890 0093 44000000 		.4byte	.LVL28
 3891 0097 54000000 		.4byte	.LVL30
 3892 009b 0300     		.2byte	0x3
 3893 009d 78       		.byte	0x78
 3894 009e 04       		.sleb128 4
 3895 009f 9F       		.byte	0x9f
 3896 00a0 54000000 		.4byte	.LVL30
 3897 00a4 5E000000 		.4byte	.LVL31
 3898 00a8 0100     		.2byte	0x1
 3899 00aa 50       		.byte	0x50
 3900 00ab BA000000 		.4byte	.LVL38
 3901 00af C0000000 		.4byte	.LVL39
 3902 00b3 0100     		.2byte	0x1
 3903 00b5 50       		.byte	0x50
 3904 00b6 C0000000 		.4byte	.LVL39
 3905 00ba E6000000 		.4byte	.LVL42
 3906 00be 0100     		.2byte	0x1
 3907 00c0 59       		.byte	0x59
ARM GAS  /tmp/cc2qSXYA.s 			page 70


 3908 00c1 E6000000 		.4byte	.LVL42
 3909 00c5 F0000000 		.4byte	.LVL43
 3910 00c9 0100     		.2byte	0x1
 3911 00cb 50       		.byte	0x50
 3912 00cc 0A010000 		.4byte	.LVL47
 3913 00d0 18010000 		.4byte	.LVL48
 3914 00d4 0100     		.2byte	0x1
 3915 00d6 50       		.byte	0x50
 3916 00d7 18010000 		.4byte	.LVL48
 3917 00db 1B010000 		.4byte	.LVL49-1
 3918 00df 0300     		.2byte	0x3
 3919 00e1 7E       		.byte	0x7e
 3920 00e2 05       		.sleb128 5
 3921 00e3 9F       		.byte	0x9f
 3922 00e4 28010000 		.4byte	.LVL50
 3923 00e8 32010000 		.4byte	.LVL51
 3924 00ec 0100     		.2byte	0x1
 3925 00ee 50       		.byte	0x50
 3926 00ef 6E010000 		.4byte	.LVL58
 3927 00f3 74010000 		.4byte	.LVL59
 3928 00f7 0100     		.2byte	0x1
 3929 00f9 50       		.byte	0x50
 3930 00fa 74010000 		.4byte	.LVL59
 3931 00fe 9A010000 		.4byte	.LVL62
 3932 0102 0100     		.2byte	0x1
 3933 0104 59       		.byte	0x59
 3934 0105 9A010000 		.4byte	.LVL62
 3935 0109 A4010000 		.4byte	.LVL63
 3936 010d 0100     		.2byte	0x1
 3937 010f 50       		.byte	0x50
 3938 0110 2A020000 		.4byte	.LVL75
 3939 0114 34020000 		.4byte	.LVL76
 3940 0118 0100     		.2byte	0x1
 3941 011a 50       		.byte	0x50
 3942 011b 00000000 		.4byte	0
 3943 011f 00000000 		.4byte	0
 3944              	.LLST4:
 3945 0123 9E000000 		.4byte	.LVL34
 3946 0127 B8000000 		.4byte	.LVL37
 3947 012b 0300     		.2byte	0x3
 3948 012d 77       		.byte	0x77
 3949 012e 32       		.sleb128 50
 3950 012f 9F       		.byte	0x9f
 3951 0130 B8000000 		.4byte	.LVL37
 3952 0134 C3000000 		.4byte	.LVL40-1
 3953 0138 0100     		.2byte	0x1
 3954 013a 51       		.byte	0x51
 3955 013b C3000000 		.4byte	.LVL40-1
 3956 013f 5A010000 		.4byte	.LVL54
 3957 0143 0300     		.2byte	0x3
 3958 0145 77       		.byte	0x77
 3959 0146 32       		.sleb128 50
 3960 0147 9F       		.byte	0x9f
 3961 0148 5A010000 		.4byte	.LVL54
 3962 014c 6C010000 		.4byte	.LVL57
 3963 0150 0300     		.2byte	0x3
 3964 0152 78       		.byte	0x78
ARM GAS  /tmp/cc2qSXYA.s 			page 71


 3965 0153 32       		.sleb128 50
 3966 0154 9F       		.byte	0x9f
 3967 0155 6C010000 		.4byte	.LVL57
 3968 0159 77010000 		.4byte	.LVL60-1
 3969 015d 0100     		.2byte	0x1
 3970 015f 51       		.byte	0x51
 3971 0160 77010000 		.4byte	.LVL60-1
 3972 0164 BA010000 		.4byte	.LVL65
 3973 0168 0300     		.2byte	0x3
 3974 016a 78       		.byte	0x78
 3975 016b 32       		.sleb128 50
 3976 016c 9F       		.byte	0x9f
 3977 016d 02020000 		.4byte	.LVL70
 3978 0171 12020000 		.4byte	.LVL73
 3979 0175 0300     		.2byte	0x3
 3980 0177 74       		.byte	0x74
 3981 0178 32       		.sleb128 50
 3982 0179 9F       		.byte	0x9f
 3983 017a 12020000 		.4byte	.LVL73
 3984 017e 1B020000 		.4byte	.LVL74-1
 3985 0182 0100     		.2byte	0x1
 3986 0184 51       		.byte	0x51
 3987 0185 1B020000 		.4byte	.LVL74-1
 3988 0189 5C020000 		.4byte	.LVL81
 3989 018d 0300     		.2byte	0x3
 3990 018f 74       		.byte	0x74
 3991 0190 32       		.sleb128 50
 3992 0191 9F       		.byte	0x9f
 3993 0192 00000000 		.4byte	0
 3994 0196 00000000 		.4byte	0
 3995              	.LLST5:
 3996 019a 00000000 		.4byte	.LVL84
 3997 019e 06000000 		.4byte	.LVL85
 3998 01a2 0100     		.2byte	0x1
 3999 01a4 50       		.byte	0x50
 4000 01a5 06000000 		.4byte	.LVL85
 4001 01a9 28000000 		.4byte	.LFE14
 4002 01ad 0400     		.2byte	0x4
 4003 01af F3       		.byte	0xf3
 4004 01b0 01       		.uleb128 0x1
 4005 01b1 50       		.byte	0x50
 4006 01b2 9F       		.byte	0x9f
 4007 01b3 00000000 		.4byte	0
 4008 01b7 00000000 		.4byte	0
 4009              	.LLST6:
 4010 01bb 00000000 		.4byte	.LVL89
 4011 01bf 06000000 		.4byte	.LVL90
 4012 01c3 0100     		.2byte	0x1
 4013 01c5 50       		.byte	0x50
 4014 01c6 06000000 		.4byte	.LVL90
 4015 01ca 16000000 		.4byte	.LFE13
 4016 01ce 0100     		.2byte	0x1
 4017 01d0 54       		.byte	0x54
 4018 01d1 00000000 		.4byte	0
 4019 01d5 00000000 		.4byte	0
 4020              	.LLST7:
 4021 01d9 0C000000 		.4byte	.LVL93
ARM GAS  /tmp/cc2qSXYA.s 			page 72


 4022 01dd 16000000 		.4byte	.LVL94
 4023 01e1 0100     		.2byte	0x1
 4024 01e3 50       		.byte	0x50
 4025 01e4 28000000 		.4byte	.LVL96
 4026 01e8 32000000 		.4byte	.LVL97
 4027 01ec 0100     		.2byte	0x1
 4028 01ee 50       		.byte	0x50
 4029 01ef 44000000 		.4byte	.LVL99
 4030 01f3 4E000000 		.4byte	.LVL100
 4031 01f7 0100     		.2byte	0x1
 4032 01f9 50       		.byte	0x50
 4033 01fa 00000000 		.4byte	0
 4034 01fe 00000000 		.4byte	0
 4035              	.LLST8:
 4036 0202 60000000 		.4byte	.LVL102
 4037 0206 6A000000 		.4byte	.LVL103
 4038 020a 0100     		.2byte	0x1
 4039 020c 50       		.byte	0x50
 4040 020d 7C000000 		.4byte	.LVL105
 4041 0211 86000000 		.4byte	.LVL106
 4042 0215 0100     		.2byte	0x1
 4043 0217 50       		.byte	0x50
 4044 0218 98000000 		.4byte	.LVL108
 4045 021c A6000000 		.4byte	.LVL109
 4046 0220 0100     		.2byte	0x1
 4047 0222 50       		.byte	0x50
 4048 0223 00000000 		.4byte	0
 4049 0227 00000000 		.4byte	0
 4050              		.section	.debug_aranges,"",%progbits
 4051 0000 6C000000 		.4byte	0x6c
 4052 0004 0200     		.2byte	0x2
 4053 0006 00000000 		.4byte	.Ldebug_info0
 4054 000a 04       		.byte	0x4
 4055 000b 00       		.byte	0
 4056 000c 0000     		.2byte	0
 4057 000e 0000     		.2byte	0
 4058 0010 00000000 		.4byte	.LFB11
 4059 0014 88000000 		.4byte	.LFE11-.LFB11
 4060 0018 00000000 		.4byte	.LFB10
 4061 001c 06000000 		.4byte	.LFE10-.LFB10
 4062 0020 00000000 		.4byte	.LFB9
 4063 0024 06000000 		.4byte	.LFE9-.LFB9
 4064 0028 00000000 		.4byte	.LFB8
 4065 002c 06000000 		.4byte	.LFE8-.LFB8
 4066 0030 00000000 		.4byte	.LFB7
 4067 0034 08000000 		.4byte	.LFE7-.LFB7
 4068 0038 00000000 		.4byte	.LFB12
 4069 003c 08000000 		.4byte	.LFE12-.LFB12
 4070 0040 00000000 		.4byte	.LFB16
 4071 0044 08000000 		.4byte	.LFE16-.LFB16
 4072 0048 00000000 		.4byte	.LFB15
 4073 004c 7E020000 		.4byte	.LFE15-.LFB15
 4074 0050 00000000 		.4byte	.LFB14
 4075 0054 28000000 		.4byte	.LFE14-.LFB14
 4076 0058 00000000 		.4byte	.LFB13
 4077 005c 16000000 		.4byte	.LFE13-.LFB13
 4078 0060 00000000 		.4byte	.LFB17
ARM GAS  /tmp/cc2qSXYA.s 			page 73


 4079 0064 AA000000 		.4byte	.LFE17-.LFB17
 4080 0068 00000000 		.4byte	0
 4081 006c 00000000 		.4byte	0
 4082              		.section	.debug_ranges,"",%progbits
 4083              	.Ldebug_ranges0:
 4084 0000 56000000 		.4byte	.LBB5
 4085 0004 98000000 		.4byte	.LBE5
 4086 0008 9C000000 		.4byte	.LBB6
 4087 000c AA000000 		.4byte	.LBE6
 4088 0010 00000000 		.4byte	0
 4089 0014 00000000 		.4byte	0
 4090 0018 00000000 		.4byte	.LFB11
 4091 001c 88000000 		.4byte	.LFE11
 4092 0020 00000000 		.4byte	.LFB10
 4093 0024 06000000 		.4byte	.LFE10
 4094 0028 00000000 		.4byte	.LFB9
 4095 002c 06000000 		.4byte	.LFE9
 4096 0030 00000000 		.4byte	.LFB8
 4097 0034 06000000 		.4byte	.LFE8
 4098 0038 00000000 		.4byte	.LFB7
 4099 003c 08000000 		.4byte	.LFE7
 4100 0040 00000000 		.4byte	.LFB12
 4101 0044 08000000 		.4byte	.LFE12
 4102 0048 00000000 		.4byte	.LFB16
 4103 004c 08000000 		.4byte	.LFE16
 4104 0050 00000000 		.4byte	.LFB15
 4105 0054 7E020000 		.4byte	.LFE15
 4106 0058 00000000 		.4byte	.LFB14
 4107 005c 28000000 		.4byte	.LFE14
 4108 0060 00000000 		.4byte	.LFB13
 4109 0064 16000000 		.4byte	.LFE13
 4110 0068 00000000 		.4byte	.LFB17
 4111 006c AA000000 		.4byte	.LFE17
 4112 0070 00000000 		.4byte	0
 4113 0074 00000000 		.4byte	0
 4114              		.section	.debug_line,"",%progbits
 4115              	.Ldebug_line0:
 4116 0000 B1020000 		.section	.debug_str,"MS",%progbits,1
 4116      02008401 
 4116      00000201 
 4116      FB0E0D00 
 4116      01010101 
 4117              	.LASF81:
 4118 0000 7466756E 		.ascii	"tfunc_t\000"
 4118      635F7400 
 4119              	.LASF89:
 4120 0008 65767432 		.ascii	"evt2_setup\000"
 4120      5F736574 
 4120      757000
 4121              	.LASF42:
 4122 0013 54687265 		.ascii	"ThreadsQueue\000"
 4122      61647351 
 4122      75657565 
 4122      00
 4123              	.LASF123:
 4124 0020 2E2E2F74 		.ascii	"../third_party/ChibiOS/test/testevt.c\000"
 4124      68697264 
ARM GAS  /tmp/cc2qSXYA.s 			page 74


 4124      5F706172 
 4124      74792F43 
 4124      68696269 
 4125              	.LASF2:
 4126 0046 73697A65 		.ascii	"size_t\000"
 4126      5F7400
 4127              	.LASF76:
 4128 004d 7264796D 		.ascii	"rdymsg\000"
 4128      736700
 4129              	.LASF96:
 4130 0054 76746C69 		.ascii	"vtlist\000"
 4130      737400
 4131              	.LASF122:
 4132 005b 474E5520 		.ascii	"GNU C 4.8.1 -mcpu=cortex-m3 -mno-thumb-interwork -m"
 4132      4320342E 
 4132      382E3120 
 4132      2D6D6370 
 4132      753D636F 
 4133 008e 7468756D 		.ascii	"thumb -ggdb -O2 -std=gnu99 -fomit-frame-pointer -fa"
 4133      62202D67 
 4133      67646220 
 4133      2D4F3220 
 4133      2D737464 
 4134 00c1 6C69676E 		.ascii	"lign-functions=16 -ffunction-sections -fdata-sectio"
 4134      2D66756E 
 4134      6374696F 
 4134      6E733D31 
 4134      36202D66 
 4135 00f4 6E73202D 		.ascii	"ns -fno-common\000"
 4135      666E6F2D 
 4135      636F6D6D 
 4135      6F6E00
 4136              	.LASF12:
 4137 0103 6C6F6E67 		.ascii	"long long unsigned int\000"
 4137      206C6F6E 
 4137      6720756E 
 4137      7369676E 
 4137      65642069 
 4138              	.LASF77:
 4139 011a 65786974 		.ascii	"exitcode\000"
 4139      636F6465 
 4139      00
 4140              	.LASF120:
 4141 0123 63684576 		.ascii	"chEvtWaitAnyTimeout\000"
 4141      74576169 
 4141      74416E79 
 4141      54696D65 
 4141      6F757400 
 4142              	.LASF26:
 4143 0137 705F7072 		.ascii	"p_prio\000"
 4143      696F00
 4144              	.LASF91:
 4145 013e 65767432 		.ascii	"evt2_execute\000"
 4145      5F657865 
 4145      63757465 
 4145      00
 4146              	.LASF11:
ARM GAS  /tmp/cc2qSXYA.s 			page 75


 4147 014b 6C6F6E67 		.ascii	"long long int\000"
 4147      206C6F6E 
 4147      6720696E 
 4147      7400
 4148              	.LASF1:
 4149 0159 7369676E 		.ascii	"signed char\000"
 4149      65642063 
 4149      68617200 
 4150              	.LASF121:
 4151 0165 63684576 		.ascii	"chEvtWaitAllTimeout\000"
 4151      74576169 
 4151      74416C6C 
 4151      54696D65 
 4151      6F757400 
 4152              	.LASF41:
 4153 0179 705F6D70 		.ascii	"p_mpool\000"
 4153      6F6F6C00 
 4154              	.LASF13:
 4155 0181 626F6F6C 		.ascii	"bool_t\000"
 4155      5F7400
 4156              	.LASF66:
 4157 0188 6D5F7175 		.ascii	"m_queue\000"
 4157      65756500 
 4158              	.LASF108:
 4159 0190 74657374 		.ascii	"test_emit_token\000"
 4159      5F656D69 
 4159      745F746F 
 4159      6B656E00 
 4160              	.LASF110:
 4161 01a0 63684576 		.ascii	"chEvtAddFlags\000"
 4161      74416464 
 4161      466C6167 
 4161      7300
 4162              	.LASF8:
 4163 01ae 6C6F6E67 		.ascii	"long int\000"
 4163      20696E74 
 4163      00
 4164              	.LASF92:
 4165 01b7 74617267 		.ascii	"target_time\000"
 4165      65745F74 
 4165      696D6500 
 4166              	.LASF15:
 4167 01c3 74737461 		.ascii	"tstate_t\000"
 4167      74655F74 
 4167      00
 4168              	.LASF113:
 4169 01cc 5F746573 		.ascii	"_test_assert_time_window\000"
 4169      745F6173 
 4169      73657274 
 4169      5F74696D 
 4169      655F7769 
 4170              	.LASF100:
 4171 01e5 74657374 		.ascii	"testevt2\000"
 4171      65767432 
 4171      00
 4172              	.LASF114:
 4173 01ee 63684576 		.ascii	"chEvtWaitAny\000"
ARM GAS  /tmp/cc2qSXYA.s 			page 76


 4173      74576169 
 4173      74416E79 
 4173      00
 4174              	.LASF101:
 4175 01fb 74657374 		.ascii	"testevt3\000"
 4175      65767433 
 4175      00
 4176              	.LASF28:
 4177 0204 705F6E65 		.ascii	"p_newer\000"
 4177      77657200 
 4178              	.LASF60:
 4179 020c 725F6E65 		.ascii	"r_newer\000"
 4179      77657200 
 4180              	.LASF44:
 4181 0214 72656761 		.ascii	"regarm_t\000"
 4181      726D5F74 
 4181      00
 4182              	.LASF51:
 4183 021d 76745F70 		.ascii	"vt_prev\000"
 4183      72657600 
 4184              	.LASF116:
 4185 0225 63684576 		.ascii	"chEvtBroadcastFlags\000"
 4185      7442726F 
 4185      61646361 
 4185      7374466C 
 4185      61677300 
 4186              	.LASF19:
 4187 0239 6576656E 		.ascii	"eventid_t\000"
 4187      7469645F 
 4187      7400
 4188              	.LASF73:
 4189 0243 4576656E 		.ascii	"EventSource\000"
 4189      74536F75 
 4189      72636500 
 4190              	.LASF75:
 4191 024f 65766861 		.ascii	"evhandler_t\000"
 4191      6E646C65 
 4191      725F7400 
 4192              	.LASF22:
 4193 025b 636E745F 		.ascii	"cnt_t\000"
 4193      7400
 4194              	.LASF118:
 4195 0261 63684576 		.ascii	"chEvtSignalFlags\000"
 4195      74536967 
 4195      6E616C46 
 4195      6C616773 
 4195      00
 4196              	.LASF0:
 4197 0272 756E7369 		.ascii	"unsigned int\000"
 4197      676E6564 
 4197      20696E74 
 4197      00
 4198              	.LASF50:
 4199 027f 76745F6E 		.ascii	"vt_next\000"
 4199      65787400 
 4200              	.LASF10:
 4201 0287 6C6F6E67 		.ascii	"long unsigned int\000"
ARM GAS  /tmp/cc2qSXYA.s 			page 77


 4201      20756E73 
 4201      69676E65 
 4201      6420696E 
 4201      7400
 4202              	.LASF85:
 4203 0299 74656172 		.ascii	"teardown\000"
 4203      646F776E 
 4203      00
 4204              	.LASF102:
 4205 02a2 70617474 		.ascii	"patternevt\000"
 4205      65726E65 
 4205      767400
 4206              	.LASF83:
 4207 02ad 6E616D65 		.ascii	"name\000"
 4207      00
 4208              	.LASF46:
 4209 02b2 636F6E74 		.ascii	"context\000"
 4209      65787400 
 4210              	.LASF6:
 4211 02ba 73686F72 		.ascii	"short unsigned int\000"
 4211      7420756E 
 4211      7369676E 
 4211      65642069 
 4211      6E7400
 4212              	.LASF103:
 4213 02cd 63684576 		.ascii	"chEvtRegisterMask\000"
 4213      74526567 
 4213      69737465 
 4213      724D6173 
 4213      6B00
 4214              	.LASF18:
 4215 02df 6D73675F 		.ascii	"msg_t\000"
 4215      7400
 4216              	.LASF70:
 4217 02e5 656C5F6E 		.ascii	"el_next\000"
 4217      65787400 
 4218              	.LASF104:
 4219 02ed 63684576 		.ascii	"chEvtUnregister\000"
 4219      74556E72 
 4219      65676973 
 4219      74657200 
 4220              	.LASF14:
 4221 02fd 746D6F64 		.ascii	"tmode_t\000"
 4221      655F7400 
 4222              	.LASF43:
 4223 0305 54687265 		.ascii	"ThreadsList\000"
 4223      6164734C 
 4223      69737400 
 4224              	.LASF20:
 4225 0311 6576656E 		.ascii	"eventmask_t\000"
 4225      746D6173 
 4225      6B5F7400 
 4226              	.LASF65:
 4227 031d 4D757465 		.ascii	"Mutex\000"
 4227      7800
 4228              	.LASF112:
 4229 0323 63685468 		.ascii	"chThdCreateStatic\000"
ARM GAS  /tmp/cc2qSXYA.s 			page 78


 4229      64437265 
 4229      61746553 
 4229      74617469 
 4229      6300
 4230              	.LASF52:
 4231 0335 76745F74 		.ascii	"vt_time\000"
 4231      696D6500 
 4232              	.LASF88:
 4233 033d 65767431 		.ascii	"evt1_setup\000"
 4233      5F736574 
 4233      757000
 4234              	.LASF47:
 4235 0348 73697A65 		.ascii	"sizetype\000"
 4235      74797065 
 4235      00
 4236              	.LASF53:
 4237 0351 76745F66 		.ascii	"vt_func\000"
 4237      756E6300 
 4238              	.LASF105:
 4239 0359 63684576 		.ascii	"chEvtDispatch\000"
 4239      74446973 
 4239      70617463 
 4239      6800
 4240              	.LASF90:
 4241 0367 65767433 		.ascii	"evt3_setup\000"
 4241      5F736574 
 4241      757000
 4242              	.LASF127:
 4243 0372 74657374 		.ascii	"test_wait_threads\000"
 4243      5F776169 
 4243      745F7468 
 4243      72656164 
 4243      7300
 4244              	.LASF29:
 4245 0384 705F6F6C 		.ascii	"p_older\000"
 4245      64657200 
 4246              	.LASF94:
 4247 038c 74687265 		.ascii	"thread1\000"
 4247      61643100 
 4248              	.LASF93:
 4249 0394 74687265 		.ascii	"thread2\000"
 4249      61643200 
 4250              	.LASF59:
 4251 039c 725F6374 		.ascii	"r_ctx\000"
 4251      7800
 4252              	.LASF124:
 4253 03a2 2F686F6D 		.ascii	"/home/santi/Documentos/ProyectoDron_2018/MCU/creato"
 4253      652F7361 
 4253      6E74692F 
 4253      446F6375 
 4253      6D656E74 
 4254 03d5 7200     		.ascii	"r\000"
 4255              	.LASF84:
 4256 03d7 73657475 		.ascii	"setup\000"
 4256      7000
 4257              	.LASF107:
 4258 03dd 5F746573 		.ascii	"_test_assert_sequence\000"
ARM GAS  /tmp/cc2qSXYA.s 			page 79


 4258      745F6173 
 4258      73657274 
 4258      5F736571 
 4258      75656E63 
 4259              	.LASF115:
 4260 03f3 63684576 		.ascii	"chEvtWaitAll\000"
 4260      74576169 
 4260      74416C6C 
 4260      00
 4261              	.LASF63:
 4262 0400 725F6375 		.ascii	"r_current\000"
 4262      7272656E 
 4262      7400
 4263              	.LASF61:
 4264 040a 725F6F6C 		.ascii	"r_older\000"
 4264      64657200 
 4265              	.LASF72:
 4266 0412 656C5F6D 		.ascii	"el_mask\000"
 4266      61736B00 
 4267              	.LASF16:
 4268 041a 74726566 		.ascii	"trefs_t\000"
 4268      735F7400 
 4269              	.LASF25:
 4270 0422 705F7072 		.ascii	"p_prev\000"
 4270      657600
 4271              	.LASF86:
 4272 0429 65786563 		.ascii	"execute\000"
 4272      75746500 
 4273              	.LASF17:
 4274 0431 74707269 		.ascii	"tprio_t\000"
 4274      6F5F7400 
 4275              	.LASF109:
 4276 0439 63684576 		.ascii	"chEvtClearFlags\000"
 4276      74436C65 
 4276      6172466C 
 4276      61677300 
 4277              	.LASF7:
 4278 0449 696E7433 		.ascii	"int32_t\000"
 4278      325F7400 
 4279              	.LASF4:
 4280 0451 756E7369 		.ascii	"unsigned char\000"
 4280      676E6564 
 4280      20636861 
 4280      7200
 4281              	.LASF111:
 4282 045f 63684576 		.ascii	"chEvtWaitOne\000"
 4282      74576169 
 4282      744F6E65 
 4282      00
 4283              	.LASF71:
 4284 046c 656C5F6C 		.ascii	"el_listener\000"
 4284      69737465 
 4284      6E657200 
 4285              	.LASF125:
 4286 0478 65767433 		.ascii	"evt3_execute\000"
 4286      5F657865 
 4286      63757465 
ARM GAS  /tmp/cc2qSXYA.s 			page 80


 4286      00
 4287              	.LASF39:
 4288 0485 705F6D74 		.ascii	"p_mtxlist\000"
 4288      786C6973 
 4288      7400
 4289              	.LASF5:
 4290 048f 73686F72 		.ascii	"short int\000"
 4290      7420696E 
 4290      7400
 4291              	.LASF31:
 4292 0499 705F7374 		.ascii	"p_state\000"
 4292      61746500 
 4293              	.LASF98:
 4294 04a1 74687265 		.ascii	"threads\000"
 4294      61647300 
 4295              	.LASF58:
 4296 04a9 725F7072 		.ascii	"r_prio\000"
 4296      696F00
 4297              	.LASF79:
 4298 04b0 65776D61 		.ascii	"ewmask\000"
 4298      736B00
 4299              	.LASF24:
 4300 04b7 705F6E65 		.ascii	"p_next\000"
 4300      787400
 4301              	.LASF32:
 4302 04be 705F666C 		.ascii	"p_flags\000"
 4302      61677300 
 4303              	.LASF23:
 4304 04c6 54687265 		.ascii	"Thread\000"
 4304      616400
 4305              	.LASF82:
 4306 04cd 74657374 		.ascii	"testcase\000"
 4306      63617365 
 4306      00
 4307              	.LASF38:
 4308 04d6 705F6570 		.ascii	"p_epending\000"
 4308      656E6469 
 4308      6E6700
 4309              	.LASF99:
 4310 04e1 74657374 		.ascii	"testevt1\000"
 4310      65767431 
 4310      00
 4311              	.LASF95:
 4312 04ea 6576686E 		.ascii	"evhndl\000"
 4312      646C00
 4313              	.LASF9:
 4314 04f1 75696E74 		.ascii	"uint32_t\000"
 4314      33325F74 
 4314      00
 4315              	.LASF57:
 4316 04fa 725F7175 		.ascii	"r_queue\000"
 4316      65756500 
 4317              	.LASF49:
 4318 0502 56697274 		.ascii	"VirtualTimer\000"
 4318      75616C54 
 4318      696D6572 
 4318      00
ARM GAS  /tmp/cc2qSXYA.s 			page 81


 4319              	.LASF80:
 4320 050f 63686172 		.ascii	"char\000"
 4320      00
 4321              	.LASF68:
 4322 0514 6D5F6E65 		.ascii	"m_next\000"
 4322      787400
 4323              	.LASF21:
 4324 051b 73797374 		.ascii	"systime_t\000"
 4324      696D655F 
 4324      7400
 4325              	.LASF40:
 4326 0525 705F7265 		.ascii	"p_realprio\000"
 4326      616C7072 
 4326      696F00
 4327              	.LASF48:
 4328 0530 76746675 		.ascii	"vtfunc_t\000"
 4328      6E635F74 
 4328      00
 4329              	.LASF34:
 4330 0539 705F7469 		.ascii	"p_time\000"
 4330      6D6500
 4331              	.LASF45:
 4332 0540 696E7463 		.ascii	"intctx\000"
 4332      747800
 4333              	.LASF36:
 4334 0547 705F6D73 		.ascii	"p_msgqueue\000"
 4334      67717565 
 4334      756500
 4335              	.LASF54:
 4336 0552 76745F70 		.ascii	"vt_par\000"
 4336      617200
 4337              	.LASF117:
 4338 0559 63685468 		.ascii	"chThdSleep\000"
 4338      64536C65 
 4338      657000
 4339              	.LASF33:
 4340 0564 705F7265 		.ascii	"p_refs\000"
 4340      667300
 4341              	.LASF64:
 4342 056b 52656164 		.ascii	"ReadyList\000"
 4342      794C6973 
 4342      7400
 4343              	.LASF97:
 4344 0575 726C6973 		.ascii	"rlist\000"
 4344      7400
 4345              	.LASF3:
 4346 057b 75696E74 		.ascii	"uint8_t\000"
 4346      385F7400 
 4347              	.LASF69:
 4348 0583 4576656E 		.ascii	"EventListener\000"
 4348      744C6973 
 4348      74656E65 
 4348      7200
 4349              	.LASF119:
 4350 0591 63684576 		.ascii	"chEvtWaitOneTimeout\000"
 4350      74576169 
 4350      744F6E65 
ARM GAS  /tmp/cc2qSXYA.s 			page 82


 4350      54696D65 
 4350      6F757400 
 4351              	.LASF78:
 4352 05a5 77746F62 		.ascii	"wtobjp\000"
 4352      6A7000
 4353              	.LASF30:
 4354 05ac 705F6E61 		.ascii	"p_name\000"
 4354      6D6500
 4355              	.LASF106:
 4356 05b3 5F746573 		.ascii	"_test_assert\000"
 4356      745F6173 
 4356      73657274 
 4356      00
 4357              	.LASF55:
 4358 05c0 76745F73 		.ascii	"vt_systime\000"
 4358      79737469 
 4358      6D6500
 4359              	.LASF74:
 4360 05cb 65735F6E 		.ascii	"es_next\000"
 4360      65787400 
 4361              	.LASF37:
 4362 05d3 705F6D73 		.ascii	"p_msg\000"
 4362      6700
 4363              	.LASF56:
 4364 05d9 56544C69 		.ascii	"VTList\000"
 4364      737400
 4365              	.LASF62:
 4366 05e0 725F7072 		.ascii	"r_preempt\000"
 4366      65656D70 
 4366      7400
 4367              	.LASF67:
 4368 05ea 6D5F6F77 		.ascii	"m_owner\000"
 4368      6E657200 
 4369              	.LASF126:
 4370 05f2 74657374 		.ascii	"test_wait_tick\000"
 4370      5F776169 
 4370      745F7469 
 4370      636B00
 4371              	.LASF87:
 4372 0601 65767431 		.ascii	"evt1_execute\000"
 4372      5F657865 
 4372      63757465 
 4372      00
 4373              	.LASF27:
 4374 060e 705F6374 		.ascii	"p_ctx\000"
 4374      7800
 4375              	.LASF35:
 4376 0614 705F7761 		.ascii	"p_waiting\000"
 4376      6974696E 
 4376      6700
 4377              		.ident	"GCC: (Sourcery CodeBench Lite 2013.11-24) 4.8.1"
ARM GAS  /tmp/cc2qSXYA.s 			page 83


DEFINED SYMBOLS
                            *ABS*:00000000 testevt.c
     /tmp/cc2qSXYA.s:19     .text.evt1_execute:00000000 $t
     /tmp/cc2qSXYA.s:24     .text.evt1_execute:00000000 evt1_execute
     /tmp/cc2qSXYA.s:862    .data.es1:00000000 .LANCHOR0
     /tmp/cc2qSXYA.s:844    .rodata.evhndl:00000000 .LANCHOR1
     /tmp/cc2qSXYA.s:820    .rodata.str1.4:00000000 .LC0
     /tmp/cc2qSXYA.s:119    .text.h3:00000000 $t
     /tmp/cc2qSXYA.s:124    .text.h3:00000000 h3
     /tmp/cc2qSXYA.s:141    .text.h2:00000000 $t
     /tmp/cc2qSXYA.s:146    .text.h2:00000000 h2
     /tmp/cc2qSXYA.s:163    .text.h1:00000000 $t
     /tmp/cc2qSXYA.s:168    .text.h1:00000000 h1
     /tmp/cc2qSXYA.s:185    .text.evt1_setup:00000000 $t
     /tmp/cc2qSXYA.s:190    .text.evt1_setup:00000000 evt1_setup
     /tmp/cc2qSXYA.s:205    .text.evt2_setup:00000000 $t
     /tmp/cc2qSXYA.s:210    .text.evt2_setup:00000000 evt2_setup
     /tmp/cc2qSXYA.s:225    .text.evt3_setup:00000000 $t
     /tmp/cc2qSXYA.s:230    .text.evt3_setup:00000000 evt3_setup
     /tmp/cc2qSXYA.s:245    .text.evt2_execute:00000000 $t
     /tmp/cc2qSXYA.s:250    .text.evt2_execute:00000000 evt2_execute
     /tmp/cc2qSXYA.s:648    .text.thread1:00000000 thread1
     /tmp/cc2qSXYA.s:869    .data.es2:00000000 .LANCHOR2
     /tmp/cc2qSXYA.s:822    .rodata.str1.4:00000004 .LC1
     /tmp/cc2qSXYA.s:608    .text.thread2:00000000 thread2
     /tmp/cc2qSXYA.s:603    .text.thread2:00000000 $t
     /tmp/cc2qSXYA.s:643    .text.thread1:00000000 $t
     /tmp/cc2qSXYA.s:678    .text.evt3_execute:00000000 $t
     /tmp/cc2qSXYA.s:683    .text.evt3_execute:00000000 evt3_execute
     /tmp/cc2qSXYA.s:804    .rodata.patternevt:00000000 patternevt
     /tmp/cc2qSXYA.s:855    .rodata.testevt3:00000000 testevt3
     /tmp/cc2qSXYA.s:813    .rodata.testevt2:00000000 testevt2
     /tmp/cc2qSXYA.s:837    .rodata.testevt1:00000000 testevt1
     /tmp/cc2qSXYA.s:801    .rodata.patternevt:00000000 $d
     /tmp/cc2qSXYA.s:810    .rodata.testevt2:00000000 $d
     /tmp/cc2qSXYA.s:819    .rodata.str1.4:00000000 $d
     /tmp/cc2qSXYA.s:834    .rodata.testevt1:00000000 $d
     /tmp/cc2qSXYA.s:843    .rodata.evhndl:00000000 $d
     /tmp/cc2qSXYA.s:847    .rodata.evhndl:00000000 evhndl
     /tmp/cc2qSXYA.s:852    .rodata.testevt3:00000000 $d
     /tmp/cc2qSXYA.s:861    .data.es1:00000000 $d
     /tmp/cc2qSXYA.s:865    .data.es1:00000000 es1
     /tmp/cc2qSXYA.s:868    .data.es2:00000000 $d
     /tmp/cc2qSXYA.s:872    .data.es2:00000000 es2
                     .debug_frame:00000010 $d

UNDEFINED SYMBOLS
chEvtRegisterMask
_test_assert
chEvtUnregister
chEvtDispatch
_test_assert_sequence
test_emit_token
chEvtClearFlags
chEvtAddFlags
chEvtWaitOne
rlist
ARM GAS  /tmp/cc2qSXYA.s 			page 84


test_wait_tick
wa
vtlist
chThdCreateStatic
threads
_test_assert_time_window
test_wait_threads
chEvtWaitAny
chEvtWaitAll
chEvtBroadcastFlags
chThdSleep
chEvtSignalFlags
chEvtWaitOneTimeout
chEvtWaitAnyTimeout
chEvtWaitAllTimeout
