ARM GAS  /tmp/cc8AVhBh.s 			page 1


   1              		.syntax unified
   2              		.cpu cortex-m3
   3              		.fpu softvfp
   4              		.eabi_attribute 20, 1
   5              		.eabi_attribute 21, 1
   6              		.eabi_attribute 23, 3
   7              		.eabi_attribute 24, 1
   8              		.eabi_attribute 25, 1
   9              		.eabi_attribute 26, 1
  10              		.eabi_attribute 30, 2
  11              		.eabi_attribute 34, 1
  12              		.eabi_attribute 18, 4
  13              		.thumb
  14              		.file	"testpools.c"
  15              		.text
  16              	.Ltext0:
  17              		.cfi_sections	.debug_frame
  18              		.section	.text.null_provider,"ax",%progbits
  19              		.align	2
  20              		.p2align 4,,15
  21              		.thumb
  22              		.thumb_func
  23              		.type	null_provider, %function
  24              	null_provider:
  25              	.LFB7:
  26              		.file 1 "../third_party/ChibiOS/test/testpools.c"
  27              		.loc 1 71 0
  28              		.cfi_startproc
  29              		@ args = 0, pretend = 0, frame = 0
  30              		@ frame_needed = 0, uses_anonymous_args = 0
  31              		@ link register save eliminated.
  32              	.LVL0:
  33              		.loc 1 75 0
  34 0000 0020     		movs	r0, #0
  35              	.LVL1:
  36 0002 7047     		bx	lr
  37              		.cfi_endproc
  38              	.LFE7:
  39              		.size	null_provider, .-null_provider
  40 0004 AFF30080 		.section	.text.pools1_setup,"ax",%progbits
  40      AFF30080 
  40      AFF30080 
  41              		.align	2
  42              		.p2align 4,,15
  43              		.thumb
  44              		.thumb_func
  45              		.type	pools1_setup, %function
  46              	pools1_setup:
  47              	.LFB8:
  48              		.loc 1 77 0
  49              		.cfi_startproc
  50              		@ args = 0, pretend = 0, frame = 0
  51              		@ frame_needed = 0, uses_anonymous_args = 0
  52              		@ link register save eliminated.
  53              		.loc 1 79 0
  54 0000 40F20000 		movw	r0, #:lower16:.LANCHOR0
  55 0004 C0F20000 		movt	r0, #:upper16:.LANCHOR0
ARM GAS  /tmp/cc8AVhBh.s 			page 2


  56 0008 4FF49871 		mov	r1, #304
  57 000c 0022     		movs	r2, #0
  58 000e FFF7FEBF 		b	chPoolInit
  59              	.LVL2:
  60              		.cfi_endproc
  61              	.LFE8:
  62              		.size	pools1_setup, .-pools1_setup
  63 0012 00BFAFF3 		.section	.text.pools1_execute,"ax",%progbits
  63      0080AFF3 
  63      0080AFF3 
  63      0080
  64              		.align	2
  65              		.p2align 4,,15
  66              		.thumb
  67              		.thumb_func
  68              		.type	pools1_execute, %function
  69              	pools1_execute:
  70              	.LFB9:
  71              		.loc 1 82 0
  72              		.cfi_startproc
  73              		@ args = 0, pretend = 0, frame = 0
  74              		@ frame_needed = 0, uses_anonymous_args = 0
  75              	.LVL3:
  76 0000 38B5     		push	{r3, r4, r5, lr}
  77              		.cfi_def_cfa_offset 16
  78              		.cfi_offset 3, -16
  79              		.cfi_offset 4, -12
  80              		.cfi_offset 5, -8
  81              		.cfi_offset 14, -4
  82 0002 234C     		ldr	r4, .L13
  83 0004 04F11405 		add	r5, r4, #20
  84              	.LVL4:
  85              	.L5:
  86              		.loc 1 87 0 discriminator 2
  87 0008 54F8041F 		ldr	r1, [r4, #4]!
  88 000c 40F20000 		movw	r0, #:lower16:.LANCHOR0
  89 0010 C0F20000 		movt	r0, #:upper16:.LANCHOR0
  90 0014 FFF7FEFF 		bl	chPoolFree
  91              	.LVL5:
  92              		.loc 1 86 0 discriminator 2
  93 0018 AC42     		cmp	r4, r5
  94 001a F5D1     		bne	.L5
  95              		.loc 1 86 0 is_stmt 0
  96 001c 0524     		movs	r4, #5
  97              	.L9:
  98              	.LVL6:
  99              		.loc 1 91 0 is_stmt 1
 100 001e 40F20000 		movw	r0, #:lower16:.LANCHOR0
 101 0022 C0F20000 		movt	r0, #:upper16:.LANCHOR0
 102 0026 FFF7FEFF 		bl	chPoolAlloc
 103              	.LVL7:
 104 002a 011C     		adds	r1, r0, #0
 105 002c 18BF     		it	ne
 106 002e 0121     		movne	r1, #1
 107 0030 0120     		movs	r0, #1
 108 0032 FFF7FEFF 		bl	_test_assert
 109              	.LVL8:
ARM GAS  /tmp/cc8AVhBh.s 			page 3


 110 0036 78B9     		cbnz	r0, .L3
 111              		.loc 1 90 0
 112 0038 013C     		subs	r4, r4, #1
 113              	.LVL9:
 114 003a F0D1     		bne	.L9
 115              		.loc 1 94 0
 116 003c 40F20000 		movw	r0, #:lower16:.LANCHOR0
 117 0040 C0F20000 		movt	r0, #:upper16:.LANCHOR0
 118 0044 FFF7FEFF 		bl	chPoolAlloc
 119              	.LVL10:
 120 0048 D0F10101 		rsbs	r1, r0, #1
 121 004c 38BF     		it	cc
 122 004e 0021     		movcc	r1, #0
 123 0050 0220     		movs	r0, #2
 124 0052 FFF7FEFF 		bl	_test_assert
 125              	.LVL11:
 126 0056 00B1     		cbz	r0, .L12
 127              	.LVL12:
 128              	.L3:
 129 0058 38BD     		pop	{r3, r4, r5, pc}
 130              	.LVL13:
 131              	.L12:
 132              	.LBB4:
 133              	.LBB5:
 134              		.loc 1 97 0
 135 005a 40F20000 		movw	r0, #:lower16:.LANCHOR0
 136 005e 40F20002 		movw	r2, #:lower16:null_provider
 137 0062 1021     		movs	r1, #16
 138 0064 C0F20000 		movt	r0, #:upper16:.LANCHOR0
 139 0068 C0F20002 		movt	r2, #:upper16:null_provider
 140 006c FFF7FEFF 		bl	chPoolInit
 141              	.LVL14:
 142              		.loc 1 98 0
 143 0070 40F20000 		movw	r0, #:lower16:.LANCHOR0
 144 0074 C0F20000 		movt	r0, #:upper16:.LANCHOR0
 145 0078 FFF7FEFF 		bl	chPoolAlloc
 146              	.LVL15:
 147              	.LBE5:
 148              	.LBE4:
 149              		.loc 1 99 0
 150 007c BDE83840 		pop	{r3, r4, r5, lr}
 151              	.LVL16:
 152              	.LBB7:
 153              	.LBB6:
 154              		.loc 1 98 0
 155 0080 D0F10101 		rsbs	r1, r0, #1
 156 0084 38BF     		it	cc
 157 0086 0021     		movcc	r1, #0
 158 0088 0320     		movs	r0, #3
 159 008a FFF7FEBF 		b	_test_assert
 160              	.LVL17:
 161              	.L14:
 162 008e 00BF     		.align	2
 163              	.L13:
 164 0090 FCFFFFFF 		.word	wa-4
 165              	.LBE6:
 166              	.LBE7:
ARM GAS  /tmp/cc8AVhBh.s 			page 4


 167              		.cfi_endproc
 168              	.LFE9:
 169              		.size	pools1_execute, .-pools1_execute
 170              		.global	patternpools
 171              		.global	testpools1
 172 0094 AFF30080 		.section	.rodata.str1.4,"aMS",%progbits,1
 172      AFF30080 
 172      AFF30080 
 173              		.align	2
 174              	.LC0:
 175 0000 4D656D6F 		.ascii	"Memory Pools, queue/dequeue\000"
 175      72792050 
 175      6F6F6C73 
 175      2C207175 
 175      6575652F 
 176              		.section	.rodata.patternpools,"a",%progbits
 177              		.align	2
 178              		.type	patternpools, %object
 179              		.size	patternpools, 8
 180              	patternpools:
 181 0000 00000000 		.word	testpools1
 182 0004 00000000 		.word	0
 183              		.section	.data.mp1,"aw",%progbits
 184              		.align	2
 185              		.set	.LANCHOR0,. + 0
 186              		.type	mp1, %object
 187              		.size	mp1, 12
 188              	mp1:
 189 0000 00000000 		.word	0
 190 0004 30010000 		.word	304
 191 0008 00000000 		.word	0
 192              		.section	.rodata.testpools1,"a",%progbits
 193              		.align	2
 194              		.type	testpools1, %object
 195              		.size	testpools1, 16
 196              	testpools1:
 197 0000 00000000 		.word	.LC0
 198 0004 00000000 		.word	pools1_setup
 199 0008 00000000 		.word	0
 200 000c 00000000 		.word	pools1_execute
 201              		.text
 202              	.Letext0:
 203              		.file 2 "/home/santi/arm-2013.11/lib/gcc/arm-none-eabi/4.8.1/include/stddef.h"
 204              		.file 3 "/home/santi/arm-2013.11/arm-none-eabi/include/stdint.h"
 205              		.file 4 "../third_party/ChibiOS/os/ports/GCC/ARMCMx/chtypes.h"
 206              		.file 5 "../third_party/ChibiOS/os/kernel/include/chmemcore.h"
 207              		.file 6 "../third_party/ChibiOS/os/kernel/include/chmempools.h"
 208              		.file 7 "../third_party/ChibiOS/test/test.h"
 209              		.section	.debug_info,"",%progbits
 210              	.Ldebug_info0:
 211 0000 80030000 		.4byte	0x380
 212 0004 0400     		.2byte	0x4
 213 0006 00000000 		.4byte	.Ldebug_abbrev0
 214 000a 04       		.byte	0x4
 215 000b 01       		.uleb128 0x1
 216 000c 3A010000 		.4byte	.LASF30
 217 0010 01       		.byte	0x1
ARM GAS  /tmp/cc8AVhBh.s 			page 5


 218 0011 F3010000 		.4byte	.LASF31
 219 0015 1A000000 		.4byte	.LASF32
 220 0019 18000000 		.4byte	.Ldebug_ranges0+0x18
 221 001d 00000000 		.4byte	0
 222 0021 00000000 		.4byte	.Ldebug_line0
 223 0025 02       		.uleb128 0x2
 224 0026 04       		.byte	0x4
 225 0027 05       		.byte	0x5
 226 0028 696E7400 		.ascii	"int\000"
 227 002c 03       		.uleb128 0x3
 228 002d 00000000 		.4byte	.LASF5
 229 0031 02       		.byte	0x2
 230 0032 D4       		.byte	0xd4
 231 0033 37000000 		.4byte	0x37
 232 0037 04       		.uleb128 0x4
 233 0038 04       		.byte	0x4
 234 0039 07       		.byte	0x7
 235 003a 01010000 		.4byte	.LASF0
 236 003e 04       		.uleb128 0x4
 237 003f 01       		.byte	0x1
 238 0040 06       		.byte	0x6
 239 0041 6B020000 		.4byte	.LASF1
 240 0045 04       		.uleb128 0x4
 241 0046 01       		.byte	0x1
 242 0047 08       		.byte	0x8
 243 0048 D2000000 		.4byte	.LASF2
 244 004c 04       		.uleb128 0x4
 245 004d 02       		.byte	0x2
 246 004e 05       		.byte	0x5
 247 004f 47020000 		.4byte	.LASF3
 248 0053 04       		.uleb128 0x4
 249 0054 02       		.byte	0x2
 250 0055 07       		.byte	0x7
 251 0056 B1000000 		.4byte	.LASF4
 252 005a 03       		.uleb128 0x3
 253 005b E2010000 		.4byte	.LASF6
 254 005f 03       		.byte	0x3
 255 0060 4F       		.byte	0x4f
 256 0061 65000000 		.4byte	0x65
 257 0065 04       		.uleb128 0x4
 258 0066 04       		.byte	0x4
 259 0067 05       		.byte	0x5
 260 0068 5D020000 		.4byte	.LASF7
 261 006c 04       		.uleb128 0x4
 262 006d 04       		.byte	0x4
 263 006e 07       		.byte	0x7
 264 006f 96000000 		.4byte	.LASF8
 265 0073 04       		.uleb128 0x4
 266 0074 08       		.byte	0x8
 267 0075 05       		.byte	0x5
 268 0076 1B020000 		.4byte	.LASF9
 269 007a 04       		.uleb128 0x4
 270 007b 08       		.byte	0x8
 271 007c 07       		.byte	0x7
 272 007d 1B010000 		.4byte	.LASF10
 273 0081 03       		.uleb128 0x3
 274 0082 66000000 		.4byte	.LASF11
ARM GAS  /tmp/cc8AVhBh.s 			page 6


 275 0086 04       		.byte	0x4
 276 0087 2E       		.byte	0x2e
 277 0088 5A000000 		.4byte	0x5a
 278 008c 05       		.uleb128 0x5
 279 008d 04       		.byte	0x4
 280 008e 04       		.uleb128 0x4
 281 008f 04       		.byte	0x4
 282 0090 07       		.byte	0x7
 283 0091 EA010000 		.4byte	.LASF12
 284 0095 03       		.uleb128 0x3
 285 0096 2E020000 		.4byte	.LASF13
 286 009a 05       		.byte	0x5
 287 009b 2C       		.byte	0x2c
 288 009c A0000000 		.4byte	0xa0
 289 00a0 06       		.uleb128 0x6
 290 00a1 04       		.byte	0x4
 291 00a2 A6000000 		.4byte	0xa6
 292 00a6 07       		.uleb128 0x7
 293 00a7 8C000000 		.4byte	0x8c
 294 00ab B5000000 		.4byte	0xb5
 295 00af 08       		.uleb128 0x8
 296 00b0 2C000000 		.4byte	0x2c
 297 00b4 00       		.byte	0
 298 00b5 09       		.uleb128 0x9
 299 00b6 76000000 		.4byte	.LASF20
 300 00ba 04       		.byte	0x4
 301 00bb 06       		.byte	0x6
 302 00bc 2C       		.byte	0x2c
 303 00bd CE000000 		.4byte	0xce
 304 00c1 0A       		.uleb128 0xa
 305 00c2 32010000 		.4byte	.LASF14
 306 00c6 06       		.byte	0x6
 307 00c7 2D       		.byte	0x2d
 308 00c8 CE000000 		.4byte	0xce
 309 00cc 00       		.byte	0
 310 00cd 00       		.byte	0
 311 00ce 06       		.uleb128 0x6
 312 00cf 04       		.byte	0x4
 313 00d0 B5000000 		.4byte	0xb5
 314 00d4 0B       		.uleb128 0xb
 315 00d5 0C       		.byte	0xc
 316 00d6 06       		.byte	0x6
 317 00d7 34       		.byte	0x34
 318 00d8 01010000 		.4byte	0x101
 319 00dc 0A       		.uleb128 0xa
 320 00dd 77020000 		.4byte	.LASF15
 321 00e1 06       		.byte	0x6
 322 00e2 35       		.byte	0x35
 323 00e3 CE000000 		.4byte	0xce
 324 00e7 00       		.byte	0
 325 00e8 0A       		.uleb128 0xa
 326 00e9 4F000000 		.4byte	.LASF16
 327 00ed 06       		.byte	0x6
 328 00ee 36       		.byte	0x36
 329 00ef 2C000000 		.4byte	0x2c
 330 00f3 04       		.byte	0x4
 331 00f4 0A       		.uleb128 0xa
ARM GAS  /tmp/cc8AVhBh.s 			page 7


 332 00f5 3B020000 		.4byte	.LASF17
 333 00f9 06       		.byte	0x6
 334 00fa 38       		.byte	0x38
 335 00fb 95000000 		.4byte	0x95
 336 00ff 08       		.byte	0x8
 337 0100 00       		.byte	0
 338 0101 03       		.uleb128 0x3
 339 0102 EB000000 		.4byte	.LASF18
 340 0106 06       		.byte	0x6
 341 0107 3A       		.byte	0x3a
 342 0108 D4000000 		.4byte	0xd4
 343 010c 06       		.uleb128 0x6
 344 010d 04       		.byte	0x4
 345 010e 12010000 		.4byte	0x112
 346 0112 0C       		.uleb128 0xc
 347 0113 17010000 		.4byte	0x117
 348 0117 04       		.uleb128 0x4
 349 0118 01       		.byte	0x1
 350 0119 08       		.byte	0x8
 351 011a 66020000 		.4byte	.LASF19
 352 011e 09       		.uleb128 0x9
 353 011f 6D000000 		.4byte	.LASF21
 354 0123 10       		.byte	0x10
 355 0124 07       		.byte	0x7
 356 0125 46       		.byte	0x46
 357 0126 5B010000 		.4byte	0x15b
 358 012a 0A       		.uleb128 0xa
 359 012b 29020000 		.4byte	.LASF22
 360 012f 07       		.byte	0x7
 361 0130 47       		.byte	0x47
 362 0131 0C010000 		.4byte	0x10c
 363 0135 00       		.byte	0
 364 0136 0A       		.uleb128 0xa
 365 0137 14000000 		.4byte	.LASF23
 366 013b 07       		.byte	0x7
 367 013c 48       		.byte	0x48
 368 013d 5C010000 		.4byte	0x15c
 369 0141 04       		.byte	0x4
 370 0142 0A       		.uleb128 0xa
 371 0143 A8000000 		.4byte	.LASF24
 372 0147 07       		.byte	0x7
 373 0148 49       		.byte	0x49
 374 0149 5C010000 		.4byte	0x15c
 375 014d 08       		.byte	0x8
 376 014e 0A       		.uleb128 0xa
 377 014f 5E000000 		.4byte	.LASF25
 378 0153 07       		.byte	0x7
 379 0154 4A       		.byte	0x4a
 380 0155 5C010000 		.4byte	0x15c
 381 0159 0C       		.byte	0xc
 382 015a 00       		.byte	0
 383 015b 0D       		.uleb128 0xd
 384 015c 06       		.uleb128 0x6
 385 015d 04       		.byte	0x4
 386 015e 5B010000 		.4byte	0x15b
 387 0162 0E       		.uleb128 0xe
 388 0163 82000000 		.4byte	.LASF33
ARM GAS  /tmp/cc8AVhBh.s 			page 8


 389 0167 01       		.byte	0x1
 390 0168 52       		.byte	0x52
 391 0169 01       		.byte	0x1
 392 016a 78010000 		.4byte	0x178
 393 016e 0F       		.uleb128 0xf
 394 016f 6900     		.ascii	"i\000"
 395 0171 01       		.byte	0x1
 396 0172 53       		.byte	0x53
 397 0173 25000000 		.4byte	0x25
 398 0177 00       		.byte	0
 399 0178 10       		.uleb128 0x10
 400 0179 C4000000 		.4byte	.LASF34
 401 017d 01       		.byte	0x1
 402 017e 47       		.byte	0x47
 403 017f 8C000000 		.4byte	0x8c
 404 0183 00000000 		.4byte	.LFB7
 405 0187 04000000 		.4byte	.LFE7-.LFB7
 406 018b 01       		.uleb128 0x1
 407 018c 9C       		.byte	0x9c
 408 018d A1010000 		.4byte	0x1a1
 409 0191 11       		.uleb128 0x11
 410 0192 91000000 		.4byte	.LASF35
 411 0196 01       		.byte	0x1
 412 0197 47       		.byte	0x47
 413 0198 2C000000 		.4byte	0x2c
 414 019c 00000000 		.4byte	.LLST0
 415 01a0 00       		.byte	0
 416 01a1 12       		.uleb128 0x12
 417 01a2 07000000 		.4byte	.LASF36
 418 01a6 01       		.byte	0x1
 419 01a7 4D       		.byte	0x4d
 420 01a8 00000000 		.4byte	.LFB8
 421 01ac 12000000 		.4byte	.LFE8-.LFB8
 422 01b0 01       		.uleb128 0x1
 423 01b1 9C       		.byte	0x9c
 424 01b2 D6010000 		.4byte	0x1d6
 425 01b6 13       		.uleb128 0x13
 426 01b7 12000000 		.4byte	.LVL2
 427 01bb 21030000 		.4byte	0x321
 428 01bf 14       		.uleb128 0x14
 429 01c0 01       		.uleb128 0x1
 430 01c1 52       		.byte	0x52
 431 01c2 01       		.uleb128 0x1
 432 01c3 30       		.byte	0x30
 433 01c4 14       		.uleb128 0x14
 434 01c5 01       		.uleb128 0x1
 435 01c6 51       		.byte	0x51
 436 01c7 03       		.uleb128 0x3
 437 01c8 0A       		.byte	0xa
 438 01c9 3001     		.2byte	0x130
 439 01cb 14       		.uleb128 0x14
 440 01cc 01       		.uleb128 0x1
 441 01cd 50       		.byte	0x50
 442 01ce 05       		.uleb128 0x5
 443 01cf 03       		.byte	0x3
 444 01d0 00000000 		.4byte	.LANCHOR0
 445 01d4 00       		.byte	0
ARM GAS  /tmp/cc8AVhBh.s 			page 9


 446 01d5 00       		.byte	0
 447 01d6 15       		.uleb128 0x15
 448 01d7 62010000 		.4byte	0x162
 449 01db 00000000 		.4byte	.LFB9
 450 01df 94000000 		.4byte	.LFE9-.LFB9
 451 01e3 01       		.uleb128 0x1
 452 01e4 9C       		.byte	0x9c
 453 01e5 B4020000 		.4byte	0x2b4
 454 01e9 16       		.uleb128 0x16
 455 01ea 6E010000 		.4byte	0x16e
 456 01ee 21000000 		.4byte	.LLST1
 457 01f2 17       		.uleb128 0x17
 458 01f3 00000000 		.4byte	.Ldebug_ranges0+0
 459 01f7 4C020000 		.4byte	0x24c
 460 01fb 18       		.uleb128 0x18
 461 01fc 6E010000 		.4byte	0x16e
 462 0200 19       		.uleb128 0x19
 463 0201 70000000 		.4byte	.LVL14
 464 0205 21030000 		.4byte	0x321
 465 0209 25020000 		.4byte	0x225
 466 020d 14       		.uleb128 0x14
 467 020e 01       		.uleb128 0x1
 468 020f 52       		.byte	0x52
 469 0210 05       		.uleb128 0x5
 470 0211 03       		.byte	0x3
 471 0212 00000000 		.4byte	null_provider
 472 0216 14       		.uleb128 0x14
 473 0217 01       		.uleb128 0x1
 474 0218 51       		.byte	0x51
 475 0219 01       		.uleb128 0x1
 476 021a 40       		.byte	0x40
 477 021b 14       		.uleb128 0x14
 478 021c 01       		.uleb128 0x1
 479 021d 50       		.byte	0x50
 480 021e 05       		.uleb128 0x5
 481 021f 03       		.byte	0x3
 482 0220 00000000 		.4byte	.LANCHOR0
 483 0224 00       		.byte	0
 484 0225 19       		.uleb128 0x19
 485 0226 7C000000 		.4byte	.LVL15
 486 022a 42030000 		.4byte	0x342
 487 022e 3C020000 		.4byte	0x23c
 488 0232 14       		.uleb128 0x14
 489 0233 01       		.uleb128 0x1
 490 0234 50       		.byte	0x50
 491 0235 05       		.uleb128 0x5
 492 0236 03       		.byte	0x3
 493 0237 00000000 		.4byte	.LANCHOR0
 494 023b 00       		.byte	0
 495 023c 13       		.uleb128 0x13
 496 023d 8E000000 		.4byte	.LVL17
 497 0241 57030000 		.4byte	0x357
 498 0245 14       		.uleb128 0x14
 499 0246 01       		.uleb128 0x1
 500 0247 50       		.byte	0x50
 501 0248 01       		.uleb128 0x1
 502 0249 33       		.byte	0x33
ARM GAS  /tmp/cc8AVhBh.s 			page 10


 503 024a 00       		.byte	0
 504 024b 00       		.byte	0
 505 024c 19       		.uleb128 0x19
 506 024d 18000000 		.4byte	.LVL5
 507 0251 71030000 		.4byte	0x371
 508 0255 63020000 		.4byte	0x263
 509 0259 14       		.uleb128 0x14
 510 025a 01       		.uleb128 0x1
 511 025b 50       		.byte	0x50
 512 025c 05       		.uleb128 0x5
 513 025d 03       		.byte	0x3
 514 025e 00000000 		.4byte	.LANCHOR0
 515 0262 00       		.byte	0
 516 0263 19       		.uleb128 0x19
 517 0264 2A000000 		.4byte	.LVL7
 518 0268 42030000 		.4byte	0x342
 519 026c 7A020000 		.4byte	0x27a
 520 0270 14       		.uleb128 0x14
 521 0271 01       		.uleb128 0x1
 522 0272 50       		.byte	0x50
 523 0273 05       		.uleb128 0x5
 524 0274 03       		.byte	0x3
 525 0275 00000000 		.4byte	.LANCHOR0
 526 0279 00       		.byte	0
 527 027a 19       		.uleb128 0x19
 528 027b 36000000 		.4byte	.LVL8
 529 027f 57030000 		.4byte	0x357
 530 0283 8D020000 		.4byte	0x28d
 531 0287 14       		.uleb128 0x14
 532 0288 01       		.uleb128 0x1
 533 0289 50       		.byte	0x50
 534 028a 01       		.uleb128 0x1
 535 028b 31       		.byte	0x31
 536 028c 00       		.byte	0
 537 028d 19       		.uleb128 0x19
 538 028e 48000000 		.4byte	.LVL10
 539 0292 42030000 		.4byte	0x342
 540 0296 A4020000 		.4byte	0x2a4
 541 029a 14       		.uleb128 0x14
 542 029b 01       		.uleb128 0x1
 543 029c 50       		.byte	0x50
 544 029d 05       		.uleb128 0x5
 545 029e 03       		.byte	0x3
 546 029f 00000000 		.4byte	.LANCHOR0
 547 02a3 00       		.byte	0
 548 02a4 1A       		.uleb128 0x1a
 549 02a5 56000000 		.4byte	.LVL11
 550 02a9 57030000 		.4byte	0x357
 551 02ad 14       		.uleb128 0x14
 552 02ae 01       		.uleb128 0x1
 553 02af 50       		.byte	0x50
 554 02b0 01       		.uleb128 0x1
 555 02b1 32       		.byte	0x32
 556 02b2 00       		.byte	0
 557 02b3 00       		.byte	0
 558 02b4 1B       		.uleb128 0x1b
 559 02b5 6D703100 		.ascii	"mp1\000"
ARM GAS  /tmp/cc8AVhBh.s 			page 11


 560 02b9 01       		.byte	0x1
 561 02ba 3C       		.byte	0x3c
 562 02bb 01010000 		.4byte	0x101
 563 02bf 05       		.uleb128 0x5
 564 02c0 03       		.byte	0x3
 565 02c1 00000000 		.4byte	mp1
 566 02c5 1C       		.uleb128 0x1c
 567 02c6 8C000000 		.4byte	0x8c
 568 02ca D0020000 		.4byte	0x2d0
 569 02ce 1D       		.uleb128 0x1d
 570 02cf 00       		.byte	0
 571 02d0 1E       		.uleb128 0x1e
 572 02d1 776100   		.ascii	"wa\000"
 573 02d4 07       		.byte	0x7
 574 02d5 B2       		.byte	0xb2
 575 02d6 DA020000 		.4byte	0x2da
 576 02da 0C       		.uleb128 0xc
 577 02db C5020000 		.4byte	0x2c5
 578 02df 1F       		.uleb128 0x1f
 579 02e0 F6000000 		.4byte	.LASF26
 580 02e4 01       		.byte	0x1
 581 02e5 65       		.byte	0x65
 582 02e6 F0020000 		.4byte	0x2f0
 583 02ea 05       		.uleb128 0x5
 584 02eb 03       		.byte	0x3
 585 02ec 00000000 		.4byte	testpools1
 586 02f0 0C       		.uleb128 0xc
 587 02f1 1E010000 		.4byte	0x11e
 588 02f5 1C       		.uleb128 0x1c
 589 02f6 05030000 		.4byte	0x305
 590 02fa 05030000 		.4byte	0x305
 591 02fe 20       		.uleb128 0x20
 592 02ff 8E000000 		.4byte	0x8e
 593 0303 01       		.byte	0x1
 594 0304 00       		.byte	0
 595 0305 06       		.uleb128 0x6
 596 0306 04       		.byte	0x4
 597 0307 F0020000 		.4byte	0x2f0
 598 030b 1F       		.uleb128 0x1f
 599 030c 7F020000 		.4byte	.LASF27
 600 0310 01       		.byte	0x1
 601 0311 71       		.byte	0x71
 602 0312 1C030000 		.4byte	0x31c
 603 0316 05       		.uleb128 0x5
 604 0317 03       		.byte	0x3
 605 0318 00000000 		.4byte	patternpools
 606 031c 0C       		.uleb128 0xc
 607 031d F5020000 		.4byte	0x2f5
 608 0321 21       		.uleb128 0x21
 609 0322 8C020000 		.4byte	.LASF37
 610 0326 06       		.byte	0x6
 611 0327 58       		.byte	0x58
 612 0328 3C030000 		.4byte	0x33c
 613 032c 08       		.uleb128 0x8
 614 032d 3C030000 		.4byte	0x33c
 615 0331 08       		.uleb128 0x8
 616 0332 2C000000 		.4byte	0x2c
ARM GAS  /tmp/cc8AVhBh.s 			page 12


 617 0336 08       		.uleb128 0x8
 618 0337 95000000 		.4byte	0x95
 619 033b 00       		.byte	0
 620 033c 06       		.uleb128 0x6
 621 033d 04       		.byte	0x4
 622 033e 01010000 		.4byte	0x101
 623 0342 22       		.uleb128 0x22
 624 0343 51020000 		.4byte	.LASF28
 625 0347 06       		.byte	0x6
 626 0348 5A       		.byte	0x5a
 627 0349 8C000000 		.4byte	0x8c
 628 034d 57030000 		.4byte	0x357
 629 0351 08       		.uleb128 0x8
 630 0352 3C030000 		.4byte	0x33c
 631 0356 00       		.byte	0
 632 0357 22       		.uleb128 0x22
 633 0358 0E010000 		.4byte	.LASF29
 634 035c 07       		.byte	0x7
 635 035d 63       		.byte	0x63
 636 035e 81000000 		.4byte	0x81
 637 0362 71030000 		.4byte	0x371
 638 0366 08       		.uleb128 0x8
 639 0367 37000000 		.4byte	0x37
 640 036b 08       		.uleb128 0x8
 641 036c 81000000 		.4byte	0x81
 642 0370 00       		.byte	0
 643 0371 23       		.uleb128 0x23
 644 0372 E0000000 		.4byte	.LASF38
 645 0376 06       		.byte	0x6
 646 0377 5C       		.byte	0x5c
 647 0378 08       		.uleb128 0x8
 648 0379 3C030000 		.4byte	0x33c
 649 037d 08       		.uleb128 0x8
 650 037e 8C000000 		.4byte	0x8c
 651 0382 00       		.byte	0
 652 0383 00       		.byte	0
 653              		.section	.debug_abbrev,"",%progbits
 654              	.Ldebug_abbrev0:
 655 0000 01       		.uleb128 0x1
 656 0001 11       		.uleb128 0x11
 657 0002 01       		.byte	0x1
 658 0003 25       		.uleb128 0x25
 659 0004 0E       		.uleb128 0xe
 660 0005 13       		.uleb128 0x13
 661 0006 0B       		.uleb128 0xb
 662 0007 03       		.uleb128 0x3
 663 0008 0E       		.uleb128 0xe
 664 0009 1B       		.uleb128 0x1b
 665 000a 0E       		.uleb128 0xe
 666 000b 55       		.uleb128 0x55
 667 000c 17       		.uleb128 0x17
 668 000d 11       		.uleb128 0x11
 669 000e 01       		.uleb128 0x1
 670 000f 10       		.uleb128 0x10
 671 0010 17       		.uleb128 0x17
 672 0011 00       		.byte	0
 673 0012 00       		.byte	0
ARM GAS  /tmp/cc8AVhBh.s 			page 13


 674 0013 02       		.uleb128 0x2
 675 0014 24       		.uleb128 0x24
 676 0015 00       		.byte	0
 677 0016 0B       		.uleb128 0xb
 678 0017 0B       		.uleb128 0xb
 679 0018 3E       		.uleb128 0x3e
 680 0019 0B       		.uleb128 0xb
 681 001a 03       		.uleb128 0x3
 682 001b 08       		.uleb128 0x8
 683 001c 00       		.byte	0
 684 001d 00       		.byte	0
 685 001e 03       		.uleb128 0x3
 686 001f 16       		.uleb128 0x16
 687 0020 00       		.byte	0
 688 0021 03       		.uleb128 0x3
 689 0022 0E       		.uleb128 0xe
 690 0023 3A       		.uleb128 0x3a
 691 0024 0B       		.uleb128 0xb
 692 0025 3B       		.uleb128 0x3b
 693 0026 0B       		.uleb128 0xb
 694 0027 49       		.uleb128 0x49
 695 0028 13       		.uleb128 0x13
 696 0029 00       		.byte	0
 697 002a 00       		.byte	0
 698 002b 04       		.uleb128 0x4
 699 002c 24       		.uleb128 0x24
 700 002d 00       		.byte	0
 701 002e 0B       		.uleb128 0xb
 702 002f 0B       		.uleb128 0xb
 703 0030 3E       		.uleb128 0x3e
 704 0031 0B       		.uleb128 0xb
 705 0032 03       		.uleb128 0x3
 706 0033 0E       		.uleb128 0xe
 707 0034 00       		.byte	0
 708 0035 00       		.byte	0
 709 0036 05       		.uleb128 0x5
 710 0037 0F       		.uleb128 0xf
 711 0038 00       		.byte	0
 712 0039 0B       		.uleb128 0xb
 713 003a 0B       		.uleb128 0xb
 714 003b 00       		.byte	0
 715 003c 00       		.byte	0
 716 003d 06       		.uleb128 0x6
 717 003e 0F       		.uleb128 0xf
 718 003f 00       		.byte	0
 719 0040 0B       		.uleb128 0xb
 720 0041 0B       		.uleb128 0xb
 721 0042 49       		.uleb128 0x49
 722 0043 13       		.uleb128 0x13
 723 0044 00       		.byte	0
 724 0045 00       		.byte	0
 725 0046 07       		.uleb128 0x7
 726 0047 15       		.uleb128 0x15
 727 0048 01       		.byte	0x1
 728 0049 27       		.uleb128 0x27
 729 004a 19       		.uleb128 0x19
 730 004b 49       		.uleb128 0x49
ARM GAS  /tmp/cc8AVhBh.s 			page 14


 731 004c 13       		.uleb128 0x13
 732 004d 01       		.uleb128 0x1
 733 004e 13       		.uleb128 0x13
 734 004f 00       		.byte	0
 735 0050 00       		.byte	0
 736 0051 08       		.uleb128 0x8
 737 0052 05       		.uleb128 0x5
 738 0053 00       		.byte	0
 739 0054 49       		.uleb128 0x49
 740 0055 13       		.uleb128 0x13
 741 0056 00       		.byte	0
 742 0057 00       		.byte	0
 743 0058 09       		.uleb128 0x9
 744 0059 13       		.uleb128 0x13
 745 005a 01       		.byte	0x1
 746 005b 03       		.uleb128 0x3
 747 005c 0E       		.uleb128 0xe
 748 005d 0B       		.uleb128 0xb
 749 005e 0B       		.uleb128 0xb
 750 005f 3A       		.uleb128 0x3a
 751 0060 0B       		.uleb128 0xb
 752 0061 3B       		.uleb128 0x3b
 753 0062 0B       		.uleb128 0xb
 754 0063 01       		.uleb128 0x1
 755 0064 13       		.uleb128 0x13
 756 0065 00       		.byte	0
 757 0066 00       		.byte	0
 758 0067 0A       		.uleb128 0xa
 759 0068 0D       		.uleb128 0xd
 760 0069 00       		.byte	0
 761 006a 03       		.uleb128 0x3
 762 006b 0E       		.uleb128 0xe
 763 006c 3A       		.uleb128 0x3a
 764 006d 0B       		.uleb128 0xb
 765 006e 3B       		.uleb128 0x3b
 766 006f 0B       		.uleb128 0xb
 767 0070 49       		.uleb128 0x49
 768 0071 13       		.uleb128 0x13
 769 0072 38       		.uleb128 0x38
 770 0073 0B       		.uleb128 0xb
 771 0074 00       		.byte	0
 772 0075 00       		.byte	0
 773 0076 0B       		.uleb128 0xb
 774 0077 13       		.uleb128 0x13
 775 0078 01       		.byte	0x1
 776 0079 0B       		.uleb128 0xb
 777 007a 0B       		.uleb128 0xb
 778 007b 3A       		.uleb128 0x3a
 779 007c 0B       		.uleb128 0xb
 780 007d 3B       		.uleb128 0x3b
 781 007e 0B       		.uleb128 0xb
 782 007f 01       		.uleb128 0x1
 783 0080 13       		.uleb128 0x13
 784 0081 00       		.byte	0
 785 0082 00       		.byte	0
 786 0083 0C       		.uleb128 0xc
 787 0084 26       		.uleb128 0x26
ARM GAS  /tmp/cc8AVhBh.s 			page 15


 788 0085 00       		.byte	0
 789 0086 49       		.uleb128 0x49
 790 0087 13       		.uleb128 0x13
 791 0088 00       		.byte	0
 792 0089 00       		.byte	0
 793 008a 0D       		.uleb128 0xd
 794 008b 15       		.uleb128 0x15
 795 008c 00       		.byte	0
 796 008d 27       		.uleb128 0x27
 797 008e 19       		.uleb128 0x19
 798 008f 00       		.byte	0
 799 0090 00       		.byte	0
 800 0091 0E       		.uleb128 0xe
 801 0092 2E       		.uleb128 0x2e
 802 0093 01       		.byte	0x1
 803 0094 03       		.uleb128 0x3
 804 0095 0E       		.uleb128 0xe
 805 0096 3A       		.uleb128 0x3a
 806 0097 0B       		.uleb128 0xb
 807 0098 3B       		.uleb128 0x3b
 808 0099 0B       		.uleb128 0xb
 809 009a 27       		.uleb128 0x27
 810 009b 19       		.uleb128 0x19
 811 009c 20       		.uleb128 0x20
 812 009d 0B       		.uleb128 0xb
 813 009e 01       		.uleb128 0x1
 814 009f 13       		.uleb128 0x13
 815 00a0 00       		.byte	0
 816 00a1 00       		.byte	0
 817 00a2 0F       		.uleb128 0xf
 818 00a3 34       		.uleb128 0x34
 819 00a4 00       		.byte	0
 820 00a5 03       		.uleb128 0x3
 821 00a6 08       		.uleb128 0x8
 822 00a7 3A       		.uleb128 0x3a
 823 00a8 0B       		.uleb128 0xb
 824 00a9 3B       		.uleb128 0x3b
 825 00aa 0B       		.uleb128 0xb
 826 00ab 49       		.uleb128 0x49
 827 00ac 13       		.uleb128 0x13
 828 00ad 00       		.byte	0
 829 00ae 00       		.byte	0
 830 00af 10       		.uleb128 0x10
 831 00b0 2E       		.uleb128 0x2e
 832 00b1 01       		.byte	0x1
 833 00b2 03       		.uleb128 0x3
 834 00b3 0E       		.uleb128 0xe
 835 00b4 3A       		.uleb128 0x3a
 836 00b5 0B       		.uleb128 0xb
 837 00b6 3B       		.uleb128 0x3b
 838 00b7 0B       		.uleb128 0xb
 839 00b8 27       		.uleb128 0x27
 840 00b9 19       		.uleb128 0x19
 841 00ba 49       		.uleb128 0x49
 842 00bb 13       		.uleb128 0x13
 843 00bc 11       		.uleb128 0x11
 844 00bd 01       		.uleb128 0x1
ARM GAS  /tmp/cc8AVhBh.s 			page 16


 845 00be 12       		.uleb128 0x12
 846 00bf 06       		.uleb128 0x6
 847 00c0 40       		.uleb128 0x40
 848 00c1 18       		.uleb128 0x18
 849 00c2 9742     		.uleb128 0x2117
 850 00c4 19       		.uleb128 0x19
 851 00c5 01       		.uleb128 0x1
 852 00c6 13       		.uleb128 0x13
 853 00c7 00       		.byte	0
 854 00c8 00       		.byte	0
 855 00c9 11       		.uleb128 0x11
 856 00ca 05       		.uleb128 0x5
 857 00cb 00       		.byte	0
 858 00cc 03       		.uleb128 0x3
 859 00cd 0E       		.uleb128 0xe
 860 00ce 3A       		.uleb128 0x3a
 861 00cf 0B       		.uleb128 0xb
 862 00d0 3B       		.uleb128 0x3b
 863 00d1 0B       		.uleb128 0xb
 864 00d2 49       		.uleb128 0x49
 865 00d3 13       		.uleb128 0x13
 866 00d4 02       		.uleb128 0x2
 867 00d5 17       		.uleb128 0x17
 868 00d6 00       		.byte	0
 869 00d7 00       		.byte	0
 870 00d8 12       		.uleb128 0x12
 871 00d9 2E       		.uleb128 0x2e
 872 00da 01       		.byte	0x1
 873 00db 03       		.uleb128 0x3
 874 00dc 0E       		.uleb128 0xe
 875 00dd 3A       		.uleb128 0x3a
 876 00de 0B       		.uleb128 0xb
 877 00df 3B       		.uleb128 0x3b
 878 00e0 0B       		.uleb128 0xb
 879 00e1 27       		.uleb128 0x27
 880 00e2 19       		.uleb128 0x19
 881 00e3 11       		.uleb128 0x11
 882 00e4 01       		.uleb128 0x1
 883 00e5 12       		.uleb128 0x12
 884 00e6 06       		.uleb128 0x6
 885 00e7 40       		.uleb128 0x40
 886 00e8 18       		.uleb128 0x18
 887 00e9 9742     		.uleb128 0x2117
 888 00eb 19       		.uleb128 0x19
 889 00ec 01       		.uleb128 0x1
 890 00ed 13       		.uleb128 0x13
 891 00ee 00       		.byte	0
 892 00ef 00       		.byte	0
 893 00f0 13       		.uleb128 0x13
 894 00f1 898201   		.uleb128 0x4109
 895 00f4 01       		.byte	0x1
 896 00f5 11       		.uleb128 0x11
 897 00f6 01       		.uleb128 0x1
 898 00f7 9542     		.uleb128 0x2115
 899 00f9 19       		.uleb128 0x19
 900 00fa 31       		.uleb128 0x31
 901 00fb 13       		.uleb128 0x13
ARM GAS  /tmp/cc8AVhBh.s 			page 17


 902 00fc 00       		.byte	0
 903 00fd 00       		.byte	0
 904 00fe 14       		.uleb128 0x14
 905 00ff 8A8201   		.uleb128 0x410a
 906 0102 00       		.byte	0
 907 0103 02       		.uleb128 0x2
 908 0104 18       		.uleb128 0x18
 909 0105 9142     		.uleb128 0x2111
 910 0107 18       		.uleb128 0x18
 911 0108 00       		.byte	0
 912 0109 00       		.byte	0
 913 010a 15       		.uleb128 0x15
 914 010b 2E       		.uleb128 0x2e
 915 010c 01       		.byte	0x1
 916 010d 31       		.uleb128 0x31
 917 010e 13       		.uleb128 0x13
 918 010f 11       		.uleb128 0x11
 919 0110 01       		.uleb128 0x1
 920 0111 12       		.uleb128 0x12
 921 0112 06       		.uleb128 0x6
 922 0113 40       		.uleb128 0x40
 923 0114 18       		.uleb128 0x18
 924 0115 9742     		.uleb128 0x2117
 925 0117 19       		.uleb128 0x19
 926 0118 01       		.uleb128 0x1
 927 0119 13       		.uleb128 0x13
 928 011a 00       		.byte	0
 929 011b 00       		.byte	0
 930 011c 16       		.uleb128 0x16
 931 011d 34       		.uleb128 0x34
 932 011e 00       		.byte	0
 933 011f 31       		.uleb128 0x31
 934 0120 13       		.uleb128 0x13
 935 0121 02       		.uleb128 0x2
 936 0122 17       		.uleb128 0x17
 937 0123 00       		.byte	0
 938 0124 00       		.byte	0
 939 0125 17       		.uleb128 0x17
 940 0126 0B       		.uleb128 0xb
 941 0127 01       		.byte	0x1
 942 0128 55       		.uleb128 0x55
 943 0129 17       		.uleb128 0x17
 944 012a 01       		.uleb128 0x1
 945 012b 13       		.uleb128 0x13
 946 012c 00       		.byte	0
 947 012d 00       		.byte	0
 948 012e 18       		.uleb128 0x18
 949 012f 34       		.uleb128 0x34
 950 0130 00       		.byte	0
 951 0131 31       		.uleb128 0x31
 952 0132 13       		.uleb128 0x13
 953 0133 00       		.byte	0
 954 0134 00       		.byte	0
 955 0135 19       		.uleb128 0x19
 956 0136 898201   		.uleb128 0x4109
 957 0139 01       		.byte	0x1
 958 013a 11       		.uleb128 0x11
ARM GAS  /tmp/cc8AVhBh.s 			page 18


 959 013b 01       		.uleb128 0x1
 960 013c 31       		.uleb128 0x31
 961 013d 13       		.uleb128 0x13
 962 013e 01       		.uleb128 0x1
 963 013f 13       		.uleb128 0x13
 964 0140 00       		.byte	0
 965 0141 00       		.byte	0
 966 0142 1A       		.uleb128 0x1a
 967 0143 898201   		.uleb128 0x4109
 968 0146 01       		.byte	0x1
 969 0147 11       		.uleb128 0x11
 970 0148 01       		.uleb128 0x1
 971 0149 31       		.uleb128 0x31
 972 014a 13       		.uleb128 0x13
 973 014b 00       		.byte	0
 974 014c 00       		.byte	0
 975 014d 1B       		.uleb128 0x1b
 976 014e 34       		.uleb128 0x34
 977 014f 00       		.byte	0
 978 0150 03       		.uleb128 0x3
 979 0151 08       		.uleb128 0x8
 980 0152 3A       		.uleb128 0x3a
 981 0153 0B       		.uleb128 0xb
 982 0154 3B       		.uleb128 0x3b
 983 0155 0B       		.uleb128 0xb
 984 0156 49       		.uleb128 0x49
 985 0157 13       		.uleb128 0x13
 986 0158 02       		.uleb128 0x2
 987 0159 18       		.uleb128 0x18
 988 015a 00       		.byte	0
 989 015b 00       		.byte	0
 990 015c 1C       		.uleb128 0x1c
 991 015d 01       		.uleb128 0x1
 992 015e 01       		.byte	0x1
 993 015f 49       		.uleb128 0x49
 994 0160 13       		.uleb128 0x13
 995 0161 01       		.uleb128 0x1
 996 0162 13       		.uleb128 0x13
 997 0163 00       		.byte	0
 998 0164 00       		.byte	0
 999 0165 1D       		.uleb128 0x1d
 1000 0166 21       		.uleb128 0x21
 1001 0167 00       		.byte	0
 1002 0168 00       		.byte	0
 1003 0169 00       		.byte	0
 1004 016a 1E       		.uleb128 0x1e
 1005 016b 34       		.uleb128 0x34
 1006 016c 00       		.byte	0
 1007 016d 03       		.uleb128 0x3
 1008 016e 08       		.uleb128 0x8
 1009 016f 3A       		.uleb128 0x3a
 1010 0170 0B       		.uleb128 0xb
 1011 0171 3B       		.uleb128 0x3b
 1012 0172 0B       		.uleb128 0xb
 1013 0173 49       		.uleb128 0x49
 1014 0174 13       		.uleb128 0x13
 1015 0175 3F       		.uleb128 0x3f
ARM GAS  /tmp/cc8AVhBh.s 			page 19


 1016 0176 19       		.uleb128 0x19
 1017 0177 3C       		.uleb128 0x3c
 1018 0178 19       		.uleb128 0x19
 1019 0179 00       		.byte	0
 1020 017a 00       		.byte	0
 1021 017b 1F       		.uleb128 0x1f
 1022 017c 34       		.uleb128 0x34
 1023 017d 00       		.byte	0
 1024 017e 03       		.uleb128 0x3
 1025 017f 0E       		.uleb128 0xe
 1026 0180 3A       		.uleb128 0x3a
 1027 0181 0B       		.uleb128 0xb
 1028 0182 3B       		.uleb128 0x3b
 1029 0183 0B       		.uleb128 0xb
 1030 0184 49       		.uleb128 0x49
 1031 0185 13       		.uleb128 0x13
 1032 0186 3F       		.uleb128 0x3f
 1033 0187 19       		.uleb128 0x19
 1034 0188 02       		.uleb128 0x2
 1035 0189 18       		.uleb128 0x18
 1036 018a 00       		.byte	0
 1037 018b 00       		.byte	0
 1038 018c 20       		.uleb128 0x20
 1039 018d 21       		.uleb128 0x21
 1040 018e 00       		.byte	0
 1041 018f 49       		.uleb128 0x49
 1042 0190 13       		.uleb128 0x13
 1043 0191 2F       		.uleb128 0x2f
 1044 0192 0B       		.uleb128 0xb
 1045 0193 00       		.byte	0
 1046 0194 00       		.byte	0
 1047 0195 21       		.uleb128 0x21
 1048 0196 2E       		.uleb128 0x2e
 1049 0197 01       		.byte	0x1
 1050 0198 3F       		.uleb128 0x3f
 1051 0199 19       		.uleb128 0x19
 1052 019a 03       		.uleb128 0x3
 1053 019b 0E       		.uleb128 0xe
 1054 019c 3A       		.uleb128 0x3a
 1055 019d 0B       		.uleb128 0xb
 1056 019e 3B       		.uleb128 0x3b
 1057 019f 0B       		.uleb128 0xb
 1058 01a0 27       		.uleb128 0x27
 1059 01a1 19       		.uleb128 0x19
 1060 01a2 3C       		.uleb128 0x3c
 1061 01a3 19       		.uleb128 0x19
 1062 01a4 01       		.uleb128 0x1
 1063 01a5 13       		.uleb128 0x13
 1064 01a6 00       		.byte	0
 1065 01a7 00       		.byte	0
 1066 01a8 22       		.uleb128 0x22
 1067 01a9 2E       		.uleb128 0x2e
 1068 01aa 01       		.byte	0x1
 1069 01ab 3F       		.uleb128 0x3f
 1070 01ac 19       		.uleb128 0x19
 1071 01ad 03       		.uleb128 0x3
 1072 01ae 0E       		.uleb128 0xe
ARM GAS  /tmp/cc8AVhBh.s 			page 20


 1073 01af 3A       		.uleb128 0x3a
 1074 01b0 0B       		.uleb128 0xb
 1075 01b1 3B       		.uleb128 0x3b
 1076 01b2 0B       		.uleb128 0xb
 1077 01b3 27       		.uleb128 0x27
 1078 01b4 19       		.uleb128 0x19
 1079 01b5 49       		.uleb128 0x49
 1080 01b6 13       		.uleb128 0x13
 1081 01b7 3C       		.uleb128 0x3c
 1082 01b8 19       		.uleb128 0x19
 1083 01b9 01       		.uleb128 0x1
 1084 01ba 13       		.uleb128 0x13
 1085 01bb 00       		.byte	0
 1086 01bc 00       		.byte	0
 1087 01bd 23       		.uleb128 0x23
 1088 01be 2E       		.uleb128 0x2e
 1089 01bf 01       		.byte	0x1
 1090 01c0 3F       		.uleb128 0x3f
 1091 01c1 19       		.uleb128 0x19
 1092 01c2 03       		.uleb128 0x3
 1093 01c3 0E       		.uleb128 0xe
 1094 01c4 3A       		.uleb128 0x3a
 1095 01c5 0B       		.uleb128 0xb
 1096 01c6 3B       		.uleb128 0x3b
 1097 01c7 0B       		.uleb128 0xb
 1098 01c8 27       		.uleb128 0x27
 1099 01c9 19       		.uleb128 0x19
 1100 01ca 3C       		.uleb128 0x3c
 1101 01cb 19       		.uleb128 0x19
 1102 01cc 00       		.byte	0
 1103 01cd 00       		.byte	0
 1104 01ce 00       		.byte	0
 1105              		.section	.debug_loc,"",%progbits
 1106              	.Ldebug_loc0:
 1107              	.LLST0:
 1108 0000 00000000 		.4byte	.LVL0
 1109 0004 02000000 		.4byte	.LVL1
 1110 0008 0100     		.2byte	0x1
 1111 000a 50       		.byte	0x50
 1112 000b 02000000 		.4byte	.LVL1
 1113 000f 04000000 		.4byte	.LFE7
 1114 0013 0400     		.2byte	0x4
 1115 0015 F3       		.byte	0xf3
 1116 0016 01       		.uleb128 0x1
 1117 0017 50       		.byte	0x50
 1118 0018 9F       		.byte	0x9f
 1119 0019 00000000 		.4byte	0
 1120 001d 00000000 		.4byte	0
 1121              	.LLST1:
 1122 0021 00000000 		.4byte	.LVL3
 1123 0025 08000000 		.4byte	.LVL4
 1124 0029 0200     		.2byte	0x2
 1125 002b 30       		.byte	0x30
 1126 002c 9F       		.byte	0x9f
 1127 002d 1E000000 		.4byte	.LVL6
 1128 0031 36000000 		.4byte	.LVL8
 1129 0035 0500     		.2byte	0x5
ARM GAS  /tmp/cc8AVhBh.s 			page 21


 1130 0037 35       		.byte	0x35
 1131 0038 74       		.byte	0x74
 1132 0039 00       		.sleb128 0
 1133 003a 1C       		.byte	0x1c
 1134 003b 9F       		.byte	0x9f
 1135 003c 36000000 		.4byte	.LVL8
 1136 0040 3A000000 		.4byte	.LVL9
 1137 0044 0500     		.2byte	0x5
 1138 0046 36       		.byte	0x36
 1139 0047 74       		.byte	0x74
 1140 0048 00       		.sleb128 0
 1141 0049 1C       		.byte	0x1c
 1142 004a 9F       		.byte	0x9f
 1143 004b 3A000000 		.4byte	.LVL9
 1144 004f 58000000 		.4byte	.LVL12
 1145 0053 0500     		.2byte	0x5
 1146 0055 35       		.byte	0x35
 1147 0056 74       		.byte	0x74
 1148 0057 00       		.sleb128 0
 1149 0058 1C       		.byte	0x1c
 1150 0059 9F       		.byte	0x9f
 1151 005a 5A000000 		.4byte	.LVL13
 1152 005e 80000000 		.4byte	.LVL16
 1153 0062 0500     		.2byte	0x5
 1154 0064 35       		.byte	0x35
 1155 0065 74       		.byte	0x74
 1156 0066 00       		.sleb128 0
 1157 0067 1C       		.byte	0x1c
 1158 0068 9F       		.byte	0x9f
 1159 0069 00000000 		.4byte	0
 1160 006d 00000000 		.4byte	0
 1161              		.section	.debug_aranges,"",%progbits
 1162 0000 2C000000 		.4byte	0x2c
 1163 0004 0200     		.2byte	0x2
 1164 0006 00000000 		.4byte	.Ldebug_info0
 1165 000a 04       		.byte	0x4
 1166 000b 00       		.byte	0
 1167 000c 0000     		.2byte	0
 1168 000e 0000     		.2byte	0
 1169 0010 00000000 		.4byte	.LFB7
 1170 0014 04000000 		.4byte	.LFE7-.LFB7
 1171 0018 00000000 		.4byte	.LFB8
 1172 001c 12000000 		.4byte	.LFE8-.LFB8
 1173 0020 00000000 		.4byte	.LFB9
 1174 0024 94000000 		.4byte	.LFE9-.LFB9
 1175 0028 00000000 		.4byte	0
 1176 002c 00000000 		.4byte	0
 1177              		.section	.debug_ranges,"",%progbits
 1178              	.Ldebug_ranges0:
 1179 0000 5A000000 		.4byte	.LBB5
 1180 0004 7C000000 		.4byte	.LBE5
 1181 0008 80000000 		.4byte	.LBB6
 1182 000c 94000000 		.4byte	.LBE6
 1183 0010 00000000 		.4byte	0
 1184 0014 00000000 		.4byte	0
 1185 0018 00000000 		.4byte	.LFB7
 1186 001c 04000000 		.4byte	.LFE7
ARM GAS  /tmp/cc8AVhBh.s 			page 22


 1187 0020 00000000 		.4byte	.LFB8
 1188 0024 12000000 		.4byte	.LFE8
 1189 0028 00000000 		.4byte	.LFB9
 1190 002c 94000000 		.4byte	.LFE9
 1191 0030 00000000 		.4byte	0
 1192 0034 00000000 		.4byte	0
 1193              		.section	.debug_line,"",%progbits
 1194              	.Ldebug_line0:
 1195 0000 96010000 		.section	.debug_str,"MS",%progbits,1
 1195      02004A01 
 1195      00000201 
 1195      FB0E0D00 
 1195      01010101 
 1196              	.LASF5:
 1197 0000 73697A65 		.ascii	"size_t\000"
 1197      5F7400
 1198              	.LASF36:
 1199 0007 706F6F6C 		.ascii	"pools1_setup\000"
 1199      73315F73 
 1199      65747570 
 1199      00
 1200              	.LASF23:
 1201 0014 73657475 		.ascii	"setup\000"
 1201      7000
 1202              	.LASF32:
 1203 001a 2F686F6D 		.ascii	"/home/santi/Documentos/ProyectoDron_2018/MCU/creato"
 1203      652F7361 
 1203      6E74692F 
 1203      446F6375 
 1203      6D656E74 
 1204 004d 7200     		.ascii	"r\000"
 1205              	.LASF16:
 1206 004f 6D705F6F 		.ascii	"mp_object_size\000"
 1206      626A6563 
 1206      745F7369 
 1206      7A6500
 1207              	.LASF25:
 1208 005e 65786563 		.ascii	"execute\000"
 1208      75746500 
 1209              	.LASF11:
 1210 0066 626F6F6C 		.ascii	"bool_t\000"
 1210      5F7400
 1211              	.LASF21:
 1212 006d 74657374 		.ascii	"testcase\000"
 1212      63617365 
 1212      00
 1213              	.LASF20:
 1214 0076 706F6F6C 		.ascii	"pool_header\000"
 1214      5F686561 
 1214      64657200 
 1215              	.LASF33:
 1216 0082 706F6F6C 		.ascii	"pools1_execute\000"
 1216      73315F65 
 1216      78656375 
 1216      746500
 1217              	.LASF35:
 1218 0091 73697A65 		.ascii	"size\000"
ARM GAS  /tmp/cc8AVhBh.s 			page 23


 1218      00
 1219              	.LASF8:
 1220 0096 6C6F6E67 		.ascii	"long unsigned int\000"
 1220      20756E73 
 1220      69676E65 
 1220      6420696E 
 1220      7400
 1221              	.LASF24:
 1222 00a8 74656172 		.ascii	"teardown\000"
 1222      646F776E 
 1222      00
 1223              	.LASF4:
 1224 00b1 73686F72 		.ascii	"short unsigned int\000"
 1224      7420756E 
 1224      7369676E 
 1224      65642069 
 1224      6E7400
 1225              	.LASF34:
 1226 00c4 6E756C6C 		.ascii	"null_provider\000"
 1226      5F70726F 
 1226      76696465 
 1226      7200
 1227              	.LASF2:
 1228 00d2 756E7369 		.ascii	"unsigned char\000"
 1228      676E6564 
 1228      20636861 
 1228      7200
 1229              	.LASF38:
 1230 00e0 6368506F 		.ascii	"chPoolFree\000"
 1230      6F6C4672 
 1230      656500
 1231              	.LASF18:
 1232 00eb 4D656D6F 		.ascii	"MemoryPool\000"
 1232      7279506F 
 1232      6F6C00
 1233              	.LASF26:
 1234 00f6 74657374 		.ascii	"testpools1\000"
 1234      706F6F6C 
 1234      733100
 1235              	.LASF0:
 1236 0101 756E7369 		.ascii	"unsigned int\000"
 1236      676E6564 
 1236      20696E74 
 1236      00
 1237              	.LASF29:
 1238 010e 5F746573 		.ascii	"_test_assert\000"
 1238      745F6173 
 1238      73657274 
 1238      00
 1239              	.LASF10:
 1240 011b 6C6F6E67 		.ascii	"long long unsigned int\000"
 1240      206C6F6E 
 1240      6720756E 
 1240      7369676E 
 1240      65642069 
 1241              	.LASF14:
 1242 0132 70685F6E 		.ascii	"ph_next\000"
ARM GAS  /tmp/cc8AVhBh.s 			page 24


 1242      65787400 
 1243              	.LASF30:
 1244 013a 474E5520 		.ascii	"GNU C 4.8.1 -mcpu=cortex-m3 -mno-thumb-interwork -m"
 1244      4320342E 
 1244      382E3120 
 1244      2D6D6370 
 1244      753D636F 
 1245 016d 7468756D 		.ascii	"thumb -ggdb -O2 -std=gnu99 -fomit-frame-pointer -fa"
 1245      62202D67 
 1245      67646220 
 1245      2D4F3220 
 1245      2D737464 
 1246 01a0 6C69676E 		.ascii	"lign-functions=16 -ffunction-sections -fdata-sectio"
 1246      2D66756E 
 1246      6374696F 
 1246      6E733D31 
 1246      36202D66 
 1247 01d3 6E73202D 		.ascii	"ns -fno-common\000"
 1247      666E6F2D 
 1247      636F6D6D 
 1247      6F6E00
 1248              	.LASF6:
 1249 01e2 696E7433 		.ascii	"int32_t\000"
 1249      325F7400 
 1250              	.LASF12:
 1251 01ea 73697A65 		.ascii	"sizetype\000"
 1251      74797065 
 1251      00
 1252              	.LASF31:
 1253 01f3 2E2E2F74 		.ascii	"../third_party/ChibiOS/test/testpools.c\000"
 1253      68697264 
 1253      5F706172 
 1253      74792F43 
 1253      68696269 
 1254              	.LASF9:
 1255 021b 6C6F6E67 		.ascii	"long long int\000"
 1255      206C6F6E 
 1255      6720696E 
 1255      7400
 1256              	.LASF22:
 1257 0229 6E616D65 		.ascii	"name\000"
 1257      00
 1258              	.LASF13:
 1259 022e 6D656D67 		.ascii	"memgetfunc_t\000"
 1259      65746675 
 1259      6E635F74 
 1259      00
 1260              	.LASF17:
 1261 023b 6D705F70 		.ascii	"mp_provider\000"
 1261      726F7669 
 1261      64657200 
 1262              	.LASF3:
 1263 0247 73686F72 		.ascii	"short int\000"
 1263      7420696E 
 1263      7400
 1264              	.LASF28:
 1265 0251 6368506F 		.ascii	"chPoolAlloc\000"
ARM GAS  /tmp/cc8AVhBh.s 			page 25


 1265      6F6C416C 
 1265      6C6F6300 
 1266              	.LASF7:
 1267 025d 6C6F6E67 		.ascii	"long int\000"
 1267      20696E74 
 1267      00
 1268              	.LASF19:
 1269 0266 63686172 		.ascii	"char\000"
 1269      00
 1270              	.LASF1:
 1271 026b 7369676E 		.ascii	"signed char\000"
 1271      65642063 
 1271      68617200 
 1272              	.LASF15:
 1273 0277 6D705F6E 		.ascii	"mp_next\000"
 1273      65787400 
 1274              	.LASF27:
 1275 027f 70617474 		.ascii	"patternpools\000"
 1275      65726E70 
 1275      6F6F6C73 
 1275      00
 1276              	.LASF37:
 1277 028c 6368506F 		.ascii	"chPoolInit\000"
 1277      6F6C496E 
 1277      697400
 1278              		.ident	"GCC: (Sourcery CodeBench Lite 2013.11-24) 4.8.1"
ARM GAS  /tmp/cc8AVhBh.s 			page 26


DEFINED SYMBOLS
                            *ABS*:00000000 testpools.c
     /tmp/cc8AVhBh.s:19     .text.null_provider:00000000 $t
     /tmp/cc8AVhBh.s:24     .text.null_provider:00000000 null_provider
     /tmp/cc8AVhBh.s:41     .text.pools1_setup:00000000 $t
     /tmp/cc8AVhBh.s:46     .text.pools1_setup:00000000 pools1_setup
     /tmp/cc8AVhBh.s:185    .data.mp1:00000000 .LANCHOR0
     /tmp/cc8AVhBh.s:64     .text.pools1_execute:00000000 $t
     /tmp/cc8AVhBh.s:69     .text.pools1_execute:00000000 pools1_execute
     /tmp/cc8AVhBh.s:164    .text.pools1_execute:00000090 $d
     /tmp/cc8AVhBh.s:180    .rodata.patternpools:00000000 patternpools
     /tmp/cc8AVhBh.s:196    .rodata.testpools1:00000000 testpools1
     /tmp/cc8AVhBh.s:173    .rodata.str1.4:00000000 $d
     /tmp/cc8AVhBh.s:177    .rodata.patternpools:00000000 $d
     /tmp/cc8AVhBh.s:184    .data.mp1:00000000 $d
     /tmp/cc8AVhBh.s:188    .data.mp1:00000000 mp1
     /tmp/cc8AVhBh.s:193    .rodata.testpools1:00000000 $d
                     .debug_frame:00000010 $d
     /tmp/cc8AVhBh.s:172    .text.pools1_execute:00000094 $t

UNDEFINED SYMBOLS
chPoolInit
chPoolFree
chPoolAlloc
_test_assert
wa
