ARM GAS  /tmp/ccsQNTyN.s 			page 1


   1              		.syntax unified
   2              		.cpu cortex-m3
   3              		.fpu softvfp
   4              		.eabi_attribute 20, 1
   5              		.eabi_attribute 21, 1
   6              		.eabi_attribute 23, 3
   7              		.eabi_attribute 24, 1
   8              		.eabi_attribute 25, 1
   9              		.eabi_attribute 26, 1
  10              		.eabi_attribute 30, 2
  11              		.eabi_attribute 34, 1
  12              		.eabi_attribute 18, 4
  13              		.thumb
  14              		.file	"testdyn.c"
  15              		.text
  16              	.Ltext0:
  17              		.cfi_sections	.debug_frame
  18              		.section	.text.dyn1_execute,"ax",%progbits
  19              		.align	2
  20              		.p2align 4,,15
  21              		.thumb
  22              		.thumb_func
  23              		.type	dyn1_execute, %function
  24              	dyn1_execute:
  25              	.LFB9:
  26              		.file 1 "../third_party/ChibiOS/test/testdyn.c"
  27              		.loc 1 94 0
  28              		.cfi_startproc
  29              		@ args = 0, pretend = 0, frame = 8
  30              		@ frame_needed = 0, uses_anonymous_args = 0
  31 0000 70B5     		push	{r4, r5, r6, lr}
  32              		.cfi_def_cfa_offset 16
  33              		.cfi_offset 4, -16
  34              		.cfi_offset 5, -12
  35              		.cfi_offset 6, -8
  36              		.cfi_offset 14, -4
  37              		.loc 1 97 0
  38 0002 40F20003 		movw	r3, #:lower16:rlist
  39 0006 C0F20003 		movt	r3, #:upper16:rlist
  40              		.loc 1 94 0
  41 000a 84B0     		sub	sp, sp, #16
  42              		.cfi_def_cfa_offset 32
  43              		.loc 1 97 0
  44 000c DB69     		ldr	r3, [r3, #28]
  45              		.loc 1 99 0
  46 000e 40F20000 		movw	r0, #:lower16:.LANCHOR0
  47 0012 03A9     		add	r1, sp, #12
  48 0014 C0F20000 		movt	r0, #:upper16:.LANCHOR0
  49              		.loc 1 97 0
  50 0018 9D68     		ldr	r5, [r3, #8]
  51              	.LVL0:
  52              		.loc 1 99 0
  53 001a FFF7FEFF 		bl	chHeapStatus
  54              	.LVL1:
  55              		.loc 1 101 0
  56 001e 40F20001 		movw	r1, #:lower16:.LC0
  57 0022 C0F20001 		movt	r1, #:upper16:.LC0
ARM GAS  /tmp/ccsQNTyN.s 			page 2


  58 0026 40F20000 		movw	r0, #:lower16:.LANCHOR0
  59 002a 40F20003 		movw	r3, #:lower16:thread
  60 002e 6A1E     		subs	r2, r5, #1
  61 0030 0091     		str	r1, [sp]
  62 0032 C0F20003 		movt	r3, #:upper16:thread
  63 0036 4FF49871 		mov	r1, #304
  64 003a C0F20000 		movt	r0, #:upper16:.LANCHOR0
  65 003e FFF7FEFF 		bl	chThdCreateFromHeap
  66              	.LVL2:
  67 0042 40F20004 		movw	r4, #:lower16:threads
  68 0046 C0F20004 		movt	r4, #:upper16:threads
  69              		.loc 1 103 0
  70 004a 40F20001 		movw	r1, #:lower16:.LC1
  71              		.loc 1 101 0
  72 004e 2060     		str	r0, [r4]
  73              		.loc 1 103 0
  74 0050 C0F20001 		movt	r1, #:upper16:.LC1
  75 0054 40F20000 		movw	r0, #:lower16:.LANCHOR0
  76 0058 40F20003 		movw	r3, #:lower16:thread
  77 005c AA1E     		subs	r2, r5, #2
  78 005e C0F20003 		movt	r3, #:upper16:thread
  79 0062 0091     		str	r1, [sp]
  80 0064 C0F20000 		movt	r0, #:upper16:.LANCHOR0
  81 0068 4FF49871 		mov	r1, #304
  82 006c FFF7FEFF 		bl	chThdCreateFromHeap
  83              	.LVL3:
  84 0070 6060     		str	r0, [r4, #4]
  85              		.loc 1 106 0
  86 0072 40F20000 		movw	r0, #:lower16:.LANCHOR0
  87 0076 02A9     		add	r1, sp, #8
  88 0078 C0F20000 		movt	r0, #:upper16:.LANCHOR0
  89 007c FFF7FEFF 		bl	chHeapStatus
  90              	.LVL4:
  91              		.loc 1 107 0
  92 0080 40F20000 		movw	r0, #:lower16:.LANCHOR0
  93 0084 0299     		ldr	r1, [sp, #8]
  94 0086 C0F20000 		movt	r0, #:upper16:.LANCHOR0
  95 008a FFF7FEFF 		bl	chHeapAlloc
  96              	.LVL5:
  97              		.loc 1 108 0
  98 008e 40F20001 		movw	r1, #:lower16:.LC2
  99              		.loc 1 107 0
 100 0092 0646     		mov	r6, r0
 101              	.LVL6:
 102              		.loc 1 108 0
 103 0094 C0F20001 		movt	r1, #:upper16:.LC2
 104 0098 40F20000 		movw	r0, #:lower16:.LANCHOR0
 105              	.LVL7:
 106 009c 40F20003 		movw	r3, #:lower16:thread
 107 00a0 EA1E     		subs	r2, r5, #3
 108 00a2 0091     		str	r1, [sp]
 109 00a4 C0F20003 		movt	r3, #:upper16:thread
 110 00a8 4FF49871 		mov	r1, #304
 111 00ac C0F20000 		movt	r0, #:upper16:.LANCHOR0
 112 00b0 FFF7FEFF 		bl	chThdCreateFromHeap
 113              	.LVL8:
 114 00b4 A060     		str	r0, [r4, #8]
ARM GAS  /tmp/ccsQNTyN.s 			page 3


 115              		.loc 1 110 0
 116 00b6 3046     		mov	r0, r6
 117 00b8 FFF7FEFF 		bl	chHeapFree
 118              	.LVL9:
 119              		.loc 1 112 0
 120 00bc 2168     		ldr	r1, [r4]
 121 00be 21B1     		cbz	r1, .L2
 122              		.loc 1 112 0 is_stmt 0 discriminator 1
 123 00c0 6168     		ldr	r1, [r4, #4]
 124 00c2 11B1     		cbz	r1, .L2
 125 00c4 A168     		ldr	r1, [r4, #8]
 126 00c6 49B3     		cbz	r1, .L10
 127              		.loc 1 112 0
 128 00c8 0021     		movs	r1, #0
 129              	.L2:
 130              		.loc 1 112 0 discriminator 3
 131 00ca 0120     		movs	r0, #1
 132 00cc FFF7FEFF 		bl	_test_assert
 133              	.LVL10:
 134 00d0 08B1     		cbz	r0, .L11
 135              	.L1:
 136              		.loc 1 126 0 is_stmt 1
 137 00d2 04B0     		add	sp, sp, #16
 138              		@ sp needed
 139 00d4 70BD     		pop	{r4, r5, r6, pc}
 140              	.LVL11:
 141              	.L11:
 142              		.loc 1 120 0
 143 00d6 FFF7FEFF 		bl	test_wait_threads
 144              	.LVL12:
 145              		.loc 1 121 0
 146 00da 40F20001 		movw	r1, #:lower16:.LC3
 147 00de C0F20001 		movt	r1, #:upper16:.LC3
 148 00e2 0220     		movs	r0, #2
 149 00e4 FFF7FEFF 		bl	_test_assert_sequence
 150              	.LVL13:
 151 00e8 0028     		cmp	r0, #0
 152 00ea F2D1     		bne	.L1
 153              		.loc 1 124 0
 154 00ec 40F20000 		movw	r0, #:lower16:.LANCHOR0
 155 00f0 02A9     		add	r1, sp, #8
 156 00f2 C0F20000 		movt	r0, #:upper16:.LANCHOR0
 157 00f6 FFF7FEFF 		bl	chHeapStatus
 158              	.LVL14:
 159 00fa 421E     		subs	r2, r0, #1
 160 00fc 5142     		rsbs	r1, r2, #0
 161 00fe 5141     		adcs	r1, r1, r2
 162 0100 0320     		movs	r0, #3
 163 0102 FFF7FEFF 		bl	_test_assert
 164              	.LVL15:
 165 0106 0028     		cmp	r0, #0
 166 0108 E3D1     		bne	.L1
 167              		.loc 1 125 0
 168 010a 0299     		ldr	r1, [sp, #8]
 169 010c 039B     		ldr	r3, [sp, #12]
 170 010e 0420     		movs	r0, #4
 171 0110 CB1A     		subs	r3, r1, r3
ARM GAS  /tmp/ccsQNTyN.s 			page 4


 172 0112 5942     		rsbs	r1, r3, #0
 173 0114 5941     		adcs	r1, r1, r3
 174 0116 FFF7FEFF 		bl	_test_assert
 175              	.LVL16:
 176 011a DAE7     		b	.L1
 177              	.L10:
 178              		.loc 1 112 0 discriminator 1
 179 011c E368     		ldr	r3, [r4, #12]
 180 011e 002B     		cmp	r3, #0
 181 0120 D3D1     		bne	.L2
 182 0122 2169     		ldr	r1, [r4, #16]
 183 0124 D1F10101 		rsbs	r1, r1, #1
 184 0128 38BF     		it	cc
 185 012a 0021     		movcc	r1, #0
 186 012c CDE7     		b	.L2
 187              		.cfi_endproc
 188              	.LFE9:
 189              		.size	dyn1_execute, .-dyn1_execute
 190 012e 00BF     		.section	.text.thread,"ax",%progbits
 191              		.align	2
 192              		.p2align 4,,15
 193              		.thumb
 194              		.thumb_func
 195              		.type	thread, %function
 196              	thread:
 197              	.LFB7:
 198              		.loc 1 82 0
 199              		.cfi_startproc
 200              		@ args = 0, pretend = 0, frame = 0
 201              		@ frame_needed = 0, uses_anonymous_args = 0
 202              	.LVL17:
 203 0000 08B5     		push	{r3, lr}
 204              		.cfi_def_cfa_offset 8
 205              		.cfi_offset 3, -8
 206              		.cfi_offset 14, -4
 207              		.loc 1 84 0
 208 0002 0078     		ldrb	r0, [r0]	@ zero_extendqisi2
 209              	.LVL18:
 210 0004 FFF7FEFF 		bl	test_emit_token
 211              	.LVL19:
 212              		.loc 1 86 0
 213 0008 0020     		movs	r0, #0
 214 000a 08BD     		pop	{r3, pc}
 215              		.cfi_endproc
 216              	.LFE7:
 217              		.size	thread, .-thread
 218 000c AFF30080 		.section	.text.dyn1_setup,"ax",%progbits
 219              		.align	2
 220              		.p2align 4,,15
 221              		.thumb
 222              		.thumb_func
 223              		.type	dyn1_setup, %function
 224              	dyn1_setup:
 225              	.LFB8:
 226              		.loc 1 89 0
 227              		.cfi_startproc
 228              		@ args = 0, pretend = 0, frame = 0
ARM GAS  /tmp/ccsQNTyN.s 			page 5


 229              		@ frame_needed = 0, uses_anonymous_args = 0
 230              		@ link register save eliminated.
 231              		.loc 1 91 0
 232 0000 40F20000 		movw	r0, #:lower16:.LANCHOR0
 233 0004 40F20001 		movw	r1, #:lower16:test
 234 0008 C0F20000 		movt	r0, #:upper16:.LANCHOR0
 235 000c C0F20001 		movt	r1, #:upper16:test
 236 0010 4FF4BE62 		mov	r2, #1520
 237 0014 FFF7FEBF 		b	chHeapInit
 238              	.LVL20:
 239              		.cfi_endproc
 240              	.LFE8:
 241              		.size	dyn1_setup, .-dyn1_setup
 242 0018 AFF30080 		.section	.text.dyn3_setup,"ax",%progbits
 242      AFF30080 
 243              		.align	2
 244              		.p2align 4,,15
 245              		.thumb
 246              		.thumb_func
 247              		.type	dyn3_setup, %function
 248              	dyn3_setup:
 249              	.LFB13:
 250              		.loc 1 214 0
 251              		.cfi_startproc
 252              		@ args = 0, pretend = 0, frame = 0
 253              		@ frame_needed = 0, uses_anonymous_args = 0
 254              		@ link register save eliminated.
 255              		.loc 1 216 0
 256 0000 40F20000 		movw	r0, #:lower16:.LANCHOR0
 257 0004 40F20001 		movw	r1, #:lower16:test
 258 0008 C0F20000 		movt	r0, #:upper16:.LANCHOR0
 259 000c C0F20001 		movt	r1, #:upper16:test
 260 0010 4FF4BE62 		mov	r2, #1520
 261 0014 FFF7FEBF 		b	chHeapInit
 262              	.LVL21:
 263              		.cfi_endproc
 264              	.LFE13:
 265              		.size	dyn3_setup, .-dyn3_setup
 266 0018 AFF30080 		.section	.text.dyn2_execute,"ax",%progbits
 266      AFF30080 
 267              		.align	2
 268              		.p2align 4,,15
 269              		.thumb
 270              		.thumb_func
 271              		.type	dyn2_execute, %function
 272              	dyn2_execute:
 273              	.LFB11:
 274              		.loc 1 152 0
 275              		.cfi_startproc
 276              		@ args = 0, pretend = 0, frame = 0
 277              		@ frame_needed = 0, uses_anonymous_args = 0
 278              		.loc 1 154 0
 279 0000 40F20003 		movw	r3, #:lower16:rlist
 280 0004 C0F20003 		movt	r3, #:upper16:rlist
 281 0008 DB69     		ldr	r3, [r3, #28]
 282              		.loc 1 152 0
 283 000a 70B5     		push	{r4, r5, r6, lr}
ARM GAS  /tmp/ccsQNTyN.s 			page 6


 284              		.cfi_def_cfa_offset 16
 285              		.cfi_offset 4, -16
 286              		.cfi_offset 5, -12
 287              		.cfi_offset 6, -8
 288              		.cfi_offset 14, -4
 289 000c 4E4C     		ldr	r4, .L29
 290              		.loc 1 154 0
 291 000e 9D68     		ldr	r5, [r3, #8]
 292              	.LVL22:
 293 0010 04F11006 		add	r6, r4, #16
 294              	.LVL23:
 295              	.L17:
 296              		.loc 1 158 0 discriminator 2
 297 0014 54F8041F 		ldr	r1, [r4, #4]!
 298 0018 40F20000 		movw	r0, #:lower16:.LANCHOR1
 299 001c C0F20000 		movt	r0, #:upper16:.LANCHOR1
 300 0020 FFF7FEFF 		bl	chPoolFree
 301              	.LVL24:
 302              		.loc 1 157 0 discriminator 2
 303 0024 B442     		cmp	r4, r6
 304 0026 F5D1     		bne	.L17
 305              		.loc 1 161 0
 306 0028 40F20000 		movw	r0, #:lower16:.LANCHOR1
 307 002c 40F20002 		movw	r2, #:lower16:thread
 308 0030 40F20003 		movw	r3, #:lower16:.LC0
 309 0034 C0F20002 		movt	r2, #:upper16:thread
 310 0038 C0F20003 		movt	r3, #:upper16:.LC0
 311 003c 691E     		subs	r1, r5, #1
 312 003e C0F20000 		movt	r0, #:upper16:.LANCHOR1
 313 0042 FFF7FEFF 		bl	chThdCreateFromMemoryPool
 314              	.LVL25:
 315 0046 40F20004 		movw	r4, #:lower16:threads
 316 004a C0F20004 		movt	r4, #:upper16:threads
 317 004e 2060     		str	r0, [r4]
 318              		.loc 1 162 0
 319 0050 40F20002 		movw	r2, #:lower16:thread
 320 0054 40F20000 		movw	r0, #:lower16:.LANCHOR1
 321 0058 40F20003 		movw	r3, #:lower16:.LC1
 322 005c C0F20002 		movt	r2, #:upper16:thread
 323 0060 C0F20003 		movt	r3, #:upper16:.LC1
 324 0064 A91E     		subs	r1, r5, #2
 325 0066 C0F20000 		movt	r0, #:upper16:.LANCHOR1
 326 006a FFF7FEFF 		bl	chThdCreateFromMemoryPool
 327              	.LVL26:
 328              		.loc 1 163 0
 329 006e 40F20002 		movw	r2, #:lower16:thread
 330              		.loc 1 162 0
 331 0072 6060     		str	r0, [r4, #4]
 332              		.loc 1 163 0
 333 0074 40F20003 		movw	r3, #:lower16:.LC2
 334 0078 40F20000 		movw	r0, #:lower16:.LANCHOR1
 335 007c C0F20002 		movt	r2, #:upper16:thread
 336 0080 C0F20003 		movt	r3, #:upper16:.LC2
 337 0084 E91E     		subs	r1, r5, #3
 338 0086 C0F20000 		movt	r0, #:upper16:.LANCHOR1
 339 008a FFF7FEFF 		bl	chThdCreateFromMemoryPool
 340              	.LVL27:
ARM GAS  /tmp/ccsQNTyN.s 			page 7


 341              		.loc 1 164 0
 342 008e 40F20002 		movw	r2, #:lower16:thread
 343              		.loc 1 163 0
 344 0092 A060     		str	r0, [r4, #8]
 345              		.loc 1 164 0
 346 0094 40F20003 		movw	r3, #:lower16:.LC4
 347 0098 40F20000 		movw	r0, #:lower16:.LANCHOR1
 348 009c C0F20002 		movt	r2, #:upper16:thread
 349 00a0 C0F20003 		movt	r3, #:upper16:.LC4
 350 00a4 291F     		subs	r1, r5, #4
 351 00a6 C0F20000 		movt	r0, #:upper16:.LANCHOR1
 352 00aa FFF7FEFF 		bl	chThdCreateFromMemoryPool
 353              	.LVL28:
 354              		.loc 1 165 0
 355 00ae 40F20002 		movw	r2, #:lower16:thread
 356              		.loc 1 164 0
 357 00b2 E060     		str	r0, [r4, #12]
 358              		.loc 1 165 0
 359 00b4 40F20003 		movw	r3, #:lower16:.LC5
 360 00b8 40F20000 		movw	r0, #:lower16:.LANCHOR1
 361 00bc 691F     		subs	r1, r5, #5
 362 00be C0F20000 		movt	r0, #:upper16:.LANCHOR1
 363 00c2 C0F20002 		movt	r2, #:upper16:thread
 364 00c6 C0F20003 		movt	r3, #:upper16:.LC5
 365 00ca FFF7FEFF 		bl	chThdCreateFromMemoryPool
 366              	.LVL29:
 367              		.loc 1 167 0
 368 00ce 2168     		ldr	r1, [r4]
 369              		.loc 1 165 0
 370 00d0 2061     		str	r0, [r4, #16]
 371              		.loc 1 167 0
 372 00d2 49B1     		cbz	r1, .L18
 373              		.loc 1 167 0 is_stmt 0 discriminator 1
 374 00d4 6168     		ldr	r1, [r4, #4]
 375 00d6 39B1     		cbz	r1, .L18
 376 00d8 A168     		ldr	r1, [r4, #8]
 377 00da 29B1     		cbz	r1, .L18
 378 00dc E168     		ldr	r1, [r4, #12]
 379 00de 19B1     		cbz	r1, .L18
 380 00e0 D0F10101 		rsbs	r1, r0, #1
 381 00e4 38BF     		it	cc
 382 00e6 0021     		movcc	r1, #0
 383              	.L18:
 384              		.loc 1 167 0 discriminator 3
 385 00e8 0120     		movs	r0, #1
 386 00ea FFF7FEFF 		bl	_test_assert
 387              	.LVL30:
 388 00ee 00B1     		cbz	r0, .L28
 389              	.L15:
 390 00f0 70BD     		pop	{r4, r5, r6, pc}
 391              	.LVL31:
 392              	.L28:
 393              		.loc 1 175 0 is_stmt 1
 394 00f2 FFF7FEFF 		bl	test_wait_threads
 395              	.LVL32:
 396              		.loc 1 176 0
 397 00f6 40F20001 		movw	r1, #:lower16:.LC6
ARM GAS  /tmp/ccsQNTyN.s 			page 8


 398 00fa C0F20001 		movt	r1, #:upper16:.LC6
 399 00fe 0220     		movs	r0, #2
 400 0100 FFF7FEFF 		bl	_test_assert_sequence
 401              	.LVL33:
 402 0104 0028     		cmp	r0, #0
 403 0106 F3D1     		bne	.L15
 404 0108 0424     		movs	r4, #4
 405              	.L23:
 406              	.LVL34:
 407              		.loc 1 180 0
 408 010a 40F20000 		movw	r0, #:lower16:.LANCHOR1
 409 010e C0F20000 		movt	r0, #:upper16:.LANCHOR1
 410 0112 FFF7FEFF 		bl	chPoolAlloc
 411              	.LVL35:
 412 0116 011C     		adds	r1, r0, #0
 413 0118 18BF     		it	ne
 414 011a 0121     		movne	r1, #1
 415 011c 0320     		movs	r0, #3
 416 011e FFF7FEFF 		bl	_test_assert
 417              	.LVL36:
 418 0122 0028     		cmp	r0, #0
 419 0124 E4D1     		bne	.L15
 420              		.loc 1 179 0
 421 0126 013C     		subs	r4, r4, #1
 422              	.LVL37:
 423 0128 EFD1     		bne	.L23
 424              		.loc 1 181 0
 425 012a 40F20000 		movw	r0, #:lower16:.LANCHOR1
 426 012e C0F20000 		movt	r0, #:upper16:.LANCHOR1
 427 0132 FFF7FEFF 		bl	chPoolAlloc
 428              	.LVL38:
 429              		.loc 1 182 0
 430 0136 BDE87040 		pop	{r4, r5, r6, lr}
 431              	.LVL39:
 432              		.loc 1 181 0
 433 013a D0F10101 		rsbs	r1, r0, #1
 434 013e 38BF     		it	cc
 435 0140 0021     		movcc	r1, #0
 436 0142 0420     		movs	r0, #4
 437 0144 FFF7FEBF 		b	_test_assert
 438              	.LVL40:
 439              	.L30:
 440              		.align	2
 441              	.L29:
 442 0148 FCFFFFFF 		.word	wa-4
 443              		.cfi_endproc
 444              	.LFE11:
 445              		.size	dyn2_execute, .-dyn2_execute
 446 014c AFF30080 		.section	.text.dyn2_setup,"ax",%progbits
 447              		.align	2
 448              		.p2align 4,,15
 449              		.thumb
 450              		.thumb_func
 451              		.type	dyn2_setup, %function
 452              	dyn2_setup:
 453              	.LFB10:
 454              		.loc 1 147 0
ARM GAS  /tmp/ccsQNTyN.s 			page 9


 455              		.cfi_startproc
 456              		@ args = 0, pretend = 0, frame = 0
 457              		@ frame_needed = 0, uses_anonymous_args = 0
 458              		@ link register save eliminated.
 459              		.loc 1 149 0
 460 0000 40F20000 		movw	r0, #:lower16:.LANCHOR1
 461 0004 C0F20000 		movt	r0, #:upper16:.LANCHOR1
 462 0008 4FF49871 		mov	r1, #304
 463 000c 0022     		movs	r2, #0
 464 000e FFF7FEBF 		b	chPoolInit
 465              	.LVL41:
 466              		.cfi_endproc
 467              	.LFE10:
 468              		.size	dyn2_setup, .-dyn2_setup
 469 0012 00BFAFF3 		.section	.text.regfind,"ax",%progbits
 469      0080AFF3 
 469      0080AFF3 
 469      0080
 470              		.align	2
 471              		.p2align 4,,15
 472              		.thumb
 473              		.thumb_func
 474              		.type	regfind, %function
 475              	regfind:
 476              	.LFB12:
 477              		.loc 1 202 0
 478              		.cfi_startproc
 479              		@ args = 0, pretend = 0, frame = 0
 480              		@ frame_needed = 0, uses_anonymous_args = 0
 481              	.LVL42:
 482 0000 38B5     		push	{r3, r4, r5, lr}
 483              		.cfi_def_cfa_offset 16
 484              		.cfi_offset 3, -16
 485              		.cfi_offset 4, -12
 486              		.cfi_offset 5, -8
 487              		.cfi_offset 14, -4
 488              		.loc 1 202 0
 489 0002 0546     		mov	r5, r0
 490              		.loc 1 206 0
 491 0004 FFF7FEFF 		bl	chRegFirstThread
 492              	.LVL43:
 493              		.loc 1 204 0
 494 0008 0024     		movs	r4, #0
 495              		.loc 1 206 0
 496 000a 0346     		mov	r3, r0
 497              	.LVL44:
 498              	.L34:
 499              		.loc 1 209 0 discriminator 1
 500 000c 1846     		mov	r0, r3
 501              		.loc 1 208 0 discriminator 1
 502 000e AB42     		cmp	r3, r5
 503 0010 08BF     		it	eq
 504 0012 44F00104 		orreq	r4, r4, #1
 505              	.LVL45:
 506              		.loc 1 209 0 discriminator 1
 507 0016 FFF7FEFF 		bl	chRegNextThread
 508              	.LVL46:
ARM GAS  /tmp/ccsQNTyN.s 			page 10


 509              		.loc 1 210 0 discriminator 1
 510 001a 0346     		mov	r3, r0
 511 001c 0028     		cmp	r0, #0
 512 001e F5D1     		bne	.L34
 513              		.loc 1 212 0
 514 0020 2046     		mov	r0, r4
 515              	.LVL47:
 516 0022 38BD     		pop	{r3, r4, r5, pc}
 517              		.cfi_endproc
 518              	.LFE12:
 519              		.size	regfind, .-regfind
 520 0024 AFF30080 		.section	.text.dyn3_execute,"ax",%progbits
 520      AFF30080 
 520      AFF30080 
 521              		.align	2
 522              		.p2align 4,,15
 523              		.thumb
 524              		.thumb_func
 525              		.type	dyn3_execute, %function
 526              	dyn3_execute:
 527              	.LFB14:
 528              		.loc 1 219 0
 529              		.cfi_startproc
 530              		@ args = 0, pretend = 0, frame = 0
 531              		@ frame_needed = 0, uses_anonymous_args = 0
 532              	.LVL48:
 533 0000 10B5     		push	{r4, lr}
 534              		.cfi_def_cfa_offset 8
 535              		.cfi_offset 4, -8
 536              		.cfi_offset 14, -4
 537              		.loc 1 221 0
 538 0002 40F20003 		movw	r3, #:lower16:rlist
 539 0006 C0F20003 		movt	r3, #:upper16:rlist
 540 000a DB69     		ldr	r3, [r3, #28]
 541              		.loc 1 224 0
 542 000c 40F20001 		movw	r1, #:lower16:.LC0
 543 0010 9A68     		ldr	r2, [r3, #8]
 544              		.loc 1 219 0
 545 0012 82B0     		sub	sp, sp, #8
 546              		.cfi_def_cfa_offset 16
 547              		.loc 1 224 0
 548 0014 C0F20001 		movt	r1, #:upper16:.LC0
 549 0018 40F20000 		movw	r0, #:lower16:.LANCHOR0
 550 001c 40F20003 		movw	r3, #:lower16:thread
 551 0020 013A     		subs	r2, r2, #1
 552 0022 0091     		str	r1, [sp]
 553              	.LVL49:
 554 0024 C0F20000 		movt	r0, #:upper16:.LANCHOR0
 555 0028 4FF49871 		mov	r1, #304
 556 002c C0F20003 		movt	r3, #:upper16:thread
 557 0030 FFF7FEFF 		bl	chThdCreateFromHeap
 558              	.LVL50:
 559              		.loc 1 225 0
 560 0034 817F     		ldrb	r1, [r0, #30]	@ zero_extendqisi2
 561              		.loc 1 224 0
 562 0036 0446     		mov	r4, r0
 563              	.LVL51:
ARM GAS  /tmp/ccsQNTyN.s 			page 11


 564              		.loc 1 225 0
 565 0038 0120     		movs	r0, #1
 566              	.LVL52:
 567 003a 0A1A     		subs	r2, r1, r0
 568 003c 5142     		rsbs	r1, r2, #0
 569 003e 5141     		adcs	r1, r1, r2
 570 0040 FFF7FEFF 		bl	_test_assert
 571              	.LVL53:
 572 0044 08B1     		cbz	r0, .L39
 573              	.L35:
 574              		.loc 1 247 0
 575 0046 02B0     		add	sp, sp, #8
 576              		@ sp needed
 577 0048 10BD     		pop	{r4, pc}
 578              	.LVL54:
 579              	.L39:
 580              		.loc 1 226 0
 581 004a 2046     		mov	r0, r4
 582 004c FFF7FEFF 		bl	chThdAddRef
 583              	.LVL55:
 584              		.loc 1 227 0
 585 0050 A17F     		ldrb	r1, [r4, #30]	@ zero_extendqisi2
 586 0052 0220     		movs	r0, #2
 587 0054 0B1A     		subs	r3, r1, r0
 588 0056 5942     		rsbs	r1, r3, #0
 589 0058 5941     		adcs	r1, r1, r3
 590 005a FFF7FEFF 		bl	_test_assert
 591              	.LVL56:
 592 005e 0028     		cmp	r0, #0
 593 0060 F1D1     		bne	.L35
 594              		.loc 1 228 0
 595 0062 2046     		mov	r0, r4
 596 0064 FFF7FEFF 		bl	chThdRelease
 597              	.LVL57:
 598              		.loc 1 229 0
 599 0068 A17F     		ldrb	r1, [r4, #30]	@ zero_extendqisi2
 600 006a 0320     		movs	r0, #3
 601 006c B1F1010C 		subs	ip, r1, #1
 602 0070 DCF10001 		rsbs	r1, ip, #0
 603 0074 51EB0C01 		adcs	r1, r1, ip
 604 0078 FFF7FEFF 		bl	_test_assert
 605              	.LVL58:
 606 007c 0028     		cmp	r0, #0
 607 007e E2D1     		bne	.L35
 608              		.loc 1 232 0
 609 0080 2046     		mov	r0, r4
 610 0082 FFF7FEFF 		bl	regfind
 611              	.LVL59:
 612 0086 0146     		mov	r1, r0
 613 0088 0420     		movs	r0, #4
 614 008a FFF7FEFF 		bl	_test_assert
 615              	.LVL60:
 616 008e 0028     		cmp	r0, #0
 617 0090 D9D1     		bne	.L35
 618              		.loc 1 233 0
 619 0092 2046     		mov	r0, r4
 620 0094 FFF7FEFF 		bl	regfind
ARM GAS  /tmp/ccsQNTyN.s 			page 12


 621              	.LVL61:
 622 0098 0146     		mov	r1, r0
 623 009a 0520     		movs	r0, #5
 624 009c FFF7FEFF 		bl	_test_assert
 625              	.LVL62:
 626 00a0 0028     		cmp	r0, #0
 627 00a2 D0D1     		bne	.L35
 628              		.loc 1 236 0
 629 00a4 2046     		mov	r0, r4
 630 00a6 FFF7FEFF 		bl	chThdRelease
 631              	.LVL63:
 632              		.loc 1 237 0
 633 00aa A17F     		ldrb	r1, [r4, #30]	@ zero_extendqisi2
 634 00ac 0620     		movs	r0, #6
 635 00ae D1F10101 		rsbs	r1, r1, #1
 636 00b2 38BF     		it	cc
 637 00b4 0021     		movcc	r1, #0
 638 00b6 FFF7FEFF 		bl	_test_assert
 639              	.LVL64:
 640 00ba 0028     		cmp	r0, #0
 641 00bc C3D1     		bne	.L35
 642              		.loc 1 238 0
 643 00be 217F     		ldrb	r1, [r4, #28]	@ zero_extendqisi2
 644 00c0 0720     		movs	r0, #7
 645 00c2 D1F10101 		rsbs	r1, r1, #1
 646 00c6 38BF     		it	cc
 647 00c8 0021     		movcc	r1, #0
 648 00ca FFF7FEFF 		bl	_test_assert
 649              	.LVL65:
 650 00ce 0028     		cmp	r0, #0
 651 00d0 B9D1     		bne	.L35
 652              		.loc 1 239 0
 653 00d2 2046     		mov	r0, r4
 654 00d4 FFF7FEFF 		bl	regfind
 655              	.LVL66:
 656 00d8 0146     		mov	r1, r0
 657 00da 0820     		movs	r0, #8
 658 00dc FFF7FEFF 		bl	_test_assert
 659              	.LVL67:
 660 00e0 0028     		cmp	r0, #0
 661 00e2 B0D1     		bne	.L35
 662              		.loc 1 240 0
 663 00e4 2046     		mov	r0, r4
 664 00e6 FFF7FEFF 		bl	regfind
 665              	.LVL68:
 666 00ea 0146     		mov	r1, r0
 667 00ec 0920     		movs	r0, #9
 668 00ee FFF7FEFF 		bl	_test_assert
 669              	.LVL69:
 670 00f2 0028     		cmp	r0, #0
 671 00f4 A7D1     		bne	.L35
 672              		.loc 1 241 0
 673 00f6 3220     		movs	r0, #50
 674 00f8 FFF7FEFF 		bl	chThdSleep
 675              	.LVL70:
 676              		.loc 1 242 0
 677 00fc 217F     		ldrb	r1, [r4, #28]	@ zero_extendqisi2
ARM GAS  /tmp/ccsQNTyN.s 			page 13


 678 00fe 0A20     		movs	r0, #10
 679 0100 B1F10E0E 		subs	lr, r1, #14
 680 0104 DEF10001 		rsbs	r1, lr, #0
 681 0108 51EB0E01 		adcs	r1, r1, lr
 682 010c FFF7FEFF 		bl	_test_assert
 683              	.LVL71:
 684 0110 0028     		cmp	r0, #0
 685 0112 98D1     		bne	.L35
 686              		.loc 1 245 0
 687 0114 2046     		mov	r0, r4
 688 0116 FFF7FEFF 		bl	regfind
 689              	.LVL72:
 690 011a 0146     		mov	r1, r0
 691 011c 0B20     		movs	r0, #11
 692 011e FFF7FEFF 		bl	_test_assert
 693              	.LVL73:
 694 0122 0028     		cmp	r0, #0
 695 0124 8FD1     		bne	.L35
 696              		.loc 1 246 0
 697 0126 2046     		mov	r0, r4
 698 0128 FFF7FEFF 		bl	regfind
 699              	.LVL74:
 700 012c D0F10101 		rsbs	r1, r0, #1
 701 0130 38BF     		it	cc
 702 0132 0021     		movcc	r1, #0
 703 0134 0C20     		movs	r0, #12
 704              		.loc 1 247 0
 705 0136 02B0     		add	sp, sp, #8
 706              		@ sp needed
 707 0138 BDE81040 		pop	{r4, lr}
 708              	.LVL75:
 709              		.loc 1 246 0
 710 013c FFF7FEBF 		b	_test_assert
 711              	.LVL76:
 712              		.cfi_endproc
 713              	.LFE14:
 714              		.size	dyn3_execute, .-dyn3_execute
 715              		.global	patterndyn
 716              		.global	testdyn3
 717              		.global	testdyn2
 718              		.global	testdyn1
 719              		.section	.rodata.testdyn1,"a",%progbits
 720              		.align	2
 721              		.type	testdyn1, %object
 722              		.size	testdyn1, 16
 723              	testdyn1:
 724 0000 78000000 		.word	.LC9
 725 0004 00000000 		.word	dyn1_setup
 726 0008 00000000 		.word	0
 727 000c 00000000 		.word	dyn1_execute
 728              		.section	.rodata.testdyn2,"a",%progbits
 729              		.align	2
 730              		.type	testdyn2, %object
 731              		.size	testdyn2, 16
 732              	testdyn2:
 733 0000 48000000 		.word	.LC8
 734 0004 00000000 		.word	dyn2_setup
ARM GAS  /tmp/ccsQNTyN.s 			page 14


 735 0008 00000000 		.word	0
 736 000c 00000000 		.word	dyn2_execute
 737              		.section	.rodata.testdyn3,"a",%progbits
 738              		.align	2
 739              		.type	testdyn3, %object
 740              		.size	testdyn3, 16
 741              	testdyn3:
 742 0000 20000000 		.word	.LC7
 743 0004 00000000 		.word	dyn3_setup
 744 0008 00000000 		.word	0
 745 000c 00000000 		.word	dyn3_execute
 746              		.section	.bss.mp1,"aw",%nobits
 747              		.align	2
 748              		.set	.LANCHOR1,. + 0
 749              		.type	mp1, %object
 750              		.size	mp1, 12
 751              	mp1:
 752 0000 00000000 		.space	12
 752      00000000 
 752      00000000 
 753              		.section	.rodata.str1.4,"aMS",%progbits,1
 754              		.align	2
 755              	.LC0:
 756 0000 4100     		.ascii	"A\000"
 757 0002 0000     		.space	2
 758              	.LC1:
 759 0004 4200     		.ascii	"B\000"
 760 0006 0000     		.space	2
 761              	.LC2:
 762 0008 4300     		.ascii	"C\000"
 763 000a 0000     		.space	2
 764              	.LC3:
 765 000c 414200   		.ascii	"AB\000"
 766 000f 00       		.space	1
 767              	.LC4:
 768 0010 4400     		.ascii	"D\000"
 769 0012 0000     		.space	2
 770              	.LC5:
 771 0014 4500     		.ascii	"E\000"
 772 0016 0000     		.space	2
 773              	.LC6:
 774 0018 41424344 		.ascii	"ABCD\000"
 774      00
 775 001d 000000   		.space	3
 776              	.LC7:
 777 0020 44796E61 		.ascii	"Dynamic APIs, registry and references\000"
 777      6D696320 
 777      41504973 
 777      2C207265 
 777      67697374 
 778 0046 0000     		.space	2
 779              	.LC8:
 780 0048 44796E61 		.ascii	"Dynamic APIs, threads creation from memory pool\000"
 780      6D696320 
 780      41504973 
 780      2C207468 
 780      72656164 
ARM GAS  /tmp/ccsQNTyN.s 			page 15


 781              	.LC9:
 782 0078 44796E61 		.ascii	"Dynamic APIs, threads creation from heap\000"
 782      6D696320 
 782      41504973 
 782      2C207468 
 782      72656164 
 783 00a1 000000   		.section	.rodata.patterndyn,"a",%progbits
 784              		.align	2
 785              		.type	patterndyn, %object
 786              		.size	patterndyn, 16
 787              	patterndyn:
 788 0000 00000000 		.word	testdyn1
 789 0004 00000000 		.word	testdyn2
 790 0008 00000000 		.word	testdyn3
 791 000c 00000000 		.word	0
 792              		.section	.bss.heap1,"aw",%nobits
 793              		.align	3
 794              		.set	.LANCHOR0,. + 0
 795              		.type	heap1, %object
 796              		.size	heap1, 32
 797              	heap1:
 798 0000 00000000 		.space	32
 798      00000000 
 798      00000000 
 798      00000000 
 798      00000000 
 799              		.text
 800              	.Letext0:
 801              		.file 2 "/home/santi/arm-2013.11/lib/gcc/arm-none-eabi/4.8.1/include/stddef.h"
 802              		.file 3 "/home/santi/arm-2013.11/arm-none-eabi/include/stdint.h"
 803              		.file 4 "../third_party/ChibiOS/os/ports/GCC/ARMCMx/chtypes.h"
 804              		.file 5 "../third_party/ChibiOS/os/kernel/include/chlists.h"
 805              		.file 6 "../third_party/ChibiOS/os/kernel/include/chthreads.h"
 806              		.file 7 "../third_party/ChibiOS/os/ports/GCC/ARMCMx/chcore_v7m.h"
 807              		.file 8 "../third_party/ChibiOS/os/kernel/include/chschd.h"
 808              		.file 9 "../third_party/ChibiOS/os/kernel/include/chmtx.h"
 809              		.file 10 "../third_party/ChibiOS/os/kernel/include/chmemcore.h"
 810              		.file 11 "../third_party/ChibiOS/os/kernel/include/chheap.h"
 811              		.file 12 "../third_party/ChibiOS/os/kernel/include/chmempools.h"
 812              		.file 13 "../third_party/ChibiOS/test/test.h"
 813              		.file 14 "../third_party/ChibiOS/os/kernel/include/chdynamic.h"
 814              		.file 15 "../third_party/ChibiOS/os/kernel/include/chregistry.h"