ARM GAS  /tmp/ccklqWpJ.s 			page 1


   1              		.syntax unified
   2              		.cpu cortex-m3
   3              		.fpu softvfp
   4              		.eabi_attribute 20, 1
   5              		.eabi_attribute 21, 1
   6              		.eabi_attribute 23, 3
   7              		.eabi_attribute 24, 1
   8              		.eabi_attribute 25, 1
   9              		.eabi_attribute 26, 1
  10              		.eabi_attribute 30, 2
  11              		.eabi_attribute 34, 1
  12              		.eabi_attribute 18, 4
  13              		.thumb
  14              		.file	"testsem.c"
  15              		.text
  16              	.Ltext0:
  17              		.cfi_sections	.debug_frame
  18              		.section	.text.sem1_execute,"ax",%progbits
  19              		.align	2
  20              		.p2align 4,,15
  21              		.thumb
  22              		.thumb_func
  23              		.type	sem1_execute, %function
  24              	sem1_execute:
  25              	.LFB9:
  26              		.file 1 "../third_party/ChibiOS/test/testsem.c"
  27              		.loc 1 95 0
  28              		.cfi_startproc
  29              		@ args = 0, pretend = 0, frame = 8
  30              		@ frame_needed = 0, uses_anonymous_args = 0
  31 0000 2DE9F041 		push	{r4, r5, r6, r7, r8, lr}
  32              		.cfi_def_cfa_offset 24
  33              		.cfi_offset 4, -24
  34              		.cfi_offset 5, -20
  35              		.cfi_offset 6, -16
  36              		.cfi_offset 7, -12
  37              		.cfi_offset 8, -8
  38              		.cfi_offset 14, -4
  39              		.loc 1 97 0
  40 0004 40F20005 		movw	r5, #:lower16:rlist
  41 0008 C0F20005 		movt	r5, #:upper16:rlist
  42 000c EB69     		ldr	r3, [r5, #28]
  43 000e 40F20006 		movw	r6, #:lower16:wa
  44 0012 C0F20006 		movt	r6, #:upper16:wa
  45 0016 9A68     		ldr	r2, [r3, #8]
  46 0018 D6F80080 		ldr	r8, [r6]
  47 001c 40F20007 		movw	r7, #:lower16:.LC0
  48              		.loc 1 95 0
  49 0020 84B0     		sub	sp, sp, #16
  50              		.cfi_def_cfa_offset 40
  51              		.loc 1 97 0
  52 0022 C0F20007 		movt	r7, #:upper16:.LC0
  53 0026 40F20003 		movw	r3, #:lower16:thread1
  54 002a 0532     		adds	r2, r2, #5
  55 002c C0F20003 		movt	r3, #:upper16:thread1
  56 0030 4FF49871 		mov	r1, #304
  57 0034 4046     		mov	r0, r8
ARM GAS  /tmp/ccklqWpJ.s 			page 2


  58 0036 0097     		str	r7, [sp]
  59 0038 FFF7FEFF 		bl	chThdCreateStatic
  60              	.LVL0:
  61              		.loc 1 98 0
  62 003c EB69     		ldr	r3, [r5, #28]
  63              		.loc 1 97 0
  64 003e 40F20004 		movw	r4, #:lower16:threads
  65              		.loc 1 98 0
  66 0042 9A68     		ldr	r2, [r3, #8]
  67 0044 7368     		ldr	r3, [r6, #4]
  68 0046 40F20001 		movw	r1, #:lower16:.LC1
  69              		.loc 1 97 0
  70 004a C0F20004 		movt	r4, #:upper16:threads
  71              		.loc 1 98 0
  72 004e 0393     		str	r3, [sp, #12]
  73 0050 C0F20001 		movt	r1, #:upper16:.LC1
  74 0054 40F20003 		movw	r3, #:lower16:thread1
  75              		.loc 1 97 0
  76 0058 2060     		str	r0, [r4]
  77              		.loc 1 98 0
  78 005a 0132     		adds	r2, r2, #1
  79 005c 0091     		str	r1, [sp]
  80 005e C0F20003 		movt	r3, #:upper16:thread1
  81 0062 4FF49871 		mov	r1, #304
  82 0066 0398     		ldr	r0, [sp, #12]
  83 0068 FFF7FEFF 		bl	chThdCreateStatic
  84              	.LVL1:
  85              		.loc 1 99 0
  86 006c B268     		ldr	r2, [r6, #8]
  87 006e EB69     		ldr	r3, [r5, #28]
  88 0070 0392     		str	r2, [sp, #12]
  89 0072 40F20001 		movw	r1, #:lower16:.LC2
  90 0076 9A68     		ldr	r2, [r3, #8]
  91 0078 C0F20001 		movt	r1, #:upper16:.LC2
  92 007c 40F20003 		movw	r3, #:lower16:thread1
  93              		.loc 1 98 0
  94 0080 6060     		str	r0, [r4, #4]
  95              		.loc 1 99 0
  96 0082 0332     		adds	r2, r2, #3
  97 0084 0091     		str	r1, [sp]
  98 0086 C0F20003 		movt	r3, #:upper16:thread1
  99 008a 4FF49871 		mov	r1, #304
 100 008e 0398     		ldr	r0, [sp, #12]
 101 0090 FFF7FEFF 		bl	chThdCreateStatic
 102              	.LVL2:
 103              		.loc 1 100 0
 104 0094 F268     		ldr	r2, [r6, #12]
 105 0096 EB69     		ldr	r3, [r5, #28]
 106 0098 0392     		str	r2, [sp, #12]
 107 009a 40F20001 		movw	r1, #:lower16:.LC3
 108 009e 9A68     		ldr	r2, [r3, #8]
 109 00a0 C0F20001 		movt	r1, #:upper16:.LC3
 110 00a4 40F20003 		movw	r3, #:lower16:thread1
 111              		.loc 1 99 0
 112 00a8 A060     		str	r0, [r4, #8]
 113              		.loc 1 100 0
 114 00aa 0432     		adds	r2, r2, #4
ARM GAS  /tmp/ccklqWpJ.s 			page 3


 115 00ac 0091     		str	r1, [sp]
 116 00ae C0F20003 		movt	r3, #:upper16:thread1
 117 00b2 4FF49871 		mov	r1, #304
 118 00b6 0398     		ldr	r0, [sp, #12]
 119 00b8 FFF7FEFF 		bl	chThdCreateStatic
 120              	.LVL3:
 121              		.loc 1 101 0
 122 00bc EB69     		ldr	r3, [r5, #28]
 123 00be 3669     		ldr	r6, [r6, #16]
 124 00c0 9A68     		ldr	r2, [r3, #8]
 125 00c2 40F20001 		movw	r1, #:lower16:.LC4
 126 00c6 C0F20001 		movt	r1, #:upper16:.LC4
 127 00ca 40F20003 		movw	r3, #:lower16:thread1
 128 00ce 0232     		adds	r2, r2, #2
 129 00d0 C0F20003 		movt	r3, #:upper16:thread1
 130              		.loc 1 100 0
 131 00d4 E060     		str	r0, [r4, #12]
 132              		.loc 1 101 0
 133 00d6 0091     		str	r1, [sp]
 134 00d8 3046     		mov	r0, r6
 135 00da 4FF49871 		mov	r1, #304
 136 00de FFF7FEFF 		bl	chThdCreateStatic
 137              	.LVL4:
 138 00e2 2061     		str	r0, [r4, #16]
 139              		.loc 1 102 0
 140 00e4 40F20000 		movw	r0, #:lower16:.LANCHOR0
 141 00e8 C0F20000 		movt	r0, #:upper16:.LANCHOR0
 142 00ec FFF7FEFF 		bl	chSemSignal
 143              	.LVL5:
 144              		.loc 1 103 0
 145 00f0 40F20000 		movw	r0, #:lower16:.LANCHOR0
 146 00f4 C0F20000 		movt	r0, #:upper16:.LANCHOR0
 147 00f8 FFF7FEFF 		bl	chSemSignal
 148              	.LVL6:
 149              		.loc 1 104 0
 150 00fc 40F20000 		movw	r0, #:lower16:.LANCHOR0
 151 0100 C0F20000 		movt	r0, #:upper16:.LANCHOR0
 152 0104 FFF7FEFF 		bl	chSemSignal
 153              	.LVL7:
 154              		.loc 1 105 0
 155 0108 40F20000 		movw	r0, #:lower16:.LANCHOR0
 156 010c C0F20000 		movt	r0, #:upper16:.LANCHOR0
 157 0110 FFF7FEFF 		bl	chSemSignal
 158              	.LVL8:
 159              		.loc 1 106 0
 160 0114 40F20000 		movw	r0, #:lower16:.LANCHOR0
 161 0118 C0F20000 		movt	r0, #:upper16:.LANCHOR0
 162 011c FFF7FEFF 		bl	chSemSignal
 163              	.LVL9:
 164              		.loc 1 107 0
 165 0120 FFF7FEFF 		bl	test_wait_threads
 166              	.LVL10:
 167              		.loc 1 111 0
 168 0124 40F20001 		movw	r1, #:lower16:.LC5
 169 0128 C0F20001 		movt	r1, #:upper16:.LC5
 170 012c 0120     		movs	r0, #1
 171 012e FFF7FEFF 		bl	_test_assert_sequence
ARM GAS  /tmp/ccklqWpJ.s 			page 4


 172              	.LVL11:
 173 0132 10B1     		cbz	r0, .L4
 174              		.loc 1 119 0
 175 0134 04B0     		add	sp, sp, #16
 176              		@ sp needed
 177 0136 BDE8F081 		pop	{r4, r5, r6, r7, r8, pc}
 178              	.L4:
 179              		.loc 1 113 0
 180 013a EA69     		ldr	r2, [r5, #28]
 181 013c 40F20003 		movw	r3, #:lower16:thread1
 182 0140 9268     		ldr	r2, [r2, #8]
 183 0142 4046     		mov	r0, r8
 184 0144 0532     		adds	r2, r2, #5
 185 0146 0097     		str	r7, [sp]
 186 0148 C0F20003 		movt	r3, #:upper16:thread1
 187 014c 4FF49871 		mov	r1, #304
 188 0150 FFF7FEFF 		bl	chThdCreateStatic
 189              	.LVL12:
 190              	.LBB2:
 191              		.loc 1 114 0
 192 0154 2023     		movs	r3, #32
 193              	.LBE2:
 194              		.loc 1 113 0
 195 0156 2060     		str	r0, [r4]
 196              	.LBB3:
 197              		.loc 1 114 0
 198              	@ 114 "../third_party/ChibiOS/test/testsem.c" 1
 199 0158 83F31188 		msr     BASEPRI, r3
 200              	@ 0 "" 2
 201              		.thumb
 202              	.LBE3:
 203              		.loc 1 115 0
 204 015c 40F20000 		movw	r0, #:lower16:.LANCHOR0
 205 0160 C0F20000 		movt	r0, #:upper16:.LANCHOR0
 206 0164 0221     		movs	r1, #2
 207 0166 FFF7FEFF 		bl	chSemAddCounterI
 208              	.LVL13:
 209              	.LBB4:
 210              		.loc 1 116 0
 211 016a 0023     		movs	r3, #0
 212              	@ 116 "../third_party/ChibiOS/test/testsem.c" 1
 213 016c 83F31188 		msr     BASEPRI, r3
 214              	@ 0 "" 2
 215              		.thumb
 216              	.LBE4:
 217              		.loc 1 117 0
 218 0170 FFF7FEFF 		bl	test_wait_threads
 219              	.LVL14:
 220              		.loc 1 118 0
 221 0174 40F20003 		movw	r3, #:lower16:.LANCHOR0
 222 0178 C0F20003 		movt	r3, #:upper16:.LANCHOR0
 223 017c 9968     		ldr	r1, [r3, #8]
 224 017e 0220     		movs	r0, #2
 225 0180 4B1E     		subs	r3, r1, #1
 226 0182 5942     		rsbs	r1, r3, #0
 227 0184 5941     		adcs	r1, r1, r3
 228              		.loc 1 119 0
ARM GAS  /tmp/ccklqWpJ.s 			page 5


 229 0186 04B0     		add	sp, sp, #16
 230              		@ sp needed
 231 0188 BDE8F041 		pop	{r4, r5, r6, r7, r8, lr}
 232              		.loc 1 118 0
 233 018c FFF7FEBF 		b	_test_assert
 234              	.LVL15:
 235              		.cfi_endproc
 236              	.LFE9:
 237              		.size	sem1_execute, .-sem1_execute
 238              		.section	.text.thread3,"ax",%progbits
 239              		.align	2
 240              		.p2align 4,,15
 241              		.thumb
 242              		.thumb_func
 243              		.type	thread3, %function
 244              	thread3:
 245              	.LFB14:
 246              		.loc 1 220 0
 247              		.cfi_startproc
 248              		@ args = 0, pretend = 0, frame = 0
 249              		@ frame_needed = 0, uses_anonymous_args = 0
 250              	.LVL16:
 251 0000 10B5     		push	{r4, lr}
 252              		.cfi_def_cfa_offset 8
 253              		.cfi_offset 4, -8
 254              		.cfi_offset 14, -4
 255              		.loc 1 223 0
 256 0002 40F20004 		movw	r4, #:lower16:.LANCHOR0
 257 0006 C0F20004 		movt	r4, #:upper16:.LANCHOR0
 258 000a 2046     		mov	r0, r4
 259              	.LVL17:
 260 000c FFF7FEFF 		bl	chSemWait
 261              	.LVL18:
 262              		.loc 1 224 0
 263 0010 2046     		mov	r0, r4
 264 0012 FFF7FEFF 		bl	chSemSignal
 265              	.LVL19:
 266              		.loc 1 226 0
 267 0016 0020     		movs	r0, #0
 268 0018 10BD     		pop	{r4, pc}
 269              		.cfi_endproc
 270              	.LFE14:
 271              		.size	thread3, .-thread3
 272 001a 00BFAFF3 		.section	.text.thread1,"ax",%progbits
 272      0080
 273              		.align	2
 274              		.p2align 4,,15
 275              		.thumb
 276              		.thumb_func
 277              		.type	thread1, %function
 278              	thread1:
 279              	.LFB8:
 280              		.loc 1 88 0
 281              		.cfi_startproc
 282              		@ args = 0, pretend = 0, frame = 0
 283              		@ frame_needed = 0, uses_anonymous_args = 0
 284              	.LVL20:
ARM GAS  /tmp/ccklqWpJ.s 			page 6


 285 0000 10B5     		push	{r4, lr}
 286              		.cfi_def_cfa_offset 8
 287              		.cfi_offset 4, -8
 288              		.cfi_offset 14, -4
 289              		.loc 1 88 0
 290 0002 0446     		mov	r4, r0
 291              		.loc 1 90 0
 292 0004 40F20000 		movw	r0, #:lower16:.LANCHOR0
 293              	.LVL21:
 294 0008 C0F20000 		movt	r0, #:upper16:.LANCHOR0
 295 000c FFF7FEFF 		bl	chSemWait
 296              	.LVL22:
 297              		.loc 1 91 0
 298 0010 2078     		ldrb	r0, [r4]	@ zero_extendqisi2
 299 0012 FFF7FEFF 		bl	test_emit_token
 300              	.LVL23:
 301              		.loc 1 93 0
 302 0016 0020     		movs	r0, #0
 303 0018 10BD     		pop	{r4, pc}
 304              		.cfi_endproc
 305              	.LFE8:
 306              		.size	thread1, .-thread1
 307 001a 00BFAFF3 		.section	.text.sem1_setup,"ax",%progbits
 307      0080
 308              		.align	2
 309              		.p2align 4,,15
 310              		.thumb
 311              		.thumb_func
 312              		.type	sem1_setup, %function
 313              	sem1_setup:
 314              	.LFB7:
 315              		.loc 1 83 0
 316              		.cfi_startproc
 317              		@ args = 0, pretend = 0, frame = 0
 318              		@ frame_needed = 0, uses_anonymous_args = 0
 319              		@ link register save eliminated.
 320              		.loc 1 85 0
 321 0000 40F20000 		movw	r0, #:lower16:.LANCHOR0
 322 0004 C0F20000 		movt	r0, #:upper16:.LANCHOR0
 323 0008 0021     		movs	r1, #0
 324 000a FFF7FEBF 		b	chSemInit
 325              	.LVL24:
 326              		.cfi_endproc
 327              	.LFE7:
 328              		.size	sem1_setup, .-sem1_setup
 329 000e 00BF     		.section	.text.sem2_setup,"ax",%progbits
 330              		.align	2
 331              		.p2align 4,,15
 332              		.thumb
 333              		.thumb_func
 334              		.type	sem2_setup, %function
 335              	sem2_setup:
 336              	.LFB10:
 337              		.loc 1 139 0
 338              		.cfi_startproc
 339              		@ args = 0, pretend = 0, frame = 0
 340              		@ frame_needed = 0, uses_anonymous_args = 0
ARM GAS  /tmp/ccklqWpJ.s 			page 7


 341              		@ link register save eliminated.
 342              		.loc 1 141 0
 343 0000 40F20000 		movw	r0, #:lower16:.LANCHOR0
 344 0004 C0F20000 		movt	r0, #:upper16:.LANCHOR0
 345 0008 0021     		movs	r1, #0
 346 000a FFF7FEBF 		b	chSemInit
 347              	.LVL25:
 348              		.cfi_endproc
 349              	.LFE10:
 350              		.size	sem2_setup, .-sem2_setup
 351 000e 00BF     		.section	.text.sem3_setup,"ax",%progbits
 352              		.align	2
 353              		.p2align 4,,15
 354              		.thumb
 355              		.thumb_func
 356              		.type	sem3_setup, %function
 357              	sem3_setup:
 358              	.LFB13:
 359              		.loc 1 215 0
 360              		.cfi_startproc
 361              		@ args = 0, pretend = 0, frame = 0
 362              		@ frame_needed = 0, uses_anonymous_args = 0
 363              		@ link register save eliminated.
 364              		.loc 1 217 0
 365 0000 40F20000 		movw	r0, #:lower16:.LANCHOR0
 366 0004 C0F20000 		movt	r0, #:upper16:.LANCHOR0
 367 0008 0021     		movs	r1, #0
 368 000a FFF7FEBF 		b	chSemInit
 369              	.LVL26:
 370              		.cfi_endproc
 371              	.LFE13:
 372              		.size	sem3_setup, .-sem3_setup
 373 000e 00BF     		.section	.text.thread2,"ax",%progbits
 374              		.align	2
 375              		.p2align 4,,15
 376              		.thumb
 377              		.thumb_func
 378              		.type	thread2, %function
 379              	thread2:
 380              	.LFB11:
 381              		.loc 1 144 0
 382              		.cfi_startproc
 383              		@ args = 0, pretend = 0, frame = 0
 384              		@ frame_needed = 0, uses_anonymous_args = 0
 385              	.LVL27:
 386 0000 08B5     		push	{r3, lr}
 387              		.cfi_def_cfa_offset 8
 388              		.cfi_offset 3, -8
 389              		.cfi_offset 14, -4
 390              		.loc 1 147 0
 391 0002 3220     		movs	r0, #50
 392              	.LVL28:
 393 0004 FFF7FEFF 		bl	chThdSleep
 394              	.LVL29:
 395              	.LBB5:
 396              		.loc 1 148 0
 397 0008 2023     		movs	r3, #32
ARM GAS  /tmp/ccklqWpJ.s 			page 8


 398              	@ 148 "../third_party/ChibiOS/test/testsem.c" 1
 399 000a 83F31188 		msr     BASEPRI, r3
 400              	@ 0 "" 2
 401              		.thumb
 402              	.LBE5:
 403              		.loc 1 149 0
 404 000e 40F20000 		movw	r0, #:lower16:.LANCHOR0
 405 0012 C0F20000 		movt	r0, #:upper16:.LANCHOR0
 406 0016 FFF7FEFF 		bl	chSemSignalI
 407              	.LVL30:
 408              		.loc 1 150 0
 409 001a FFF7FEFF 		bl	chSchRescheduleS
 410              	.LVL31:
 411              	.LBB6:
 412              		.loc 1 151 0
 413 001e 0023     		movs	r3, #0
 414              	@ 151 "../third_party/ChibiOS/test/testsem.c" 1
 415 0020 83F31188 		msr     BASEPRI, r3
 416              	@ 0 "" 2
 417              		.thumb
 418              	.LBE6:
 419              		.loc 1 153 0
 420 0024 0020     		movs	r0, #0
 421 0026 08BD     		pop	{r3, pc}
 422              		.cfi_endproc
 423              	.LFE11:
 424              		.size	thread2, .-thread2
 425 0028 AFF30080 		.section	.text.thread4,"ax",%progbits
 425      AFF30080 
 426              		.align	2
 427              		.p2align 4,,15
 428              		.thumb
 429              		.thumb_func
 430              		.type	thread4, %function
 431              	thread4:
 432              	.LFB16:
 433              		.loc 1 256 0
 434              		.cfi_startproc
 435              		@ args = 0, pretend = 0, frame = 0
 436              		@ frame_needed = 0, uses_anonymous_args = 0
 437              	.LVL32:
 438 0000 08B5     		push	{r3, lr}
 439              		.cfi_def_cfa_offset 8
 440              		.cfi_offset 3, -8
 441              		.cfi_offset 14, -4
 442              	.LBB7:
 443              		.loc 1 258 0
 444 0002 2023     		movs	r3, #32
 445              	@ 258 "../third_party/ChibiOS/test/testsem.c" 1
 446 0004 83F31188 		msr     BASEPRI, r3
 447              	@ 0 "" 2
 448              		.thumb
 449              	.LBE7:
 450 0008 8368     		ldr	r3, [r0, #8]
 451 000a 002B     		cmp	r3, #0
 452 000c 06DD     		ble	.L13
 453              	.LVL33:
ARM GAS  /tmp/ccklqWpJ.s 			page 9


 454              	.L12:
 455              		.loc 1 258 0 is_stmt 0 discriminator 2
 456 000e FFF7FEFF 		bl	chSchRescheduleS
 457              	.LVL34:
 458              	.LBB8:
 459 0012 0023     		movs	r3, #0
 460              	@ 258 "../third_party/ChibiOS/test/testsem.c" 1
 461 0014 83F31188 		msr     BASEPRI, r3
 462              	@ 0 "" 2
 463              		.thumb
 464              	.LBE8:
 465              		.loc 1 260 0 is_stmt 1 discriminator 2
 466 0018 0020     		movs	r0, #0
 467 001a 08BD     		pop	{r3, pc}
 468              	.LVL35:
 469              	.L13:
 470              		.loc 1 258 0 discriminator 1
 471 001c FFF7FEFF 		bl	chSemSignalI
 472              	.LVL36:
 473 0020 F5E7     		b	.L12
 474              		.cfi_endproc
 475              	.LFE16:
 476              		.size	thread4, .-thread4
 477 0022 00BFAFF3 		.section	.text.sem4_execute,"ax",%progbits
 477      0080AFF3 
 477      0080AFF3 
 477      0080
 478              		.align	2
 479              		.p2align 4,,15
 480              		.thumb
 481              		.thumb_func
 482              		.type	sem4_execute, %function
 483              	sem4_execute:
 484              	.LFB17:
 485              		.loc 1 262 0
 486              		.cfi_startproc
 487              		@ args = 0, pretend = 0, frame = 16
 488              		@ frame_needed = 0, uses_anonymous_args = 0
 489 0000 00B5     		push	{lr}
 490              		.cfi_def_cfa_offset 4
 491              		.cfi_offset 14, -4
 492 0002 87B0     		sub	sp, sp, #28
 493              		.cfi_def_cfa_offset 32
 494              		.loc 1 266 0
 495 0004 03A8     		add	r0, sp, #12
 496 0006 0021     		movs	r1, #0
 497 0008 FFF7FEFF 		bl	chSemInit
 498              	.LVL37:
 499              		.loc 1 267 0
 500 000c 03A8     		add	r0, sp, #12
 501 000e 0021     		movs	r1, #0
 502 0010 FFF7FEFF 		bl	chSemReset
 503              	.LVL38:
 504              		.loc 1 268 0
 505 0014 0599     		ldr	r1, [sp, #20]
 506 0016 0120     		movs	r0, #1
 507 0018 0029     		cmp	r1, #0
ARM GAS  /tmp/ccklqWpJ.s 			page 10


 508 001a CCBF     		ite	gt
 509 001c 0021     		movgt	r1, #0
 510 001e 0121     		movle	r1, #1
 511 0020 FFF7FEFF 		bl	_test_assert
 512              	.LVL39:
 513 0024 10B1     		cbz	r0, .L19
 514              	.L14:
 515              		.loc 1 290 0
 516 0026 07B0     		add	sp, sp, #28
 517              		@ sp needed
 518 0028 5DF804FB 		ldr	pc, [sp], #4
 519              	.L19:
 520              		.loc 1 272 0
 521 002c 40F20003 		movw	r3, #:lower16:rlist
 522 0030 C0F20003 		movt	r3, #:upper16:rlist
 523 0034 DA69     		ldr	r2, [r3, #28]
 524              		.loc 1 271 0
 525 0036 40F20003 		movw	r3, #:lower16:wa
 526 003a 9268     		ldr	r2, [r2, #8]
 527 003c C0F20003 		movt	r3, #:upper16:wa
 528 0040 1868     		ldr	r0, [r3]
 529 0042 03A9     		add	r1, sp, #12
 530 0044 40F20003 		movw	r3, #:lower16:thread4
 531 0048 013A     		subs	r2, r2, #1
 532 004a 0091     		str	r1, [sp]
 533 004c C0F20003 		movt	r3, #:upper16:thread4
 534 0050 4FF49871 		mov	r1, #304
 535 0054 FFF7FEFF 		bl	chThdCreateStatic
 536              	.LVL40:
 537 0058 40F20003 		movw	r3, #:lower16:threads
 538 005c C0F20003 		movt	r3, #:upper16:threads
 539 0060 1860     		str	r0, [r3]
 540              		.loc 1 275 0
 541 0062 03A8     		add	r0, sp, #12
 542 0064 FFF7FEFF 		bl	chSemWait
 543              	.LVL41:
 544              		.loc 1 278 0
 545 0068 0599     		ldr	r1, [sp, #20]
 546 006a 0220     		movs	r0, #2
 547 006c 0029     		cmp	r1, #0
 548 006e CCBF     		ite	gt
 549 0070 0021     		movgt	r1, #0
 550 0072 0121     		movle	r1, #1
 551 0074 FFF7FEFF 		bl	_test_assert
 552              	.LVL42:
 553 0078 0028     		cmp	r0, #0
 554 007a D4D1     		bne	.L14
 555              	.LBB9:
 556              		.loc 1 282 0
 557 007c 2023     		movs	r3, #32
 558              	@ 282 "../third_party/ChibiOS/test/testsem.c" 1
 559 007e 83F31188 		msr     BASEPRI, r3
 560              	@ 0 "" 2
 561              		.thumb
 562              	.LBE9:
 563 0082 059B     		ldr	r3, [sp, #20]
 564 0084 002B     		cmp	r3, #0
ARM GAS  /tmp/ccklqWpJ.s 			page 11


 565 0086 37DD     		ble	.L20
 566              	.L16:
 567              		.loc 1 282 0 is_stmt 0 discriminator 2
 568 0088 FFF7FEFF 		bl	chSchRescheduleS
 569              	.LVL43:
 570              	.LBB10:
 571 008c 0023     		movs	r3, #0
 572              	@ 282 "../third_party/ChibiOS/test/testsem.c" 1
 573 008e 83F31188 		msr     BASEPRI, r3
 574              	@ 0 "" 2
 575              		.thumb
 576              	.LBE10:
 577              		.loc 1 283 0 is_stmt 1 discriminator 2
 578 0092 0599     		ldr	r1, [sp, #20]
 579 0094 0320     		movs	r0, #3
 580 0096 0029     		cmp	r1, #0
 581 0098 D4BF     		ite	le
 582 009a 0021     		movle	r1, #0
 583 009c 0121     		movgt	r1, #1
 584 009e FFF7FEFF 		bl	_test_assert
 585              	.LVL44:
 586 00a2 0028     		cmp	r0, #0
 587 00a4 BFD1     		bne	.L14
 588              		.loc 1 284 0
 589 00a6 0599     		ldr	r1, [sp, #20]
 590 00a8 0420     		movs	r0, #4
 591 00aa B1F1010E 		subs	lr, r1, #1
 592 00ae DEF10001 		rsbs	r1, lr, #0
 593 00b2 51EB0E01 		adcs	r1, r1, lr
 594 00b6 FFF7FEFF 		bl	_test_assert
 595              	.LVL45:
 596 00ba 0028     		cmp	r0, #0
 597 00bc B3D1     		bne	.L14
 598              	.LBB11:
 599              		.loc 1 287 0
 600 00be 2023     		movs	r3, #32
 601              	@ 287 "../third_party/ChibiOS/test/testsem.c" 1
 602 00c0 83F31188 		msr     BASEPRI, r3
 603              	@ 0 "" 2
 604              		.thumb
 605              	.LBE11:
 606 00c4 059B     		ldr	r3, [sp, #20]
 607 00c6 002B     		cmp	r3, #0
 608 00c8 1ADD     		ble	.L21
 609              	.L17:
 610              		.loc 1 287 0 is_stmt 0 discriminator 2
 611 00ca FFF7FEFF 		bl	chSchRescheduleS
 612              	.LVL46:
 613              	.LBB12:
 614 00ce 0023     		movs	r3, #0
 615              	@ 287 "../third_party/ChibiOS/test/testsem.c" 1
 616 00d0 83F31188 		msr     BASEPRI, r3
 617              	@ 0 "" 2
 618              		.thumb
 619              	.LBE12:
 620              		.loc 1 288 0 is_stmt 1 discriminator 2
 621 00d4 0599     		ldr	r1, [sp, #20]
ARM GAS  /tmp/ccklqWpJ.s 			page 12


 622 00d6 0320     		movs	r0, #3
 623 00d8 0029     		cmp	r1, #0
 624 00da D4BF     		ite	le
 625 00dc 0021     		movle	r1, #0
 626 00de 0121     		movgt	r1, #1
 627 00e0 FFF7FEFF 		bl	_test_assert
 628              	.LVL47:
 629 00e4 0028     		cmp	r0, #0
 630 00e6 9ED1     		bne	.L14
 631              		.loc 1 289 0
 632 00e8 0599     		ldr	r1, [sp, #20]
 633 00ea 0520     		movs	r0, #5
 634 00ec 4A1E     		subs	r2, r1, #1
 635 00ee 5142     		rsbs	r1, r2, #0
 636 00f0 5141     		adcs	r1, r1, r2
 637 00f2 FFF7FEFF 		bl	_test_assert
 638              	.LVL48:
 639 00f6 96E7     		b	.L14
 640              	.L20:
 641              		.loc 1 282 0 discriminator 1
 642 00f8 03A8     		add	r0, sp, #12
 643 00fa FFF7FEFF 		bl	chSemSignalI
 644              	.LVL49:
 645 00fe C3E7     		b	.L16
 646              	.L21:
 647              		.loc 1 287 0 discriminator 1
 648 0100 03A8     		add	r0, sp, #12
 649 0102 FFF7FEFF 		bl	chSemSignalI
 650              	.LVL50:
 651 0106 E0E7     		b	.L17
 652              		.cfi_endproc
 653              	.LFE17:
 654              		.size	sem4_execute, .-sem4_execute
 655 0108 AFF30080 		.section	.text.sem2_execute,"ax",%progbits
 655      AFF30080 
 656              		.align	2
 657              		.p2align 4,,15
 658              		.thumb
 659              		.thumb_func
 660              		.type	sem2_execute, %function
 661              	sem2_execute:
 662              	.LFB12:
 663              		.loc 1 155 0
 664              		.cfi_startproc
 665              		@ args = 0, pretend = 0, frame = 0
 666              		@ frame_needed = 0, uses_anonymous_args = 0
 667 0000 70B5     		push	{r4, r5, r6, lr}
 668              		.cfi_def_cfa_offset 16
 669              		.cfi_offset 4, -16
 670              		.cfi_offset 5, -12
 671              		.cfi_offset 6, -8
 672              		.cfi_offset 14, -4
 673              		.loc 1 163 0
 674 0002 40F20004 		movw	r4, #:lower16:.LANCHOR0
 675 0006 C0F20004 		movt	r4, #:upper16:.LANCHOR0
 676              		.loc 1 155 0
 677 000a 82B0     		sub	sp, sp, #8
ARM GAS  /tmp/ccklqWpJ.s 			page 13


 678              		.cfi_def_cfa_offset 24
 679              		.loc 1 163 0
 680 000c 0021     		movs	r1, #0
 681 000e 2046     		mov	r0, r4
 682 0010 FFF7FEFF 		bl	chSemWaitTimeout
 683              	.LVL51:
 684              		.loc 1 164 0
 685 0014 B0F1FF36 		subs	r6, r0, #-1
 686 0018 7142     		rsbs	r1, r6, #0
 687 001a 7141     		adcs	r1, r1, r6
 688 001c 0120     		movs	r0, #1
 689              	.LVL52:
 690 001e FFF7FEFF 		bl	_test_assert
 691              	.LVL53:
 692 0022 08B1     		cbz	r0, .L28
 693              	.LVL54:
 694              	.L22:
 695              		.loc 1 193 0
 696 0024 02B0     		add	sp, sp, #8
 697              		@ sp needed
 698 0026 70BD     		pop	{r4, r5, r6, pc}
 699              	.LVL55:
 700              	.L28:
 701              		.loc 1 165 0
 702 0028 2168     		ldr	r1, [r4]
 703 002a 0220     		movs	r0, #2
 704 002c 0D1B     		subs	r5, r1, r4
 705 002e 6942     		rsbs	r1, r5, #0
 706 0030 6941     		adcs	r1, r1, r5
 707 0032 FFF7FEFF 		bl	_test_assert
 708              	.LVL56:
 709 0036 0028     		cmp	r0, #0
 710 0038 F4D1     		bne	.L22
 711              		.loc 1 166 0
 712 003a A168     		ldr	r1, [r4, #8]
 713 003c 0320     		movs	r0, #3
 714 003e D1F10101 		rsbs	r1, r1, #1
 715 0042 38BF     		it	cc
 716 0044 0021     		movcc	r1, #0
 717 0046 FFF7FEFF 		bl	_test_assert
 718              	.LVL57:
 719 004a 0028     		cmp	r0, #0
 720 004c EAD1     		bne	.L22
 721              	.LBB15:
 722              	.LBB16:
 723              		.loc 1 171 0
 724 004e 40F20003 		movw	r3, #:lower16:rlist
 725 0052 C0F20003 		movt	r3, #:upper16:rlist
 726 0056 DA69     		ldr	r2, [r3, #28]
 727 0058 40F20003 		movw	r3, #:lower16:wa
 728 005c C0F20003 		movt	r3, #:upper16:wa
 729 0060 1968     		ldr	r1, [r3]
 730 0062 9268     		ldr	r2, [r2, #8]
 731 0064 40F20003 		movw	r3, #:lower16:thread2
 732 0068 013A     		subs	r2, r2, #1
 733 006a 0090     		str	r0, [sp]
 734 006c C0F20003 		movt	r3, #:upper16:thread2
ARM GAS  /tmp/ccklqWpJ.s 			page 14


 735 0070 0846     		mov	r0, r1
 736 0072 4FF49871 		mov	r1, #304
 737 0076 FFF7FEFF 		bl	chThdCreateStatic
 738              	.LVL58:
 739 007a 40F20003 		movw	r3, #:lower16:threads
 740 007e C0F20003 		movt	r3, #:upper16:threads
 741 0082 1860     		str	r0, [r3]
 742              		.loc 1 173 0
 743 0084 4FF4FA71 		mov	r1, #500
 744 0088 2046     		mov	r0, r4
 745 008a FFF7FEFF 		bl	chSemWaitTimeout
 746              	.LVL59:
 747 008e 0546     		mov	r5, r0
 748              	.LVL60:
 749              		.loc 1 174 0
 750 0090 FFF7FEFF 		bl	test_wait_threads
 751              	.LVL61:
 752              		.loc 1 175 0
 753 0094 D5F10101 		rsbs	r1, r5, #1
 754 0098 38BF     		it	cc
 755 009a 0021     		movcc	r1, #0
 756 009c 0420     		movs	r0, #4
 757 009e FFF7FEFF 		bl	_test_assert
 758              	.LVL62:
 759 00a2 0028     		cmp	r0, #0
 760 00a4 BED1     		bne	.L22
 761              		.loc 1 176 0
 762 00a6 2168     		ldr	r1, [r4]
 763 00a8 0520     		movs	r0, #5
 764 00aa 0A1B     		subs	r2, r1, r4
 765 00ac 5142     		rsbs	r1, r2, #0
 766 00ae 5141     		adcs	r1, r1, r2
 767 00b0 FFF7FEFF 		bl	_test_assert
 768              	.LVL63:
 769 00b4 0028     		cmp	r0, #0
 770 00b6 B5D1     		bne	.L22
 771              		.loc 1 177 0
 772 00b8 A168     		ldr	r1, [r4, #8]
 773 00ba 0620     		movs	r0, #6
 774 00bc D1F10101 		rsbs	r1, r1, #1
 775 00c0 38BF     		it	cc
 776 00c2 0021     		movcc	r1, #0
 777 00c4 FFF7FEFF 		bl	_test_assert
 778              	.LVL64:
 779 00c8 0028     		cmp	r0, #0
 780 00ca ABD1     		bne	.L22
 781              		.loc 1 182 0
 782 00cc FFF7FEFF 		bl	test_wait_tick
 783              	.LVL65:
 784              		.loc 1 183 0
 785 00d0 40F20003 		movw	r3, #:lower16:vtlist
 786 00d4 C0F20003 		movt	r3, #:upper16:vtlist
 787 00d8 DE68     		ldr	r6, [r3, #12]
 788              	.LVL66:
 789 00da 4125     		movs	r5, #65
 790              	.LVL67:
 791              	.L27:
ARM GAS  /tmp/ccklqWpJ.s 			page 15


 792              		.loc 1 185 0
 793 00dc 2846     		mov	r0, r5
 794 00de FFF7FEFF 		bl	test_emit_token
 795              	.LVL68:
 796              		.loc 1 186 0
 797 00e2 40F20000 		movw	r0, #:lower16:.LANCHOR0
 798 00e6 4FF4FA71 		mov	r1, #500
 799 00ea C0F20000 		movt	r0, #:upper16:.LANCHOR0
 800 00ee FFF7FEFF 		bl	chSemWaitTimeout
 801              	.LVL69:
 802              		.loc 1 187 0
 803 00f2 B0F1FF33 		subs	r3, r0, #-1
 804 00f6 5942     		rsbs	r1, r3, #0
 805 00f8 5941     		adcs	r1, r1, r3
 806 00fa 0720     		movs	r0, #7
 807              	.LVL70:
 808 00fc FFF7FEFF 		bl	_test_assert
 809              	.LVL71:
 810 0100 0028     		cmp	r0, #0
 811 0102 8FD1     		bne	.L22
 812              		.loc 1 188 0
 813 0104 2168     		ldr	r1, [r4]
 814 0106 0820     		movs	r0, #8
 815 0108 B1EB040C 		subs	ip, r1, r4
 816 010c DCF10001 		rsbs	r1, ip, #0
 817 0110 51EB0C01 		adcs	r1, r1, ip
 818 0114 FFF7FEFF 		bl	_test_assert
 819              	.LVL72:
 820 0118 0028     		cmp	r0, #0
 821 011a 83D1     		bne	.L22
 822              		.loc 1 189 0
 823 011c A168     		ldr	r1, [r4, #8]
 824 011e 0920     		movs	r0, #9
 825 0120 D1F10101 		rsbs	r1, r1, #1
 826 0124 38BF     		it	cc
 827 0126 0021     		movcc	r1, #0
 828 0128 FFF7FEFF 		bl	_test_assert
 829              	.LVL73:
 830 012c 0135     		adds	r5, r5, #1
 831 012e EDB2     		uxtb	r5, r5
 832 0130 0028     		cmp	r0, #0
 833 0132 7FF477AF 		bne	.L22
 834              		.loc 1 184 0
 835 0136 462D     		cmp	r5, #70
 836 0138 D0D1     		bne	.L27
 837              		.loc 1 191 0
 838 013a 40F20001 		movw	r1, #:lower16:.LC5
 839 013e C0F20001 		movt	r1, #:upper16:.LC5
 840 0142 0A20     		movs	r0, #10
 841 0144 FFF7FEFF 		bl	_test_assert_sequence
 842              	.LVL74:
 843 0148 0028     		cmp	r0, #0
 844 014a 7FF46BAF 		bne	.L22
 845              		.loc 1 192 0
 846 014e 0B20     		movs	r0, #11
 847 0150 06F6C411 		addw	r1, r6, #2500
 848 0154 06F6C912 		addw	r2, r6, #2505
ARM GAS  /tmp/ccklqWpJ.s 			page 16


 849              	.LBE16:
 850              	.LBE15:
 851              		.loc 1 193 0
 852 0158 02B0     		add	sp, sp, #8
 853              		@ sp needed
 854 015a BDE87040 		pop	{r4, r5, r6, lr}
 855              	.LVL75:
 856              	.LBB18:
 857              	.LBB17:
 858              		.loc 1 192 0
 859 015e FFF7FEBF 		b	_test_assert_time_window
 860              	.LVL76:
 861              	.LBE17:
 862              	.LBE18:
 863              		.cfi_endproc
 864              	.LFE12:
 865              		.size	sem2_execute, .-sem2_execute
 866 0162 00BFAFF3 		.section	.text.sem3_execute,"ax",%progbits
 866      0080AFF3 
 866      0080AFF3 
 866      0080
 867              		.align	2
 868              		.p2align 4,,15
 869              		.thumb
 870              		.thumb_func
 871              		.type	sem3_execute, %function
 872              	sem3_execute:
 873              	.LFB15:
 874              		.loc 1 228 0
 875              		.cfi_startproc
 876              		@ args = 0, pretend = 0, frame = 0
 877              		@ frame_needed = 0, uses_anonymous_args = 0
 878 0000 10B5     		push	{r4, lr}
 879              		.cfi_def_cfa_offset 8
 880              		.cfi_offset 4, -8
 881              		.cfi_offset 14, -4
 882              		.loc 1 230 0
 883 0002 40F20003 		movw	r3, #:lower16:rlist
 884 0006 C0F20003 		movt	r3, #:upper16:rlist
 885 000a DA69     		ldr	r2, [r3, #28]
 886 000c 40F20003 		movw	r3, #:lower16:wa
 887 0010 9268     		ldr	r2, [r2, #8]
 888 0012 C0F20003 		movt	r3, #:upper16:wa
 889              		.loc 1 228 0
 890 0016 82B0     		sub	sp, sp, #8
 891              		.cfi_def_cfa_offset 16
 892              		.loc 1 230 0
 893 0018 1868     		ldr	r0, [r3]
 894 001a 0021     		movs	r1, #0
 895 001c 40F20003 		movw	r3, #:lower16:thread3
 896 0020 0132     		adds	r2, r2, #1
 897 0022 0091     		str	r1, [sp]
 898 0024 C0F20003 		movt	r3, #:upper16:thread3
 899 0028 4FF49871 		mov	r1, #304
 900 002c FFF7FEFF 		bl	chThdCreateStatic
 901              	.LVL77:
 902              		.loc 1 231 0
ARM GAS  /tmp/ccklqWpJ.s 			page 17


 903 0030 40F20004 		movw	r4, #:lower16:.LANCHOR0
 904              		.loc 1 230 0
 905 0034 40F20003 		movw	r3, #:lower16:threads
 906              		.loc 1 231 0
 907 0038 C0F20004 		movt	r4, #:upper16:.LANCHOR0
 908              		.loc 1 230 0
 909 003c C0F20003 		movt	r3, #:upper16:threads
 910 0040 1860     		str	r0, [r3]
 911              		.loc 1 231 0
 912 0042 2146     		mov	r1, r4
 913 0044 2046     		mov	r0, r4
 914 0046 FFF7FEFF 		bl	chSemSignalWait
 915              	.LVL78:
 916              		.loc 1 232 0
 917 004a 2168     		ldr	r1, [r4]
 918 004c 0120     		movs	r0, #1
 919 004e B1EB040C 		subs	ip, r1, r4
 920 0052 DCF10001 		rsbs	r1, ip, #0
 921 0056 51EB0C01 		adcs	r1, r1, ip
 922 005a FFF7FEFF 		bl	_test_assert
 923              	.LVL79:
 924 005e 08B1     		cbz	r0, .L33
 925              	.L29:
 926              		.loc 1 238 0
 927 0060 02B0     		add	sp, sp, #8
 928              		@ sp needed
 929 0062 10BD     		pop	{r4, pc}
 930              	.L33:
 931              		.loc 1 233 0
 932 0064 A168     		ldr	r1, [r4, #8]
 933 0066 0220     		movs	r0, #2
 934 0068 D1F10101 		rsbs	r1, r1, #1
 935 006c 38BF     		it	cc
 936 006e 0021     		movcc	r1, #0
 937 0070 FFF7FEFF 		bl	_test_assert
 938              	.LVL80:
 939 0074 0028     		cmp	r0, #0
 940 0076 F3D1     		bne	.L29
 941              	.LBB21:
 942              	.LBB22:
 943              		.loc 1 235 0
 944 0078 2146     		mov	r1, r4
 945 007a 2046     		mov	r0, r4
 946 007c FFF7FEFF 		bl	chSemSignalWait
 947              	.LVL81:
 948              		.loc 1 236 0
 949 0080 2168     		ldr	r1, [r4]
 950 0082 0320     		movs	r0, #3
 951 0084 B1EB040E 		subs	lr, r1, r4
 952 0088 DEF10001 		rsbs	r1, lr, #0
 953 008c 51EB0E01 		adcs	r1, r1, lr
 954 0090 FFF7FEFF 		bl	_test_assert
 955              	.LVL82:
 956 0094 0028     		cmp	r0, #0
 957 0096 E3D1     		bne	.L29
 958              		.loc 1 237 0
 959 0098 A168     		ldr	r1, [r4, #8]
ARM GAS  /tmp/ccklqWpJ.s 			page 18


 960 009a 0420     		movs	r0, #4
 961 009c D1F10101 		rsbs	r1, r1, #1
 962 00a0 38BF     		it	cc
 963 00a2 0021     		movcc	r1, #0
 964              	.LBE22:
 965              	.LBE21:
 966              		.loc 1 238 0
 967 00a4 02B0     		add	sp, sp, #8
 968              		@ sp needed
 969 00a6 BDE81040 		pop	{r4, lr}
 970              	.LBB24:
 971              	.LBB23:
 972              		.loc 1 237 0
 973 00aa FFF7FEBF 		b	_test_assert
 974              	.LVL83:
 975              	.LBE23:
 976              	.LBE24:
 977              		.cfi_endproc
 978              	.LFE15:
 979              		.size	sem3_execute, .-sem3_execute
 980              		.global	patternsem
 981              		.global	testsem4
 982              		.global	testsem3
 983              		.global	testsem2
 984              		.global	testsem1
 985 00ae 00BF     		.section	.rodata.testsem1,"a",%progbits
 986              		.align	2
 987              		.type	testsem1, %object
 988              		.size	testsem1, 16
 989              	testsem1:
 990 0000 74000000 		.word	.LC9
 991 0004 00000000 		.word	sem1_setup
 992 0008 00000000 		.word	0
 993 000c 00000000 		.word	sem1_execute
 994              		.section	.rodata.testsem2,"a",%progbits
 995              		.align	2
 996              		.type	testsem2, %object
 997              		.size	testsem2, 16
 998              	testsem2:
 999 0000 60000000 		.word	.LC8
 1000 0004 00000000 		.word	sem2_setup
 1001 0008 00000000 		.word	0
 1002 000c 00000000 		.word	sem2_execute
 1003              		.section	.rodata.testsem3,"a",%progbits
 1004              		.align	2
 1005              		.type	testsem3, %object
 1006              		.size	testsem3, 16
 1007              	testsem3:
 1008 0000 40000000 		.word	.LC7
 1009 0004 00000000 		.word	sem3_setup
 1010 0008 00000000 		.word	0
 1011 000c 00000000 		.word	sem3_execute
 1012              		.section	.rodata.testsem4,"a",%progbits
 1013              		.align	2
 1014              		.type	testsem4, %object
 1015              		.size	testsem4, 16
 1016              	testsem4:
ARM GAS  /tmp/ccklqWpJ.s 			page 19


 1017 0000 1C000000 		.word	.LC6
 1018 0004 00000000 		.word	0
 1019 0008 00000000 		.word	0
 1020 000c 00000000 		.word	sem4_execute
 1021              		.section	.data.sem1,"aw",%progbits
 1022              		.align	2
 1023              		.set	.LANCHOR0,. + 0
 1024              		.type	sem1, %object
 1025              		.size	sem1, 12
 1026              	sem1:
 1027 0000 00000000 		.word	sem1
 1028 0004 00000000 		.word	sem1
 1029 0008 00000000 		.word	0
 1030              		.section	.rodata.patternsem,"a",%progbits
 1031              		.align	2
 1032              		.type	patternsem, %object
 1033              		.size	patternsem, 20
 1034              	patternsem:
 1035 0000 00000000 		.word	testsem1
 1036 0004 00000000 		.word	testsem2
 1037 0008 00000000 		.word	testsem3
 1038 000c 00000000 		.word	testsem4
 1039 0010 00000000 		.word	0
 1040              		.section	.rodata.str1.4,"aMS",%progbits,1
 1041              		.align	2
 1042              	.LC0:
 1043 0000 4100     		.ascii	"A\000"
 1044 0002 0000     		.space	2
 1045              	.LC1:
 1046 0004 4200     		.ascii	"B\000"
 1047 0006 0000     		.space	2
 1048              	.LC2:
 1049 0008 4300     		.ascii	"C\000"
 1050 000a 0000     		.space	2
 1051              	.LC3:
 1052 000c 4400     		.ascii	"D\000"
 1053 000e 0000     		.space	2
 1054              	.LC4:
 1055 0010 4500     		.ascii	"E\000"
 1056 0012 0000     		.space	2
 1057              	.LC5:
 1058 0014 41424344 		.ascii	"ABCDE\000"
 1058      4500
 1059 001a 0000     		.space	2
 1060              	.LC6:
 1061 001c 42696E61 		.ascii	"Binary Semaphores, functionality\000"
 1061      72792053 
 1061      656D6170 
 1061      686F7265 
 1061      732C2066 
 1062 003d 000000   		.space	3
 1063              	.LC7:
 1064 0040 53656D61 		.ascii	"Semaphores, atomic signal-wait\000"
 1064      70686F72 
 1064      65732C20 
 1064      61746F6D 
 1064      69632073 
ARM GAS  /tmp/ccklqWpJ.s 			page 20


 1065 005f 00       		.space	1
 1066              	.LC8:
 1067 0060 53656D61 		.ascii	"Semaphores, timeout\000"
 1067      70686F72 
 1067      65732C20 
 1067      74696D65 
 1067      6F757400 
 1068              	.LC9:
 1069 0074 53656D61 		.ascii	"Semaphores, enqueuing\000"
 1069      70686F72 
 1069      65732C20 
 1069      656E7175 
 1069      6575696E 
 1070 008a 0000     		.text
 1071              	.Letext0:
 1072              		.file 2 "/home/santi/arm-2013.11/lib/gcc/arm-none-eabi/4.8.1/include/stddef.h"
 1073              		.file 3 "/home/santi/arm-2013.11/arm-none-eabi/include/stdint.h"
 1074              		.file 4 "../third_party/ChibiOS/os/ports/GCC/ARMCMx/chtypes.h"
 1075              		.file 5 "../third_party/ChibiOS/os/kernel/include/chlists.h"
 1076              		.file 6 "../third_party/ChibiOS/os/kernel/include/chthreads.h"
 1077              		.file 7 "../third_party/ChibiOS/os/ports/GCC/ARMCMx/chcore_v7m.h"
 1078              		.file 8 "../third_party/ChibiOS/os/kernel/include/chvt.h"
 1079              		.file 9 "../third_party/ChibiOS/os/kernel/include/chschd.h"
 1080              		.file 10 "../third_party/ChibiOS/os/kernel/include/chsem.h"
 1081              		.file 11 "../third_party/ChibiOS/os/kernel/include/chbsem.h"
 1082              		.file 12 "../third_party/ChibiOS/os/kernel/include/chmtx.h"
 1083              		.file 13 "../third_party/ChibiOS/test/test.h"