ARM GAS  /tmp/ccZX8OJa.s 			page 1


   1              		.syntax unified
   2              		.cpu cortex-m3
   3              		.fpu softvfp
   4              		.eabi_attribute 20, 1
   5              		.eabi_attribute 21, 1
   6              		.eabi_attribute 23, 3
   7              		.eabi_attribute 24, 1
   8              		.eabi_attribute 25, 1
   9              		.eabi_attribute 26, 1
  10              		.eabi_attribute 30, 2
  11              		.eabi_attribute 34, 1
  12              		.eabi_attribute 18, 4
  13              		.thumb
  14              		.file	"test.c"
  15              		.text
  16              	.Ltext0:
  17              		.cfi_sections	.debug_frame
  18              		.section	.text.tmr,"ax",%progbits
  19              		.align	2
  20              		.p2align 4,,15
  21              		.thumb
  22              		.thumb_func
  23              		.type	tmr, %function
  24              	tmr:
  25              	.LFB50:
  26              		.file 1 "../third_party/ChibiOS/test/test.c"
  27              		.loc 1 273 0
  28              		.cfi_startproc
  29              		@ args = 0, pretend = 0, frame = 0
  30              		@ frame_needed = 0, uses_anonymous_args = 0
  31              		@ link register save eliminated.
  32              	.LVL0:
  33              		.loc 1 276 0
  34 0000 40F20003 		movw	r3, #:lower16:.LANCHOR0
  35 0004 C0F20003 		movt	r3, #:upper16:.LANCHOR0
  36 0008 0122     		movs	r2, #1
  37 000a 1A60     		str	r2, [r3]
  38 000c 7047     		bx	lr
  39              		.cfi_endproc
  40              	.LFE50:
  41              		.size	tmr, .-tmr
  42              		.section	.text.print_line,"ax",%progbits
  43              		.align	2
  44              		.p2align 4,,15
  45              		.thumb
  46              		.thumb_func
  47              		.type	print_line, %function
  48              	print_line:
  49              	.LFB53:
  50              		.loc 1 314 0
  51              		.cfi_startproc
  52              		@ args = 0, pretend = 0, frame = 0
  53              		@ frame_needed = 0, uses_anonymous_args = 0
  54              	.LVL1:
  55 0000 70B5     		push	{r4, r5, r6, lr}
  56              		.cfi_def_cfa_offset 16
  57              		.cfi_offset 4, -16
ARM GAS  /tmp/ccZX8OJa.s 			page 2


  58              		.cfi_offset 5, -12
  59              		.cfi_offset 6, -8
  60              		.cfi_offset 14, -4
  61 0002 40F20006 		movw	r6, #:lower16:.LANCHOR1
  62 0006 C0F20006 		movt	r6, #:upper16:.LANCHOR1
  63              		.loc 1 314 0
  64 000a 4C25     		movs	r5, #76
  65              	.LVL2:
  66              	.L4:
  67              		.loc 1 318 0 discriminator 2
  68 000c 3068     		ldr	r0, [r6]
  69 000e 2D21     		movs	r1, #45
  70 0010 0368     		ldr	r3, [r0]
  71 0012 4FF0FF32 		mov	r2, #-1
  72 0016 1B69     		ldr	r3, [r3, #16]
  73 0018 40F20004 		movw	r4, #:lower16:.LANCHOR1
  74 001c 9847     		blx	r3
  75              	.LVL3:
  76              		.loc 1 317 0 discriminator 2
  77 001e 013D     		subs	r5, r5, #1
  78              	.LVL4:
  79              		.loc 1 318 0 discriminator 2
  80 0020 C0F20004 		movt	r4, #:upper16:.LANCHOR1
  81              		.loc 1 317 0 discriminator 2
  82 0024 F2D1     		bne	.L4
  83              		.loc 1 319 0
  84 0026 2068     		ldr	r0, [r4]
  85 0028 0D21     		movs	r1, #13
  86 002a 0368     		ldr	r3, [r0]
  87 002c 4FF0FF32 		mov	r2, #-1
  88 0030 1B69     		ldr	r3, [r3, #16]
  89 0032 9847     		blx	r3
  90              	.LVL5:
  91              		.loc 1 320 0
  92 0034 2068     		ldr	r0, [r4]
  93 0036 0A21     		movs	r1, #10
  94 0038 0368     		ldr	r3, [r0]
  95 003a 4FF0FF32 		mov	r2, #-1
  96 003e 1B69     		ldr	r3, [r3, #16]
  97 0040 9847     		blx	r3
  98              	.LVL6:
  99 0042 70BD     		pop	{r4, r5, r6, pc}
 100              		.cfi_endproc
 101              	.LFE53:
 102              		.size	print_line, .-print_line
 103 0044 AFF30080 		.section	.text.test_printn,"ax",%progbits
 103      AFF30080 
 103      AFF30080 
 104              		.align	2
 105              		.p2align 4,,15
 106              		.global	test_printn
 107              		.thumb
 108              		.thumb_func
 109              		.type	test_printn, %function
 110              	test_printn:
 111              	.LFB36:
 112              		.loc 1 102 0
ARM GAS  /tmp/ccZX8OJa.s 			page 3


 113              		.cfi_startproc
 114              		@ args = 0, pretend = 0, frame = 16
 115              		@ frame_needed = 0, uses_anonymous_args = 0
 116              	.LVL7:
 117 0000 70B5     		push	{r4, r5, r6, lr}
 118              		.cfi_def_cfa_offset 16
 119              		.cfi_offset 4, -16
 120              		.cfi_offset 5, -12
 121              		.cfi_offset 6, -8
 122              		.cfi_offset 14, -4
 123 0002 84B0     		sub	sp, sp, #16
 124              		.cfi_def_cfa_offset 32
 125              		.loc 1 105 0
 126 0004 58B3     		cbz	r0, .L14
 127 0006 0DF10105 		add	r5, sp, #1
 128              		.loc 1 110 0
 129 000a 4CF6CD46 		movw	r6, #52429
 130 000e 2B46     		mov	r3, r5
 131 0010 CCF6CC46 		movt	r6, 52428
 132              	.LVL8:
 133              	.L10:
 134 0014 A6FB0012 		umull	r1, r2, r6, r0
 135 0018 D208     		lsrs	r2, r2, #3
 136 001a 02EB8201 		add	r1, r2, r2, lsl #2
 137 001e A0EB4101 		sub	r1, r0, r1, lsl #1
 138 0022 3031     		adds	r1, r1, #48
 139 0024 C9B2     		uxtb	r1, r1
 140 0026 03F8011C 		strb	r1, [r3, #-1]
 141 002a 1C46     		mov	r4, r3
 142              	.LVL9:
 143              		.loc 1 109 0
 144 002c 1046     		mov	r0, r2
 145 002e 0133     		adds	r3, r3, #1
 146              	.LVL10:
 147 0030 002A     		cmp	r2, #0
 148 0032 EFD1     		bne	.L10
 149              		.loc 1 111 0 discriminator 1
 150 0034 6B46     		mov	r3, sp
 151 0036 9C42     		cmp	r4, r3
 152 0038 0FD9     		bls	.L6
 153 003a 40F20006 		movw	r6, #:lower16:.LANCHOR1
 154 003e C0F20006 		movt	r6, #:upper16:.LANCHOR1
 155 0042 02E0     		b	.L13
 156              	.LVL11:
 157              	.L15:
 158 0044 14F8021C 		ldrb	r1, [r4, #-2]	@ zero_extendqisi2
 159 0048 013C     		subs	r4, r4, #1
 160              	.LVL12:
 161              	.L13:
 162              		.loc 1 112 0
 163 004a 3068     		ldr	r0, [r6]
 164              	.LVL13:
 165 004c 4FF0FF32 		mov	r2, #-1
 166 0050 0368     		ldr	r3, [r0]
 167 0052 1B69     		ldr	r3, [r3, #16]
 168 0054 9847     		blx	r3
 169              	.LVL14:
ARM GAS  /tmp/ccZX8OJa.s 			page 4


 170              		.loc 1 111 0
 171 0056 AC42     		cmp	r4, r5
 172 0058 F4D1     		bne	.L15
 173              	.LVL15:
 174              	.L6:
 175              		.loc 1 114 0
 176 005a 04B0     		add	sp, sp, #16
 177              		@ sp needed
 178 005c 70BD     		pop	{r4, r5, r6, pc}
 179              	.LVL16:
 180              	.L14:
 181              	.LBB50:
 182              	.LBB51:
 183              		.loc 1 106 0
 184 005e 40F20003 		movw	r3, #:lower16:.LANCHOR1
 185 0062 C0F20003 		movt	r3, #:upper16:.LANCHOR1
 186 0066 1868     		ldr	r0, [r3]
 187              	.LVL17:
 188 0068 3021     		movs	r1, #48
 189 006a 0368     		ldr	r3, [r0]
 190 006c 4FF0FF32 		mov	r2, #-1
 191 0070 1B69     		ldr	r3, [r3, #16]
 192 0072 9847     		blx	r3
 193              	.LVL18:
 194              	.LBE51:
 195              	.LBE50:
 196              		.loc 1 114 0
 197 0074 04B0     		add	sp, sp, #16
 198              		@ sp needed
 199 0076 70BD     		pop	{r4, r5, r6, pc}
 200              		.cfi_endproc
 201              	.LFE36:
 202              		.size	test_printn, .-test_printn
 203 0078 AFF30080 		.section	.text.test_print,"ax",%progbits
 203      AFF30080 
 204              		.align	2
 205              		.p2align 4,,15
 206              		.global	test_print
 207              		.thumb
 208              		.thumb_func
 209              		.type	test_print, %function
 210              	test_print:
 211              	.LFB37:
 212              		.loc 1 121 0
 213              		.cfi_startproc
 214              		@ args = 0, pretend = 0, frame = 0
 215              		@ frame_needed = 0, uses_anonymous_args = 0
 216              	.LVL19:
 217 0000 38B5     		push	{r3, r4, r5, lr}
 218              		.cfi_def_cfa_offset 16
 219              		.cfi_offset 3, -16
 220              		.cfi_offset 4, -12
 221              		.cfi_offset 5, -8
 222              		.cfi_offset 14, -4
 223              		.loc 1 123 0
 224 0002 0178     		ldrb	r1, [r0]	@ zero_extendqisi2
 225 0004 71B1     		cbz	r1, .L16
ARM GAS  /tmp/ccZX8OJa.s 			page 5


 226 0006 40F20005 		movw	r5, #:lower16:.LANCHOR1
 227 000a 0446     		mov	r4, r0
 228 000c C0F20005 		movt	r5, #:upper16:.LANCHOR1
 229              	.LVL20:
 230              	.L19:
 231              		.loc 1 124 0
 232 0010 2868     		ldr	r0, [r5]
 233              	.LVL21:
 234 0012 4FF0FF32 		mov	r2, #-1
 235 0016 0368     		ldr	r3, [r0]
 236 0018 1B69     		ldr	r3, [r3, #16]
 237 001a 9847     		blx	r3
 238              	.LVL22:
 239              		.loc 1 123 0
 240 001c 14F8011F 		ldrb	r1, [r4, #1]!	@ zero_extendqisi2
 241              	.LVL23:
 242 0020 0029     		cmp	r1, #0
 243 0022 F5D1     		bne	.L19
 244              	.LVL24:
 245              	.L16:
 246 0024 38BD     		pop	{r3, r4, r5, pc}
 247              		.cfi_endproc
 248              	.LFE37:
 249              		.size	test_print, .-test_print
 250 0026 00BFAFF3 		.section	.text.test_println,"ax",%progbits
 250      0080AFF3 
 250      0080
 251              		.align	2
 252              		.p2align 4,,15
 253              		.global	test_println
 254              		.thumb
 255              		.thumb_func
 256              		.type	test_println, %function
 257              	test_println:
 258              	.LFB38:
 259              		.loc 1 132 0
 260              		.cfi_startproc
 261              		@ args = 0, pretend = 0, frame = 0
 262              		@ frame_needed = 0, uses_anonymous_args = 0
 263              	.LVL25:
 264 0000 38B5     		push	{r3, r4, r5, lr}
 265              		.cfi_def_cfa_offset 16
 266              		.cfi_offset 3, -16
 267              		.cfi_offset 4, -12
 268              		.cfi_offset 5, -8
 269              		.cfi_offset 14, -4
 270              	.LBB52:
 271              	.LBB53:
 272              		.loc 1 123 0
 273 0002 0178     		ldrb	r1, [r0]	@ zero_extendqisi2
 274 0004 40F20005 		movw	r5, #:lower16:.LANCHOR1
 275 0008 D9B1     		cbz	r1, .L31
 276 000a 0446     		mov	r4, r0
 277 000c C0F20005 		movt	r5, #:upper16:.LANCHOR1
 278              	.LVL26:
 279              	.L26:
 280              		.loc 1 124 0
ARM GAS  /tmp/ccZX8OJa.s 			page 6


 281 0010 2868     		ldr	r0, [r5]
 282              	.LVL27:
 283 0012 4FF0FF32 		mov	r2, #-1
 284 0016 0368     		ldr	r3, [r0]
 285 0018 1B69     		ldr	r3, [r3, #16]
 286 001a 9847     		blx	r3
 287              	.LVL28:
 288              		.loc 1 123 0
 289 001c 14F8011F 		ldrb	r1, [r4, #1]!	@ zero_extendqisi2
 290              	.LVL29:
 291 0020 0029     		cmp	r1, #0
 292 0022 F5D1     		bne	.L26
 293              	.LVL30:
 294              	.L25:
 295              	.LBE53:
 296              	.LBE52:
 297              		.loc 1 135 0
 298 0024 2868     		ldr	r0, [r5]
 299 0026 0D21     		movs	r1, #13
 300 0028 0368     		ldr	r3, [r0]
 301 002a 4FF0FF32 		mov	r2, #-1
 302 002e 1B69     		ldr	r3, [r3, #16]
 303 0030 9847     		blx	r3
 304              	.LVL31:
 305              		.loc 1 136 0
 306 0032 2868     		ldr	r0, [r5]
 307 0034 0A21     		movs	r1, #10
 308 0036 0368     		ldr	r3, [r0]
 309 0038 4FF0FF32 		mov	r2, #-1
 310 003c 1B69     		ldr	r3, [r3, #16]
 311 003e 9847     		blx	r3
 312              	.LVL32:
 313 0040 38BD     		pop	{r3, r4, r5, pc}
 314              	.LVL33:
 315              	.L31:
 316 0042 C0F20005 		movt	r5, #:upper16:.LANCHOR1
 317 0046 EDE7     		b	.L25
 318              		.cfi_endproc
 319              	.LFE38:
 320              		.size	test_println, .-test_println
 321 0048 AFF30080 		.section	.text.test_emit_token,"ax",%progbits
 321      AFF30080 
 322              		.align	2
 323              		.p2align 4,,15
 324              		.global	test_emit_token
 325              		.thumb
 326              		.thumb_func
 327              		.type	test_emit_token, %function
 328              	test_emit_token:
 329              	.LFB41:
 330              		.loc 1 159 0
 331              		.cfi_startproc
 332              		@ args = 0, pretend = 0, frame = 0
 333              		@ frame_needed = 0, uses_anonymous_args = 0
 334              		@ link register save eliminated.
 335              	.LVL34:
 336 0000 10B4     		push	{r4}
ARM GAS  /tmp/ccZX8OJa.s 			page 7


 337              		.cfi_def_cfa_offset 4
 338              		.cfi_offset 4, -4
 339              	.LBB54:
 340              		.loc 1 161 0
 341 0002 2023     		movs	r3, #32
 342              	@ 161 "../third_party/ChibiOS/test/test.c" 1
 343 0004 83F31188 		msr     BASEPRI, r3
 344              	@ 0 "" 2
 345              		.thumb
 346              	.LBE54:
 347              		.loc 1 162 0
 348 0008 40F20002 		movw	r2, #:lower16:.LANCHOR2
 349 000c C0F20002 		movt	r2, #:upper16:.LANCHOR2
 350 0010 1168     		ldr	r1, [r2]
 351              	.LBB55:
 352              		.loc 1 163 0
 353 0012 0023     		movs	r3, #0
 354              	.LBE55:
 355              		.loc 1 162 0
 356 0014 4C1C     		adds	r4, r1, #1
 357 0016 0870     		strb	r0, [r1]
 358 0018 1460     		str	r4, [r2]
 359              	.LBB56:
 360              		.loc 1 163 0
 361              	@ 163 "../third_party/ChibiOS/test/test.c" 1
 362 001a 83F31188 		msr     BASEPRI, r3
 363              	@ 0 "" 2
 364              		.thumb
 365              	.LBE56:
 366              		.loc 1 164 0
 367 001e 5DF8044B 		ldr	r4, [sp], #4
 368 0022 7047     		bx	lr
 369              		.cfi_endproc
 370              	.LFE41:
 371              		.size	test_emit_token, .-test_emit_token
 372 0024 AFF30080 		.section	.text._test_fail,"ax",%progbits
 372      AFF30080 
 372      AFF30080 
 373              		.align	2
 374              		.p2align 4,,15
 375              		.global	_test_fail
 376              		.thumb
 377              		.thumb_func
 378              		.type	_test_fail, %function
 379              	_test_fail:
 380              	.LFB42:
 381              		.loc 1 169 0
 382              		.cfi_startproc
 383              		@ args = 0, pretend = 0, frame = 0
 384              		@ frame_needed = 0, uses_anonymous_args = 0
 385              		@ link register save eliminated.
 386              	.LVL35:
 387 0000 10B4     		push	{r4}
 388              		.cfi_def_cfa_offset 4
 389              		.cfi_offset 4, -4
 390              		.loc 1 171 0
 391 0002 40F20001 		movw	r1, #:lower16:.LANCHOR3
ARM GAS  /tmp/ccZX8OJa.s 			page 8


 392              		.loc 1 173 0
 393 0006 40F20004 		movw	r4, #:lower16:.LANCHOR5
 394              		.loc 1 172 0
 395 000a 40F20002 		movw	r2, #:lower16:.LANCHOR4
 396              		.loc 1 171 0
 397 000e 0123     		movs	r3, #1
 398              		.loc 1 173 0
 399 0010 C0F20004 		movt	r4, #:upper16:.LANCHOR5
 400              		.loc 1 171 0
 401 0014 C0F20001 		movt	r1, #:upper16:.LANCHOR3
 402              		.loc 1 172 0
 403 0018 C0F20002 		movt	r2, #:upper16:.LANCHOR4
 404              		.loc 1 173 0
 405 001c 2060     		str	r0, [r4]
 406              		.loc 1 171 0
 407 001e 0B60     		str	r3, [r1]
 408              		.loc 1 175 0
 409 0020 1846     		mov	r0, r3
 410              	.LVL36:
 411              		.loc 1 172 0
 412 0022 1360     		str	r3, [r2]
 413              		.loc 1 175 0
 414 0024 5DF8044B 		ldr	r4, [sp], #4
 415 0028 7047     		bx	lr
 416              		.cfi_endproc
 417              	.LFE42:
 418              		.size	_test_fail, .-_test_fail
 419 002a 00BFAFF3 		.section	.text._test_assert,"ax",%progbits
 419      0080
 420              		.align	2
 421              		.p2align 4,,15
 422              		.global	_test_assert
 423              		.thumb
 424              		.thumb_func
 425              		.type	_test_assert, %function
 426              	_test_assert:
 427              	.LFB43:
 428              		.loc 1 177 0
 429              		.cfi_startproc
 430              		@ args = 0, pretend = 0, frame = 0
 431              		@ frame_needed = 0, uses_anonymous_args = 0
 432              		@ link register save eliminated.
 433              	.LVL37:
 434 0000 10B4     		push	{r4}
 435              		.cfi_def_cfa_offset 4
 436              		.cfi_offset 4, -4
 437              		.loc 1 181 0
 438 0002 0022     		movs	r2, #0
 439              		.loc 1 179 0
 440 0004 79B9     		cbnz	r1, .L35
 441              	.LVL38:
 442              	.LBB57:
 443              	.LBB58:
 444              		.loc 1 171 0
 445 0006 40F20004 		movw	r4, #:lower16:.LANCHOR3
 446              		.loc 1 172 0
 447 000a 40F20001 		movw	r1, #:lower16:.LANCHOR4
ARM GAS  /tmp/ccZX8OJa.s 			page 9


 448              	.LVL39:
 449              		.loc 1 173 0
 450 000e 40F20003 		movw	r3, #:lower16:.LANCHOR5
 451              		.loc 1 171 0
 452 0012 0122     		movs	r2, #1
 453 0014 C0F20004 		movt	r4, #:upper16:.LANCHOR3
 454              		.loc 1 172 0
 455 0018 C0F20001 		movt	r1, #:upper16:.LANCHOR4
 456              		.loc 1 173 0
 457 001c C0F20003 		movt	r3, #:upper16:.LANCHOR5
 458              		.loc 1 171 0
 459 0020 2260     		str	r2, [r4]
 460              		.loc 1 172 0
 461 0022 0A60     		str	r2, [r1]
 462              		.loc 1 173 0
 463 0024 1860     		str	r0, [r3]
 464              	.LVL40:
 465              	.L35:
 466              	.LBE58:
 467              	.LBE57:
 468              		.loc 1 182 0
 469 0026 1046     		mov	r0, r2
 470              	.LVL41:
 471 0028 5DF8044B 		ldr	r4, [sp], #4
 472 002c 7047     		bx	lr
 473              		.cfi_endproc
 474              	.LFE43:
 475              		.size	_test_assert, .-_test_assert
 476 002e 00BF     		.section	.text._test_assert_sequence,"ax",%progbits
 477              		.align	2
 478              		.p2align 4,,15
 479              		.global	_test_assert_sequence
 480              		.thumb
 481              		.thumb_func
 482              		.type	_test_assert_sequence, %function
 483              	_test_assert_sequence:
 484              	.LFB44:
 485              		.loc 1 184 0
 486              		.cfi_startproc
 487              		@ args = 0, pretend = 0, frame = 0
 488              		@ frame_needed = 0, uses_anonymous_args = 0
 489              		@ link register save eliminated.
 490              	.LVL42:
 491 0000 F0B4     		push	{r4, r5, r6, r7}
 492              		.cfi_def_cfa_offset 16
 493              		.cfi_offset 4, -16
 494              		.cfi_offset 5, -12
 495              		.cfi_offset 6, -8
 496              		.cfi_offset 7, -4
 497 0002 40F20006 		movw	r6, #:lower16:.LANCHOR2
 498              		.loc 1 185 0
 499 0006 40F20007 		movw	r7, #:lower16:.LANCHOR6
 500 000a C0F20006 		movt	r6, #:upper16:.LANCHOR2
 501 000e C0F20007 		movt	r7, #:upper16:.LANCHOR6
 502 0012 3568     		ldr	r5, [r6]
 503 0014 3B46     		mov	r3, r7
 504              		.loc 1 186 0
ARM GAS  /tmp/ccZX8OJa.s 			page 10


 505 0016 05E0     		b	.L38
 506              	.LVL43:
 507              	.L41:
 508              		.loc 1 187 0
 509 0018 13F8014B 		ldrb	r4, [r3], #1	@ zero_extendqisi2
 510              	.LVL44:
 511 001c 11F8012B 		ldrb	r2, [r1], #1	@ zero_extendqisi2
 512              	.LVL45:
 513 0020 9442     		cmp	r4, r2
 514 0022 07D1     		bne	.L42
 515              	.LVL46:
 516              	.L38:
 517              		.loc 1 186 0 discriminator 1
 518 0024 AB42     		cmp	r3, r5
 519 0026 F7D3     		bcc	.L41
 520              		.loc 1 190 0
 521 0028 0A78     		ldrb	r2, [r1]	@ zero_extendqisi2
 522 002a 1AB9     		cbnz	r2, .L42
 523              	.LBB59:
 524              	.LBB60:
 525              		.loc 1 144 0
 526 002c 3760     		str	r7, [r6]
 527              	.LBE60:
 528              	.LBE59:
 529              		.loc 1 194 0
 530 002e 1046     		mov	r0, r2
 531              	.LVL47:
 532 0030 F0BC     		pop	{r4, r5, r6, r7}
 533 0032 7047     		bx	lr
 534              	.LVL48:
 535              	.L42:
 536              	.LBB61:
 537              	.LBB62:
 538              		.loc 1 171 0
 539 0034 40F20004 		movw	r4, #:lower16:.LANCHOR3
 540              		.loc 1 172 0
 541 0038 40F20001 		movw	r1, #:lower16:.LANCHOR4
 542              		.loc 1 173 0
 543 003c 40F20003 		movw	r3, #:lower16:.LANCHOR5
 544              		.loc 1 171 0
 545 0040 0122     		movs	r2, #1
 546 0042 C0F20004 		movt	r4, #:upper16:.LANCHOR3
 547              		.loc 1 172 0
 548 0046 C0F20001 		movt	r1, #:upper16:.LANCHOR4
 549              		.loc 1 173 0
 550 004a C0F20003 		movt	r3, #:upper16:.LANCHOR5
 551              		.loc 1 171 0
 552 004e 2260     		str	r2, [r4]
 553              		.loc 1 173 0
 554 0050 1860     		str	r0, [r3]
 555              		.loc 1 172 0
 556 0052 0A60     		str	r2, [r1]
 557              	.LBE62:
 558              	.LBE61:
 559              		.loc 1 194 0
 560 0054 1046     		mov	r0, r2
 561              	.LVL49:
ARM GAS  /tmp/ccZX8OJa.s 			page 11


 562 0056 F0BC     		pop	{r4, r5, r6, r7}
 563 0058 7047     		bx	lr
 564              		.cfi_endproc
 565              	.LFE44:
 566              		.size	_test_assert_sequence, .-_test_assert_sequence
 567 005a 00BFAFF3 		.section	.text._test_assert_time_window,"ax",%progbits
 567      0080
 568              		.align	2
 569              		.p2align 4,,15
 570              		.global	_test_assert_time_window
 571              		.thumb
 572              		.thumb_func
 573              		.type	_test_assert_time_window, %function
 574              	_test_assert_time_window:
 575              	.LFB45:
 576              		.loc 1 196 0
 577              		.cfi_startproc
 578              		@ args = 0, pretend = 0, frame = 0
 579              		@ frame_needed = 0, uses_anonymous_args = 0
 580              	.LVL50:
 581 0000 38B5     		push	{r3, r4, r5, lr}
 582              		.cfi_def_cfa_offset 16
 583              		.cfi_offset 3, -16
 584              		.cfi_offset 4, -12
 585              		.cfi_offset 5, -8
 586              		.cfi_offset 14, -4
 587              		.loc 1 196 0
 588 0002 0546     		mov	r5, r0
 589              		.loc 1 198 0
 590 0004 0846     		mov	r0, r1
 591              	.LVL51:
 592 0006 1146     		mov	r1, r2
 593              	.LVL52:
 594 0008 FFF7FEFF 		bl	chTimeIsWithin
 595              	.LVL53:
 596              	.LBB63:
 597              	.LBB64:
 598              		.loc 1 179 0
 599 000c 88B9     		cbnz	r0, .L45
 600              	.LVL54:
 601              	.LBB65:
 602              	.LBB66:
 603              		.loc 1 171 0
 604 000e 40F20004 		movw	r4, #:lower16:.LANCHOR3
 605              		.loc 1 172 0
 606 0012 40F20001 		movw	r1, #:lower16:.LANCHOR4
 607              		.loc 1 173 0
 608 0016 40F20003 		movw	r3, #:lower16:.LANCHOR5
 609              		.loc 1 171 0
 610 001a 0122     		movs	r2, #1
 611 001c C0F20004 		movt	r4, #:upper16:.LANCHOR3
 612              		.loc 1 172 0
 613 0020 C0F20001 		movt	r1, #:upper16:.LANCHOR4
 614              		.loc 1 173 0
 615 0024 C0F20003 		movt	r3, #:upper16:.LANCHOR5
 616              		.loc 1 171 0
 617 0028 2260     		str	r2, [r4]
ARM GAS  /tmp/ccZX8OJa.s 			page 12


 618              		.loc 1 172 0
 619 002a 0A60     		str	r2, [r1]
 620              	.LBE66:
 621              	.LBE65:
 622              		.loc 1 180 0
 623 002c 1046     		mov	r0, r2
 624              	.LVL55:
 625              	.LBB68:
 626              	.LBB67:
 627              		.loc 1 173 0
 628 002e 1D60     		str	r5, [r3]
 629 0030 38BD     		pop	{r3, r4, r5, pc}
 630              	.LVL56:
 631              	.L45:
 632              	.LBE67:
 633              	.LBE68:
 634              		.loc 1 181 0
 635 0032 0020     		movs	r0, #0
 636              	.LVL57:
 637              	.LBE64:
 638              	.LBE63:
 639              		.loc 1 199 0
 640 0034 38BD     		pop	{r3, r4, r5, pc}
 641              		.cfi_endproc
 642              	.LFE45:
 643              		.size	_test_assert_time_window, .-_test_assert_time_window
 644 0036 00BFAFF3 		.section	.text.test_terminate_threads,"ax",%progbits
 644      0080AFF3 
 644      0080
 645              		.align	2
 646              		.p2align 4,,15
 647              		.global	test_terminate_threads
 648              		.thumb
 649              		.thumb_func
 650              		.type	test_terminate_threads, %function
 651              	test_terminate_threads:
 652              	.LFB46:
 653              		.loc 1 208 0
 654              		.cfi_startproc
 655              		@ args = 0, pretend = 0, frame = 0
 656              		@ frame_needed = 0, uses_anonymous_args = 0
 657              	.LVL58:
 658 0000 38B5     		push	{r3, r4, r5, lr}
 659              		.cfi_def_cfa_offset 16
 660              		.cfi_offset 3, -16
 661              		.cfi_offset 4, -12
 662              		.cfi_offset 5, -8
 663              		.cfi_offset 14, -4
 664 0002 064C     		ldr	r4, .L53
 665 0004 04F11405 		add	r5, r4, #20
 666              	.LVL59:
 667              	.L49:
 668              		.loc 1 212 0
 669 0008 54F8043F 		ldr	r3, [r4, #4]!
 670              		.loc 1 213 0
 671 000c 1846     		mov	r0, r3
 672              		.loc 1 212 0
ARM GAS  /tmp/ccZX8OJa.s 			page 13


 673 000e 0BB1     		cbz	r3, .L47
 674              		.loc 1 213 0
 675 0010 FFF7FEFF 		bl	chThdTerminate
 676              	.LVL60:
 677              	.L47:
 678              		.loc 1 211 0
 679 0014 AC42     		cmp	r4, r5
 680 0016 F7D1     		bne	.L49
 681              		.loc 1 214 0
 682 0018 38BD     		pop	{r3, r4, r5, pc}
 683              	.L54:
 684 001a 00BF     		.align	2
 685              	.L53:
 686 001c FCFFFFFF 		.word	.LANCHOR7-4
 687              		.cfi_endproc
 688              	.LFE46:
 689              		.size	test_terminate_threads, .-test_terminate_threads
 690              		.section	.text.test_wait_threads,"ax",%progbits
 691              		.align	2
 692              		.p2align 4,,15
 693              		.global	test_wait_threads
 694              		.thumb
 695              		.thumb_func
 696              		.type	test_wait_threads, %function
 697              	test_wait_threads:
 698              	.LFB47:
 699              		.loc 1 219 0
 700              		.cfi_startproc
 701              		@ args = 0, pretend = 0, frame = 0
 702              		@ frame_needed = 0, uses_anonymous_args = 0
 703              	.LVL61:
 704 0000 70B5     		push	{r4, r5, r6, lr}
 705              		.cfi_def_cfa_offset 16
 706              		.cfi_offset 4, -16
 707              		.cfi_offset 5, -12
 708              		.cfi_offset 6, -8
 709              		.cfi_offset 14, -4
 710 0002 40F20004 		movw	r4, #:lower16:.LANCHOR7
 711 0006 C0F20004 		movt	r4, #:upper16:.LANCHOR7
 712 000a 04F11405 		add	r5, r4, #20
 713              		.loc 1 225 0
 714 000e 0026     		movs	r6, #0
 715              	.LVL62:
 716              	.L58:
 717              		.loc 1 223 0
 718 0010 54F8043B 		ldr	r3, [r4], #4
 719              		.loc 1 224 0
 720 0014 1846     		mov	r0, r3
 721              		.loc 1 223 0
 722 0016 1BB1     		cbz	r3, .L56
 723              		.loc 1 224 0
 724 0018 FFF7FEFF 		bl	chThdWait
 725              	.LVL63:
 726              		.loc 1 225 0
 727 001c 44F8046C 		str	r6, [r4, #-4]
 728              	.L56:
 729              		.loc 1 222 0
ARM GAS  /tmp/ccZX8OJa.s 			page 14


 730 0020 AC42     		cmp	r4, r5
 731 0022 F5D1     		bne	.L58
 732              		.loc 1 227 0
 733 0024 70BD     		pop	{r4, r5, r6, pc}
 734              		.cfi_endproc
 735              	.LFE47:
 736              		.size	test_wait_threads, .-test_wait_threads
 737 0026 00BFAFF3 		.section	.text.test_cpu_pulse,"ax",%progbits
 737      0080AFF3 
 737      0080
 738              		.align	2
 739              		.p2align 4,,15
 740              		.global	test_cpu_pulse
 741              		.thumb
 742              		.thumb_func
 743              		.type	test_cpu_pulse, %function
 744              	test_cpu_pulse:
 745              	.LFB48:
 746              		.loc 1 236 0
 747              		.cfi_startproc
 748              		@ args = 0, pretend = 0, frame = 0
 749              		@ frame_needed = 0, uses_anonymous_args = 0
 750              		@ link register save eliminated.
 751              	.LVL64:
 752              		.loc 1 240 0
 753 0000 4FF47A73 		mov	r3, #1000
 754 0004 03FB00F0 		mul	r0, r3, r0
 755              	.LVL65:
 756              		.loc 1 239 0
 757 0008 40F20003 		movw	r3, #:lower16:rlist
 758 000c C0F20003 		movt	r3, #:upper16:rlist
 759              		.loc 1 240 0
 760 0010 44F6D352 		movw	r2, #19923
 761 0014 A0F57A71 		sub	r1, r0, #1000
 762 0018 C1F26202 		movt	r2, 4194
 763              		.loc 1 236 0
 764 001c 10B4     		push	{r4}
 765              		.cfi_def_cfa_offset 4
 766              		.cfi_offset 4, -4
 767              		.loc 1 239 0
 768 001e DC69     		ldr	r4, [r3, #28]
 769              		.loc 1 240 0
 770 0020 A2FB0131 		umull	r3, r1, r2, r1
 771              		.loc 1 239 0
 772 0024 226A     		ldr	r2, [r4, #32]
 773              	.LVL66:
 774              		.loc 1 240 0
 775 0026 501C     		adds	r0, r2, #1
 776 0028 00EB9111 		add	r1, r0, r1, lsr #6
 777              	.LVL67:
 778              	.L66:
 779              		.loc 1 247 0
 780 002c 8A42     		cmp	r2, r1
 781              		.loc 1 242 0
 782 002e 236A     		ldr	r3, [r4, #32]
 783              	.LVL68:
 784              		.loc 1 247 0
ARM GAS  /tmp/ccZX8OJa.s 			page 15


 785 0030 0BD2     		bcs	.L63
 786              		.loc 1 247 0 is_stmt 0 discriminator 1
 787 0032 8B42     		cmp	r3, r1
 788 0034 2CBF     		ite	cs
 789 0036 0020     		movcs	r0, #0
 790 0038 0120     		movcc	r0, #1
 791 003a 9342     		cmp	r3, r2
 792 003c 38BF     		it	cc
 793 003e 0020     		movcc	r0, #0
 794              		.loc 1 248 0 is_stmt 1 discriminator 1
 795 0040 0028     		cmp	r0, #0
 796 0042 F3D1     		bne	.L66
 797              	.L67:
 798              		.loc 1 249 0
 799 0044 5DF8044B 		ldr	r4, [sp], #4
 800 0048 7047     		bx	lr
 801              	.L63:
 802              		.loc 1 248 0 discriminator 2
 803 004a 9342     		cmp	r3, r2
 804 004c 34BF     		ite	cc
 805 004e 0020     		movcc	r0, #0
 806 0050 0120     		movcs	r0, #1
 807 0052 8B42     		cmp	r3, r1
 808 0054 38BF     		it	cc
 809 0056 40F00100 		orrcc	r0, r0, #1
 810 005a 0028     		cmp	r0, #0
 811 005c E6D1     		bne	.L66
 812 005e F1E7     		b	.L67
 813              		.cfi_endproc
 814              	.LFE48:
 815              		.size	test_cpu_pulse, .-test_cpu_pulse
 816              		.section	.text.test_wait_tick,"ax",%progbits
 817              		.align	2
 818              		.p2align 4,,15
 819              		.global	test_wait_tick
 820              		.thumb
 821              		.thumb_func
 822              		.type	test_wait_tick, %function
 823              	test_wait_tick:
 824              	.LFB49:
 825              		.loc 1 257 0
 826              		.cfi_startproc
 827              		@ args = 0, pretend = 0, frame = 0
 828              		@ frame_needed = 0, uses_anonymous_args = 0
 829 0000 08B5     		push	{r3, lr}
 830              		.cfi_def_cfa_offset 8
 831              		.cfi_offset 3, -8
 832              		.cfi_offset 14, -4
 833              		.loc 1 259 0
 834 0002 0120     		movs	r0, #1
 835 0004 FFF7FEFF 		bl	chThdSleep
 836              	.LVL69:
 837              		.loc 1 260 0
 838 0008 40F20003 		movw	r3, #:lower16:vtlist
 839 000c C0F20003 		movt	r3, #:upper16:vtlist
 840 0010 D868     		ldr	r0, [r3, #12]
 841              		.loc 1 261 0
ARM GAS  /tmp/ccZX8OJa.s 			page 16


 842 0012 08BD     		pop	{r3, pc}
 843              		.cfi_endproc
 844              	.LFE49:
 845              		.size	test_wait_tick, .-test_wait_tick
 846 0014 AFF30080 		.section	.text.test_start_timer,"ax",%progbits
 846      AFF30080 
 846      AFF30080 
 847              		.align	2
 848              		.p2align 4,,15
 849              		.global	test_start_timer
 850              		.thumb
 851              		.thumb_func
 852              		.type	test_start_timer, %function
 853              	test_start_timer:
 854              	.LFB51:
 855              		.loc 1 284 0
 856              		.cfi_startproc
 857              		@ args = 0, pretend = 0, frame = 0
 858              		@ frame_needed = 0, uses_anonymous_args = 0
 859              	.LVL70:
 860 0000 08B5     		push	{r3, lr}
 861              		.cfi_def_cfa_offset 8
 862              		.cfi_offset 3, -8
 863              		.cfi_offset 14, -4
 864              		.loc 1 287 0
 865 0002 40F20003 		movw	r3, #:lower16:.LANCHOR0
 866 0006 C0F20003 		movt	r3, #:upper16:.LANCHOR0
 867 000a 0022     		movs	r2, #0
 868              	.LVL71:
 869 000c 1A60     		str	r2, [r3]
 870              	.LBB69:
 871              		.loc 1 288 0
 872 000e 2023     		movs	r3, #32
 873              	@ 288 "../third_party/ChibiOS/test/test.c" 1
 874 0010 83F31188 		msr     BASEPRI, r3
 875              	@ 0 "" 2
 876              		.thumb
 877              	.LBE69:
 878              		.loc 1 286 0
 879 0014 4FF47A73 		mov	r3, #1000
 880 0018 03FB00F0 		mul	r0, r3, r0
 881              	.LVL72:
 882 001c 44F6D353 		movw	r3, #19923
 883 0020 A0F57A70 		sub	r0, r0, #1000
 884 0024 C1F26203 		movt	r3, 4194
 885 0028 A3FB0023 		umull	r2, r3, r3, r0
 886              		.loc 1 289 0
 887 002c 40F20000 		movw	r0, #:lower16:.LANCHOR8
 888              		.loc 1 286 0
 889 0030 9909     		lsrs	r1, r3, #6
 890              		.loc 1 289 0
 891 0032 40F20002 		movw	r2, #:lower16:tmr
 892 0036 0131     		adds	r1, r1, #1
 893 0038 C0F20000 		movt	r0, #:upper16:.LANCHOR8
 894 003c C0F20002 		movt	r2, #:upper16:tmr
 895 0040 0023     		movs	r3, #0
 896 0042 FFF7FEFF 		bl	chVTSetI
ARM GAS  /tmp/ccZX8OJa.s 			page 17


 897              	.LVL73:
 898              	.LBB70:
 899              		.loc 1 290 0
 900 0046 0023     		movs	r3, #0
 901              	@ 290 "../third_party/ChibiOS/test/test.c" 1
 902 0048 83F31188 		msr     BASEPRI, r3
 903              	@ 0 "" 2
 904              		.thumb
 905 004c 08BD     		pop	{r3, pc}
 906              	.LBE70:
 907              		.cfi_endproc
 908              	.LFE51:
 909              		.size	test_start_timer, .-test_start_timer
 910 004e 00BF     		.section	.text.TestThread,"ax",%progbits
 911              		.align	2
 912              		.p2align 4,,15
 913              		.global	TestThread
 914              		.thumb
 915              		.thumb_func
 916              		.type	TestThread, %function
 917              	TestThread:
 918              	.LFB54:
 919              		.loc 1 329 0
 920              		.cfi_startproc
 921              		@ args = 0, pretend = 0, frame = 16
 922              		@ frame_needed = 0, uses_anonymous_args = 0
 923              	.LVL74:
 924 0000 2DE9F04F 		push	{r4, r5, r6, r7, r8, r9, r10, fp, lr}
 925              		.cfi_def_cfa_offset 36
 926              		.cfi_offset 4, -36
 927              		.cfi_offset 5, -32
 928              		.cfi_offset 6, -28
 929              		.cfi_offset 7, -24
 930              		.cfi_offset 8, -20
 931              		.cfi_offset 9, -16
 932              		.cfi_offset 10, -12
 933              		.cfi_offset 11, -8
 934              		.cfi_offset 14, -4
 935              		.loc 1 332 0
 936 0004 40F20004 		movw	r4, #:lower16:.LANCHOR1
 937 0008 C0F20004 		movt	r4, #:upper16:.LANCHOR1
 938 000c 2060     		str	r0, [r4]
 939              		.loc 1 333 0
 940 000e 40F20000 		movw	r0, #:lower16:.LC0
 941              	.LVL75:
 942              		.loc 1 329 0
 943 0012 85B0     		sub	sp, sp, #20
 944              		.cfi_def_cfa_offset 56
 945              		.loc 1 333 0
 946 0014 C0F20000 		movt	r0, #:upper16:.LC0
 947 0018 FFF7FEFF 		bl	test_println
 948              	.LVL76:
 949              		.loc 1 334 0
 950 001c 40F20000 		movw	r0, #:lower16:.LC1
 951 0020 C0F20000 		movt	r0, #:upper16:.LC1
 952 0024 FFF7FEFF 		bl	test_println
 953              	.LVL77:
ARM GAS  /tmp/ccZX8OJa.s 			page 18


 954              		.loc 1 335 0
 955 0028 40F20000 		movw	r0, #:lower16:.LC2
 956 002c C0F20000 		movt	r0, #:upper16:.LC2
 957 0030 40F20005 		movw	r5, #:lower16:.LC3
 958 0034 FFF7FEFF 		bl	test_println
 959              	.LVL78:
 960 0038 C0F20005 		movt	r5, #:upper16:.LC3
 961              	.LBB107:
 962              	.LBB108:
 963              		.loc 1 123 0
 964 003c 2A21     		movs	r1, #42
 965              	.LVL79:
 966              	.L72:
 967              		.loc 1 124 0
 968 003e 2068     		ldr	r0, [r4]
 969              	.LVL80:
 970 0040 4FF0FF32 		mov	r2, #-1
 971 0044 0368     		ldr	r3, [r0]
 972 0046 1B69     		ldr	r3, [r3, #16]
 973 0048 9847     		blx	r3
 974              	.LVL81:
 975              		.loc 1 123 0
 976 004a 15F8011F 		ldrb	r1, [r5, #1]!	@ zero_extendqisi2
 977              	.LVL82:
 978 004e 0029     		cmp	r1, #0
 979 0050 F5D1     		bne	.L72
 980              	.LBE108:
 981              	.LBE107:
 982              		.loc 1 337 0
 983 0052 40F20000 		movw	r0, #:lower16:.LC11
 984 0056 C0F20000 		movt	r0, #:upper16:.LC11
 985 005a 40F20005 		movw	r5, #:lower16:.LC12
 986              	.LVL83:
 987 005e FFF7FEFF 		bl	test_println
 988              	.LVL84:
 989 0062 C0F20005 		movt	r5, #:upper16:.LC12
 990              	.LBB109:
 991              	.LBB110:
 992              		.loc 1 123 0
 993 0066 2A21     		movs	r1, #42
 994              	.LVL85:
 995              	.L110:
 996              		.loc 1 124 0
 997 0068 2068     		ldr	r0, [r4]
 998              	.LVL86:
 999 006a 4FF0FF32 		mov	r2, #-1
 1000 006e 0368     		ldr	r3, [r0]
 1001 0070 1B69     		ldr	r3, [r3, #16]
 1002 0072 9847     		blx	r3
 1003              	.LVL87:
 1004              		.loc 1 123 0
 1005 0074 15F8011F 		ldrb	r1, [r5, #1]!	@ zero_extendqisi2
 1006              	.LVL88:
 1007 0078 0029     		cmp	r1, #0
 1008 007a F5D1     		bne	.L110
 1009              	.LBE110:
 1010              	.LBE109:
ARM GAS  /tmp/ccZX8OJa.s 			page 19


 1011              		.loc 1 339 0
 1012 007c 40F20000 		movw	r0, #:lower16:.LC13
 1013 0080 C0F20000 		movt	r0, #:upper16:.LC13
 1014 0084 40F20005 		movw	r5, #:lower16:.LC14
 1015              	.LVL89:
 1016 0088 FFF7FEFF 		bl	test_println
 1017              	.LVL90:
 1018 008c C0F20005 		movt	r5, #:upper16:.LC14
 1019              	.LBB111:
 1020              	.LBB112:
 1021              		.loc 1 123 0
 1022 0090 2A21     		movs	r1, #42
 1023              	.LVL91:
 1024              	.L111:
 1025              		.loc 1 124 0
 1026 0092 2068     		ldr	r0, [r4]
 1027              	.LVL92:
 1028 0094 4FF0FF32 		mov	r2, #-1
 1029 0098 0368     		ldr	r3, [r0]
 1030 009a 1B69     		ldr	r3, [r3, #16]
 1031 009c 9847     		blx	r3
 1032              	.LVL93:
 1033              		.loc 1 123 0
 1034 009e 15F8011F 		ldrb	r1, [r5, #1]!	@ zero_extendqisi2
 1035              	.LVL94:
 1036 00a2 0029     		cmp	r1, #0
 1037 00a4 F5D1     		bne	.L111
 1038              	.LBE112:
 1039              	.LBE111:
 1040              		.loc 1 342 0
 1041 00a6 40F20000 		movw	r0, #:lower16:.LC15
 1042 00aa C0F20000 		movt	r0, #:upper16:.LC15
 1043 00ae 40F20005 		movw	r5, #:lower16:.LC16
 1044              	.LVL95:
 1045 00b2 FFF7FEFF 		bl	test_println
 1046              	.LVL96:
 1047 00b6 C0F20005 		movt	r5, #:upper16:.LC16
 1048              	.LBB113:
 1049              	.LBB114:
 1050              		.loc 1 123 0
 1051 00ba 2A21     		movs	r1, #42
 1052              	.LVL97:
 1053              	.L112:
 1054              		.loc 1 124 0
 1055 00bc 2068     		ldr	r0, [r4]
 1056              	.LVL98:
 1057 00be 4FF0FF32 		mov	r2, #-1
 1058 00c2 0368     		ldr	r3, [r0]
 1059 00c4 1B69     		ldr	r3, [r3, #16]
 1060 00c6 9847     		blx	r3
 1061              	.LVL99:
 1062              		.loc 1 123 0
 1063 00c8 15F8011F 		ldrb	r1, [r5, #1]!	@ zero_extendqisi2
 1064              	.LVL100:
 1065 00cc 0029     		cmp	r1, #0
 1066 00ce F5D1     		bne	.L112
 1067              	.LBE114:
ARM GAS  /tmp/ccZX8OJa.s 			page 20


 1068              	.LBE113:
 1069              		.loc 1 345 0
 1070 00d0 40F20000 		movw	r0, #:lower16:.LC17
 1071 00d4 C0F20000 		movt	r0, #:upper16:.LC17
 1072 00d8 40F20005 		movw	r5, #:lower16:.LC18
 1073              	.LVL101:
 1074 00dc FFF7FEFF 		bl	test_println
 1075              	.LVL102:
 1076 00e0 C0F20005 		movt	r5, #:upper16:.LC18
 1077              	.LBB115:
 1078              	.LBB116:
 1079              		.loc 1 123 0
 1080 00e4 2A21     		movs	r1, #42
 1081              	.LVL103:
 1082              	.L113:
 1083              		.loc 1 124 0
 1084 00e6 2068     		ldr	r0, [r4]
 1085              	.LVL104:
 1086 00e8 4FF0FF32 		mov	r2, #-1
 1087 00ec 0368     		ldr	r3, [r0]
 1088 00ee 1B69     		ldr	r3, [r3, #16]
 1089 00f0 9847     		blx	r3
 1090              	.LVL105:
 1091              		.loc 1 123 0
 1092 00f2 15F8011F 		ldrb	r1, [r5, #1]!	@ zero_extendqisi2
 1093              	.LVL106:
 1094 00f6 0029     		cmp	r1, #0
 1095 00f8 F5D1     		bne	.L113
 1096              	.LBE116:
 1097              	.LBE115:
 1098              		.loc 1 348 0
 1099 00fa 40F20000 		movw	r0, #:lower16:.LC19
 1100 00fe C0F20000 		movt	r0, #:upper16:.LC19
 1101 0102 40F20005 		movw	r5, #:lower16:.LC20
 1102              	.LVL107:
 1103 0106 FFF7FEFF 		bl	test_println
 1104              	.LVL108:
 1105 010a C0F20005 		movt	r5, #:upper16:.LC20
 1106              	.LBB117:
 1107              	.LBB118:
 1108              		.loc 1 123 0
 1109 010e 2A21     		movs	r1, #42
 1110              	.LVL109:
 1111              	.L114:
 1112              		.loc 1 124 0
 1113 0110 2068     		ldr	r0, [r4]
 1114              	.LVL110:
 1115 0112 4FF0FF32 		mov	r2, #-1
 1116 0116 0368     		ldr	r3, [r0]
 1117 0118 1B69     		ldr	r3, [r3, #16]
 1118 011a 9847     		blx	r3
 1119              	.LVL111:
 1120              		.loc 1 123 0
 1121 011c 15F8011F 		ldrb	r1, [r5, #1]!	@ zero_extendqisi2
 1122              	.LVL112:
 1123 0120 0029     		cmp	r1, #0
 1124 0122 F5D1     		bne	.L114
ARM GAS  /tmp/ccZX8OJa.s 			page 21


 1125              	.LBE118:
 1126              	.LBE117:
 1127              		.loc 1 352 0
 1128 0124 40F20000 		movw	r0, #:lower16:.LC21
 1129 0128 C0F20000 		movt	r0, #:upper16:.LC21
 1130 012c 40F20005 		movw	r5, #:lower16:.LC22
 1131              	.LVL113:
 1132 0130 FFF7FEFF 		bl	test_println
 1133              	.LVL114:
 1134 0134 C0F20005 		movt	r5, #:upper16:.LC22
 1135              	.LBB119:
 1136              	.LBB120:
 1137              		.loc 1 123 0
 1138 0138 2A21     		movs	r1, #42
 1139              	.LVL115:
 1140              	.L115:
 1141              		.loc 1 124 0
 1142 013a 2068     		ldr	r0, [r4]
 1143              	.LVL116:
 1144 013c 4FF0FF32 		mov	r2, #-1
 1145 0140 0368     		ldr	r3, [r0]
 1146 0142 1B69     		ldr	r3, [r3, #16]
 1147 0144 9847     		blx	r3
 1148              	.LVL117:
 1149              		.loc 1 123 0
 1150 0146 15F8011F 		ldrb	r1, [r5, #1]!	@ zero_extendqisi2
 1151              	.LVL118:
 1152 014a 0029     		cmp	r1, #0
 1153 014c F5D1     		bne	.L115
 1154              	.LBE120:
 1155              	.LBE119:
 1156              		.loc 1 356 0
 1157 014e 40F20000 		movw	r0, #:lower16:.LC23
 1158 0152 C0F20000 		movt	r0, #:upper16:.LC23
 1159 0156 40F20005 		movw	r5, #:lower16:.LC24
 1160              	.LVL119:
 1161 015a FFF7FEFF 		bl	test_println
 1162              	.LVL120:
 1163 015e C0F20005 		movt	r5, #:upper16:.LC24
 1164              	.LBB121:
 1165              	.LBB122:
 1166              		.loc 1 123 0
 1167 0162 2A21     		movs	r1, #42
 1168              	.LVL121:
 1169              	.L116:
 1170              		.loc 1 124 0
 1171 0164 2068     		ldr	r0, [r4]
 1172              	.LVL122:
 1173 0166 4FF0FF32 		mov	r2, #-1
 1174 016a 0368     		ldr	r3, [r0]
 1175 016c 1B69     		ldr	r3, [r3, #16]
 1176 016e 9847     		blx	r3
 1177              	.LVL123:
 1178              		.loc 1 123 0
 1179 0170 15F8011F 		ldrb	r1, [r5, #1]!	@ zero_extendqisi2
 1180              	.LVL124:
 1181 0174 0029     		cmp	r1, #0
ARM GAS  /tmp/ccZX8OJa.s 			page 22


 1182 0176 F5D1     		bne	.L116
 1183              	.LBE122:
 1184              	.LBE121:
 1185              		.loc 1 360 0
 1186 0178 40F20000 		movw	r0, #:lower16:.LC25
 1187 017c C0F20000 		movt	r0, #:upper16:.LC25
 1188 0180 0191     		str	r1, [sp, #4]
 1189 0182 FFF7FEFF 		bl	test_println
 1190              	.LVL125:
 1191              		.loc 1 362 0
 1192 0186 40F20000 		movw	r0, #:lower16:.LC0
 1193              		.loc 1 364 0
 1194 018a 40F20003 		movw	r3, #:lower16:.LANCHOR4
 1195              		.loc 1 362 0
 1196 018e C0F20000 		movt	r0, #:upper16:.LC0
 1197              		.loc 1 364 0
 1198 0192 0393     		str	r3, [sp, #12]
 1199              		.loc 1 362 0
 1200 0194 FFF7FEFF 		bl	test_println
 1201              	.LVL126:
 1202              		.loc 1 364 0
 1203 0198 039B     		ldr	r3, [sp, #12]
 1204 019a 0199     		ldr	r1, [sp, #4]
 1205 019c C0F20003 		movt	r3, #:upper16:.LANCHOR4
 1206 01a0 0393     		str	r3, [sp, #12]
 1207 01a2 039B     		ldr	r3, [sp, #12]
 1208 01a4 40F20007 		movw	r7, #:lower16:patternthd
 1209 01a8 1960     		str	r1, [r3]
 1210              	.LVL127:
 1211 01aa 40F20003 		movw	r3, #:lower16:.LANCHOR9
 1212              	.LBB123:
 1213              	.LBB124:
 1214              	.LBB125:
 1215              	.LBB126:
 1216              		.loc 1 144 0
 1217 01ae 40F20005 		movw	r5, #:lower16:.LANCHOR2
 1218              	.LVL128:
 1219 01b2 40F20009 		movw	r9, #:lower16:.LANCHOR6
 1220 01b6 C0F20003 		movt	r3, #:upper16:.LANCHOR9
 1221              	.LBE126:
 1222              	.LBE125:
 1223              	.LBE124:
 1224              	.LBE123:
 1225              		.loc 1 365 0
 1226 01ba 8A46     		mov	r10, r1
 1227 01bc 0293     		str	r3, [sp, #8]
 1228              		.loc 1 364 0
 1229 01be C0F20007 		movt	r7, #:upper16:patternthd
 1230              	.LBB134:
 1231              	.LBB131:
 1232              	.LBB129:
 1233              	.LBB127:
 1234              		.loc 1 144 0
 1235 01c2 C0F20005 		movt	r5, #:upper16:.LANCHOR2
 1236 01c6 C0F20009 		movt	r9, #:upper16:.LANCHOR6
 1237              	.LVL129:
 1238              	.L117:
ARM GAS  /tmp/ccZX8OJa.s 			page 23


 1239 01ca 0AF1010A 		add	r10, r10, #1
 1240              	.LVL130:
 1241              	.LBE127:
 1242              	.LBE129:
 1243              	.LBE131:
 1244              	.LBE134:
 1245              	.LBB135:
 1246              	.LBB136:
 1247              		.loc 1 123 0 discriminator 1
 1248 01ce 4FF00008 		mov	r8, #0
 1249              	.L106:
 1250              	.LVL131:
 1251              	.LBE136:
 1252              	.LBE135:
 1253              		.loc 1 368 0 discriminator 1
 1254 01d2 57F8043B 		ldr	r3, [r7], #4
 1255 01d6 002B     		cmp	r3, #0
 1256 01d8 00F0B080 		beq	.L135
 1257              	.L104:
 1258 01dc 40F2000B 		movw	fp, #:lower16:.LC4
 1259              		.loc 1 369 0
 1260 01e0 FFF7FEFF 		bl	print_line
 1261              	.LVL132:
 1262 01e4 C0F2000B 		movt	fp, #:upper16:.LC4
 1263              	.LBB138:
 1264              	.LBB139:
 1265              		.loc 1 123 0
 1266 01e8 2D21     		movs	r1, #45
 1267              	.LVL133:
 1268              	.L88:
 1269              		.loc 1 124 0
 1270 01ea 2068     		ldr	r0, [r4]
 1271              	.LVL134:
 1272 01ec 0268     		ldr	r2, [r0]
 1273 01ee 1669     		ldr	r6, [r2, #16]
 1274 01f0 4FF0FF32 		mov	r2, #-1
 1275 01f4 B047     		blx	r6
 1276              	.LVL135:
 1277              		.loc 1 123 0
 1278 01f6 1BF8011F 		ldrb	r1, [fp, #1]!	@ zero_extendqisi2
 1279              	.LVL136:
 1280              		.loc 1 124 0
 1281 01fa 40F20006 		movw	r6, #:lower16:.LANCHOR1
 1282 01fe C0F20006 		movt	r6, #:upper16:.LANCHOR1
 1283              		.loc 1 123 0
 1284 0202 0029     		cmp	r1, #0
 1285 0204 F1D1     		bne	.L88
 1286              	.LBE139:
 1287              	.LBE138:
 1288              		.loc 1 371 0
 1289 0206 5046     		mov	r0, r10
 1290 0208 FFF7FEFF 		bl	test_printn
 1291              	.LVL137:
 1292              	.LBB140:
 1293              	.LBB141:
 1294              		.loc 1 124 0
 1295 020c 3068     		ldr	r0, [r6]
ARM GAS  /tmp/ccZX8OJa.s 			page 24


 1296              	.LVL138:
 1297 020e 2E21     		movs	r1, #46
 1298 0210 0368     		ldr	r3, [r0]
 1299 0212 4FF0FF32 		mov	r2, #-1
 1300 0216 1B69     		ldr	r3, [r3, #16]
 1301              	.LBE141:
 1302              	.LBE140:
 1303              		.loc 1 373 0
 1304 0218 08F10108 		add	r8, r8, #1
 1305              	.LVL139:
 1306              	.LBB143:
 1307              	.LBB142:
 1308              		.loc 1 124 0
 1309 021c 9847     		blx	r3
 1310              	.LVL140:
 1311 021e 40F20006 		movw	r6, #:lower16:.LC26
 1312              	.LBE142:
 1313              	.LBE143:
 1314              		.loc 1 373 0
 1315 0222 4046     		mov	r0, r8
 1316 0224 FFF7FEFF 		bl	test_printn
 1317              	.LVL141:
 1318 0228 C0F20006 		movt	r6, #:upper16:.LC26
 1319              	.LBB144:
 1320              	.LBB145:
 1321              		.loc 1 123 0
 1322 022c 2021     		movs	r1, #32
 1323              	.LVL142:
 1324              	.L118:
 1325              		.loc 1 124 0
 1326 022e 2068     		ldr	r0, [r4]
 1327              	.LVL143:
 1328 0230 4FF0FF32 		mov	r2, #-1
 1329 0234 0368     		ldr	r3, [r0]
 1330 0236 1B69     		ldr	r3, [r3, #16]
 1331 0238 9847     		blx	r3
 1332              	.LVL144:
 1333              		.loc 1 123 0
 1334 023a 16F8011F 		ldrb	r1, [r6, #1]!	@ zero_extendqisi2
 1335              	.LVL145:
 1336 023e 0029     		cmp	r1, #0
 1337 0240 F5D1     		bne	.L118
 1338              	.LBE145:
 1339              	.LBE144:
 1340              		.loc 1 375 0
 1341 0242 57F8043C 		ldr	r3, [r7, #-4]
 1342 0246 1E68     		ldr	r6, [r3]
 1343              	.LVL146:
 1344              	.LBB146:
 1345              	.LBB147:
 1346              		.loc 1 123 0
 1347 0248 3178     		ldrb	r1, [r6]	@ zero_extendqisi2
 1348 024a 49B1     		cbz	r1, .L93
 1349              	.LVL147:
 1350              	.L94:
 1351              		.loc 1 124 0
 1352 024c 2068     		ldr	r0, [r4]
ARM GAS  /tmp/ccZX8OJa.s 			page 25


 1353              	.LVL148:
 1354 024e 4FF0FF32 		mov	r2, #-1
 1355 0252 0368     		ldr	r3, [r0]
 1356 0254 1B69     		ldr	r3, [r3, #16]
 1357 0256 9847     		blx	r3
 1358              	.LVL149:
 1359              		.loc 1 123 0
 1360 0258 16F8011F 		ldrb	r1, [r6, #1]!	@ zero_extendqisi2
 1361              	.LVL150:
 1362 025c 0029     		cmp	r1, #0
 1363 025e F5D1     		bne	.L94
 1364              	.LVL151:
 1365              	.L93:
 1366              	.LBE147:
 1367              	.LBE146:
 1368              		.loc 1 376 0
 1369 0260 40F20000 		movw	r0, #:lower16:.LC5
 1370 0264 C0F20000 		movt	r0, #:upper16:.LC5
 1371 0268 FFF7FEFF 		bl	test_println
 1372              	.LVL152:
 1373              		.loc 1 378 0
 1374 026c C820     		movs	r0, #200
 1375 026e FFF7FEFF 		bl	chThdSleep
 1376              	.LVL153:
 1377              	.LBB148:
 1378              	.LBB132:
 1379              		.loc 1 303 0
 1380 0272 40F20003 		movw	r3, #:lower16:.LANCHOR7
 1381 0276 C0F20003 		movt	r3, #:upper16:.LANCHOR7
 1382              	.LBE132:
 1383              	.LBE148:
 1384              		.loc 1 380 0
 1385 027a 57F804BC 		ldr	fp, [r7, #-4]
 1386              	.LVL154:
 1387              	.LBB149:
 1388              	.LBB133:
 1389              		.loc 1 301 0
 1390 027e 0022     		movs	r2, #0
 1391              		.loc 1 303 0
 1392 0280 1A60     		str	r2, [r3]
 1393 0282 5A60     		str	r2, [r3, #4]
 1394 0284 9A60     		str	r2, [r3, #8]
 1395 0286 DA60     		str	r2, [r3, #12]
 1396 0288 1A61     		str	r2, [r3, #16]
 1397              		.loc 1 301 0
 1398 028a 40F20006 		movw	r6, #:lower16:.LANCHOR3
 1399              		.loc 1 305 0
 1400 028e DBF80430 		ldr	r3, [fp, #4]
 1401              		.loc 1 301 0
 1402 0292 C0F20006 		movt	r6, #:upper16:.LANCHOR3
 1403              	.LBB130:
 1404              	.LBB128:
 1405              		.loc 1 144 0
 1406 0296 C5F80090 		str	r9, [r5]
 1407              	.LBE128:
 1408              	.LBE130:
 1409              		.loc 1 301 0
ARM GAS  /tmp/ccZX8OJa.s 			page 26


 1410 029a 3260     		str	r2, [r6]
 1411              	.LVL155:
 1412              		.loc 1 305 0
 1413 029c 03B1     		cbz	r3, .L92
 1414              		.loc 1 306 0
 1415 029e 9847     		blx	r3
 1416              	.LVL156:
 1417              	.L92:
 1418              		.loc 1 307 0
 1419 02a0 DBF80C30 		ldr	r3, [fp, #12]
 1420 02a4 9847     		blx	r3
 1421              	.LVL157:
 1422              		.loc 1 308 0
 1423 02a6 DBF80830 		ldr	r3, [fp, #8]
 1424 02aa 03B1     		cbz	r3, .L95
 1425              		.loc 1 309 0
 1426 02ac 9847     		blx	r3
 1427              	.LVL158:
 1428              	.L95:
 1429              		.loc 1 311 0
 1430 02ae FFF7FEFF 		bl	test_wait_threads
 1431              	.LVL159:
 1432              	.LBE133:
 1433              	.LBE149:
 1434              		.loc 1 381 0
 1435 02b2 3368     		ldr	r3, [r6]
 1436 02b4 002B     		cmp	r3, #0
 1437 02b6 6DD0     		beq	.L96
 1438 02b8 40F20006 		movw	r6, #:lower16:.LC6
 1439 02bc C0F20006 		movt	r6, #:upper16:.LC6
 1440              	.LBB150:
 1441              	.LBB151:
 1442              		.loc 1 123 0
 1443 02c0 2D21     		movs	r1, #45
 1444              	.L98:
 1445              	.LVL160:
 1446              		.loc 1 124 0
 1447 02c2 2068     		ldr	r0, [r4]
 1448              	.LVL161:
 1449 02c4 4FF0FF32 		mov	r2, #-1
 1450 02c8 0368     		ldr	r3, [r0]
 1451 02ca 1B69     		ldr	r3, [r3, #16]
 1452 02cc 9847     		blx	r3
 1453              	.LVL162:
 1454              		.loc 1 123 0
 1455 02ce 16F8011F 		ldrb	r1, [r6, #1]!	@ zero_extendqisi2
 1456              	.LVL163:
 1457 02d2 0029     		cmp	r1, #0
 1458 02d4 F5D1     		bne	.L98
 1459              	.LBE151:
 1460              	.LBE150:
 1461              		.loc 1 383 0
 1462 02d6 40F20003 		movw	r3, #:lower16:.LANCHOR5
 1463 02da C0F20003 		movt	r3, #:upper16:.LANCHOR5
 1464 02de 1868     		ldr	r0, [r3]
 1465 02e0 40F20006 		movw	r6, #:lower16:.LC27
 1466              	.LVL164:
ARM GAS  /tmp/ccZX8OJa.s 			page 27


 1467 02e4 FFF7FEFF 		bl	test_printn
 1468              	.LVL165:
 1469 02e8 C0F20006 		movt	r6, #:upper16:.LC27
 1470              	.LBB152:
 1471              	.LBB137:
 1472              		.loc 1 123 0
 1473 02ec 2021     		movs	r1, #32
 1474              	.LVL166:
 1475              	.L119:
 1476              		.loc 1 124 0
 1477 02ee 2068     		ldr	r0, [r4]
 1478              	.LVL167:
 1479 02f0 4FF0FF32 		mov	r2, #-1
 1480 02f4 0368     		ldr	r3, [r0]
 1481 02f6 1B69     		ldr	r3, [r3, #16]
 1482 02f8 9847     		blx	r3
 1483              	.LVL168:
 1484              		.loc 1 123 0
 1485 02fa 16F8011F 		ldrb	r1, [r6, #1]!	@ zero_extendqisi2
 1486              	.LVL169:
 1487 02fe 0029     		cmp	r1, #0
 1488 0300 F5D1     		bne	.L119
 1489              	.LVL170:
 1490              	.LBE137:
 1491              	.LBE152:
 1492              	.LBB153:
 1493              	.LBB154:
 1494              		.loc 1 150 0
 1495 0302 2B68     		ldr	r3, [r5]
 1496 0304 4B45     		cmp	r3, r9
 1497 0306 88BF     		it	hi
 1498 0308 2B4E     		ldrhi	r6, .L137
 1499              	.LVL171:
 1500 030a 0CD9     		bls	.L102
 1501              	.LVL172:
 1502              	.L103:
 1503              		.loc 1 151 0
 1504 030c 2068     		ldr	r0, [r4]
 1505 030e 16F8011C 		ldrb	r1, [r6, #-1]	@ zero_extendqisi2
 1506 0312 0368     		ldr	r3, [r0]
 1507 0314 4FF0FF32 		mov	r2, #-1
 1508 0318 1B69     		ldr	r3, [r3, #16]
 1509 031a 9847     		blx	r3
 1510              	.LVL173:
 1511              		.loc 1 150 0
 1512 031c 2B68     		ldr	r3, [r5]
 1513              	.LVL174:
 1514 031e 9E42     		cmp	r6, r3
 1515 0320 06F10106 		add	r6, r6, #1
 1516              	.LVL175:
 1517 0324 F2D3     		bcc	.L103
 1518              	.LVL176:
 1519              	.L102:
 1520              	.LBE154:
 1521              	.LBE153:
 1522              		.loc 1 386 0
 1523 0326 40F20000 		movw	r0, #:lower16:.LC7
ARM GAS  /tmp/ccZX8OJa.s 			page 28


 1524 032a C0F20000 		movt	r0, #:upper16:.LC7
 1525 032e FFF7FEFF 		bl	test_println
 1526              	.LVL177:
 1527              		.loc 1 368 0
 1528 0332 57F8043B 		ldr	r3, [r7], #4
 1529 0336 002B     		cmp	r3, #0
 1530 0338 7FF450AF 		bne	.L104
 1531              	.LVL178:
 1532              	.L135:
 1533              		.loc 1 366 0
 1534 033c 029B     		ldr	r3, [sp, #8]
 1535 033e 53F8047F 		ldr	r7, [r3, #4]!
 1536 0342 0293     		str	r3, [sp, #8]
 1537 0344 002F     		cmp	r7, #0
 1538 0346 7FF440AF 		bne	.L117
 1539              		.loc 1 394 0
 1540 034a FFF7FEFF 		bl	print_line
 1541              	.LVL179:
 1542              		.loc 1 395 0
 1543 034e 40F20000 		movw	r0, #:lower16:.LC0
 1544 0352 C0F20000 		movt	r0, #:upper16:.LC0
 1545 0356 40F20005 		movw	r5, #:lower16:.LC28
 1546 035a FFF7FEFF 		bl	test_println
 1547              	.LVL180:
 1548 035e C0F20005 		movt	r5, #:upper16:.LC28
 1549              	.LBB155:
 1550              	.LBB156:
 1551              		.loc 1 123 0
 1552 0362 4621     		movs	r1, #70
 1553              	.LVL181:
 1554              	.L120:
 1555              		.loc 1 124 0
 1556 0364 2068     		ldr	r0, [r4]
 1557              	.LVL182:
 1558 0366 4FF0FF32 		mov	r2, #-1
 1559 036a 0368     		ldr	r3, [r0]
 1560 036c 1B69     		ldr	r3, [r3, #16]
 1561 036e 9847     		blx	r3
 1562              	.LVL183:
 1563              		.loc 1 123 0
 1564 0370 15F8011F 		ldrb	r1, [r5, #1]!	@ zero_extendqisi2
 1565              	.LVL184:
 1566 0374 0029     		cmp	r1, #0
 1567 0376 F5D1     		bne	.L120
 1568              	.LBE156:
 1569              	.LBE155:
 1570              		.loc 1 397 0
 1571 0378 039A     		ldr	r2, [sp, #12]
 1572 037a 1368     		ldr	r3, [r2]
 1573 037c 8BB9     		cbnz	r3, .L136
 1574              		.loc 1 400 0
 1575 037e 40F20000 		movw	r0, #:lower16:.LC10
 1576 0382 C0F20000 		movt	r0, #:upper16:.LC10
 1577 0386 FFF7FEFF 		bl	test_println
 1578              	.LVL185:
 1579              		.loc 1 402 0
 1580 038a 039B     		ldr	r3, [sp, #12]
ARM GAS  /tmp/ccZX8OJa.s 			page 29


 1581 038c 1868     		ldr	r0, [r3]
 1582              		.loc 1 403 0
 1583 038e 05B0     		add	sp, sp, #20
 1584              		@ sp needed
 1585 0390 BDE8F08F 		pop	{r4, r5, r6, r7, r8, r9, r10, fp, pc}
 1586              	.LVL186:
 1587              	.L96:
 1588              		.loc 1 389 0
 1589 0394 40F20000 		movw	r0, #:lower16:.LC8
 1590 0398 C0F20000 		movt	r0, #:upper16:.LC8
 1591 039c FFF7FEFF 		bl	test_println
 1592              	.LVL187:
 1593 03a0 17E7     		b	.L106
 1594              	.LVL188:
 1595              	.L136:
 1596              		.loc 1 398 0
 1597 03a2 40F20000 		movw	r0, #:lower16:.LC9
 1598 03a6 C0F20000 		movt	r0, #:upper16:.LC9
 1599 03aa FFF7FEFF 		bl	test_println
 1600              	.LVL189:
 1601              		.loc 1 402 0
 1602 03ae 039B     		ldr	r3, [sp, #12]
 1603 03b0 1868     		ldr	r0, [r3]
 1604              		.loc 1 403 0
 1605 03b2 05B0     		add	sp, sp, #20
 1606              		@ sp needed
 1607 03b4 BDE8F08F 		pop	{r4, r5, r6, r7, r8, r9, r10, fp, pc}
 1608              	.LVL190:
 1609              	.L138:
 1610              		.align	2
 1611              	.L137:
 1612 03b8 01000000 		.word	.LANCHOR6+1
 1613              		.cfi_endproc
 1614              	.LFE54:
 1615              		.size	TestThread, .-TestThread
 1616              		.global	test_timer_done
 1617              		.global	wa
 1618              		.global	threads
 1619              		.global	test
 1620 03bc AFF30080 		.section	.bss.test,"aw",%nobits
 1621              		.align	3
 1622              		.type	test, %object
 1623              		.size	test, 1520
 1624              	test:
 1625 0000 00000000 		.space	1520
 1625      00000000 
 1625      00000000 
 1625      00000000 
 1625      00000000 
 1626              		.section	.bss.failpoint,"aw",%nobits
 1627              		.align	2
 1628              		.set	.LANCHOR5,. + 0
 1629              		.type	failpoint, %object
 1630              		.size	failpoint, 4
 1631              	failpoint:
 1632 0000 00000000 		.space	4
 1633              		.section	.bss.local_fail,"aw",%nobits
ARM GAS  /tmp/ccZX8OJa.s 			page 30


 1634              		.align	2
 1635              		.set	.LANCHOR3,. + 0
 1636              		.type	local_fail, %object
 1637              		.size	local_fail, 4
 1638              	local_fail:
 1639 0000 00000000 		.space	4
 1640              		.section	.bss.test_timer_done,"aw",%nobits
 1641              		.align	2
 1642              		.set	.LANCHOR0,. + 0
 1643              		.type	test_timer_done, %object
 1644              		.size	test_timer_done, 4
 1645              	test_timer_done:
 1646 0000 00000000 		.space	4
 1647              		.section	.rodata.wa,"a",%progbits
 1648              		.align	2
 1649              		.type	wa, %object
 1650              		.size	wa, 20
 1651              	wa:
 1652 0000 00000000 		.word	test
 1653 0004 30010000 		.word	test+304
 1654 0008 60020000 		.word	test+608
 1655 000c 90030000 		.word	test+912
 1656 0010 C0040000 		.word	test+1216
 1657              		.section	.bss.tokp,"aw",%nobits
 1658              		.align	2
 1659              		.set	.LANCHOR2,. + 0
 1660              		.type	tokp, %object
 1661              		.size	tokp, 4
 1662              	tokp:
 1663 0000 00000000 		.space	4
 1664              		.section	.bss.global_fail,"aw",%nobits
 1665              		.align	2
 1666              		.set	.LANCHOR4,. + 0
 1667              		.type	global_fail, %object
 1668              		.size	global_fail, 4
 1669              	global_fail:
 1670 0000 00000000 		.space	4
 1671              		.section	.rodata.str1.4,"aMS",%progbits,1
 1672              		.align	2
 1673              	.LC0:
 1674 0000 00       		.ascii	"\000"
 1675 0001 000000   		.space	3
 1676              	.LC1:
 1677 0004 2A2A2A20 		.ascii	"*** ChibiOS/RT test suite\000"
 1677      43686962 
 1677      694F532F 
 1677      52542074 
 1677      65737420 
 1678 001e 0000     		.space	2
 1679              	.LC2:
 1680 0020 2A2A2A00 		.ascii	"***\000"
 1681              	.LC3:
 1682 0024 2A2A2A20 		.ascii	"*** Kernel:       \000"
 1682      4B65726E 
 1682      656C3A20 
 1682      20202020 
 1682      202000
ARM GAS  /tmp/ccZX8OJa.s 			page 31


 1683 0037 00       		.space	1
 1684              	.LC4:
 1685 0038 2D2D2D20 		.ascii	"--- Test Case \000"
 1685      54657374 
 1685      20436173 
 1685      652000
 1686 0047 00       		.space	1
 1687              	.LC5:
 1688 0048 2900     		.ascii	")\000"
 1689 004a 0000     		.space	2
 1690              	.LC6:
 1691 004c 2D2D2D20 		.ascii	"--- Result: FAILURE (#\000"
 1691      52657375 
 1691      6C743A20 
 1691      4641494C 
 1691      55524520 
 1692 0063 00       		.space	1
 1693              	.LC7:
 1694 0064 5D2900   		.ascii	"])\000"
 1695 0067 00       		.space	1
 1696              	.LC8:
 1697 0068 2D2D2D20 		.ascii	"--- Result: SUCCESS\000"
 1697      52657375 
 1697      6C743A20 
 1697      53554343 
 1697      45535300 
 1698              	.LC9:
 1699 007c 4641494C 		.ascii	"FAILURE\000"
 1699      55524500 
 1700              	.LC10:
 1701 0084 53554343 		.ascii	"SUCCESS\000"
 1701      45535300 
 1702              	.LC11:
 1703 008c 322E342E 		.ascii	"2.4.2\000"
 1703      3200
 1704 0092 0000     		.space	2
 1705              	.LC12:
 1706 0094 2A2A2A20 		.ascii	"*** Compiled:     \000"
 1706      436F6D70 
 1706      696C6564 
 1706      3A202020 
 1706      202000
 1707 00a7 00       		.space	1
 1708              	.LC13:
 1709 00a8 4A616E20 		.ascii	"Jan 22 2018 - 12:44:27\000"
 1709      32322032 
 1709      30313820 
 1709      2D203132 
 1709      3A34343A 
 1710 00bf 00       		.space	1
 1711              	.LC14:
 1712 00c0 2A2A2A20 		.ascii	"*** Compiler:     \000"
 1712      436F6D70 
 1712      696C6572 
 1712      3A202020 
 1712      202000
 1713 00d3 00       		.space	1
ARM GAS  /tmp/ccZX8OJa.s 			page 32


 1714              	.LC15:
 1715 00d4 47434320 		.ascii	"GCC 4.8.1\000"
 1715      342E382E 
 1715      3100
 1716 00de 0000     		.space	2
 1717              	.LC16:
 1718 00e0 2A2A2A20 		.ascii	"*** Architecture: \000"
 1718      41726368 
 1718      69746563 
 1718      74757265 
 1718      3A2000
 1719 00f3 00       		.space	1
 1720              	.LC17:
 1721 00f4 41524D76 		.ascii	"ARMv7-M\000"
 1721      372D4D00 
 1722              	.LC18:
 1723 00fc 2A2A2A20 		.ascii	"*** Core Variant: \000"
 1723      436F7265 
 1723      20566172 
 1723      69616E74 
 1723      3A2000
 1724 010f 00       		.space	1
 1725              	.LC19:
 1726 0110 436F7274 		.ascii	"Cortex-M3\000"
 1726      65782D4D 
 1726      3300
 1727 011a 0000     		.space	2
 1728              	.LC20:
 1729 011c 2A2A2A20 		.ascii	"*** Port Info:    \000"
 1729      506F7274 
 1729      20496E66 
 1729      6F3A2020 
 1729      202000
 1730 012f 00       		.space	1
 1731              	.LC21:
 1732 0130 41647661 		.ascii	"Advanced kernel mode\000"
 1732      6E636564 
 1732      206B6572 
 1732      6E656C20 
 1732      6D6F6465 
 1733 0145 000000   		.space	3
 1734              	.LC22:
 1735 0148 2A2A2A20 		.ascii	"*** Platform:     \000"
 1735      506C6174 
 1735      666F726D 
 1735      3A202020 
 1735      202000
 1736 015b 00       		.space	1
 1737              	.LC23:
 1738 015c 53414D33 		.ascii	"SAM3\000"
 1738      00
 1739 0161 000000   		.space	3
 1740              	.LC24:
 1741 0164 2A2A2A20 		.ascii	"*** Test Board:   \000"
 1741      54657374 
 1741      20426F61 
 1741      72643A20 
ARM GAS  /tmp/ccZX8OJa.s 			page 33


 1741      202000
 1742 0177 00       		.space	1
 1743              	.LC25:
 1744 0178 4D415452 		.ascii	"MATRIX Creator (SAM3S2C)\000"
 1744      49582043 
 1744      72656174 
 1744      6F722028 
 1744      53414D33 
 1745 0191 000000   		.space	3
 1746              	.LC26:
 1747 0194 202800   		.ascii	" (\000"
 1748 0197 00       		.space	1
 1749              	.LC27:
 1750 0198 205B00   		.ascii	" [\000"
 1751 019b 00       		.space	1
 1752              	.LC28:
 1753 019c 46696E61 		.ascii	"Final result: \000"
 1753      6C207265 
 1753      73756C74 
 1753      3A2000
 1754 01ab 00       		.section	.bss.vt,"aw",%nobits
 1755              		.align	2
 1756              		.set	.LANCHOR8,. + 0
 1757              		.type	vt, %object
 1758              		.size	vt, 20
 1759              	vt:
 1760 0000 00000000 		.space	20
 1760      00000000 
 1760      00000000 
 1760      00000000 
 1760      00000000 
 1761              		.section	.bss.threads,"aw",%nobits
 1762              		.align	2
 1763              		.set	.LANCHOR7,. + 0
 1764              		.type	threads, %object
 1765              		.size	threads, 20
 1766              	threads:
 1767 0000 00000000 		.space	20
 1767      00000000 
 1767      00000000 
 1767      00000000 
 1767      00000000 
 1768              		.section	.rodata.patterns,"a",%progbits
 1769              		.align	2
 1770              		.set	.LANCHOR9,. + 0
 1771              		.type	patterns, %object
 1772              		.size	patterns, 48
 1773              	patterns:
 1774 0000 00000000 		.word	patternthd
 1775 0004 00000000 		.word	patternsem
 1776 0008 00000000 		.word	patternmtx
 1777 000c 00000000 		.word	patternmsg
 1778 0010 00000000 		.word	patternmbox
 1779 0014 00000000 		.word	patternevt
 1780 0018 00000000 		.word	patternheap
 1781 001c 00000000 		.word	patternpools
 1782 0020 00000000 		.word	patterndyn
ARM GAS  /tmp/ccZX8OJa.s 			page 34


 1783 0024 00000000 		.word	patternqueues
 1784 0028 00000000 		.word	patternbmk
 1785 002c 00000000 		.word	0
 1786              		.section	.bss.chp,"aw",%nobits
 1787              		.align	2
 1788              		.set	.LANCHOR1,. + 0
 1789              		.type	chp, %object
 1790              		.size	chp, 4
 1791              	chp:
 1792 0000 00000000 		.space	4
 1793              		.section	.bss.tokens_buffer,"aw",%nobits
 1794              		.align	2
 1795              		.set	.LANCHOR6,. + 0
 1796              		.type	tokens_buffer, %object
 1797              		.size	tokens_buffer, 16
 1798              	tokens_buffer:
 1799 0000 00000000 		.space	16
 1799      00000000 
 1799      00000000 
 1799      00000000 
 1800              		.text
 1801              	.Letext0:
 1802              		.file 2 "/home/santi/arm-2013.11/lib/gcc/arm-none-eabi/4.8.1/include/stddef.h"
 1803              		.file 3 "/home/santi/arm-2013.11/arm-none-eabi/include/stdint.h"
 1804              		.file 4 "../third_party/ChibiOS/os/ports/GCC/ARMCMx/chtypes.h"
 1805              		.file 5 "../third_party/ChibiOS/os/kernel/include/chlists.h"
 1806              		.file 6 "../third_party/ChibiOS/os/kernel/include/chthreads.h"
 1807              		.file 7 "../third_party/ChibiOS/os/ports/GCC/ARMCMx/chcore_v7m.h"
 1808              		.file 8 "../third_party/ChibiOS/os/kernel/include/chvt.h"
 1809              		.file 9 "../third_party/ChibiOS/os/kernel/include/chschd.h"
 1810              		.file 10 "../third_party/ChibiOS/os/kernel/include/chmtx.h"
 1811              		.file 11 "../third_party/ChibiOS/os/kernel/include/chioch.h"
 1812              		.file 12 "../third_party/ChibiOS/test/test.h"
 1813              		.file 13 "../third_party/ChibiOS/os/hal/platforms/AT91SAM3S/core_cm3.h"
 1814              		.file 14 "../third_party/ChibiOS/test/testthd.h"
 1815              		.file 15 "../third_party/ChibiOS/test/testsem.h"
 1816              		.file 16 "../third_party/ChibiOS/test/testmtx.h"
 1817              		.file 17 "../third_party/ChibiOS/test/testmsg.h"
 1818              		.file 18 "../third_party/ChibiOS/test/testmbox.h"
 1819              		.file 19 "../third_party/ChibiOS/test/testevt.h"
 1820              		.file 20 "../third_party/ChibiOS/test/testheap.h"
 1821              		.file 21 "../third_party/ChibiOS/test/testpools.h"
 1822              		.file 22 "../third_party/ChibiOS/test/testdyn.h"
 1823              		.file 23 "../third_party/ChibiOS/test/testqueues.h"
 1824              		.file 24 "../third_party/ChibiOS/test/testbmk.h"