ARM GAS  /tmp/ccfbtQfO.s 			page 1


   1              		.syntax unified
   2              		.cpu cortex-m3
   3              		.fpu softvfp
   4              		.eabi_attribute 20, 1
   5              		.eabi_attribute 21, 1
   6              		.eabi_attribute 23, 3
   7              		.eabi_attribute 24, 1
   8              		.eabi_attribute 25, 1
   9              		.eabi_attribute 26, 1
  10              		.eabi_attribute 30, 2
  11              		.eabi_attribute 34, 1
  12              		.eabi_attribute 18, 4
  13              		.thumb
  14              		.file	"veml6070.cpp"
  15              		.text
  16              	.Ltext0:
  17              		.cfi_sections	.debug_frame
  18              		.section	.text._ZN7creator8VEML6070C2EPNS_3I2CE,"ax",%progbits
  19              		.align	2
  20              		.p2align 4,,15
  21              		.global	_ZN7creator8VEML6070C2EPNS_3I2CE
  22              		.thumb
  23              		.thumb_func
  24              		.type	_ZN7creator8VEML6070C2EPNS_3I2CE, %function
  25              	_ZN7creator8VEML6070C2EPNS_3I2CE:
  26              		.fnstart
  27              	.LFB37:
  28              		.file 1 "veml6070.cpp"
  29              		.loc 1 30 0
  30              		.cfi_startproc
  31              		@ args = 0, pretend = 0, frame = 0
  32              		@ frame_needed = 0, uses_anonymous_args = 0
  33              		@ link register save eliminated.
  34              	.LVL0:
  35              	.LBB2:
  36              		.loc 1 30 0
  37 0000 0022     		movs	r2, #0
  38 0002 0160     		str	r1, [r0]
  39 0004 0271     		strb	r2, [r0, #4]
  40              	.LBE2:
  41 0006 7047     		bx	lr
  42              		.cfi_endproc
  43              	.LFE37:
  44              		.cantunwind
  45              		.fnend
  46              		.size	_ZN7creator8VEML6070C2EPNS_3I2CE, .-_ZN7creator8VEML6070C2EPNS_3I2CE
  47              		.global	_ZN7creator8VEML6070C1EPNS_3I2CE
  48              		.thumb_set _ZN7creator8VEML6070C1EPNS_3I2CE,_ZN7creator8VEML6070C2EPNS_3I2CE
  49 0008 AFF30080 		.section	.text._ZN7creator8VEML60705BeginEv,"ax",%progbits
  49      AFF30080 
  50              		.align	2
  51              		.p2align 4,,15
  52              		.global	_ZN7creator8VEML60705BeginEv
  53              		.thumb
  54              		.thumb_func
  55              		.type	_ZN7creator8VEML60705BeginEv, %function
  56              	_ZN7creator8VEML60705BeginEv:
ARM GAS  /tmp/ccfbtQfO.s 			page 2


  57              		.fnstart
  58              	.LFB39:
  59              		.loc 1 32 0
  60              		.cfi_startproc
  61              		@ args = 0, pretend = 0, frame = 0
  62              		@ frame_needed = 0, uses_anonymous_args = 0
  63              	.LVL1:
  64 0000 08B5     		push	{r3, lr}
  65              		.save {r3, lr}
  66              		.cfi_def_cfa_offset 8
  67              		.cfi_offset 3, -8
  68              		.cfi_offset 14, -4
  69              		.loc 1 33 0
  70 0002 0279     		ldrb	r2, [r0, #4]	@ zero_extendqisi2
  71              		.loc 1 32 0
  72 0004 0346     		mov	r3, r0
  73              		.loc 1 35 0
  74 0006 02F0D102 		and	r2, r2, #209
  75 000a 42F00E02 		orr	r2, r2, #14
  76              		.loc 1 36 0
  77 000e 0068     		ldr	r0, [r0]
  78              	.LVL2:
  79 0010 3821     		movs	r1, #56
  80              		.loc 1 35 0
  81 0012 1A71     		strb	r2, [r3, #4]
  82              		.loc 1 36 0
  83 0014 FFF7FEFF 		bl	_ZN7creator3I2C9WriteByteEhh
  84              	.LVL3:
  85              		.loc 1 38 0
  86 0018 0120     		movs	r0, #1
  87 001a 08BD     		pop	{r3, pc}
  88              		.cfi_endproc
  89              	.LFE39:
  90              		.fnend
  91              		.size	_ZN7creator8VEML60705BeginEv, .-_ZN7creator8VEML60705BeginEv
  92              		.global	__aeabi_i2f
  93              		.global	__aeabi_fmul
  94 001c AFF30080 		.section	.text._ZN7creator8VEML60705GetUVEv,"ax",%progbits
  95              		.align	2
  96              		.p2align 4,,15
  97              		.global	_ZN7creator8VEML60705GetUVEv
  98              		.thumb
  99              		.thumb_func
 100              		.type	_ZN7creator8VEML60705GetUVEv, %function
 101              	_ZN7creator8VEML60705GetUVEv:
 102              		.fnstart
 103              	.LFB40:
 104              		.loc 1 40 0
 105              		.cfi_startproc
 106              		@ args = 0, pretend = 0, frame = 0
 107              		@ frame_needed = 0, uses_anonymous_args = 0
 108              	.LVL4:
 109 0000 38B5     		push	{r3, r4, r5, lr}
 110              		.save {r3, r4, r5, lr}
 111              		.cfi_def_cfa_offset 16
 112              		.cfi_offset 3, -16
 113              		.cfi_offset 4, -12
ARM GAS  /tmp/ccfbtQfO.s 			page 3


 114              		.cfi_offset 5, -8
 115              		.cfi_offset 14, -4
 116              	.LBB3:
 117              		.loc 1 47 0
 118 0002 3921     		movs	r1, #57
 119              	.LBE3:
 120              		.loc 1 40 0
 121 0004 0446     		mov	r4, r0
 122              	.LBB4:
 123              		.loc 1 47 0
 124 0006 0068     		ldr	r0, [r0]
 125              	.LVL5:
 126 0008 FFF7FEFF 		bl	_ZN7creator3I2C8ReadByteEh
 127              	.LVL6:
 128              		.loc 1 48 0
 129 000c 3821     		movs	r1, #56
 130              		.loc 1 47 0
 131 000e 0546     		mov	r5, r0
 132              		.loc 1 48 0
 133 0010 2068     		ldr	r0, [r4]
 134 0012 FFF7FEFF 		bl	_ZN7creator3I2C8ReadByteEh
 135              	.LVL7:
 136 0016 40EA0520 		orr	r0, r0, r5, lsl #8
 137 001a FFF7FEFF 		bl	__aeabi_i2f
 138              	.LVL8:
 139              		.loc 1 49 0
 140 001e 47F2EB61 		movw	r1, #30443
 141 0022 C3F6AF21 		movt	r1, 15023
 142 0026 FFF7FEFF 		bl	__aeabi_fmul
 143              	.LVL9:
 144              	.LBE4:
 145              		.loc 1 50 0
 146 002a 38BD     		pop	{r3, r4, r5, pc}
 147              		.cfi_endproc
 148              	.LFE40:
 149              		.fnend
 150              		.size	_ZN7creator8VEML60705GetUVEv, .-_ZN7creator8VEML60705GetUVEv
 151 002c AFF30080 		.text
 152              	.Letext0:
 153              		.file 2 "/home/santi/arm-2013.11/arm-none-eabi/include/stdint.h"
 154              		.file 3 "../third_party/ChibiOS/os/hal/platforms/AT91SAM3S/at91lib/SAM3S.h"
 155              		.file 4 "../third_party/ChibiOS/os/hal/platforms/AT91SAM3S/async.h"
 156              		.file 5 "../third_party/ChibiOS/os/hal/platforms/AT91SAM3S/atmel_twid.h"
 157              		.file 6 "././i2c.h"
 158              		.file 7 "./veml6070.h"
 159              		.file 8 "../third_party/ChibiOS/os/hal/platforms/AT91SAM3S/core_cm3.h"