ARM GAS  /tmp/ccqXrnid.s 			page 1


   1              		.syntax unified
   2              		.cpu cortex-m3
   3              		.fpu softvfp
   4              		.eabi_attribute 20, 1
   5              		.eabi_attribute 21, 1
   6              		.eabi_attribute 23, 3
   7              		.eabi_attribute 24, 1
   8              		.eabi_attribute 25, 1
   9              		.eabi_attribute 26, 1
  10              		.eabi_attribute 30, 2
  11              		.eabi_attribute 34, 1
  12              		.eabi_attribute 18, 4
  13              		.thumb
  14              		.file	"wdt.c"
  15              		.text
  16              	.Ltext0:
  17              		.cfi_sections	.debug_frame
  18              		.section	.text.WDT_Enable,"ax",%progbits
  19              		.align	2
  20              		.p2align 4,,15
  21              		.global	WDT_Enable
  22              		.thumb
  23              		.thumb_func
  24              		.type	WDT_Enable, %function
  25              	WDT_Enable:
  26              	.LFB36:
  27              		.file 1 "../third_party/ChibiOS/os/hal/platforms/AT91SAM3S/wdt.c"
  28              		.loc 1 92 0
  29              		.cfi_startproc
  30              		@ args = 0, pretend = 0, frame = 0
  31              		@ frame_needed = 0, uses_anonymous_args = 0
  32              		@ link register save eliminated.
  33              	.LVL0:
  34              		.loc 1 93 0
  35 0000 4160     		str	r1, [r0, #4]
  36 0002 7047     		bx	lr
  37              		.cfi_endproc
  38              	.LFE36:
  39              		.size	WDT_Enable, .-WDT_Enable
  40 0004 AFF30080 		.section	.text.WDT_Disable,"ax",%progbits
  40      AFF30080 
  40      AFF30080 
  41              		.align	2
  42              		.p2align 4,,15
  43              		.global	WDT_Disable
  44              		.thumb
  45              		.thumb_func
  46              		.type	WDT_Disable, %function
  47              	WDT_Disable:
  48              	.LFB37:
  49              		.loc 1 103 0
  50              		.cfi_startproc
  51              		@ args = 0, pretend = 0, frame = 0
  52              		@ frame_needed = 0, uses_anonymous_args = 0
  53              		@ link register save eliminated.
  54              	.LVL1:
  55              		.loc 1 104 0
ARM GAS  /tmp/ccqXrnid.s 			page 2


  56 0000 4FF40043 		mov	r3, #32768
  57 0004 4360     		str	r3, [r0, #4]
  58 0006 7047     		bx	lr
  59              		.cfi_endproc
  60              	.LFE37:
  61              		.size	WDT_Disable, .-WDT_Disable
  62 0008 AFF30080 		.section	.text.WDT_Restart,"ax",%progbits
  62      AFF30080 
  63              		.align	2
  64              		.p2align 4,,15
  65              		.global	WDT_Restart
  66              		.thumb
  67              		.thumb_func
  68              		.type	WDT_Restart, %function
  69              	WDT_Restart:
  70              	.LFB38:
  71              		.loc 1 111 0
  72              		.cfi_startproc
  73              		@ args = 0, pretend = 0, frame = 0
  74              		@ frame_needed = 0, uses_anonymous_args = 0
  75              		@ link register save eliminated.
  76              	.LVL2:
  77              		.loc 1 112 0
  78 0000 0123     		movs	r3, #1
  79 0002 CAF20053 		movt	r3, 42240
  80 0006 0360     		str	r3, [r0]
  81 0008 7047     		bx	lr
  82              		.cfi_endproc
  83              	.LFE38:
  84              		.size	WDT_Restart, .-WDT_Restart
  85 000a 00BFAFF3 		.section	.text.WDT_GetStatus,"ax",%progbits
  85      0080
  86              		.align	2
  87              		.p2align 4,,15
  88              		.global	WDT_GetStatus
  89              		.thumb
  90              		.thumb_func
  91              		.type	WDT_GetStatus, %function
  92              	WDT_GetStatus:
  93              	.LFB39:
  94              		.loc 1 119 0
  95              		.cfi_startproc
  96              		@ args = 0, pretend = 0, frame = 0
  97              		@ frame_needed = 0, uses_anonymous_args = 0
  98              		@ link register save eliminated.
  99              	.LVL3:
 100              		.loc 1 120 0
 101 0000 8068     		ldr	r0, [r0, #8]
 102              	.LVL4:
 103              		.loc 1 121 0
 104 0002 00F00300 		and	r0, r0, #3
 105 0006 7047     		bx	lr
 106              		.cfi_endproc
 107              	.LFE39:
 108              		.size	WDT_GetStatus, .-WDT_GetStatus
 109 0008 AFF30080 		.section	.text.WDT_GetPeriod,"ax",%progbits
 109      AFF30080 
ARM GAS  /tmp/ccqXrnid.s 			page 3


 110              		.align	2
 111              		.p2align 4,,15
 112              		.global	WDT_GetPeriod
 113              		.thumb
 114              		.thumb_func
 115              		.type	WDT_GetPeriod, %function
 116              	WDT_GetPeriod:
 117              	.LFB40:
 118              		.loc 1 129 0
 119              		.cfi_startproc
 120              		@ args = 0, pretend = 0, frame = 0
 121              		@ frame_needed = 0, uses_anonymous_args = 0
 122              		@ link register save eliminated.
 123              	.LVL5:
 124              		.loc 1 130 0
 125 0000 021F     		subs	r2, r0, #4
 126 0002 43F67C63 		movw	r3, #15996
 127 0006 9A42     		cmp	r2, r3
 128              		.loc 1 134 0
 129 0008 9FBF     		itttt	ls
 130 000a 44F6D353 		movwls	r3, #19923
 131 000e 0002     		lslls	r0, r0, #8
 132              	.LVL6:
 133 0010 C1F26203 		movtls	r3, 4194
 134 0014 A3FB0020 		umullls	r2, r0, r3, r0
 135              	.LVL7:
 136 0018 94BF     		ite	ls
 137 001a 8009     		lsrls	r0, r0, #6
 138              		.loc 1 132 0
 139 001c 0020     		movhi	r0, #0
 140              		.loc 1 135 0
 141 001e 7047     		bx	lr
 142              		.cfi_endproc
 143              	.LFE40:
 144              		.size	WDT_GetPeriod, .-WDT_GetPeriod
 145              		.text
 146              	.Letext0:
 147              		.file 2 "/home/santi/arm-2013.11/arm-none-eabi/include/stdint.h"
 148              		.file 3 "../third_party/ChibiOS/os/hal/platforms/AT91SAM3S/at91lib/SAM3S.h"
 149              		.file 4 "../third_party/ChibiOS/os/hal/platforms/AT91SAM3S/core_cm3.h"