ARM GAS  /tmp/ccqXrnid.s 			page 1


   1              		.syntax unified
   2              		.cpu cortex-m3
   3              		.fpu softvfp
   4              		.eabi_attribute 20, 1
   5              		.eabi_attribute 21, 1
   6              		.eabi_attribute 23, 3
   7              		.eabi_attribute 24, 1
   8              		.eabi_attribute 25, 1
   9              		.eabi_attribute 26, 1
  10              		.eabi_attribute 30, 2
  11              		.eabi_attribute 34, 1
  12              		.eabi_attribute 18, 4
  13              		.thumb
  14              		.file	"wdt.c"
  15              		.text
  16              	.Ltext0:
  17              		.cfi_sections	.debug_frame
  18              		.section	.text.WDT_Enable,"ax",%progbits
  19              		.align	2
  20              		.p2align 4,,15
  21              		.global	WDT_Enable
  22              		.thumb
  23              		.thumb_func
  24              		.type	WDT_Enable, %function
  25              	WDT_Enable:
  26              	.LFB36:
  27              		.file 1 "../third_party/ChibiOS/os/hal/platforms/AT91SAM3S/wdt.c"
  28              		.loc 1 92 0
  29              		.cfi_startproc
  30              		@ args = 0, pretend = 0, frame = 0
  31              		@ frame_needed = 0, uses_anonymous_args = 0
  32              		@ link register save eliminated.
  33              	.LVL0:
  34              		.loc 1 93 0
  35 0000 4160     		str	r1, [r0, #4]
  36 0002 7047     		bx	lr
  37              		.cfi_endproc
  38              	.LFE36:
  39              		.size	WDT_Enable, .-WDT_Enable
  40 0004 AFF30080 		.section	.text.WDT_Disable,"ax",%progbits
  40      AFF30080 
  40      AFF30080 
  41              		.align	2
  42              		.p2align 4,,15
  43              		.global	WDT_Disable
  44              		.thumb
  45              		.thumb_func
  46              		.type	WDT_Disable, %function
  47              	WDT_Disable:
  48              	.LFB37:
  49              		.loc 1 103 0
  50              		.cfi_startproc
  51              		@ args = 0, pretend = 0, frame = 0
  52              		@ frame_needed = 0, uses_anonymous_args = 0
  53              		@ link register save eliminated.
  54              	.LVL1:
  55              		.loc 1 104 0
ARM GAS  /tmp/ccqXrnid.s 			page 2


  56 0000 4FF40043 		mov	r3, #32768
  57 0004 4360     		str	r3, [r0, #4]
  58 0006 7047     		bx	lr
  59              		.cfi_endproc
  60              	.LFE37:
  61              		.size	WDT_Disable, .-WDT_Disable
  62 0008 AFF30080 		.section	.text.WDT_Restart,"ax",%progbits
  62      AFF30080 
  63              		.align	2
  64              		.p2align 4,,15
  65              		.global	WDT_Restart
  66              		.thumb
  67              		.thumb_func
  68              		.type	WDT_Restart, %function
  69              	WDT_Restart:
  70              	.LFB38:
  71              		.loc 1 111 0
  72              		.cfi_startproc
  73              		@ args = 0, pretend = 0, frame = 0
  74              		@ frame_needed = 0, uses_anonymous_args = 0
  75              		@ link register save eliminated.
  76              	.LVL2:
  77              		.loc 1 112 0
  78 0000 0123     		movs	r3, #1
  79 0002 CAF20053 		movt	r3, 42240
  80 0006 0360     		str	r3, [r0]
  81 0008 7047     		bx	lr
  82              		.cfi_endproc
  83              	.LFE38:
  84              		.size	WDT_Restart, .-WDT_Restart
  85 000a 00BFAFF3 		.section	.text.WDT_GetStatus,"ax",%progbits
  85      0080
  86              		.align	2
  87              		.p2align 4,,15
  88              		.global	WDT_GetStatus
  89              		.thumb
  90              		.thumb_func
  91              		.type	WDT_GetStatus, %function
  92              	WDT_GetStatus:
  93              	.LFB39:
  94              		.loc 1 119 0
  95              		.cfi_startproc
  96              		@ args = 0, pretend = 0, frame = 0
  97              		@ frame_needed = 0, uses_anonymous_args = 0
  98              		@ link register save eliminated.
  99              	.LVL3:
 100              		.loc 1 120 0
 101 0000 8068     		ldr	r0, [r0, #8]
 102              	.LVL4:
 103              		.loc 1 121 0
 104 0002 00F00300 		and	r0, r0, #3
 105 0006 7047     		bx	lr
 106              		.cfi_endproc
 107              	.LFE39:
 108              		.size	WDT_GetStatus, .-WDT_GetStatus
 109 0008 AFF30080 		.section	.text.WDT_GetPeriod,"ax",%progbits
 109      AFF30080 
ARM GAS  /tmp/ccqXrnid.s 			page 3


 110              		.align	2
 111              		.p2align 4,,15
 112              		.global	WDT_GetPeriod
 113              		.thumb
 114              		.thumb_func
 115              		.type	WDT_GetPeriod, %function
 116              	WDT_GetPeriod:
 117              	.LFB40:
 118              		.loc 1 129 0
 119              		.cfi_startproc
 120              		@ args = 0, pretend = 0, frame = 0
 121              		@ frame_needed = 0, uses_anonymous_args = 0
 122              		@ link register save eliminated.
 123              	.LVL5:
 124              		.loc 1 130 0
 125 0000 021F     		subs	r2, r0, #4
 126 0002 43F67C63 		movw	r3, #15996
 127 0006 9A42     		cmp	r2, r3
 128              		.loc 1 134 0
 129 0008 9FBF     		itttt	ls
 130 000a 44F6D353 		movwls	r3, #19923
 131 000e 0002     		lslls	r0, r0, #8
 132              	.LVL6:
 133 0010 C1F26203 		movtls	r3, 4194
 134 0014 A3FB0020 		umullls	r2, r0, r3, r0
 135              	.LVL7:
 136 0018 94BF     		ite	ls
 137 001a 8009     		lsrls	r0, r0, #6
 138              		.loc 1 132 0
 139 001c 0020     		movhi	r0, #0
 140              		.loc 1 135 0
 141 001e 7047     		bx	lr
 142              		.cfi_endproc
 143              	.LFE40:
 144              		.size	WDT_GetPeriod, .-WDT_GetPeriod
 145              		.text
 146              	.Letext0:
 147              		.file 2 "/home/santi/arm-2013.11/arm-none-eabi/include/stdint.h"
 148              		.file 3 "../third_party/ChibiOS/os/hal/platforms/AT91SAM3S/at91lib/SAM3S.h"
 149              		.file 4 "../third_party/ChibiOS/os/hal/platforms/AT91SAM3S/core_cm3.h"
 150              		.section	.debug_info,"",%progbits
 151              	.Ldebug_info0:
 152 0000 C8010000 		.4byte	0x1c8
 153 0004 0400     		.2byte	0x4
 154 0006 00000000 		.4byte	.Ldebug_abbrev0
 155 000a 04       		.byte	0x4
 156 000b 01       		.uleb128 0x1
 157 000c 25010000 		.4byte	.LASF26
 158 0010 01       		.byte	0x1
 159 0011 CA000000 		.4byte	.LASF27
 160 0015 07000000 		.4byte	.LASF28
 161 0019 00000000 		.4byte	.Ldebug_ranges0+0
 162 001d 00000000 		.4byte	0
 163 0021 00000000 		.4byte	.Ldebug_line0
 164 0025 02       		.uleb128 0x2
 165 0026 04       		.byte	0x4
 166 0027 05       		.byte	0x5
ARM GAS  /tmp/ccqXrnid.s 			page 4


 167 0028 696E7400 		.ascii	"int\000"
 168 002c 03       		.uleb128 0x3
 169 002d 04       		.byte	0x4
 170 002e 07       		.byte	0x7
 171 002f 13010000 		.4byte	.LASF0
 172 0033 03       		.uleb128 0x3
 173 0034 01       		.byte	0x1
 174 0035 06       		.byte	0x6
 175 0036 06020000 		.4byte	.LASF1
 176 003a 03       		.uleb128 0x3
 177 003b 01       		.byte	0x1
 178 003c 08       		.byte	0x8
 179 003d 7F000000 		.4byte	.LASF2
 180 0041 03       		.uleb128 0x3
 181 0042 02       		.byte	0x2
 182 0043 05       		.byte	0x5
 183 0044 EA010000 		.4byte	.LASF3
 184 0048 03       		.uleb128 0x3
 185 0049 02       		.byte	0x2
 186 004a 07       		.byte	0x7
 187 004b AA000000 		.4byte	.LASF4
 188 004f 03       		.uleb128 0x3
 189 0050 04       		.byte	0x4
 190 0051 05       		.byte	0x5
 191 0052 FD010000 		.4byte	.LASF5
 192 0056 04       		.uleb128 0x4
 193 0057 F4010000 		.4byte	.LASF11
 194 005b 02       		.byte	0x2
 195 005c 50       		.byte	0x50
 196 005d 61000000 		.4byte	0x61
 197 0061 03       		.uleb128 0x3
 198 0062 04       		.byte	0x4
 199 0063 07       		.byte	0x7
 200 0064 98000000 		.4byte	.LASF6
 201 0068 03       		.uleb128 0x3
 202 0069 08       		.byte	0x8
 203 006a 05       		.byte	0x5
 204 006b DC010000 		.4byte	.LASF7
 205 006f 03       		.uleb128 0x3
 206 0070 08       		.byte	0x8
 207 0071 07       		.byte	0x7
 208 0072 17020000 		.4byte	.LASF8
 209 0076 05       		.uleb128 0x5
 210 0077 56000000 		.4byte	0x56
 211 007b 03       		.uleb128 0x3
 212 007c 04       		.byte	0x4
 213 007d 07       		.byte	0x7
 214 007e D3010000 		.4byte	.LASF9
 215 0082 03       		.uleb128 0x3
 216 0083 01       		.byte	0x1
 217 0084 08       		.byte	0x8
 218 0085 20010000 		.4byte	.LASF10
 219 0089 04       		.uleb128 0x4
 220 008a 2E020000 		.4byte	.LASF12
 221 008e 03       		.byte	0x3
 222 008f 35       		.byte	0x35
 223 0090 94000000 		.4byte	0x94
ARM GAS  /tmp/ccqXrnid.s 			page 5


 224 0094 06       		.uleb128 0x6
 225 0095 76000000 		.4byte	0x76
 226 0099 04       		.uleb128 0x4
 227 009a 58000000 		.4byte	.LASF13
 228 009e 03       		.byte	0x3
 229 009f 39       		.byte	0x39
 230 00a0 76000000 		.4byte	0x76
 231 00a4 04       		.uleb128 0x4
 232 00a5 CD010000 		.4byte	.LASF14
 233 00a9 03       		.byte	0x3
 234 00aa 3A       		.byte	0x3a
 235 00ab 76000000 		.4byte	0x76
 236 00af 07       		.uleb128 0x7
 237 00b0 0C       		.byte	0xc
 238 00b1 03       		.byte	0x3
 239 00b2 7619     		.2byte	0x1976
 240 00b4 E0000000 		.4byte	0xe0
 241 00b8 08       		.uleb128 0x8
 242 00b9 00000000 		.4byte	.LASF15
 243 00bd 03       		.byte	0x3
 244 00be 7719     		.2byte	0x1977
 245 00c0 99000000 		.4byte	0x99
 246 00c4 00       		.byte	0
 247 00c5 08       		.uleb128 0x8
 248 00c6 78000000 		.4byte	.LASF16
 249 00ca 03       		.byte	0x3
 250 00cb 7819     		.2byte	0x1978
 251 00cd A4000000 		.4byte	0xa4
 252 00d1 04       		.byte	0x4
 253 00d2 08       		.uleb128 0x8
 254 00d3 51000000 		.4byte	.LASF17
 255 00d7 03       		.byte	0x3
 256 00d8 7919     		.2byte	0x1979
 257 00da 89000000 		.4byte	0x89
 258 00de 08       		.byte	0x8
 259 00df 00       		.byte	0
 260 00e0 09       		.uleb128 0x9
 261 00e1 57647400 		.ascii	"Wdt\000"
 262 00e5 03       		.byte	0x3
 263 00e6 7A19     		.2byte	0x197a
 264 00e8 AF000000 		.4byte	0xaf
 265 00ec 0A       		.uleb128 0xa
 266 00ed 8D000000 		.4byte	.LASF20
 267 00f1 01       		.byte	0x1
 268 00f2 5B       		.byte	0x5b
 269 00f3 00000000 		.4byte	.LFB36
 270 00f7 04000000 		.4byte	.LFE36-.LFB36
 271 00fb 01       		.uleb128 0x1
 272 00fc 9C       		.byte	0x9c
 273 00fd 1C010000 		.4byte	0x11c
 274 0101 0B       		.uleb128 0xb
 275 0102 12020000 		.4byte	.LASF18
 276 0106 01       		.byte	0x1
 277 0107 5B       		.byte	0x5b
 278 0108 1C010000 		.4byte	0x11c
 279 010c 01       		.uleb128 0x1
 280 010d 50       		.byte	0x50
ARM GAS  /tmp/ccqXrnid.s 			page 6


 281 010e 0B       		.uleb128 0xb
 282 010f 4A000000 		.4byte	.LASF19
 283 0113 01       		.byte	0x1
 284 0114 5B       		.byte	0x5b
 285 0115 56000000 		.4byte	0x56
 286 0119 01       		.uleb128 0x1
 287 011a 51       		.byte	0x51
 288 011b 00       		.byte	0
 289 011c 0C       		.uleb128 0xc
 290 011d 04       		.byte	0x4
 291 011e E0000000 		.4byte	0xe0
 292 0122 0A       		.uleb128 0xa
 293 0123 07010000 		.4byte	.LASF21
 294 0127 01       		.byte	0x1
 295 0128 66       		.byte	0x66
 296 0129 00000000 		.4byte	.LFB37
 297 012d 08000000 		.4byte	.LFE37-.LFB37
 298 0131 01       		.uleb128 0x1
 299 0132 9C       		.byte	0x9c
 300 0133 45010000 		.4byte	0x145
 301 0137 0B       		.uleb128 0xb
 302 0138 12020000 		.4byte	.LASF18
 303 013c 01       		.byte	0x1
 304 013d 66       		.byte	0x66
 305 013e 1C010000 		.4byte	0x11c
 306 0142 01       		.uleb128 0x1
 307 0143 50       		.byte	0x50
 308 0144 00       		.byte	0
 309 0145 0A       		.uleb128 0xa
 310 0146 5E000000 		.4byte	.LASF22
 311 014a 01       		.byte	0x1
 312 014b 6E       		.byte	0x6e
 313 014c 00000000 		.4byte	.LFB38
 314 0150 0A000000 		.4byte	.LFE38-.LFB38
 315 0154 01       		.uleb128 0x1
 316 0155 9C       		.byte	0x9c
 317 0156 68010000 		.4byte	0x168
 318 015a 0B       		.uleb128 0xb
 319 015b 12020000 		.4byte	.LASF18
 320 015f 01       		.byte	0x1
 321 0160 6E       		.byte	0x6e
 322 0161 1C010000 		.4byte	0x11c
 323 0165 01       		.uleb128 0x1
 324 0166 50       		.byte	0x50
 325 0167 00       		.byte	0
 326 0168 0D       		.uleb128 0xd
 327 0169 6A000000 		.4byte	.LASF23
 328 016d 01       		.byte	0x1
 329 016e 76       		.byte	0x76
 330 016f 56000000 		.4byte	0x56
 331 0173 00000000 		.4byte	.LFB39
 332 0177 08000000 		.4byte	.LFE39-.LFB39
 333 017b 01       		.uleb128 0x1
 334 017c 9C       		.byte	0x9c
 335 017d 91010000 		.4byte	0x191
 336 0181 0E       		.uleb128 0xe
 337 0182 12020000 		.4byte	.LASF18
ARM GAS  /tmp/ccqXrnid.s 			page 7


 338 0186 01       		.byte	0x1
 339 0187 76       		.byte	0x76
 340 0188 1C010000 		.4byte	0x11c
 341 018c 00000000 		.4byte	.LLST0
 342 0190 00       		.byte	0
 343 0191 0D       		.uleb128 0xd
 344 0192 3C000000 		.4byte	.LASF24
 345 0196 01       		.byte	0x1
 346 0197 80       		.byte	0x80
 347 0198 56000000 		.4byte	0x56
 348 019c 00000000 		.4byte	.LFB40
 349 01a0 20000000 		.4byte	.LFE40-.LFB40
 350 01a4 01       		.uleb128 0x1
 351 01a5 9C       		.byte	0x9c
 352 01a6 BA010000 		.4byte	0x1ba
 353 01aa 0E       		.uleb128 0xe
 354 01ab 02010000 		.4byte	.LASF25
 355 01af 01       		.byte	0x1
 356 01b0 80       		.byte	0x80
 357 01b1 56000000 		.4byte	0x56
 358 01b5 21000000 		.4byte	.LLST1
 359 01b9 00       		.byte	0
 360 01ba 0F       		.uleb128 0xf
 361 01bb BD000000 		.4byte	.LASF29
 362 01bf 04       		.byte	0x4
 363 01c0 CE06     		.2byte	0x6ce
 364 01c2 C6010000 		.4byte	0x1c6
 365 01c6 05       		.uleb128 0x5
 366 01c7 25000000 		.4byte	0x25
 367 01cb 00       		.byte	0
 368              		.section	.debug_abbrev,"",%progbits
 369              	.Ldebug_abbrev0:
 370 0000 01       		.uleb128 0x1
 371 0001 11       		.uleb128 0x11
 372 0002 01       		.byte	0x1
 373 0003 25       		.uleb128 0x25
 374 0004 0E       		.uleb128 0xe
 375 0005 13       		.uleb128 0x13
 376 0006 0B       		.uleb128 0xb
 377 0007 03       		.uleb128 0x3
 378 0008 0E       		.uleb128 0xe
 379 0009 1B       		.uleb128 0x1b
 380 000a 0E       		.uleb128 0xe
 381 000b 55       		.uleb128 0x55
 382 000c 17       		.uleb128 0x17
 383 000d 11       		.uleb128 0x11
 384 000e 01       		.uleb128 0x1
 385 000f 10       		.uleb128 0x10
 386 0010 17       		.uleb128 0x17
 387 0011 00       		.byte	0
 388 0012 00       		.byte	0
 389 0013 02       		.uleb128 0x2
 390 0014 24       		.uleb128 0x24
 391 0015 00       		.byte	0
 392 0016 0B       		.uleb128 0xb
 393 0017 0B       		.uleb128 0xb
 394 0018 3E       		.uleb128 0x3e
ARM GAS  /tmp/ccqXrnid.s 			page 8


 395 0019 0B       		.uleb128 0xb
 396 001a 03       		.uleb128 0x3
 397 001b 08       		.uleb128 0x8
 398 001c 00       		.byte	0
 399 001d 00       		.byte	0
 400 001e 03       		.uleb128 0x3
 401 001f 24       		.uleb128 0x24
 402 0020 00       		.byte	0
 403 0021 0B       		.uleb128 0xb
 404 0022 0B       		.uleb128 0xb
 405 0023 3E       		.uleb128 0x3e
 406 0024 0B       		.uleb128 0xb
 407 0025 03       		.uleb128 0x3
 408 0026 0E       		.uleb128 0xe
 409 0027 00       		.byte	0
 410 0028 00       		.byte	0
 411 0029 04       		.uleb128 0x4
 412 002a 16       		.uleb128 0x16
 413 002b 00       		.byte	0
 414 002c 03       		.uleb128 0x3
 415 002d 0E       		.uleb128 0xe
 416 002e 3A       		.uleb128 0x3a
 417 002f 0B       		.uleb128 0xb
 418 0030 3B       		.uleb128 0x3b
 419 0031 0B       		.uleb128 0xb
 420 0032 49       		.uleb128 0x49
 421 0033 13       		.uleb128 0x13
 422 0034 00       		.byte	0
 423 0035 00       		.byte	0
 424 0036 05       		.uleb128 0x5
 425 0037 35       		.uleb128 0x35
 426 0038 00       		.byte	0
 427 0039 49       		.uleb128 0x49
 428 003a 13       		.uleb128 0x13
 429 003b 00       		.byte	0
 430 003c 00       		.byte	0
 431 003d 06       		.uleb128 0x6
 432 003e 26       		.uleb128 0x26
 433 003f 00       		.byte	0
 434 0040 49       		.uleb128 0x49
 435 0041 13       		.uleb128 0x13
 436 0042 00       		.byte	0
 437 0043 00       		.byte	0
 438 0044 07       		.uleb128 0x7
 439 0045 13       		.uleb128 0x13
 440 0046 01       		.byte	0x1
 441 0047 0B       		.uleb128 0xb
 442 0048 0B       		.uleb128 0xb
 443 0049 3A       		.uleb128 0x3a
 444 004a 0B       		.uleb128 0xb
 445 004b 3B       		.uleb128 0x3b
 446 004c 05       		.uleb128 0x5
 447 004d 01       		.uleb128 0x1
 448 004e 13       		.uleb128 0x13
 449 004f 00       		.byte	0
 450 0050 00       		.byte	0
 451 0051 08       		.uleb128 0x8
ARM GAS  /tmp/ccqXrnid.s 			page 9


 452 0052 0D       		.uleb128 0xd
 453 0053 00       		.byte	0
 454 0054 03       		.uleb128 0x3
 455 0055 0E       		.uleb128 0xe
 456 0056 3A       		.uleb128 0x3a
 457 0057 0B       		.uleb128 0xb
 458 0058 3B       		.uleb128 0x3b
 459 0059 05       		.uleb128 0x5
 460 005a 49       		.uleb128 0x49
 461 005b 13       		.uleb128 0x13
 462 005c 38       		.uleb128 0x38
 463 005d 0B       		.uleb128 0xb
 464 005e 00       		.byte	0
 465 005f 00       		.byte	0
 466 0060 09       		.uleb128 0x9
 467 0061 16       		.uleb128 0x16
 468 0062 00       		.byte	0
 469 0063 03       		.uleb128 0x3
 470 0064 08       		.uleb128 0x8
 471 0065 3A       		.uleb128 0x3a
 472 0066 0B       		.uleb128 0xb
 473 0067 3B       		.uleb128 0x3b
 474 0068 05       		.uleb128 0x5
 475 0069 49       		.uleb128 0x49
 476 006a 13       		.uleb128 0x13
 477 006b 00       		.byte	0
 478 006c 00       		.byte	0
 479 006d 0A       		.uleb128 0xa
 480 006e 2E       		.uleb128 0x2e
 481 006f 01       		.byte	0x1
 482 0070 3F       		.uleb128 0x3f
 483 0071 19       		.uleb128 0x19
 484 0072 03       		.uleb128 0x3
 485 0073 0E       		.uleb128 0xe
 486 0074 3A       		.uleb128 0x3a
 487 0075 0B       		.uleb128 0xb
 488 0076 3B       		.uleb128 0x3b
 489 0077 0B       		.uleb128 0xb
 490 0078 27       		.uleb128 0x27
 491 0079 19       		.uleb128 0x19
 492 007a 11       		.uleb128 0x11
 493 007b 01       		.uleb128 0x1
 494 007c 12       		.uleb128 0x12
 495 007d 06       		.uleb128 0x6
 496 007e 40       		.uleb128 0x40
 497 007f 18       		.uleb128 0x18
 498 0080 9742     		.uleb128 0x2117
 499 0082 19       		.uleb128 0x19
 500 0083 01       		.uleb128 0x1
 501 0084 13       		.uleb128 0x13
 502 0085 00       		.byte	0
 503 0086 00       		.byte	0
 504 0087 0B       		.uleb128 0xb
 505 0088 05       		.uleb128 0x5
 506 0089 00       		.byte	0
 507 008a 03       		.uleb128 0x3
 508 008b 0E       		.uleb128 0xe
ARM GAS  /tmp/ccqXrnid.s 			page 10


 509 008c 3A       		.uleb128 0x3a
 510 008d 0B       		.uleb128 0xb
 511 008e 3B       		.uleb128 0x3b
 512 008f 0B       		.uleb128 0xb
 513 0090 49       		.uleb128 0x49
 514 0091 13       		.uleb128 0x13
 515 0092 02       		.uleb128 0x2
 516 0093 18       		.uleb128 0x18
 517 0094 00       		.byte	0
 518 0095 00       		.byte	0
 519 0096 0C       		.uleb128 0xc
 520 0097 0F       		.uleb128 0xf
 521 0098 00       		.byte	0
 522 0099 0B       		.uleb128 0xb
 523 009a 0B       		.uleb128 0xb
 524 009b 49       		.uleb128 0x49
 525 009c 13       		.uleb128 0x13
 526 009d 00       		.byte	0
 527 009e 00       		.byte	0
 528 009f 0D       		.uleb128 0xd
 529 00a0 2E       		.uleb128 0x2e
 530 00a1 01       		.byte	0x1
 531 00a2 3F       		.uleb128 0x3f
 532 00a3 19       		.uleb128 0x19
 533 00a4 03       		.uleb128 0x3
 534 00a5 0E       		.uleb128 0xe
 535 00a6 3A       		.uleb128 0x3a
 536 00a7 0B       		.uleb128 0xb
 537 00a8 3B       		.uleb128 0x3b
 538 00a9 0B       		.uleb128 0xb
 539 00aa 27       		.uleb128 0x27
 540 00ab 19       		.uleb128 0x19
 541 00ac 49       		.uleb128 0x49
 542 00ad 13       		.uleb128 0x13
 543 00ae 11       		.uleb128 0x11
 544 00af 01       		.uleb128 0x1
 545 00b0 12       		.uleb128 0x12
 546 00b1 06       		.uleb128 0x6
 547 00b2 40       		.uleb128 0x40
 548 00b3 18       		.uleb128 0x18
 549 00b4 9742     		.uleb128 0x2117
 550 00b6 19       		.uleb128 0x19
 551 00b7 01       		.uleb128 0x1
 552 00b8 13       		.uleb128 0x13
 553 00b9 00       		.byte	0
 554 00ba 00       		.byte	0
 555 00bb 0E       		.uleb128 0xe
 556 00bc 05       		.uleb128 0x5
 557 00bd 00       		.byte	0
 558 00be 03       		.uleb128 0x3
 559 00bf 0E       		.uleb128 0xe
 560 00c0 3A       		.uleb128 0x3a
 561 00c1 0B       		.uleb128 0xb
 562 00c2 3B       		.uleb128 0x3b
 563 00c3 0B       		.uleb128 0xb
 564 00c4 49       		.uleb128 0x49
 565 00c5 13       		.uleb128 0x13
ARM GAS  /tmp/ccqXrnid.s 			page 11


 566 00c6 02       		.uleb128 0x2
 567 00c7 17       		.uleb128 0x17
 568 00c8 00       		.byte	0
 569 00c9 00       		.byte	0
 570 00ca 0F       		.uleb128 0xf
 571 00cb 34       		.uleb128 0x34
 572 00cc 00       		.byte	0
 573 00cd 03       		.uleb128 0x3
 574 00ce 0E       		.uleb128 0xe
 575 00cf 3A       		.uleb128 0x3a
 576 00d0 0B       		.uleb128 0xb
 577 00d1 3B       		.uleb128 0x3b
 578 00d2 05       		.uleb128 0x5
 579 00d3 49       		.uleb128 0x49
 580 00d4 13       		.uleb128 0x13
 581 00d5 3F       		.uleb128 0x3f
 582 00d6 19       		.uleb128 0x19
 583 00d7 3C       		.uleb128 0x3c
 584 00d8 19       		.uleb128 0x19
 585 00d9 00       		.byte	0
 586 00da 00       		.byte	0
 587 00db 00       		.byte	0
 588              		.section	.debug_loc,"",%progbits
 589              	.Ldebug_loc0:
 590              	.LLST0:
 591 0000 00000000 		.4byte	.LVL3
 592 0004 02000000 		.4byte	.LVL4
 593 0008 0100     		.2byte	0x1
 594 000a 50       		.byte	0x50
 595 000b 02000000 		.4byte	.LVL4
 596 000f 08000000 		.4byte	.LFE39
 597 0013 0400     		.2byte	0x4
 598 0015 F3       		.byte	0xf3
 599 0016 01       		.uleb128 0x1
 600 0017 50       		.byte	0x50
 601 0018 9F       		.byte	0x9f
 602 0019 00000000 		.4byte	0
 603 001d 00000000 		.4byte	0
 604              	.LLST1:
 605 0021 00000000 		.4byte	.LVL5
 606 0025 10000000 		.4byte	.LVL6
 607 0029 0100     		.2byte	0x1
 608 002b 50       		.byte	0x50
 609 002c 10000000 		.4byte	.LVL6
 610 0030 18000000 		.4byte	.LVL7
 611 0034 0300     		.2byte	0x3
 612 0036 72       		.byte	0x72
 613 0037 04       		.sleb128 4
 614 0038 9F       		.byte	0x9f
 615 0039 18000000 		.4byte	.LVL7
 616 003d 20000000 		.4byte	.LFE40
 617 0041 0400     		.2byte	0x4
 618 0043 F3       		.byte	0xf3
 619 0044 01       		.uleb128 0x1
 620 0045 50       		.byte	0x50
 621 0046 9F       		.byte	0x9f
 622 0047 00000000 		.4byte	0
ARM GAS  /tmp/ccqXrnid.s 			page 12


 623 004b 00000000 		.4byte	0
 624              		.section	.debug_aranges,"",%progbits
 625 0000 3C000000 		.4byte	0x3c
 626 0004 0200     		.2byte	0x2
 627 0006 00000000 		.4byte	.Ldebug_info0
 628 000a 04       		.byte	0x4
 629 000b 00       		.byte	0
 630 000c 0000     		.2byte	0
 631 000e 0000     		.2byte	0
 632 0010 00000000 		.4byte	.LFB36
 633 0014 04000000 		.4byte	.LFE36-.LFB36
 634 0018 00000000 		.4byte	.LFB37
 635 001c 08000000 		.4byte	.LFE37-.LFB37
 636 0020 00000000 		.4byte	.LFB38
 637 0024 0A000000 		.4byte	.LFE38-.LFB38
 638 0028 00000000 		.4byte	.LFB39
 639 002c 08000000 		.4byte	.LFE39-.LFB39
 640 0030 00000000 		.4byte	.LFB40
 641 0034 20000000 		.4byte	.LFE40-.LFB40
 642 0038 00000000 		.4byte	0
 643 003c 00000000 		.4byte	0
 644              		.section	.debug_ranges,"",%progbits
 645              	.Ldebug_ranges0:
 646 0000 00000000 		.4byte	.LFB36
 647 0004 04000000 		.4byte	.LFE36
 648 0008 00000000 		.4byte	.LFB37
 649 000c 08000000 		.4byte	.LFE37
 650 0010 00000000 		.4byte	.LFB38
 651 0014 0A000000 		.4byte	.LFE38
 652 0018 00000000 		.4byte	.LFB39
 653 001c 08000000 		.4byte	.LFE39
 654 0020 00000000 		.4byte	.LFB40
 655 0024 20000000 		.4byte	.LFE40
 656 0028 00000000 		.4byte	0
 657 002c 00000000 		.4byte	0
 658              		.section	.debug_line,"",%progbits
 659              	.Ldebug_line0:
 660 0000 3A010000 		.section	.debug_str,"MS",%progbits,1
 660      0200DB00 
 660      00000201 
 660      FB0E0D00 
 660      01010101 
 661              	.LASF15:
 662 0000 5744545F 		.ascii	"WDT_CR\000"
 662      435200
 663              	.LASF28:
 664 0007 2F686F6D 		.ascii	"/home/santi/Documentos/ProyectoDron_2018/MCU/creato"
 664      652F7361 
 664      6E74692F 
 664      446F6375 
 664      6D656E74 
 665 003a 7200     		.ascii	"r\000"
 666              	.LASF24:
 667 003c 5744545F 		.ascii	"WDT_GetPeriod\000"
 667      47657450 
 667      6572696F 
 667      6400
ARM GAS  /tmp/ccqXrnid.s 			page 13


 668              	.LASF19:
 669 004a 64774D6F 		.ascii	"dwMode\000"
 669      646500
 670              	.LASF17:
 671 0051 5744545F 		.ascii	"WDT_SR\000"
 671      535200
 672              	.LASF13:
 673 0058 576F5265 		.ascii	"WoReg\000"
 673      6700
 674              	.LASF22:
 675 005e 5744545F 		.ascii	"WDT_Restart\000"
 675      52657374 
 675      61727400 
 676              	.LASF23:
 677 006a 5744545F 		.ascii	"WDT_GetStatus\000"
 677      47657453 
 677      74617475 
 677      7300
 678              	.LASF16:
 679 0078 5744545F 		.ascii	"WDT_MR\000"
 679      4D5200
 680              	.LASF2:
 681 007f 756E7369 		.ascii	"unsigned char\000"
 681      676E6564 
 681      20636861 
 681      7200
 682              	.LASF20:
 683 008d 5744545F 		.ascii	"WDT_Enable\000"
 683      456E6162 
 683      6C6500
 684              	.LASF6:
 685 0098 6C6F6E67 		.ascii	"long unsigned int\000"
 685      20756E73 
 685      69676E65 
 685      6420696E 
 685      7400
 686              	.LASF4:
 687 00aa 73686F72 		.ascii	"short unsigned int\000"
 687      7420756E 
 687      7369676E 
 687      65642069 
 687      6E7400
 688              	.LASF29:
 689 00bd 49544D5F 		.ascii	"ITM_RxBuffer\000"
 689      52784275 
 689      66666572 
 689      00
 690              	.LASF27:
 691 00ca 2E2E2F74 		.ascii	"../third_party/ChibiOS/os/hal/platforms/AT91SAM3S/w"
 691      68697264 
 691      5F706172 
 691      74792F43 
 691      68696269 
 692 00fd 64742E63 		.ascii	"dt.c\000"
 692      00
 693              	.LASF25:
 694 0102 64774D73 		.ascii	"dwMs\000"
ARM GAS  /tmp/ccqXrnid.s 			page 14


 694      00
 695              	.LASF21:
 696 0107 5744545F 		.ascii	"WDT_Disable\000"
 696      44697361 
 696      626C6500 
 697              	.LASF0:
 698 0113 756E7369 		.ascii	"unsigned int\000"
 698      676E6564 
 698      20696E74 
 698      00
 699              	.LASF10:
 700 0120 63686172 		.ascii	"char\000"
 700      00
 701              	.LASF26:
 702 0125 474E5520 		.ascii	"GNU C 4.8.1 -mcpu=cortex-m3 -mno-thumb-interwork -m"
 702      4320342E 
 702      382E3120 
 702      2D6D6370 
 702      753D636F 
 703 0158 7468756D 		.ascii	"thumb -ggdb -O2 -std=gnu99 -fomit-frame-pointer -fa"
 703      62202D67 
 703      67646220 
 703      2D4F3220 
 703      2D737464 
 704 018b 6C69676E 		.ascii	"lign-functions=16 -ffunction-sections -fdata-sectio"
 704      2D66756E 
 704      6374696F 
 704      6E733D31 
 704      36202D66 
 705 01be 6E73202D 		.ascii	"ns -fno-common\000"
 705      666E6F2D 
 705      636F6D6D 
 705      6F6E00
 706              	.LASF14:
 707 01cd 52775265 		.ascii	"RwReg\000"
 707      6700
 708              	.LASF9:
 709 01d3 73697A65 		.ascii	"sizetype\000"
 709      74797065 
 709      00
 710              	.LASF7:
 711 01dc 6C6F6E67 		.ascii	"long long int\000"
 711      206C6F6E 
 711      6720696E 
 711      7400
 712              	.LASF3:
 713 01ea 73686F72 		.ascii	"short int\000"
 713      7420696E 
 713      7400
 714              	.LASF11:
 715 01f4 75696E74 		.ascii	"uint32_t\000"
 715      33325F74 
 715      00
 716              	.LASF5:
 717 01fd 6C6F6E67 		.ascii	"long int\000"
 717      20696E74 
 717      00
ARM GAS  /tmp/ccqXrnid.s 			page 15


 718              	.LASF1:
 719 0206 7369676E 		.ascii	"signed char\000"
 719      65642063 
 719      68617200 
 720              	.LASF18:
 721 0212 70574454 		.ascii	"pWDT\000"
 721      00
 722              	.LASF8:
 723 0217 6C6F6E67 		.ascii	"long long unsigned int\000"
 723      206C6F6E 
 723      6720756E 
 723      7369676E 
 723      65642069 
 724              	.LASF12:
 725 022e 526F5265 		.ascii	"RoReg\000"
 725      6700
 726              		.ident	"GCC: (Sourcery CodeBench Lite 2013.11-24) 4.8.1"
ARM GAS  /tmp/ccqXrnid.s 			page 16


DEFINED SYMBOLS
                            *ABS*:00000000 wdt.c
     /tmp/ccqXrnid.s:19     .text.WDT_Enable:00000000 $t
     /tmp/ccqXrnid.s:25     .text.WDT_Enable:00000000 WDT_Enable
     /tmp/ccqXrnid.s:41     .text.WDT_Disable:00000000 $t
     /tmp/ccqXrnid.s:47     .text.WDT_Disable:00000000 WDT_Disable
     /tmp/ccqXrnid.s:63     .text.WDT_Restart:00000000 $t
     /tmp/ccqXrnid.s:69     .text.WDT_Restart:00000000 WDT_Restart
     /tmp/ccqXrnid.s:86     .text.WDT_GetStatus:00000000 $t
     /tmp/ccqXrnid.s:92     .text.WDT_GetStatus:00000000 WDT_GetStatus
     /tmp/ccqXrnid.s:110    .text.WDT_GetPeriod:00000000 $t
     /tmp/ccqXrnid.s:116    .text.WDT_GetPeriod:00000000 WDT_GetPeriod
                     .debug_frame:00000010 $d

NO UNDEFINED SYMBOLS
